 dc_motor_encoder_hardware_simulated_slrt

 Timestamp is 5ad11c53 (Fri Apr 13 17:08:35 2018)

 Preferred load address is 10000000

 Start         Length     Name                   Class
 0001:00000000 00063f38H .text$mn                CODE
 0002:00000000 00000104H .CRT$XCA                DATA
 0002:00000104 00000104H .CRT$XCZ                DATA
 0002:00000208 00000104H .CRT$XIA                DATA
 0002:0000030c 00000110H .CRT$XIC                DATA
 0002:0000041c 00000104H .CRT$XIZ                DATA
 0002:00000520 00000104H .CRT$XPA                DATA
 0002:00000624 0000010cH .CRT$XPX                DATA
 0002:00000730 00000104H .CRT$XPXA               DATA
 0002:00000834 00000104H .CRT$XPZ                DATA
 0002:00000938 00000104H .CRT$XTA                DATA
 0002:00000a3c 00000104H .CRT$XTZ                DATA
 0002:00000b40 0000e528H .rdata                  DATA
 0002:0000f068 00000398H .rdata$r                DATA
 0002:0000f400 00000110H .rdata$sxdata           DATA
 0002:0000f510 000001dcH .rdata$zzzdbg           DATA
 0002:0000f6ec 00000104H .rtc$IAA                DATA
 0002:0000f7f0 00000104H .rtc$IZZ                DATA
 0002:0000f8f4 00000104H .rtc$TAA                DATA
 0002:0000f9f8 00000108H .rtc$TZZ                DATA
 0002:0000fb00 00000ac0H .xdata$x                DATA
 0002:000105c0 00000202H .edata                  DATA
 0003:00000000 00001520H .data                   DATA
 0003:00001520 000001e0H .data$r                 DATA
 0003:00001700 00014968H .bss                    DATA
 0004:00000000 000001d4H .idata$5                DATA
 0004:000001d4 00000014H .idata$2                DATA
 0004:000001e8 00000014H .idata$3                DATA
 0004:000001fc 000001d4H .idata$4                DATA
 0004:000003d0 00000843H .idata$6                DATA
 0005:00000000 00000224H .gfids$x                DATA
 0005:00000224 000001a5H .gfids$y                DATA
 0006:00000000 00000104H .00cfg                  DATA

  Address         Publics by Value              Rva+Base       Lib:Object

 0000:00000000       ___guard_fids_count        00000000     <absolute>
 0000:00000000       ___guard_longjmp_count     00000000     <absolute>
 0000:00000000       ___dynamic_value_reloc_table 00000000     <absolute>
 0000:00000000       ___guard_fids_table        00000000     <absolute>
 0000:00000000       ___guard_iat_count         00000000     <absolute>
 0000:00000000       __except_list              00000000     <absolute>
 0000:00000000       ___guard_iat_table         00000000     <absolute>
 0000:00000000       ___guard_longjmp_table     00000000     <absolute>
 0000:00000003       ___safe_se_handler_count   00000003     <absolute>
 0000:00000100       ___guard_flags             00000100     <absolute>
 0000:00000000       ___ImageBase               10000000     <linker-defined>
 0001:00005f20       _MdlInitialize             10006f20 f   dc_motor_encoder_hardware_simulated.obj
 0001:00005f30       _MdlInitializeSampleTimes  10006f30 f   dc_motor_encoder_hardware_simulated.obj
 0001:00005f40       _MdlInitializeSizes        10006f40 f   dc_motor_encoder_hardware_simulated.obj
 0001:00005f50       _MdlOutputs                10006f50 f   dc_motor_encoder_hardware_simulated.obj
 0001:00005f60       _MdlStart                  10006f60 f   dc_motor_encoder_hardware_simulated.obj
 0001:00005f70       _MdlTerminate              10006f70 f   dc_motor_encoder_hardware_simulated.obj
 0001:00005fc0       _MdlUpdate                 10006fc0 f   dc_motor_encoder_hardware_simulated.obj
 0001:00005fd0       ___local_stdio_printf_options 10006fd0 f i dc_motor_encoder_hardware_simulated.obj
 0001:00005fe0       __vfprintf_l               10006fe0 f i dc_motor_encoder_hardware_simulated.obj
 0001:00006010       _dc_motor_encoder_hardware_simulated 10007010 f   dc_motor_encoder_hardware_simulated.obj
 0001:00006e40       _dc_motor_encoder_hardware_simulated_derivatives 10007e40 f   dc_motor_encoder_hardware_simulated.obj
 0001:00006e90       _dc_motor_encoder_hardware_simulated_initialize 10007e90 f   dc_motor_encoder_hardware_simulated.obj
 0001:00007b00       _dc_motor_encoder_hardware_simulated_output 10008b00 f   dc_motor_encoder_hardware_simulated.obj
 0001:000080e0       _dc_motor_encoder_hardware_simulated_terminate 100090e0 f   dc_motor_encoder_hardware_simulated.obj
 0001:00008130       _dc_motor_encoder_hardware_simulated_update 10009130 f   dc_motor_encoder_hardware_simulated.obj
 0001:00008280       _printf                    10009280 f i dc_motor_encoder_hardware_simulated.obj
 0001:000082c0       _rt_ODECreateIntegrationData 100092c0 f   dc_motor_encoder_hardware_simulated.obj
 0001:000082d0       _rt_ODEDestroyIntegrationData 100092d0 f   dc_motor_encoder_hardware_simulated.obj
 0001:000082e0       _rt_ODEUpdateContinuousStates 100092e0 f   dc_motor_encoder_hardware_simulated.obj
 0001:00008700       _rt_mxCreateCharMatrixFromStrings 10009700 f   rt_matrx.obj
 0001:00008860       _rt_mxCreateDoubleMatrix   10009860 f   rt_matrx.obj
 0001:000088c0       _rt_mxCreateNumericArray   100098c0 f   rt_matrx.obj
 0001:00008940       _rt_mxCreateString         10009940 f   rt_matrx.obj
 0001:000089d0       _rt_mxDuplicateArray       100099d0 f   rt_matrx.obj
 0001:00008a30       _rt_mxGetDimensions        10009a30 f   rt_matrx.obj
 0001:00008a70       _rt_mxGetEps               10009a70 f   rt_matrx.obj
 0001:00008a80       _rt_mxGetString            10009a80 f   rt_matrx.obj
 0001:00008b00       _rtPrintfNoOp              10009b00 f   rt_printf.obj
 0001:00008b10       _dc_motor_encoder_hardware_simulated_GetCAPIStaticMap 10009b10 f   dc_motor_encoder_hardware_simulated_capi.obj
 0001:00008b20       _dc_motor_encoder_hardware_simulated_InitializeDataMapInfo 10009b20 f   dc_motor_encoder_hardware_simulated_capi.obj
 0001:00008bb0       _rtGetInf                  10009bb0 f   rtGetInf.obj
 0001:00008be0       _rtGetInfF                 10009be0 f   rtGetInf.obj
 0001:00008c00       _rtGetMinusInf             10009c00 f   rtGetInf.obj
 0001:00008c30       _rtGetMinusInfF            10009c30 f   rtGetInf.obj
 0001:00008c50       _rtGetNaN                  10009c50 f   rtGetNaN.obj
 0001:00008c80       _rtGetNaNF                 10009c80 f   rtGetNaN.obj
 0001:00008ca0       _rtIsInf                   10009ca0 f   rt_nonfinite.obj
 0001:00008ce0       _rtIsInfF                  10009ce0 f   rt_nonfinite.obj
 0001:00008d20       _rtIsNaN                   10009d20 f   rt_nonfinite.obj
 0001:00008d40       _rtIsNaNF                  10009d40 f   rt_nonfinite.obj
 0001:00008d60       _rt_InitInfAndNaN          10009d60 f   rt_nonfinite.obj
 0001:00008dc0       _rt_CleanUpForStateLogWithMMI 10009dc0 f   rt_logging_mmi.obj
 0001:00008ed0       _rt_FillStateSigInfoFromMMI 10009ed0 f   rt_logging_mmi.obj
 0001:00009270       _rtwCAPI_CountSysRan       1000a270 f   rtw_modelmap_utils.obj
 0001:00009310       _rtwCAPI_EncodePath        1000a310 f   rtw_modelmap_utils.obj
 0001:00009410       _rtwCAPI_FillSysRan        1000a410 f   rtw_modelmap_utils.obj
 0001:00009500       _rtwCAPI_FreeFullPaths     1000a500 f   rtw_modelmap_utils.obj
 0001:00009590       _rtwCAPI_GetFullStateBlockPath 1000a590 f   rtw_modelmap_utils.obj
 0001:00009740       _rtwCAPI_GetNumContStateRecords 1000a740 f   rtw_modelmap_utils.obj
 0001:00009800       _rtwCAPI_GetNumSigLogRecords 1000a800 f   rtw_modelmap_utils.obj
 0001:00009850       _rtwCAPI_GetNumSigLogRecordsForRTWLogging 1000a850 f   rtw_modelmap_utils.obj
 0001:000098f0       _rtwCAPI_GetNumStateRecords 1000a8f0 f   rtw_modelmap_utils.obj
 0001:00009940       _rtwCAPI_GetNumStateRecordsForRTWLogging 1000a940 f   rtw_modelmap_utils.obj
 0001:000099e0       _rtwCAPI_GetSigAddrFromMap 1000a9e0 f   rtw_modelmap_utils.obj
 0001:00009aa0       _rtwCAPI_GetSigLogRecordInfo 1000aaa0 f   rtw_modelmap_utils.obj
 0001:00009ed0       _rtwCAPI_GetStateRecordInfo 1000aed0 f   rtw_modelmap_utils.obj
 0001:0000a380       _rtwCAPI_GetStateWidth     1000b380 f   rtw_modelmap_utils.obj
 0001:0000a3e0       _rtwCAPI_HasStates         1000b3e0 f   rtw_modelmap_utils.obj
 0001:0000a450       _rtwCAPI_UpdateFullPaths   1000b450 f   rtw_modelmap_utils.obj
 0001:0000a630       __vsnprintf_l              1000b630 f i rt_logging.obj
 0001:0000a670       __vsprintf_l               1000b670 f i rt_logging.obj
 0001:0000a6b0       _fprintf                   1000b6b0 f i rt_logging.obj
 0001:0000afc0       _rt_CreateLogVar           1000bfc0 f   rt_logging.obj
 0001:0000b050       _rt_CreateLogVarWithConvert 1000c050 f   rt_logging.obj
 0001:0000b9d0       _rt_CreateStructLogVar     1000c9d0 f   rt_logging.obj
 0001:0000c730       _rt_GetMxIdFromDTypeId     1000d730 f   rt_logging.obj
 0001:0000c760       _rt_GetMxIdFromDTypeIdForRSim 1000d760 f   rt_logging.obj
 0001:0000f030       _rt_StartDataLogging       10010030 f   rt_logging.obj
 0001:0000f4f0       _rt_StartDataLoggingWithStartTime 100104f0 f   rt_logging.obj
 0001:0000fe50       _rt_StopDataLogging        10010e50 f   rt_logging.obj
 0001:0000fe70       _rt_StopDataLoggingImpl    10010e70 f   rt_logging.obj
 0001:000101a0       _rt_UpdateLogVar           100111a0 f   rt_logging.obj
 0001:000112c0       _rt_UpdateStructLogVar     100122c0 f   rt_logging.obj
 0001:00011350       _rt_UpdateTXXFYLogVars     10012350 f   rt_logging.obj
 0001:00011680       _rt_UpdateTXYLogVars       10012680 f   rt_logging.obj
 0001:000118d0       _sprintf                   100128d0 f i rt_logging.obj
 0001:00011910       _DllMain@12                10012910 f   xpctarget.obj
 0001:00011920       _SLRTSetErrorStatus        10012920 f   xpctarget.obj
 0001:00011940       _changeStepSize            10012940 f   xpctarget.obj
 0001:000119b0       _dc_motor_encoder_hardware_simulated_ChangeStepSize 100129b0 f   xpctarget.obj
 0001:00011a20       _getDLMVersion             10012a20 f   xpctarget.obj
 0001:00011a30       _getRefMdlPath             10012a30 f   xpctarget.obj
 0001:00011ab0       _getRefMdlSignalNumber     10012ab0 f   xpctarget.obj
 0001:00011b60       _getrlmdlinfo              10012b60 f   xpctarget.obj
 0001:00011d40       _updateDiscreteEvents      10012d40 f   xpctarget.obj
 0001:00011d50       _getNumRef                 10012d50 f   appmappingData.obj
 0001:00011d60       _vprintf                   10012d60 f i legacy_stdio.obj
 0001:00011da0       _adquanserq8               10012da0 f   adquanserq8.obj
 0001:000124c0       _daquanserq8               100134c0 f   daquanserq8.obj
 0001:00012e30       _encquanserq8              10013e30 f   encquanserq8.obj
 0001:00013970       _GetPCIDeviceFull          10014970 f   xpcruntime:xpcimports.obj
 0001:000139b0       _ShowPCIDevice             100149b0 f   xpcruntime:xpcimports.obj
 0001:00014170       _xpcGetPciConfigAtSlot     10015170 f   xpcruntime:xpcimports.obj
 0001:00014480       _xpcInitProcs              10015480 f   xpcruntime:xpcimports.obj
 0001:000157e0       _xpceuploadevent           100167e0 f   xpcruntime:xpcimports.obj
 0001:000157f0       __ftoui3                   100167f0 f   LIBCMT:_ftol3_.obj
 0001:000157ff       __ftoul3                   100167ff f   LIBCMT:_ftol3_.obj
 0001:0001580e       __ftol3                    1001680e f   LIBCMT:_ftol3_.obj
 0001:0001581b       __ftol3_NaN                1001681b f   LIBCMT:_ftol3_.obj
 0001:00015833       __ftol3_work               10016833 f   LIBCMT:_ftol3_.obj
 0001:000158b9       __ftol3_common             100168b9 f   LIBCMT:_ftol3_.obj
 0001:0001597b       __ftol3_arg_error          1001697b f   LIBCMT:_ftol3_.obj
 0001:0001598d       __ftol3_except             1001698d f   LIBCMT:_ftol3_.obj
 0001:000159d1       __dtoui3                   100169d1 f   LIBCMT:_ftol3_.obj
 0001:000159e0       __dtoul3                   100169e0 f   LIBCMT:_ftol3_.obj
 0001:000159ef       __dtol3                    100169ef f   LIBCMT:_ftol3_.obj
 0001:000159fc       __dtol3_NaN                100169fc f   LIBCMT:_ftol3_.obj
 0001:00015a19       __dtol3_work               10016a19 f   LIBCMT:_ftol3_.obj
 0001:00015b00       __ultod3                   10016b00 f   LIBCMT:_ftol3_.obj
 0001:00015b40       __ltod3                    10016b40 f   LIBCMT:_ftol3_.obj
 0001:00015c44       ___raise_securityfailure   10016c44 f   LIBCMT:gs_report.obj
 0001:00015c76       ___report_gsfailure        10016c76 f   LIBCMT:gs_report.obj
 0001:00015daf       ___report_rangecheckfailure 10016daf f   LIBCMT:gs_report.obj
 0001:00015dbe       ___report_securityfailure  10016dbe f   LIBCMT:gs_report.obj
 0001:00015ec2       ___report_securityfailureEx 10016ec2 f   LIBCMT:gs_report.obj
 0001:0001601d       @__security_check_cookie@4 1001701d f   LIBCMT:_secchk_.obj
 0001:00016032       ___isa_available_init      10017032 f   LIBCMT:_cpu_disp_.obj
 0001:000165fa       __CRT_INIT@12              100175fa f   LIBCMT:dll_dllmain.obj
 0001:00016605       __DllMainCRTStartup@12     10017605 f   LIBCMT:dll_dllmain.obj
 0001:00016630       ??$__crt_fast_decode_pointer@PAP6AXXZ@@YAPAP6AXXZQAP6AXXZ@Z 10017630 f i LIBCMT:utility.obj
 0001:00016649       ??$__crt_fast_encode_pointer@PAP6AXXZ@@YAPAP6AXXZQAP6AXXZ@Z 10017649 f i LIBCMT:utility.obj
 0001:0001666d       ?__crt_rotate_pointer_value@@YAIIH@Z 1001766d f i LIBCMT:utility.obj
 0001:0001667d       ?configure_argv@__scrt_narrow_argv_policy@@SAHXZ 1001767d f i LIBCMT:utility.obj
 0001:00016721       _NtCurrentTeb              10017721 f i LIBCMT:utility.obj
 0001:00016728       ___scrt_acquire_startup_lock 10017728 f   LIBCMT:utility.obj
 0001:0001676a       ___scrt_dllmain_after_initialize_c 1001776a f   LIBCMT:utility.obj
 0001:0001679f       ___scrt_dllmain_before_initialize_c 1001779f f   LIBCMT:utility.obj
 0001:000167b0       ___scrt_dllmain_crt_thread_attach 100177b0 f   LIBCMT:utility.obj
 0001:000167d6       ___scrt_dllmain_crt_thread_detach 100177d6 f   LIBCMT:utility.obj
 0001:000167e6       ___scrt_dllmain_exception_filter 100177e6 f   LIBCMT:utility.obj
 0001:00016825       ___scrt_dllmain_uninitialize_c 10017825 f   LIBCMT:utility.obj
 0001:00016850       ___scrt_dllmain_uninitialize_critical 10017850 f   LIBCMT:utility.obj
 0001:00016860       ___scrt_initialize_crt     10017860 f   LIBCMT:utility.obj
 0001:000168a7       ___scrt_initialize_onexit_tables 100178a7 f   LIBCMT:utility.obj
 0001:00016963       ___scrt_is_nonwritable_in_current_image 10017963 f   LIBCMT:utility.obj
 0001:00016a0f       ___scrt_release_startup_lock 10017a0f f   LIBCMT:utility.obj
 0001:00016a33       ___scrt_uninitialize_crt   10017a33 f   LIBCMT:utility.obj
 0001:00016a65       __onexit                   10017a65 f   LIBCMT:utility.obj
 0001:00016aae       _at_quick_exit             10017aae f   LIBCMT:utility.obj
 0001:00016aeb       _atexit                    10017aeb f   LIBCMT:utility.obj
 0001:00016b05       ___security_init_cookie    10017b05 f   LIBCMT:gs_support.obj
 0001:00016bc8       ?__scrt_initialize_type_info@@YAXXZ 10017bc8 f   LIBCMT:tncleanup.obj
 0001:00016bd7       ?__scrt_uninitialize_type_info@@YAXXZ 10017bd7 f   LIBCMT:tncleanup.obj
 0001:00016be6       ___local_stdio_scanf_options 10017be6 f i LIBCMT:default_local_stdio_options.obj
 0001:00016bec       ___scrt_initialize_default_local_stdio_options 10017bec f   LIBCMT:default_local_stdio_options.obj
 0001:00016c10       ___scrt_get_dyn_tls_init_callback 10017c10 f   LIBCMT:dyn_tls_init.obj
 0001:00016c16       ___scrt_fastfail           10017c16 f   LIBCMT:utility_desktop.obj
 0001:00016d77       ___scrt_get_show_window_mode 10017d77 f   LIBCMT:utility_desktop.obj
 0001:00016db6       ___scrt_initialize_winrt   10017db6 f   LIBCMT:utility_desktop.obj
 0001:00016db9       ___scrt_is_managed_app     10017db9 f   LIBCMT:utility_desktop.obj
 0001:00016e0e       ___scrt_set_unhandled_exception_filter 10017e0e f   LIBCMT:utility_desktop.obj
 0001:00016e1d       ___scrt_unhandled_exception_filter@4 10017e1d f   LIBCMT:utility_desktop.obj
 0001:00016e6e       __crt_debugger_hook        10017e6e f   LIBCMT:utility_desktop.obj
 0001:00016e78       __RTC_Initialize           10017e78 f   LIBCMT:_initsect_.obj
 0001:00016ead       __RTC_Terminate            10017ead f   LIBCMT:_initsect_.obj
 0001:00016ee2       @_guard_check_icall@4      10017ee2 f i LIBCMT:checkcfg.obj
 0001:00016ef0       __SEH_prolog4              10017ef0 f   LIBCMT:_sehprolg4_.obj
 0001:00016f36       __SEH_epilog4              10017f36 f   LIBCMT:_sehprolg4_.obj
 0001:00016f61       __get_startup_argv_mode    10017f61 f   LIBCMT:argv_mode.obj
 0001:00016f65       ___scrt_is_ucrt_dll_in_use 10017f65 f   LIBCMT:ucrt_detection.obj
 0001:00016f74       @_guard_check_icall_nop@4  10017f74 f i LIBCMT:guard_support.obj
 0001:00016f75       __guard_icall_checks_enforced 10017f75 f i LIBCMT:guard_support.obj
 0001:00016f8c       _GetModuleHandleA@4        10017f8c f   kernel32:KERNEL32.dll
 0001:00016f92       _GetProcAddress@8          10017f92 f   kernel32:KERNEL32.dll
 0001:00016f98       _UnhandledExceptionFilter@4 10017f98 f   kernel32:KERNEL32.dll
 0001:00016f9e       _SetUnhandledExceptionFilter@4 10017f9e f   kernel32:KERNEL32.dll
 0001:00016fa4       _GetCurrentProcess@0       10017fa4 f   kernel32:KERNEL32.dll
 0001:00016faa       _TerminateProcess@8        10017faa f   kernel32:KERNEL32.dll
 0001:00016fb0       _IsProcessorFeaturePresent@4 10017fb0 f   kernel32:KERNEL32.dll
 0001:00016fb6       _QueryPerformanceCounter@4 10017fb6 f   kernel32:KERNEL32.dll
 0001:00016fbc       _GetCurrentProcessId@0     10017fbc f   kernel32:KERNEL32.dll
 0001:00016fc2       _GetCurrentThreadId@0      10017fc2 f   kernel32:KERNEL32.dll
 0001:00016fc8       _GetSystemTimeAsFileTime@4 10017fc8 f   kernel32:KERNEL32.dll
 0001:00016fce       _InitializeSListHead@4     10017fce f   kernel32:KERNEL32.dll
 0001:00016fd4       _IsDebuggerPresent@0       10017fd4 f   kernel32:KERNEL32.dll
 0001:00016fda       _GetStartupInfoW@4         10017fda f   kernel32:KERNEL32.dll
 0001:00016fe0       _GetModuleHandleW@4        10017fe0 f   kernel32:KERNEL32.dll
 0001:00016ff0       _memcpy                    10017ff0 f   libvcruntime:memcpy.obj
 0001:000176d0       _memset                    100186d0 f   libvcruntime:memset.obj
 0001:00017880       _memmove                   10018880 f   libvcruntime:memmove.obj
 0001:00017f60       _strchr                    10018f60 f   libvcruntime:strchr.obj
 0001:00017fce       ___from_strstr_to_strchr   10018fce     libvcruntime:strchr.obj
 0001:00018120       __except_handler4          10019120 f   libvcruntime:_chandler4_.obj
 0001:000182df       ___vcrt_initialize         100192df f   libvcruntime:initialization.obj
 0001:00018312       ___vcrt_thread_attach      10019312 f   libvcruntime:initialization.obj
 0001:0001831f       ___vcrt_thread_detach      1001931f f   libvcruntime:initialization.obj
 0001:0001832c       ___vcrt_uninitialize       1001932c f   libvcruntime:initialization.obj
 0001:00018352       ___vcrt_uninitialize_critical 10019352 f   libvcruntime:initialization.obj
 0001:0001836d       ??$?RD@__crt_internal_free_policy@@QBEXQBD@Z 1001936d f i libvcruntime:std_type_info.obj
 0001:00018381       ??$?RX@__crt_internal_free_policy@@QBEXQBX@Z 10019381 f i libvcruntime:std_type_info.obj
 0001:00018395       ??$__crt_interlocked_compare_exchange_pointer@$$CBD$$T$$T@@YAPBDPDSBD$$T1@Z 10019395 f i libvcruntime:std_type_info.obj
 0001:000183ab       ??$__crt_interlocked_compare_exchange_pointer@$$CBDPAD$$T@@YAPBDPDSBDQAD$$T@Z 100193ab f i libvcruntime:std_type_info.obj
 0001:000183c1       ??$__crt_interlocked_read_pointer@$$CBD@@YAPBDPDSBD@Z 100193c1 f i libvcruntime:std_type_info.obj
 0001:000183d5       ??0?$__crt_unique_heap_ptr@DU__crt_internal_free_policy@@@@QAE@QAD@Z 100193d5 f i libvcruntime:std_type_info.obj
 0001:000183e6       ??0?$__crt_unique_heap_ptr@XU__crt_internal_free_policy@@@@QAE@QAX@Z 100193e6 f i libvcruntime:std_type_info.obj
 0001:000183f7       ??1?$__crt_unique_heap_ptr@DU__crt_internal_free_policy@@@@QAE@XZ 100193f7 f i libvcruntime:std_type_info.obj
 0001:0001840b       ??1?$__crt_unique_heap_ptr@XU__crt_internal_free_policy@@@@QAE@XZ 1001940b f i libvcruntime:std_type_info.obj
 0001:0001842b       ??B?$__crt_unique_heap_ptr@DU__crt_internal_free_policy@@@@QBE_NXZ 1001942b f i libvcruntime:std_type_info.obj
 0001:00018432       ??B?$__crt_unique_heap_ptr@XU__crt_internal_free_policy@@@@QBE_NXZ 10019432 f i libvcruntime:std_type_info.obj
 0001:00018461       ?detach@?$__crt_unique_heap_ptr@XU__crt_internal_free_policy@@@@QAEPAXXZ 10019461 f i libvcruntime:std_type_info.obj
 0001:00018467       ?get@?$__crt_unique_heap_ptr@DU__crt_internal_free_policy@@@@QBEPADXZ 10019467 f i libvcruntime:std_type_info.obj
 0001:0001846a       ?get@?$__crt_unique_heap_ptr@XU__crt_internal_free_policy@@@@QBEPAXXZ 1001946a f i libvcruntime:std_type_info.obj
 0001:0001846d       ?is_valid@?$__crt_unique_heap_ptr@DU__crt_internal_free_policy@@@@QBE_NXZ 1001946d f i libvcruntime:std_type_info.obj
 0001:00018474       ?is_valid@?$__crt_unique_heap_ptr@XU__crt_internal_free_policy@@@@QBE_NXZ 10019474 f i libvcruntime:std_type_info.obj
 0001:0001847b       ?release@?$__crt_unique_heap_ptr@DU__crt_internal_free_policy@@@@QAEXXZ 1001947b f i libvcruntime:std_type_info.obj
 0001:0001848f       ?release@?$__crt_unique_heap_ptr@XU__crt_internal_free_policy@@@@QAEXXZ 1001948f f i libvcruntime:std_type_info.obj
 0001:000184a3       ___std_type_info_compare   100194a3 f   libvcruntime:std_type_info.obj
 0001:000184ee       ___std_type_info_destroy_list 100194ee f   libvcruntime:std_type_info.obj
 0001:00018519       ___std_type_info_hash      10019519 f   libvcruntime:std_type_info.obj
 0001:00018548       ___std_type_info_name      10019548 f   libvcruntime:std_type_info.obj
 0001:00018650       __local_unwind4            10019650 f   libvcruntime:_exsup4_.obj
 0001:00018726       __seh_longjmp_unwind4@4    10019726 f   libvcruntime:_exsup4_.obj
 0001:0001874e       @_EH4_CallFilterFunc@8     1001974e f   libvcruntime:_exsup4_.obj
 0001:00018765       @_EH4_TransferToHandler@8  10019765 f   libvcruntime:_exsup4_.obj
 0001:0001877e       @_EH4_GlobalUnwind2@8      1001977e f   libvcruntime:_exsup4_.obj
 0001:00018797       @_EH4_LocalUnwind@16       10019797 f   libvcruntime:_exsup4_.obj
 0001:00018805       ___except_validate_context_record 10019805 f   libvcruntime:jbcxrval.obj
 0001:00018806       ___except_validate_jump_buffer 10019806 f   libvcruntime:jbcxrval.obj
 0001:00018807       ??$?RU__vcrt_ptd@@@__crt_internal_free_policy@@QBEXQBU__vcrt_ptd@@@Z 10019807 f i libvcruntime:per_thread_data.obj
 0001:0001881b       ??0?$__crt_unique_heap_ptr@U__vcrt_ptd@@U__crt_internal_free_policy@@@@QAE@QAU__vcrt_ptd@@@Z 1001981b f i libvcruntime:per_thread_data.obj
 0001:0001883e       ??1?$__crt_unique_heap_ptr@U__vcrt_ptd@@U__crt_internal_free_policy@@@@QAE@XZ 1001983e f i libvcruntime:per_thread_data.obj
 0001:0001885d       ??B?$__crt_unique_heap_ptr@U__vcrt_ptd@@U__crt_internal_free_policy@@@@QBE_NXZ 1001985d f i libvcruntime:per_thread_data.obj
 0001:00018864       ?detach@?$__crt_unique_heap_ptr@U__vcrt_ptd@@U__crt_internal_free_policy@@@@QAEPAU__vcrt_ptd@@XZ 10019864 f i libvcruntime:per_thread_data.obj
 0001:0001886a       ?get@?$__crt_unique_heap_ptr@U__vcrt_ptd@@U__crt_internal_free_policy@@@@QBEPAU__vcrt_ptd@@XZ 1001986a f i libvcruntime:per_thread_data.obj
 0001:0001886d       ?is_valid@?$__crt_unique_heap_ptr@U__vcrt_ptd@@U__crt_internal_free_policy@@@@QBE_NXZ 1001986d f i libvcruntime:per_thread_data.obj
 0001:00018874       ?release@?$__crt_unique_heap_ptr@U__vcrt_ptd@@U__crt_internal_free_policy@@@@QAEXXZ 10019874 f i libvcruntime:per_thread_data.obj
 0001:000188a8       ___vcrt_freefls@4          100198a8 f   libvcruntime:per_thread_data.obj
 0001:000188cb       ___vcrt_freeptd            100198cb f   libvcruntime:per_thread_data.obj
 0001:0001890e       ___vcrt_getptd             1001990e f   libvcruntime:per_thread_data.obj
 0001:0001891f       ___vcrt_getptd_noexit      1001991f f   libvcruntime:per_thread_data.obj
 0001:000189d5       ___vcrt_initialize_ptd     100199d5 f   libvcruntime:per_thread_data.obj
 0001:00018a14       ___vcrt_uninitialize_ptd   10019a14 f   libvcruntime:per_thread_data.obj
 0001:00018a35       ___vcrt_initialize_locks   10019a35 f   libvcruntime:locks.obj
 0001:00018a80       ___vcrt_lock               10019a80 f   libvcruntime:locks.obj
 0001:00018a9a       ___vcrt_uninitialize_locks 10019a9a f   libvcruntime:locks.obj
 0001:00018ad4       ___vcrt_unlock             10019ad4 f   libvcruntime:locks.obj
 0001:00018aee       ??$?BX@__crt_fast_encoded_nullptr_t@@QBEPAXXZ 10019aee f i libvcruntime:winapi_downlevel.obj
 0001:00018b0c       ??$__crt_fast_decode_pointer@PAX@@YAPAXQAX@Z 10019b0c f i libvcruntime:winapi_downlevel.obj
 0001:00018b25       ??$__crt_fast_encode_pointer@PAX@@YAPAXQAX@Z 10019b25 f i libvcruntime:winapi_downlevel.obj
 0001:00018b49       ??$__crt_interlocked_compare_exchange_pointer@UHINSTANCE__@@$$T$$T@@YAPAUHINSTANCE__@@PDSAU0@$$T1@Z 10019b49 f i libvcruntime:winapi_downlevel.obj
 0001:00018b5f       ??$__crt_interlocked_compare_exchange_pointer@X$$T$$T@@YAPAXPDSAX$$T1@Z 10019b5f f i libvcruntime:winapi_downlevel.obj
 0001:00018b75       ??$__crt_interlocked_exchange_pointer@UHINSTANCE__@@PAU1@@@YAPAUHINSTANCE__@@PDSAU0@QAU0@@Z 10019b75 f i libvcruntime:winapi_downlevel.obj
 0001:00018b85       ??$__crt_interlocked_exchange_pointer@UHINSTANCE__@@PAX@@YAPAUHINSTANCE__@@PDSAU0@QAX@Z 10019b85 f i libvcruntime:winapi_downlevel.obj
 0001:00018b95       ??$__crt_interlocked_exchange_pointer@XPAX@@YAPAXPDSAXQAX@Z 10019b95 f i libvcruntime:winapi_downlevel.obj
 0001:00018ba5       ??$__crt_interlocked_read_pointer@UHINSTANCE__@@@@YAPAUHINSTANCE__@@PDSAU0@@Z 10019ba5 f i libvcruntime:winapi_downlevel.obj
 0001:00018bb9       ??$__crt_interlocked_read_pointer@X@@YAPAXPDSAX@Z 10019bb9 f i libvcruntime:winapi_downlevel.obj
 0001:00018bcd       ?__crt_fast_encode_pointer@@YA?AU__crt_fast_encoded_nullptr_t@@$$T@Z 10019bcd f i libvcruntime:winapi_downlevel.obj
 0001:00018f11       ___vcrt_EventRegister      10019f11 f   libvcruntime:winapi_downlevel.obj
 0001:00018f61       ___vcrt_EventSetInformation 10019f61 f   libvcruntime:winapi_downlevel.obj
 0001:00018fb4       ___vcrt_EventUnregister    10019fb4 f   libvcruntime:winapi_downlevel.obj
 0001:00018ffc       ___vcrt_EventWriteTransfer 10019ffc f   libvcruntime:winapi_downlevel.obj
 0001:00019057       ___vcrt_FlsAlloc           1001a057 f   libvcruntime:winapi_downlevel.obj
 0001:0001909f       ___vcrt_FlsFree            1001a09f f   libvcruntime:winapi_downlevel.obj
 0001:000190e7       ___vcrt_FlsGetValue        1001a0e7 f   libvcruntime:winapi_downlevel.obj
 0001:0001912f       ___vcrt_FlsSetValue        1001a12f f   libvcruntime:winapi_downlevel.obj
 0001:0001917b       ___vcrt_InitializeCriticalSectionEx 1001a17b f   libvcruntime:winapi_downlevel.obj
 0001:000191d2       ___vcrt_initialize_winapi_thunks 1001a1d2 f   libvcruntime:winapi_downlevel.obj
 0001:0001921a       ___vcrt_uninitialize_winapi_thunks 1001a21a f   libvcruntime:winapi_downlevel.obj
 0001:00019258       ??$?B$$A6AXXZ@__crt_fast_encoded_nullptr_t@@QBEP6AXXZXZ 1001a258 f i libvcruntime:purevirt_data.obj
 0001:00019276       ??$__crt_fast_encode_pointer@P6AXXZ@@YAP6AXXZQ6AXXZ@Z 1001a276 f i libvcruntime:purevirt_data.obj
 0001:0001929a       ___vcrt_initialize_pure_virtual_call_handler 1001a29a f   libvcruntime:purevirt_data.obj
 0001:000192be       ??$__vcrt_va_start_verify_argument_type@QBD@@YAXXZ 1001a2be f i libvcruntime:undname.obj
 0001:000192bf       ??0Block@_HeapManager@@QAE@XZ 1001a2bf f i libvcruntime:undname.obj
 0001:000192c5       ??0DName@@QAE@AAPBDD@Z     1001a2c5 f   libvcruntime:undname.obj
 0001:000193ac       ??0DName@@QAE@ABV0@@Z      1001a3ac f i libvcruntime:undname.obj
 0001:000193c7       ??0DName@@QAE@D@Z          1001a3c7 f   libvcruntime:undname.obj
 0001:000193fe       ??0DName@@QAE@PAV0@@Z      1001a3fe f   libvcruntime:undname.obj
 0001:0001945e       ??0DName@@QAE@PBD@Z        1001a45e f   libvcruntime:undname.obj
 0001:000194a6       ??0DName@@QAE@W4DNameStatus@@@Z 1001a4a6 f   libvcruntime:undname.obj
 0001:000194f9       ??0DName@@QAE@XZ           1001a4f9 f i libvcruntime:undname.obj
 0001:0001950e       ??0DName@@QAE@_J@Z         1001a50e f   libvcruntime:undname.obj
 0001:000195c8       ??0DName@@QAE@_K@Z         1001a5c8 f   libvcruntime:undname.obj
 0001:00019652       ??0DNameNode@@IAE@XZ       1001a652 f   libvcruntime:undname.obj
 0001:0001965d       ??0DNameStatusNode@@AAE@W4DNameStatus@@@Z 1001a65d f   libvcruntime:undname.obj
 0001:00019688       ??0Replicator@@QAE@XZ      1001a688 f i libvcruntime:undname.obj
 0001:0001968e       ??0UnDecorator@@QAE@PADPBDHP6APADJ@ZK@Z 1001a68e f i libvcruntime:undname.obj
 0001:00019711       ??0charNode@@QAE@D@Z       1001a711 f   libvcruntime:undname.obj
 0001:0001972b       ??0pDNameNode@@QAE@PAVDName@@@Z 1001a72b f   libvcruntime:undname.obj
 0001:0001975d       ??0pairNode@@QAE@PAVDNameNode@@0@Z 1001a75d f   libvcruntime:undname.obj
 0001:00019783       ??0pcharNode@@QAE@PBDH@Z   1001a783 f   libvcruntime:undname.obj
 0001:000197f2       ??2@YAPAXIAAV_HeapManager@@H@Z 1001a7f2 f i libvcruntime:undname.obj
 0001:0001980c       ??4DName@@QAEAAV0@ABV0@@Z  1001a80c f   libvcruntime:undname.obj
 0001:00019827       ??4DName@@QAEAAV0@D@Z      1001a827 f i libvcruntime:undname.obj
 0001:0001985e       ??4DName@@QAEAAV0@PAV0@@Z  1001a85e f   libvcruntime:undname.obj
 0001:000198b9       ??4DName@@QAEAAV0@PBD@Z    1001a8b9 f   libvcruntime:undname.obj
 0001:000198f7       ??4DName@@QAEAAV0@W4DNameStatus@@@Z 1001a8f7 f   libvcruntime:undname.obj
 0001:00019939       ??AReplicator@@QBE?AVDName@@H@Z 1001a939 f   libvcruntime:undname.obj
 0001:00019984       ??BUnDecorator@@QAEPADXZ   1001a984 f i libvcruntime:undname.obj
 0001:00019b5b       ??H@YA?AVDName@@DABV0@@Z   1001ab5b f i libvcruntime:undname.obj
 0001:00019b88       ??H@YA?AVDName@@PBDABV0@@Z 1001ab88 f i libvcruntime:undname.obj
 0001:00019bb5       ??H@YA?AVDName@@W4DNameStatus@@ABV0@@Z 1001abb5 f i libvcruntime:undname.obj
 0001:00019be2       ??HDName@@QBE?AV0@ABV0@@Z  1001abe2 f   libvcruntime:undname.obj
 0001:00019c0c       ??HDName@@QBE?AV0@D@Z      1001ac0c f   libvcruntime:undname.obj
 0001:00019c36       ??HDName@@QBE?AV0@PAV0@@Z  1001ac36 f   libvcruntime:undname.obj
 0001:00019c60       ??HDName@@QBE?AV0@PBD@Z    1001ac60 f   libvcruntime:undname.obj
 0001:00019c8a       ??HDName@@QBE?AV0@W4DNameStatus@@@Z 1001ac8a f   libvcruntime:undname.obj
 0001:00019cb4       ??YDName@@QAEAAV0@ABV0@@Z  1001acb4 f   libvcruntime:undname.obj
 0001:00019d07       ??YDName@@QAEAAV0@D@Z      1001ad07 f   libvcruntime:undname.obj
 0001:00019d6b       ??YDName@@QAEAAV0@PAV0@@Z  1001ad6b f   libvcruntime:undname.obj
 0001:00019de9       ??YDName@@QAEAAV0@PBD@Z    1001ade9 f   libvcruntime:undname.obj
 0001:00019e62       ??YDName@@QAEAAV0@W4DNameStatus@@@Z 1001ae62 f   libvcruntime:undname.obj
 0001:00019eb2       ??YReplicator@@QAEAAV0@ABVDName@@@Z 1001aeb2 f   libvcruntime:undname.obj
 0001:00019f0e       ??_5DName@@QAEAAV0@ABV0@@Z 1001af0e f   libvcruntime:undname.obj
 0001:00019f31       ?Constructor@_HeapManager@@QAEXP6APAXI@ZP6AXPAX@Z@Z 1001af31 f i libvcruntime:undname.obj
 0001:00019f55       ?Destructor@_HeapManager@@QAEXXZ 1001af55 f i libvcruntime:undname.obj
 0001:00019f9c       ?UScore@UnDecorator@@SAPBDW4Tokens@@@Z 1001af9c f   libvcruntime:undname.obj
 0001:00019fc0       ?append@DName@@AAEXPAVDNameNode@@@Z 1001afc0 f   libvcruntime:undname.obj
 0001:0001a017       ?composeDeclaration@UnDecorator@@CA?AVDName@@ABV2@@Z 1001b017 f i libvcruntime:undname.obj
 0001:0001b052       ?doAccessSpecifiers@UnDecorator@@SAHXZ 1001c052 f i libvcruntime:undname.obj
 0001:0001b063       ?doAllocationLanguage@UnDecorator@@SAHXZ 1001c063 f i libvcruntime:undname.obj
 0001:0001b074       ?doAllocationModel@UnDecorator@@SAHXZ 1001c074 f i libvcruntime:undname.obj
 0001:0001b085       ?doEcsu@UnDecorator@@SAHXZ 1001c085 f i libvcruntime:undname.obj
 0001:0001b096       ?doEllipsis@UnDecorator@@SAHXZ 1001c096 f i libvcruntime:undname.obj
 0001:0001b0a7       ?doFunctionReturns@UnDecorator@@SAHXZ 1001c0a7 f i libvcruntime:undname.obj
 0001:0001b0b8       ?doMSKeywords@UnDecorator@@SAHXZ 1001c0b8 f i libvcruntime:undname.obj
 0001:0001b0c8       ?doMemberTypes@UnDecorator@@SAHXZ 1001c0c8 f i libvcruntime:undname.obj
 0001:0001b0d9       ?doNameOnly@UnDecorator@@SAHXZ 1001c0d9 f i libvcruntime:undname.obj
 0001:0001b0e6       ?doNoIdentCharCheck@UnDecorator@@SAHXZ 1001c0e6 f i libvcruntime:undname.obj
 0001:0001b0f3       ?doPchar@DName@@AAEXPBDH@Z 1001c0f3 f   libvcruntime:undname.obj
 0001:0001b19f       ?doPtr64@UnDecorator@@SAHXZ 1001c19f f i libvcruntime:undname.obj
 0001:0001b1b0       ?doRestrictionSpec@UnDecorator@@SAHXZ 1001c1b0 f i libvcruntime:undname.obj
 0001:0001b1c1       ?doThisTypes@UnDecorator@@SAHXZ 1001c1c1 f i libvcruntime:undname.obj
 0001:0001b1d7       ?doThrowTypes@UnDecorator@@SAHXZ 1001c1d7 f i libvcruntime:undname.obj
 0001:0001b1e8       ?doTypeOnly@UnDecorator@@SAHXZ 1001c1e8 f i libvcruntime:undname.obj
 0001:0001b1f5       ?doUnderScore@UnDecorator@@SAHXZ 1001c1f5 f i libvcruntime:undname.obj
 0001:0001b202       ?getArgumentList@UnDecorator@@CA?AVDName@@XZ 1001c202 f   libvcruntime:undname.obj
 0001:0001b351       ?getArgumentTypes@UnDecorator@@CA?AVDName@@XZ 1001c351 f   libvcruntime:undname.obj
 0001:0001b469       ?getArrayType@UnDecorator@@CA?AVDName@@ABV2@@Z 1001c469 f i libvcruntime:undname.obj
 0001:0001b6eb       ?getBasedType@UnDecorator@@CA?AVDName@@XZ 1001c6eb f   libvcruntime:undname.obj
 0001:0001b7aa       ?getBasicDataType@UnDecorator@@CA?AVDName@@ABV2@@Z 1001c7aa f   libvcruntime:undname.obj
 0001:0001bc94       ?getCallIndex@UnDecorator@@CA?AVDName@@XZ 1001cc94 f i libvcruntime:undname.obj
 0001:0001bcad       ?getCallingConvention@UnDecorator@@CA?AVDName@@XZ 1001ccad f   libvcruntime:undname.obj
 0001:0001bd9b       ?getDataIndirectType@UnDecorator@@CA?AVDName@@ABV2@PBD0H@Z 1001cd9b f   libvcruntime:undname.obj
 0001:0001c546       ?getDataIndirectType@UnDecorator@@CA?AVDName@@XZ 1001d546 f i libvcruntime:undname.obj
 0001:0001c58d       ?getDataType@UnDecorator@@CA?AVDName@@PAV2@@Z 1001d58d f   libvcruntime:undname.obj
 0001:0001c693       ?getDecoratedName@UnDecorator@@CA?AVDName@@XZ 1001d693 f   libvcruntime:undname.obj
 0001:0001c972       ?getDimension@UnDecorator@@CA?AVDName@@_N@Z 1001d972 f   libvcruntime:undname.obj
 0001:0001caf6       ?getDispatchTarget@UnDecorator@@CA?AVDName@@XZ 1001daf6 f   libvcruntime:undname.obj
 0001:0001cb67       ?getDisplacement@UnDecorator@@CA?AVDName@@XZ 1001db67 f i libvcruntime:undname.obj
 0001:0001cb80       ?getECSUDataType@UnDecorator@@CA?AVDName@@XZ 1001db80 f   libvcruntime:undname.obj
 0001:0001cce4       ?getECSUName@UnDecorator@@CA?AVDName@@XZ 1001dce4 f i libvcruntime:undname.obj
 0001:0001ccf9       ?getEnumType@UnDecorator@@CA?AVDName@@XZ 1001dcf9 f i libvcruntime:undname.obj
 0001:0001ce20       ?getExtendedDataIndirectType@UnDecorator@@CA?AVDName@@AAPBDAA_NH@Z 1001de20 f   libvcruntime:undname.obj
 0001:0001d033       ?getExternalDataType@UnDecorator@@CA?AVDName@@ABV2@@Z 1001e033 f i libvcruntime:undname.obj
 0001:0001d0ca       ?getFunctionIndirectType@UnDecorator@@CA?AVDName@@ABV2@@Z 1001e0ca f   libvcruntime:undname.obj
 0001:0001d5d5       ?getGuardNumber@UnDecorator@@CA?AVDName@@XZ 1001e5d5 f i libvcruntime:undname.obj
 0001:0001d5ee       ?getLastChar@DName@@QBEDXZ 1001e5ee f i libvcruntime:undname.obj
 0001:0001d614       ?getLastChar@DNameStatusNode@@UBEDXZ 1001e614 f i libvcruntime:undname.obj
 0001:0001d623       ?getLastChar@charNode@@UBEDXZ 1001e623 f i libvcruntime:undname.obj
 0001:0001d627       ?getLastChar@pDNameNode@@UBEDXZ 1001e627 f i libvcruntime:undname.obj
 0001:0001d638       ?getLastChar@pairNode@@UBEDXZ 1001e638 f i libvcruntime:undname.obj
 0001:0001d677       ?getLastChar@pcharNode@@UBEDXZ 1001e677 f i libvcruntime:undname.obj
 0001:0001d68d       ?getLexicalFrame@UnDecorator@@CA?AVDName@@XZ 1001e68d f i libvcruntime:undname.obj
 0001:0001d6d9       ?getMemory@_HeapManager@@QAEPAXIH@Z 1001e6d9 f   libvcruntime:undname.obj
 0001:0001d78a       ?getNumberOfDimensions@UnDecorator@@CAHXZ 1001e78a f   libvcruntime:undname.obj
 0001:0001d803       ?getOperatorName@UnDecorator@@CA?AVDName@@_NPA_N@Z 1001e803 f i libvcruntime:undname.obj
 0001:0001dfb3       ?getPointerType@UnDecorator@@CA?AVDName@@ABV2@0@Z 1001efb3 f i libvcruntime:undname.obj
 0001:0001dfd8       ?getPointerTypeArray@UnDecorator@@CA?AVDName@@ABV2@0@Z 1001efd8 f i libvcruntime:undname.obj
 0001:0001dffd       ?getPrimaryDataType@UnDecorator@@CA?AVDName@@ABV2@@Z 1001effd f   libvcruntime:undname.obj
 0001:0001e26e       ?getPtrRefDataType@UnDecorator@@CA?AVDName@@ABV2@H@Z 1001f26e f   libvcruntime:undname.obj
 0001:0001e3b0       ?getPtrRefType@UnDecorator@@CA?AVDName@@ABV2@0PBD@Z 1001f3b0 f   libvcruntime:undname.obj
 0001:0001e4eb       ?getReferenceType@UnDecorator@@CA?AVDName@@ABV2@0PBD@Z 1001f4eb f i libvcruntime:undname.obj
 0001:0001e50e       ?getRestrictionSpec@UnDecorator@@CA?AVDName@@XZ 1001f50e f   libvcruntime:undname.obj
 0001:0001e63c       ?getReturnType@UnDecorator@@CA?AVDName@@PAV2@@Z 1001f63c f   libvcruntime:undname.obj
 0001:0001e676       ?getScope@UnDecorator@@CA?AVDName@@XZ 1001f676 f   libvcruntime:undname.obj
 0001:0001eb4b       ?getScopedName@UnDecorator@@CA?AVDName@@XZ 1001fb4b f   libvcruntime:undname.obj
 0001:0001ec84       ?getSignedDimension@UnDecorator@@CA?AVDName@@XZ 1001fc84 f   libvcruntime:undname.obj
 0001:0001eceb       ?getStorageConvention@UnDecorator@@CA?AVDName@@XZ 1001fceb f i libvcruntime:undname.obj
 0001:0001ed00       ?getString@DName@@QBEPADPAD0@Z 1001fd00 f i libvcruntime:undname.obj
 0001:0001ed37       ?getString@DName@@QBEPADPADH@Z 1001fd37 f i libvcruntime:undname.obj
 0001:0001eda2       ?getString@DNameStatusNode@@UBEPADPAD0@Z 1001fda2 f i libvcruntime:undname.obj
 0001:0001edd2       ?getString@charNode@@UBEPADPAD0@Z 1001fdd2 f i libvcruntime:undname.obj
 0001:0001edec       ?getString@pDNameNode@@UBEPADPAD0@Z 1001fdec f i libvcruntime:undname.obj
 0001:0001ee08       ?getString@pairNode@@UBEPADPAD0@Z 1001fe08 f i libvcruntime:undname.obj
 0001:0001ee5d       ?getString@pcharNode@@UBEPADPAD0@Z 1001fe5d f i libvcruntime:undname.obj
 0001:0001ee7e       ?getStringEncoding@UnDecorator@@CA?AVDName@@PADH@Z 1001fe7e f   libvcruntime:undname.obj
 0001:0001ef49       ?getStringHelper@@YAPADPAD00H@Z 1001ff49 f i libvcruntime:undname.obj
 0001:0001ef8d       ?getSymbolName@UnDecorator@@CA?AVDName@@XZ 1001ff8d f i libvcruntime:undname.obj
 0001:0001efe7       ?getTemplateArgumentList@UnDecorator@@CA?AVDName@@XZ 1001ffe7 f   libvcruntime:undname.obj
 0001:0001f334       ?getTemplateConstant@UnDecorator@@CA?AVDName@@XZ 10020334 f   libvcruntime:undname.obj
 0001:0001f749       ?getTemplateName@UnDecorator@@CA?AVDName@@_N@Z 10020749 f   libvcruntime:undname.obj
 0001:0001f8f4       ?getThisType@UnDecorator@@CA?AVDName@@XZ 100208f4 f i libvcruntime:undname.obj
 0001:0001f93c       ?getThrowTypes@UnDecorator@@CA?AVDName@@XZ 1002093c f   libvcruntime:undname.obj
 0001:0001f9e8       ?getTypeEncoding@UnDecorator@@CAHXZ 100209e8 f i libvcruntime:undname.obj
 0001:0001fde4       ?getVCallThunkType@UnDecorator@@CA?AVDName@@XZ 10020de4 f i libvcruntime:undname.obj
 0001:0001fe2d       ?getVbTableType@UnDecorator@@CA?AVDName@@ABV2@@Z 10020e2d f i libvcruntime:undname.obj
 0001:0001fe47       ?getVdispMapType@UnDecorator@@CA?AVDName@@ABV2@@Z 10020e47 f i libvcruntime:undname.obj
 0001:0001feb2       ?getVfTableType@UnDecorator@@CA?AVDName@@ABV2@@Z 10020eb2 f i libvcruntime:undname.obj
 0001:00020070       ?getZName@UnDecorator@@CA?AVDName@@_N0@Z 10021070 f   libvcruntime:undname.obj
 0001:00020340       ?haveTemplateParameters@UnDecorator@@SAHXZ 10021340 f i libvcruntime:undname.obj
 0001:0002034d       ?isArray@DName@@QBEHXZ     1002134d f i libvcruntime:undname.obj
 0001:00020359       ?isComArray@DName@@QBEHXZ  10021359 f i libvcruntime:undname.obj
 0001:00020365       ?isEmpty@DName@@QBEHXZ     10021365 f i libvcruntime:undname.obj
 0001:0002036f       ?isFull@Replicator@@QBEHXZ 1002136f f i libvcruntime:undname.obj
 0001:0002037a       ?isNoTE@DName@@QBEHXZ      1002137a f i libvcruntime:undname.obj
 0001:00020386       ?isPinPtr@DName@@QBEHXZ    10021386 f i libvcruntime:undname.obj
 0001:00020392       ?isPtrRef@DName@@QBEHXZ    10021392 f i libvcruntime:undname.obj
 0001:0002039e       ?isUDC@DName@@QBEHXZ       1002139e f i libvcruntime:undname.obj
 0001:000203b3       ?isUDTThunk@DName@@QBEHXZ  100213b3 f i libvcruntime:undname.obj
 0001:000203c8       ?isVCallThunk@DName@@QBEHXZ 100213c8 f i libvcruntime:undname.obj
 0001:000203d4       ?isValid@DName@@QBEHXZ     100213d4 f i libvcruntime:undname.obj
 0001:000203e0       ?length@DName@@QBEHXZ      100213e0 f i libvcruntime:undname.obj
 0001:00020405       ?length@DNameStatusNode@@UBEHXZ 10021405 f i libvcruntime:undname.obj
 0001:00020409       ?length@charNode@@UBEHXZ   10021409 f i libvcruntime:undname.obj
 0001:0002040d       ?length@pDNameNode@@UBEHXZ 1002140d f i libvcruntime:undname.obj
 0001:0002041e       ?length@pairNode@@UBEHXZ   1002141e f i libvcruntime:undname.obj
 0001:0002047a       ?length@pcharNode@@UBEHXZ  1002147a f i libvcruntime:undname.obj
 0001:0002047e       ?make@DNameStatusNode@@SAPAV1@W4DNameStatus@@@Z 1002147e f i libvcruntime:undname.obj
 0001:00020525       ?setIsArray@DName@@QAEXXZ  10021525 f i libvcruntime:undname.obj
 0001:0002052f       ?setIsComArray@DName@@QAEXXZ 1002152f f i libvcruntime:undname.obj
 0001:00020539       ?setIsNoTE@DName@@QAEXXZ   10021539 f i libvcruntime:undname.obj
 0001:00020543       ?setIsPinPtr@DName@@QAEXXZ 10021543 f i libvcruntime:undname.obj
 0001:0002054d       ?setIsUDC@DName@@QAEXXZ    1002154d f i libvcruntime:undname.obj
 0001:0002055d       ?setIsVCallThunk@DName@@QAEXXZ 1002155d f i libvcruntime:undname.obj
 0001:00020567       ?setPtrRef@DName@@QAEAAV1@XZ 10021567 f i libvcruntime:undname.obj
 0001:00020573       ?status@DName@@QBE?AW4DNameStatus@@XZ 10021573 f i libvcruntime:undname.obj
 0001:000205f8       ___unDName                 100215f8 f   libvcruntime:undname.obj
 0001:000206b2       ___unDNameEx               100216b2 f   libvcruntime:undname.obj
 0001:0002076c       __vsprintf_s_l             1002176c f i libvcruntime:undname.obj
 0001:000207a4       _sprintf_s                 100217a4 f i libvcruntime:undname.obj
 0001:000207d0       __global_unwind2           100217d0 f   libvcruntime:_exsup_.obj
 0001:00020835       __local_unwind2            10021835 f   libvcruntime:_exsup_.obj
 0001:000208b9       __abnormal_termination     100218b9 f   libvcruntime:_exsup_.obj
 0001:000208dc       __NLG_Notify1              100218dc f   libvcruntime:_exsup_.obj
 0001:000208e5       __NLG_Notify               100218e5 f   libvcruntime:_exsup_.obj
 0001:000208fc       __NLG_Dispatch             100218fc     libvcruntime:_exsup_.obj
 0001:000208fc       __NLG_Dispatch2            100218fc     libvcruntime:_exsup_.obj
 0001:00020904       __NLG_Call                 10021904 f   libvcruntime:_exsup_.obj
 0001:00020906       __NLG_Return2              10021906     libvcruntime:_exsup_.obj
 0001:00020954       ??$__crt_fast_decode_pointer@P6AXXZ@@YAP6AXXZQ6AXXZ@Z 10021954 f i libvcruntime:purevirt.obj
 0001:0002096d       ??$__crt_interlocked_compare_exchange_pointer@$$A6AXXZ$$T$$T@@YAP6AXXZPDS6AXXZ$$T1@Z 1002196d f i libvcruntime:purevirt.obj
 0001:00020983       ??$__crt_interlocked_exchange_pointer@$$A6AXXZP6AXXZ@@YAP6AXXZPDS6AXXZQ6AXXZ@Z 10021983 f i libvcruntime:purevirt.obj
 0001:00020993       ??$__crt_interlocked_read_pointer@$$A6AXXZ@@YAP6AXXZPDS6AXXZ@Z 10021993 f i libvcruntime:purevirt.obj
 0001:000209a7       __get_purecall_handler     100219a7 f   libvcruntime:purevirt.obj
 0001:000209cd       __purecall                 100219cd f   libvcruntime:purevirt.obj
 0001:000209ee       __set_purecall_handler     100219ee f   libvcruntime:purevirt.obj
 0001:00020a1c       _malloc                    10021a1c f   libucrt:malloc.obj
 0001:00020a29       ??$?RPAU__crt_stdio_stream_data@@@__crt_internal_free_policy@@QBEXQBQAU__crt_stdio_stream_data@@@Z 10021a29 f i libucrt:_file.obj
 0001:00020a3f       ??0?$__crt_unique_heap_ptr@PAU__crt_stdio_stream_data@@U__crt_internal_free_policy@@@@QAE@QAPAU__crt_stdio_stream_data@@@Z 10021a3f f i libucrt:_file.obj
 0001:00020a53       ??0__crt_stdio_stream@@QAE@QAU_iobuf@@@Z 10021a53 f i libucrt:_file.obj
 0001:00020a67       ??1?$__crt_unique_heap_ptr@PAU__crt_stdio_stream_data@@U__crt_internal_free_policy@@@@QAE@XZ 10021a67 f i libucrt:_file.obj
 0001:00020a7d       ??C__crt_stdio_stream@@QBEPAU__crt_stdio_stream_data@@XZ 10021a7d f i libucrt:_file.obj
 0001:00020a80       ?detach@?$__crt_unique_heap_ptr@PAU__crt_stdio_stream_data@@U__crt_internal_free_policy@@@@QAEPAPAU__crt_stdio_stream_data@@XZ 10021a80 f i libucrt:_file.obj
 0001:00020a86       ?release@?$__crt_unique_heap_ptr@PAU__crt_stdio_stream_data@@U__crt_internal_free_policy@@@@QAEXXZ 10021a86 f i libucrt:_file.obj
 0001:00020a9c       ___acrt_initialize_stdio   10021a9c f   libucrt:_file.obj
 0001:00020b96       ___acrt_iob_func           10021b96 f   libucrt:_file.obj
 0001:00020baa       ___acrt_uninitialize_stdio 10021baa f   libucrt:_file.obj
 0001:00020c09       __get_stream_buffer_pointers 10021c09 f   libucrt:_file.obj
 0001:00020c60       __lock_file                10021c60 f   libucrt:_file.obj
 0001:00020c79       __unlock_file              10021c79 f   libucrt:_file.obj
 0001:00020c92       ??$?0ABV?$stream_output_adapter@D@__crt_stdio_output@@AB_KABQBDABQAU__crt_locale_pointers@@ABQAD@?$format_validation_base@DV?$stream_output_adapter@D@__crt_stdio_output@@@__crt_stdio_output@@IAE@ABV?$stream_output_adapter@D@1@AB_KABQBDABQAU__crt_locale_pointers@@ABQAD@Z 10021c92 f i libucrt:output.obj
 0001:00020cbd       ??$?0ABV?$stream_output_adapter@D@__crt_stdio_output@@AB_KABQBDABQAU__crt_locale_pointers@@ABQAD@?$positional_parameter_base@DV?$stream_output_adapter@D@__crt_stdio_output@@@__crt_stdio_output@@IAE@ABV?$stream_output_adapter@D@1@AB_KABQBDABQAU__crt_locale_pointers@@ABQAD@Z 10021cbd f i libucrt:output.obj
 0001:00020d17       ??$?0ABV?$stream_output_adapter@D@__crt_stdio_output@@AB_KABQBDABQAU__crt_locale_pointers@@ABQAD@?$standard_base@DV?$stream_output_adapter@D@__crt_stdio_output@@@__crt_stdio_output@@IAE@ABV?$stream_output_adapter@D@1@AB_KABQBDABQAU__crt_locale_pointers@@ABQAD@Z 10021d17 f i libucrt:output.obj
 0001:00020d59       ??$?0ABV?$stream_output_adapter@_W@__crt_stdio_output@@AB_KABQB_WABQAU__crt_locale_pointers@@ABQAD@?$format_validation_base@_WV?$stream_output_adapter@_W@__crt_stdio_output@@@__crt_stdio_output@@IAE@ABV?$stream_output_adapter@_W@1@AB_KABQB_WABQAU__crt_locale_pointers@@ABQAD@Z 10021d59 f i libucrt:output.obj
 0001:00020d84       ??$?0ABV?$stream_output_adapter@_W@__crt_stdio_output@@AB_KABQB_WABQAU__crt_locale_pointers@@ABQAD@?$positional_parameter_base@_WV?$stream_output_adapter@_W@__crt_stdio_output@@@__crt_stdio_output@@IAE@ABV?$stream_output_adapter@_W@1@AB_KABQB_WABQAU__crt_locale_pointers@@ABQAD@Z 10021d84 f i libucrt:output.obj
 0001:00020dde       ??$?0ABV?$stream_output_adapter@_W@__crt_stdio_output@@AB_KABQB_WABQAU__crt_locale_pointers@@ABQAD@?$standard_base@_WV?$stream_output_adapter@_W@__crt_stdio_output@@@__crt_stdio_output@@IAE@ABV?$stream_output_adapter@_W@1@AB_KABQB_WABQAU__crt_locale_pointers@@ABQAD@Z 10021dde f i libucrt:output.obj
 0001:00020e20       ??$?0ABV?$string_output_adapter@D@__crt_stdio_output@@AB_KABQBDABQAU__crt_locale_pointers@@ABQAD@?$format_validation_base@DV?$string_output_adapter@D@__crt_stdio_output@@@__crt_stdio_output@@IAE@ABV?$string_output_adapter@D@1@AB_KABQBDABQAU__crt_locale_pointers@@ABQAD@Z 10021e20 f i libucrt:output.obj
 0001:00020e4b       ??$?0ABV?$string_output_adapter@D@__crt_stdio_output@@AB_KABQBDABQAU__crt_locale_pointers@@ABQAD@?$positional_parameter_base@DV?$string_output_adapter@D@__crt_stdio_output@@@__crt_stdio_output@@IAE@ABV?$string_output_adapter@D@1@AB_KABQBDABQAU__crt_locale_pointers@@ABQAD@Z 10021e4b f i libucrt:output.obj
 0001:00020ea5       ??$?0ABV?$string_output_adapter@D@__crt_stdio_output@@AB_KABQBDABQAU__crt_locale_pointers@@ABQAD@?$standard_base@DV?$string_output_adapter@D@__crt_stdio_output@@@__crt_stdio_output@@IAE@ABV?$string_output_adapter@D@1@AB_KABQBDABQAU__crt_locale_pointers@@ABQAD@Z 10021ea5 f i libucrt:output.obj
 0001:00020ee7       ??$?0ABV?$string_output_adapter@_W@__crt_stdio_output@@AB_KABQB_WABQAU__crt_locale_pointers@@ABQAD@?$format_validation_base@_WV?$string_output_adapter@_W@__crt_stdio_output@@@__crt_stdio_output@@IAE@ABV?$string_output_adapter@_W@1@AB_KABQB_WABQAU__crt_locale_pointers@@ABQAD@Z 10021ee7 f i libucrt:output.obj
 0001:00020f12       ??$?0ABV?$string_output_adapter@_W@__crt_stdio_output@@AB_KABQB_WABQAU__crt_locale_pointers@@ABQAD@?$positional_parameter_base@_WV?$string_output_adapter@_W@__crt_stdio_output@@@__crt_stdio_output@@IAE@ABV?$string_output_adapter@_W@1@AB_KABQB_WABQAU__crt_locale_pointers@@ABQAD@Z 10021f12 f i libucrt:output.obj
 0001:00020f6c       ??$?0ABV?$string_output_adapter@_W@__crt_stdio_output@@AB_KABQB_WABQAU__crt_locale_pointers@@ABQAD@?$standard_base@_WV?$string_output_adapter@_W@__crt_stdio_output@@@__crt_stdio_output@@IAE@ABV?$string_output_adapter@_W@1@AB_KABQB_WABQAU__crt_locale_pointers@@ABQAD@Z 10021f6c f i libucrt:output.obj
 0001:00020fae       ??$?RV<lambda_2293f24e3ce1ad6fe22ccfb9dec07671>@@AAV<lambda_2565fc715a641e539f44ad02d6823606>@@V<lambda_d3217f279b832965d9ca670dc2993570>@@@?$__crt_seh_guarded_call@H@@QAEH$$QAV<lambda_2293f24e3ce1ad6fe22ccfb9dec07671>@@AAV<lambda_2565fc715a641e539f44ad02d6823606>@@$$QAV<lambda_d3217f279b832965d9ca670dc2993570>@@@Z 10021fae f i libucrt:output.obj
 0001:00021013       ??$?RV<lambda_4d4ac866be0fa3c441830420fabdd2cb>@@AAV<lambda_63a10c2dc8dbb9e4dd1890be52af7c93>@@V<lambda_002af9fa0f8fe472b648c51882d4fc32>@@@?$__crt_seh_guarded_call@H@@QAEH$$QAV<lambda_4d4ac866be0fa3c441830420fabdd2cb>@@AAV<lambda_63a10c2dc8dbb9e4dd1890be52af7c93>@@$$QAV<lambda_002af9fa0f8fe472b648c51882d4fc32>@@@Z 10022013 f i libucrt:output.obj
 0001:00021078       ??$?RV<lambda_5be909dfbae0a631386585770cd7b676>@@AAV<lambda_e516058a9c289d98c8ca9fea99247804>@@V<lambda_afe2e0cdc5e0ecf6f0d6f5e2f8985e38>@@@?$__crt_seh_guarded_call@H@@QAEH$$QAV<lambda_5be909dfbae0a631386585770cd7b676>@@AAV<lambda_e516058a9c289d98c8ca9fea99247804>@@$$QAV<lambda_afe2e0cdc5e0ecf6f0d6f5e2f8985e38>@@@Z 10022078 f i libucrt:output.obj
 0001:000210dd       ??$?RV<lambda_823d65812123d985753d53e2a8c25d20>@@AAV<lambda_0a97c9e57da7be065955385c79108ff2>@@V<lambda_4d2973f3ad2d226f00468307185dca1b>@@@?$__crt_seh_guarded_call@H@@QAEH$$QAV<lambda_823d65812123d985753d53e2a8c25d20>@@AAV<lambda_0a97c9e57da7be065955385c79108ff2>@@$$QAV<lambda_4d2973f3ad2d226f00468307185dca1b>@@@Z 100220dd f i libucrt:output.obj
 0001:00021142       ??$?RV<lambda_ab9923ffb5d694ec0d78876dd103e44f>@@AAV<lambda_481dd5778c961fbcd3b60b650e9b9dc4>@@V<lambda_7923d86c9e3f319b415918ec4b39749c>@@@?$__crt_seh_guarded_call@H@@QAEH$$QAV<lambda_ab9923ffb5d694ec0d78876dd103e44f>@@AAV<lambda_481dd5778c961fbcd3b60b650e9b9dc4>@@$$QAV<lambda_7923d86c9e3f319b415918ec4b39749c>@@@Z 10022142 f i libucrt:output.obj
 0001:000211a7       ??$?RV<lambda_db08b09ef7aa9d4f8620ce68402612bc>@@AAV<lambda_4f2c1eaeead2a5fc776db5b62ea0fb9b>@@V<lambda_3ae262bc35d4ba6a3825c4f6bcaaf95c>@@@?$__crt_seh_guarded_call@H@@QAEH$$QAV<lambda_db08b09ef7aa9d4f8620ce68402612bc>@@AAV<lambda_4f2c1eaeead2a5fc776db5b62ea0fb9b>@@$$QAV<lambda_3ae262bc35d4ba6a3825c4f6bcaaf95c>@@@Z 100221a7 f i libucrt:output.obj
 0001:0002120c       ??$__acrt_lock_stream_and_call@V<lambda_0a97c9e57da7be065955385c79108ff2>@@@@YAHQAU_iobuf@@$$QAV<lambda_0a97c9e57da7be065955385c79108ff2>@@@Z 1002220c f i libucrt:output.obj
 0001:0002123e       ??$__acrt_lock_stream_and_call@V<lambda_2565fc715a641e539f44ad02d6823606>@@@@YAHQAU_iobuf@@$$QAV<lambda_2565fc715a641e539f44ad02d6823606>@@@Z 1002223e f i libucrt:output.obj
 0001:00021270       ??$__acrt_lock_stream_and_call@V<lambda_481dd5778c961fbcd3b60b650e9b9dc4>@@@@YAHQAU_iobuf@@$$QAV<lambda_481dd5778c961fbcd3b60b650e9b9dc4>@@@Z 10022270 f i libucrt:output.obj
 0001:000212a2       ??$__acrt_lock_stream_and_call@V<lambda_4f2c1eaeead2a5fc776db5b62ea0fb9b>@@@@YAHQAU_iobuf@@$$QAV<lambda_4f2c1eaeead2a5fc776db5b62ea0fb9b>@@@Z 100222a2 f i libucrt:output.obj
 0001:000212d4       ??$__acrt_lock_stream_and_call@V<lambda_63a10c2dc8dbb9e4dd1890be52af7c93>@@@@YAHQAU_iobuf@@$$QAV<lambda_63a10c2dc8dbb9e4dd1890be52af7c93>@@@Z 100222d4 f i libucrt:output.obj
 0001:00021306       ??$__acrt_lock_stream_and_call@V<lambda_e516058a9c289d98c8ca9fea99247804>@@@@YAHQAU_iobuf@@$$QAV<lambda_e516058a9c289d98c8ca9fea99247804>@@@Z 10022306 f i libucrt:output.obj
 0001:00021338       ??$__crt_interlocked_read@J@@YAJPDJ@Z 10022338 f i libucrt:output.obj
 0001:00022583       ??$count@D@formatting_buffer@__crt_stdio_output@@QBEIXZ 10023583 f i libucrt:output.obj
 0001:000225a1       ??$data@D@formatting_buffer@__crt_stdio_output@@QAEPADXZ 100235a1 f i libucrt:output.obj
 0001:000225b1       ??$data@_W@formatting_buffer@__crt_stdio_output@@QAEPA_WXZ 100235b1 f i libucrt:output.obj
 0001:000225c1       ??$ensure_buffer_is_big_enough@D@formatting_buffer@__crt_stdio_output@@QAE_NI@Z 100235c1 f i libucrt:output.obj
 0001:00022668       ??$extract_argument_from_va_list@C_J@?$positional_parameter_base@DV?$stream_output_adapter@D@__crt_stdio_output@@@__crt_stdio_output@@IAE_NAA_J@Z 10023668 f i libucrt:output.obj
 0001:00022706       ??$extract_argument_from_va_list@C_J@?$positional_parameter_base@DV?$string_output_adapter@D@__crt_stdio_output@@@__crt_stdio_output@@IAE_NAA_J@Z 10023706 f i libucrt:output.obj
 0001:000227a4       ??$extract_argument_from_va_list@C_J@?$positional_parameter_base@_WV?$stream_output_adapter@_W@__crt_stdio_output@@@__crt_stdio_output@@IAE_NAA_J@Z 100237a4 f i libucrt:output.obj
 0001:00022842       ??$extract_argument_from_va_list@C_J@?$positional_parameter_base@_WV?$string_output_adapter@_W@__crt_stdio_output@@@__crt_stdio_output@@IAE_NAA_J@Z 10023842 f i libucrt:output.obj
 0001:000228e0       ??$extract_argument_from_va_list@C_J@?$standard_base@DV?$stream_output_adapter@D@__crt_stdio_output@@@__crt_stdio_output@@IAE_NAA_J@Z 100238e0 f i libucrt:output.obj
 0001:00022906       ??$extract_argument_from_va_list@C_J@?$standard_base@DV?$string_output_adapter@D@__crt_stdio_output@@@__crt_stdio_output@@IAE_NAA_J@Z 10023906 f i libucrt:output.obj
 0001:0002292c       ??$extract_argument_from_va_list@C_J@?$standard_base@_WV?$stream_output_adapter@_W@__crt_stdio_output@@@__crt_stdio_output@@IAE_NAA_J@Z 1002392c f i libucrt:output.obj
 0001:00022952       ??$extract_argument_from_va_list@C_J@?$standard_base@_WV?$string_output_adapter@_W@__crt_stdio_output@@@__crt_stdio_output@@IAE_NAA_J@Z 10023952 f i libucrt:output.obj
 0001:00022978       ??$extract_argument_from_va_list@E_J@?$positional_parameter_base@DV?$stream_output_adapter@D@__crt_stdio_output@@@__crt_stdio_output@@IAE_NAA_J@Z 10023978 f i libucrt:output.obj
 0001:00022a16       ??$extract_argument_from_va_list@E_J@?$positional_parameter_base@DV?$string_output_adapter@D@__crt_stdio_output@@@__crt_stdio_output@@IAE_NAA_J@Z 10023a16 f i libucrt:output.obj
 0001:00022ab4       ??$extract_argument_from_va_list@E_J@?$positional_parameter_base@_WV?$stream_output_adapter@_W@__crt_stdio_output@@@__crt_stdio_output@@IAE_NAA_J@Z 10023ab4 f i libucrt:output.obj
 0001:00022b52       ??$extract_argument_from_va_list@E_J@?$positional_parameter_base@_WV?$string_output_adapter@_W@__crt_stdio_output@@@__crt_stdio_output@@IAE_NAA_J@Z 10023b52 f i libucrt:output.obj
 0001:00022bf0       ??$extract_argument_from_va_list@E_J@?$standard_base@DV?$stream_output_adapter@D@__crt_stdio_output@@@__crt_stdio_output@@IAE_NAA_J@Z 10023bf0 f i libucrt:output.obj
 0001:00022c16       ??$extract_argument_from_va_list@E_J@?$standard_base@DV?$string_output_adapter@D@__crt_stdio_output@@@__crt_stdio_output@@IAE_NAA_J@Z 10023c16 f i libucrt:output.obj
 0001:00022c3c       ??$extract_argument_from_va_list@E_J@?$standard_base@_WV?$stream_output_adapter@_W@__crt_stdio_output@@@__crt_stdio_output@@IAE_NAA_J@Z 10023c3c f i libucrt:output.obj
 0001:00022c62       ??$extract_argument_from_va_list@E_J@?$standard_base@_WV?$string_output_adapter@_W@__crt_stdio_output@@@__crt_stdio_output@@IAE_NAA_J@Z 10023c62 f i libucrt:output.obj
 0001:00022c88       ??$extract_argument_from_va_list@F_J@?$positional_parameter_base@DV?$stream_output_adapter@D@__crt_stdio_output@@@__crt_stdio_output@@IAE_NAA_J@Z 10023c88 f i libucrt:output.obj
 0001:00022d26       ??$extract_argument_from_va_list@F_J@?$positional_parameter_base@DV?$string_output_adapter@D@__crt_stdio_output@@@__crt_stdio_output@@IAE_NAA_J@Z 10023d26 f i libucrt:output.obj
 0001:00022dc4       ??$extract_argument_from_va_list@F_J@?$positional_parameter_base@_WV?$stream_output_adapter@_W@__crt_stdio_output@@@__crt_stdio_output@@IAE_NAA_J@Z 10023dc4 f i libucrt:output.obj
 0001:00022e62       ??$extract_argument_from_va_list@F_J@?$positional_parameter_base@_WV?$string_output_adapter@_W@__crt_stdio_output@@@__crt_stdio_output@@IAE_NAA_J@Z 10023e62 f i libucrt:output.obj
 0001:00022f00       ??$extract_argument_from_va_list@F_J@?$standard_base@DV?$stream_output_adapter@D@__crt_stdio_output@@@__crt_stdio_output@@IAE_NAA_J@Z 10023f00 f i libucrt:output.obj
 0001:00022f26       ??$extract_argument_from_va_list@F_J@?$standard_base@DV?$string_output_adapter@D@__crt_stdio_output@@@__crt_stdio_output@@IAE_NAA_J@Z 10023f26 f i libucrt:output.obj
 0001:00022f4c       ??$extract_argument_from_va_list@F_J@?$standard_base@_WV?$stream_output_adapter@_W@__crt_stdio_output@@@__crt_stdio_output@@IAE_NAA_J@Z 10023f4c f i libucrt:output.obj
 0001:00022f72       ??$extract_argument_from_va_list@F_J@?$standard_base@_WV?$string_output_adapter@_W@__crt_stdio_output@@@__crt_stdio_output@@IAE_NAA_J@Z 10023f72 f i libucrt:output.obj
 0001:00022f98       ??$extract_argument_from_va_list@GD@?$positional_parameter_base@DV?$stream_output_adapter@D@__crt_stdio_output@@@__crt_stdio_output@@IAE_NAAD@Z 10023f98 f i libucrt:output.obj
 0001:00023035       ??$extract_argument_from_va_list@GD@?$positional_parameter_base@DV?$string_output_adapter@D@__crt_stdio_output@@@__crt_stdio_output@@IAE_NAAD@Z 10024035 f i libucrt:output.obj
 0001:000230d2       ??$extract_argument_from_va_list@GD@?$standard_base@DV?$stream_output_adapter@D@__crt_stdio_output@@@__crt_stdio_output@@IAE_NAAD@Z 100240d2 f i libucrt:output.obj
 0001:000230f2       ??$extract_argument_from_va_list@GD@?$standard_base@DV?$string_output_adapter@D@__crt_stdio_output@@@__crt_stdio_output@@IAE_NAAD@Z 100240f2 f i libucrt:output.obj
 0001:00023112       ??$extract_argument_from_va_list@G_J@?$positional_parameter_base@DV?$stream_output_adapter@D@__crt_stdio_output@@@__crt_stdio_output@@IAE_NAA_J@Z 10024112 f i libucrt:output.obj
 0001:000231b0       ??$extract_argument_from_va_list@G_J@?$positional_parameter_base@DV?$string_output_adapter@D@__crt_stdio_output@@@__crt_stdio_output@@IAE_NAA_J@Z 100241b0 f i libucrt:output.obj
 0001:0002324e       ??$extract_argument_from_va_list@G_J@?$positional_parameter_base@_WV?$stream_output_adapter@_W@__crt_stdio_output@@@__crt_stdio_output@@IAE_NAA_J@Z 1002424e f i libucrt:output.obj
 0001:000232ec       ??$extract_argument_from_va_list@G_J@?$positional_parameter_base@_WV?$string_output_adapter@_W@__crt_stdio_output@@@__crt_stdio_output@@IAE_NAA_J@Z 100242ec f i libucrt:output.obj
 0001:0002338a       ??$extract_argument_from_va_list@G_J@?$standard_base@DV?$stream_output_adapter@D@__crt_stdio_output@@@__crt_stdio_output@@IAE_NAA_J@Z 1002438a f i libucrt:output.obj
 0001:000233b0       ??$extract_argument_from_va_list@G_J@?$standard_base@DV?$string_output_adapter@D@__crt_stdio_output@@@__crt_stdio_output@@IAE_NAA_J@Z 100243b0 f i libucrt:output.obj
 0001:000233d6       ??$extract_argument_from_va_list@G_J@?$standard_base@_WV?$stream_output_adapter@_W@__crt_stdio_output@@@__crt_stdio_output@@IAE_NAA_J@Z 100243d6 f i libucrt:output.obj
 0001:000233fc       ??$extract_argument_from_va_list@G_J@?$standard_base@_WV?$string_output_adapter@_W@__crt_stdio_output@@@__crt_stdio_output@@IAE_NAA_J@Z 100243fc f i libucrt:output.obj
 0001:00023422       ??$extract_argument_from_va_list@H_J@?$positional_parameter_base@DV?$stream_output_adapter@D@__crt_stdio_output@@@__crt_stdio_output@@IAE_NAA_J@Z 10024422 f i libucrt:output.obj
 0001:000234be       ??$extract_argument_from_va_list@H_J@?$positional_parameter_base@DV?$string_output_adapter@D@__crt_stdio_output@@@__crt_stdio_output@@IAE_NAA_J@Z 100244be f i libucrt:output.obj
 0001:0002355a       ??$extract_argument_from_va_list@H_J@?$positional_parameter_base@_WV?$stream_output_adapter@_W@__crt_stdio_output@@@__crt_stdio_output@@IAE_NAA_J@Z 1002455a f i libucrt:output.obj
 0001:000235f6       ??$extract_argument_from_va_list@H_J@?$positional_parameter_base@_WV?$string_output_adapter@_W@__crt_stdio_output@@@__crt_stdio_output@@IAE_NAA_J@Z 100245f6 f i libucrt:output.obj
 0001:00023692       ??$extract_argument_from_va_list@H_J@?$standard_base@DV?$stream_output_adapter@D@__crt_stdio_output@@@__crt_stdio_output@@IAE_NAA_J@Z 10024692 f i libucrt:output.obj
 0001:000236b7       ??$extract_argument_from_va_list@H_J@?$standard_base@DV?$string_output_adapter@D@__crt_stdio_output@@@__crt_stdio_output@@IAE_NAA_J@Z 100246b7 f i libucrt:output.obj
 0001:000236dc       ??$extract_argument_from_va_list@H_J@?$standard_base@_WV?$stream_output_adapter@_W@__crt_stdio_output@@@__crt_stdio_output@@IAE_NAA_J@Z 100246dc f i libucrt:output.obj
 0001:00023701       ??$extract_argument_from_va_list@H_J@?$standard_base@_WV?$string_output_adapter@_W@__crt_stdio_output@@@__crt_stdio_output@@IAE_NAA_J@Z 10024701 f i libucrt:output.obj
 0001:00023726       ??$extract_argument_from_va_list@I_J@?$positional_parameter_base@DV?$stream_output_adapter@D@__crt_stdio_output@@@__crt_stdio_output@@IAE_NAA_J@Z 10024726 f i libucrt:output.obj
 0001:000237cd       ??$extract_argument_from_va_list@I_J@?$positional_parameter_base@DV?$string_output_adapter@D@__crt_stdio_output@@@__crt_stdio_output@@IAE_NAA_J@Z 100247cd f i libucrt:output.obj
 0001:00023874       ??$extract_argument_from_va_list@I_J@?$positional_parameter_base@_WV?$stream_output_adapter@_W@__crt_stdio_output@@@__crt_stdio_output@@IAE_NAA_J@Z 10024874 f i libucrt:output.obj
 0001:0002391b       ??$extract_argument_from_va_list@I_J@?$positional_parameter_base@_WV?$string_output_adapter@_W@__crt_stdio_output@@@__crt_stdio_output@@IAE_NAA_J@Z 1002491b f i libucrt:output.obj
 0001:000239c2       ??$extract_argument_from_va_list@I_J@?$standard_base@DV?$stream_output_adapter@D@__crt_stdio_output@@@__crt_stdio_output@@IAE_NAA_J@Z 100249c2 f i libucrt:output.obj
 0001:000239e7       ??$extract_argument_from_va_list@I_J@?$standard_base@DV?$string_output_adapter@D@__crt_stdio_output@@@__crt_stdio_output@@IAE_NAA_J@Z 100249e7 f i libucrt:output.obj
 0001:00023a0c       ??$extract_argument_from_va_list@I_J@?$standard_base@_WV?$stream_output_adapter@_W@__crt_stdio_output@@@__crt_stdio_output@@IAE_NAA_J@Z 10024a0c f i libucrt:output.obj
 0001:00023a31       ??$extract_argument_from_va_list@I_J@?$standard_base@_WV?$string_output_adapter@_W@__crt_stdio_output@@@__crt_stdio_output@@IAE_NAA_J@Z 10024a31 f i libucrt:output.obj
 0001:00023a56       ??$extract_argument_from_va_list@PADPAD@?$positional_parameter_base@DV?$stream_output_adapter@D@__crt_stdio_output@@@__crt_stdio_output@@IAE_NAAPAD@Z 10024a56 f i libucrt:output.obj
 0001:00023af3       ??$extract_argument_from_va_list@PADPAD@?$positional_parameter_base@DV?$string_output_adapter@D@__crt_stdio_output@@@__crt_stdio_output@@IAE_NAAPAD@Z 10024af3 f i libucrt:output.obj
 0001:00023b90       ??$extract_argument_from_va_list@PADPAD@?$positional_parameter_base@_WV?$stream_output_adapter@_W@__crt_stdio_output@@@__crt_stdio_output@@IAE_NAAPAD@Z 10024b90 f i libucrt:output.obj
 0001:00023c2d       ??$extract_argument_from_va_list@PADPAD@?$positional_parameter_base@_WV?$string_output_adapter@_W@__crt_stdio_output@@@__crt_stdio_output@@IAE_NAAPAD@Z 10024c2d f i libucrt:output.obj
 0001:00023cca       ??$extract_argument_from_va_list@PADPAD@?$standard_base@DV?$stream_output_adapter@D@__crt_stdio_output@@@__crt_stdio_output@@IAE_NAAPAD@Z 10024cca f i libucrt:output.obj
 0001:00023cea       ??$extract_argument_from_va_list@PADPAD@?$standard_base@DV?$string_output_adapter@D@__crt_stdio_output@@@__crt_stdio_output@@IAE_NAAPAD@Z 10024cea f i libucrt:output.obj
 0001:00023d0a       ??$extract_argument_from_va_list@PADPAD@?$standard_base@_WV?$stream_output_adapter@_W@__crt_stdio_output@@@__crt_stdio_output@@IAE_NAAPAD@Z 10024d0a f i libucrt:output.obj
 0001:00023d2a       ??$extract_argument_from_va_list@PADPAD@?$standard_base@_WV?$string_output_adapter@_W@__crt_stdio_output@@@__crt_stdio_output@@IAE_NAAPAD@Z 10024d2a f i libucrt:output.obj
 0001:00023d4a       ??$extract_argument_from_va_list@PAUansi_string@?1??type_case_Z@?$output_processor@DV?$stream_output_adapter@D@__crt_stdio_output@@V?$format_validation_base@DV?$stream_output_adapter@D@__crt_stdio_output@@@2@@__crt_stdio_output@@AAE_NXZ@PAU1?1??234@AAE_NXZ@@?$standard_base@DV?$stream_output_adapter@D@__crt_stdio_output@@@__crt_stdio_output@@IAE_NAAPAUansi_string@?1??type_case_Z@?$output_processor@DV?$stream_output_adapter@D@__crt_stdio_output@@V?$format_validation_base@DV?$stream_output_adapter@D@__crt_stdio_output@@@2@@1@AAE_NXZ@@Z 10024d4a f i libucrt:output.obj
 0001:00023d6a       ??$extract_argument_from_va_list@PAUansi_string@?1??type_case_Z@?$output_processor@DV?$stream_output_adapter@D@__crt_stdio_output@@V?$positional_parameter_base@DV?$stream_output_adapter@D@__crt_stdio_output@@@2@@__crt_stdio_output@@AAE_NXZ@PAU1?1??234@AAE_NXZ@@?$positional_parameter_base@DV?$stream_output_adapter@D@__crt_stdio_output@@@__crt_stdio_output@@IAE_NAAPAUansi_string@?1??type_case_Z@?$output_processor@DV?$stream_output_adapter@D@__crt_stdio_output@@V?$positional_parameter_base@DV?$stream_output_adapter@D@__crt_stdio_output@@@2@@1@AAE_NXZ@@Z 10024d6a f i libucrt:output.obj
 0001:00023e07       ??$extract_argument_from_va_list@PAUansi_string@?1??type_case_Z@?$output_processor@DV?$stream_output_adapter@D@__crt_stdio_output@@V?$positional_parameter_base@DV?$stream_output_adapter@D@__crt_stdio_output@@@2@@__crt_stdio_output@@AAE_NXZ@PAU1?1??234@AAE_NXZ@@?$standard_base@DV?$stream_output_adapter@D@__crt_stdio_output@@@__crt_stdio_output@@IAE_NAAPAUansi_string@?1??type_case_Z@?$output_processor@DV?$stream_output_adapter@D@__crt_stdio_output@@V?$positional_parameter_base@DV?$stream_output_adapter@D@__crt_stdio_output@@@2@@1@AAE_NXZ@@Z 10024e07 f i libucrt:output.obj
 0001:00023e27       ??$extract_argument_from_va_list@PAUansi_string@?1??type_case_Z@?$output_processor@DV?$stream_output_adapter@D@__crt_stdio_output@@V?$standard_base@DV?$stream_output_adapter@D@__crt_stdio_output@@@2@@__crt_stdio_output@@AAE_NXZ@PAU1?1??234@AAE_NXZ@@?$standard_base@DV?$stream_output_adapter@D@__crt_stdio_output@@@__crt_stdio_output@@IAE_NAAPAUansi_string@?1??type_case_Z@?$output_processor@DV?$stream_output_adapter@D@__crt_stdio_output@@V?$standard_base@DV?$stream_output_adapter@D@__crt_stdio_output@@@2@@1@AAE_NXZ@@Z 10024e27 f i libucrt:output.obj
 0001:00023e47       ??$extract_argument_from_va_list@PAUansi_string@?1??type_case_Z@?$output_processor@DV?$string_output_adapter@D@__crt_stdio_output@@V?$format_validation_base@DV?$string_output_adapter@D@__crt_stdio_output@@@2@@__crt_stdio_output@@AAE_NXZ@PAU1?1??234@AAE_NXZ@@?$standard_base@DV?$string_output_adapter@D@__crt_stdio_output@@@__crt_stdio_output@@IAE_NAAPAUansi_string@?1??type_case_Z@?$output_processor@DV?$string_output_adapter@D@__crt_stdio_output@@V?$format_validation_base@DV?$string_output_adapter@D@__crt_stdio_output@@@2@@1@AAE_NXZ@@Z 10024e47 f i libucrt:output.obj
 0001:00023e67       ??$extract_argument_from_va_list@PAUansi_string@?1??type_case_Z@?$output_processor@DV?$string_output_adapter@D@__crt_stdio_output@@V?$positional_parameter_base@DV?$string_output_adapter@D@__crt_stdio_output@@@2@@__crt_stdio_output@@AAE_NXZ@PAU1?1??234@AAE_NXZ@@?$positional_parameter_base@DV?$string_output_adapter@D@__crt_stdio_output@@@__crt_stdio_output@@IAE_NAAPAUansi_string@?1??type_case_Z@?$output_processor@DV?$string_output_adapter@D@__crt_stdio_output@@V?$positional_parameter_base@DV?$string_output_adapter@D@__crt_stdio_output@@@2@@1@AAE_NXZ@@Z 10024e67 f i libucrt:output.obj
 0001:00023f04       ??$extract_argument_from_va_list@PAUansi_string@?1??type_case_Z@?$output_processor@DV?$string_output_adapter@D@__crt_stdio_output@@V?$positional_parameter_base@DV?$string_output_adapter@D@__crt_stdio_output@@@2@@__crt_stdio_output@@AAE_NXZ@PAU1?1??234@AAE_NXZ@@?$standard_base@DV?$string_output_adapter@D@__crt_stdio_output@@@__crt_stdio_output@@IAE_NAAPAUansi_string@?1??type_case_Z@?$output_processor@DV?$string_output_adapter@D@__crt_stdio_output@@V?$positional_parameter_base@DV?$string_output_adapter@D@__crt_stdio_output@@@2@@1@AAE_NXZ@@Z 10024f04 f i libucrt:output.obj
 0001:00023f24       ??$extract_argument_from_va_list@PAUansi_string@?1??type_case_Z@?$output_processor@DV?$string_output_adapter@D@__crt_stdio_output@@V?$standard_base@DV?$string_output_adapter@D@__crt_stdio_output@@@2@@__crt_stdio_output@@AAE_NXZ@PAU1?1??234@AAE_NXZ@@?$standard_base@DV?$string_output_adapter@D@__crt_stdio_output@@@__crt_stdio_output@@IAE_NAAPAUansi_string@?1??type_case_Z@?$output_processor@DV?$string_output_adapter@D@__crt_stdio_output@@V?$standard_base@DV?$string_output_adapter@D@__crt_stdio_output@@@2@@1@AAE_NXZ@@Z 10024f24 f i libucrt:output.obj
 0001:00023f44       ??$extract_argument_from_va_list@PAUansi_string@?1??type_case_Z@?$output_processor@_WV?$stream_output_adapter@_W@__crt_stdio_output@@V?$format_validation_base@_WV?$stream_output_adapter@_W@__crt_stdio_output@@@2@@__crt_stdio_output@@AAE_NXZ@PAU1?1??234@AAE_NXZ@@?$standard_base@_WV?$stream_output_adapter@_W@__crt_stdio_output@@@__crt_stdio_output@@IAE_NAAPAUansi_string@?1??type_case_Z@?$output_processor@_WV?$stream_output_adapter@_W@__crt_stdio_output@@V?$format_validation_base@_WV?$stream_output_adapter@_W@__crt_stdio_output@@@2@@1@AAE_NXZ@@Z 10024f44 f i libucrt:output.obj
 0001:00023f64       ??$extract_argument_from_va_list@PAUansi_string@?1??type_case_Z@?$output_processor@_WV?$stream_output_adapter@_W@__crt_stdio_output@@V?$positional_parameter_base@_WV?$stream_output_adapter@_W@__crt_stdio_output@@@2@@__crt_stdio_output@@AAE_NXZ@PAU1?1??234@AAE_NXZ@@?$positional_parameter_base@_WV?$stream_output_adapter@_W@__crt_stdio_output@@@__crt_stdio_output@@IAE_NAAPAUansi_string@?1??type_case_Z@?$output_processor@_WV?$stream_output_adapter@_W@__crt_stdio_output@@V?$positional_parameter_base@_WV?$stream_output_adapter@_W@__crt_stdio_output@@@2@@1@AAE_NXZ@@Z 10024f64 f i libucrt:output.obj
 0001:00024001       ??$extract_argument_from_va_list@PAUansi_string@?1??type_case_Z@?$output_processor@_WV?$stream_output_adapter@_W@__crt_stdio_output@@V?$positional_parameter_base@_WV?$stream_output_adapter@_W@__crt_stdio_output@@@2@@__crt_stdio_output@@AAE_NXZ@PAU1?1??234@AAE_NXZ@@?$standard_base@_WV?$stream_output_adapter@_W@__crt_stdio_output@@@__crt_stdio_output@@IAE_NAAPAUansi_string@?1??type_case_Z@?$output_processor@_WV?$stream_output_adapter@_W@__crt_stdio_output@@V?$positional_parameter_base@_WV?$stream_output_adapter@_W@__crt_stdio_output@@@2@@1@AAE_NXZ@@Z 10025001 f i libucrt:output.obj
 0001:00024021       ??$extract_argument_from_va_list@PAUansi_string@?1??type_case_Z@?$output_processor@_WV?$stream_output_adapter@_W@__crt_stdio_output@@V?$standard_base@_WV?$stream_output_adapter@_W@__crt_stdio_output@@@2@@__crt_stdio_output@@AAE_NXZ@PAU1?1??234@AAE_NXZ@@?$standard_base@_WV?$stream_output_adapter@_W@__crt_stdio_output@@@__crt_stdio_output@@IAE_NAAPAUansi_string@?1??type_case_Z@?$output_processor@_WV?$stream_output_adapter@_W@__crt_stdio_output@@V?$standard_base@_WV?$stream_output_adapter@_W@__crt_stdio_output@@@2@@1@AAE_NXZ@@Z 10025021 f i libucrt:output.obj
 0001:00024041       ??$extract_argument_from_va_list@PAUansi_string@?1??type_case_Z@?$output_processor@_WV?$string_output_adapter@_W@__crt_stdio_output@@V?$format_validation_base@_WV?$string_output_adapter@_W@__crt_stdio_output@@@2@@__crt_stdio_output@@AAE_NXZ@PAU1?1??234@AAE_NXZ@@?$standard_base@_WV?$string_output_adapter@_W@__crt_stdio_output@@@__crt_stdio_output@@IAE_NAAPAUansi_string@?1??type_case_Z@?$output_processor@_WV?$string_output_adapter@_W@__crt_stdio_output@@V?$format_validation_base@_WV?$string_output_adapter@_W@__crt_stdio_output@@@2@@1@AAE_NXZ@@Z 10025041 f i libucrt:output.obj
 0001:00024061       ??$extract_argument_from_va_list@PAUansi_string@?1??type_case_Z@?$output_processor@_WV?$string_output_adapter@_W@__crt_stdio_output@@V?$positional_parameter_base@_WV?$string_output_adapter@_W@__crt_stdio_output@@@2@@__crt_stdio_output@@AAE_NXZ@PAU1?1??234@AAE_NXZ@@?$positional_parameter_base@_WV?$string_output_adapter@_W@__crt_stdio_output@@@__crt_stdio_output@@IAE_NAAPAUansi_string@?1??type_case_Z@?$output_processor@_WV?$string_output_adapter@_W@__crt_stdio_output@@V?$positional_parameter_base@_WV?$string_output_adapter@_W@__crt_stdio_output@@@2@@1@AAE_NXZ@@Z 10025061 f i libucrt:output.obj
 0001:000240fe       ??$extract_argument_from_va_list@PAUansi_string@?1??type_case_Z@?$output_processor@_WV?$string_output_adapter@_W@__crt_stdio_output@@V?$positional_parameter_base@_WV?$string_output_adapter@_W@__crt_stdio_output@@@2@@__crt_stdio_output@@AAE_NXZ@PAU1?1??234@AAE_NXZ@@?$standard_base@_WV?$string_output_adapter@_W@__crt_stdio_output@@@__crt_stdio_output@@IAE_NAAPAUansi_string@?1??type_case_Z@?$output_processor@_WV?$string_output_adapter@_W@__crt_stdio_output@@V?$positional_parameter_base@_WV?$string_output_adapter@_W@__crt_stdio_output@@@2@@1@AAE_NXZ@@Z 100250fe f i libucrt:output.obj
 0001:0002411e       ??$extract_argument_from_va_list@PAUansi_string@?1??type_case_Z@?$output_processor@_WV?$string_output_adapter@_W@__crt_stdio_output@@V?$standard_base@_WV?$string_output_adapter@_W@__crt_stdio_output@@@2@@__crt_stdio_output@@AAE_NXZ@PAU1?1??234@AAE_NXZ@@?$standard_base@_WV?$string_output_adapter@_W@__crt_stdio_output@@@__crt_stdio_output@@IAE_NAAPAUansi_string@?1??type_case_Z@?$output_processor@_WV?$string_output_adapter@_W@__crt_stdio_output@@V?$standard_base@_WV?$string_output_adapter@_W@__crt_stdio_output@@@2@@1@AAE_NXZ@@Z 1002511e f i libucrt:output.obj
 0001:0002413e       ??$extract_argument_from_va_list@PAXPAX@?$positional_parameter_base@DV?$stream_output_adapter@D@__crt_stdio_output@@@__crt_stdio_output@@IAE_NAAPAX@Z 1002513e f i libucrt:output.obj
 0001:000241db       ??$extract_argument_from_va_list@PAXPAX@?$positional_parameter_base@DV?$string_output_adapter@D@__crt_stdio_output@@@__crt_stdio_output@@IAE_NAAPAX@Z 100251db f i libucrt:output.obj
 0001:00024278       ??$extract_argument_from_va_list@PAXPAX@?$positional_parameter_base@_WV?$stream_output_adapter@_W@__crt_stdio_output@@@__crt_stdio_output@@IAE_NAAPAX@Z 10025278 f i libucrt:output.obj
 0001:00024315       ??$extract_argument_from_va_list@PAXPAX@?$positional_parameter_base@_WV?$string_output_adapter@_W@__crt_stdio_output@@@__crt_stdio_output@@IAE_NAAPAX@Z 10025315 f i libucrt:output.obj
 0001:000243b2       ??$extract_argument_from_va_list@PAXPAX@?$standard_base@DV?$stream_output_adapter@D@__crt_stdio_output@@@__crt_stdio_output@@IAE_NAAPAX@Z 100253b2 f i libucrt:output.obj
 0001:000243d2       ??$extract_argument_from_va_list@PAXPAX@?$standard_base@DV?$string_output_adapter@D@__crt_stdio_output@@@__crt_stdio_output@@IAE_NAAPAX@Z 100253d2 f i libucrt:output.obj
 0001:000243f2       ??$extract_argument_from_va_list@PAXPAX@?$standard_base@_WV?$stream_output_adapter@_W@__crt_stdio_output@@@__crt_stdio_output@@IAE_NAAPAX@Z 100253f2 f i libucrt:output.obj
 0001:00024412       ??$extract_argument_from_va_list@PAXPAX@?$standard_base@_WV?$string_output_adapter@_W@__crt_stdio_output@@@__crt_stdio_output@@IAE_NAAPAX@Z 10025412 f i libucrt:output.obj
 0001:00024432       ??$extract_argument_from_va_list@U_CRT_DOUBLE@@U1@@?$positional_parameter_base@DV?$stream_output_adapter@D@__crt_stdio_output@@@__crt_stdio_output@@IAE_NAAU_CRT_DOUBLE@@@Z 10025432 f i libucrt:output.obj
 0001:000244e3       ??$extract_argument_from_va_list@U_CRT_DOUBLE@@U1@@?$positional_parameter_base@DV?$string_output_adapter@D@__crt_stdio_output@@@__crt_stdio_output@@IAE_NAAU_CRT_DOUBLE@@@Z 100254e3 f i libucrt:output.obj
 0001:00024594       ??$extract_argument_from_va_list@U_CRT_DOUBLE@@U1@@?$positional_parameter_base@_WV?$stream_output_adapter@_W@__crt_stdio_output@@@__crt_stdio_output@@IAE_NAAU_CRT_DOUBLE@@@Z 10025594 f i libucrt:output.obj
 0001:00024645       ??$extract_argument_from_va_list@U_CRT_DOUBLE@@U1@@?$positional_parameter_base@_WV?$string_output_adapter@_W@__crt_stdio_output@@@__crt_stdio_output@@IAE_NAAU_CRT_DOUBLE@@@Z 10025645 f i libucrt:output.obj
 0001:000246f6       ??$extract_argument_from_va_list@U_CRT_DOUBLE@@U1@@?$standard_base@DV?$stream_output_adapter@D@__crt_stdio_output@@@__crt_stdio_output@@IAE_NAAU_CRT_DOUBLE@@@Z 100256f6 f i libucrt:output.obj
 0001:0002471e       ??$extract_argument_from_va_list@U_CRT_DOUBLE@@U1@@?$standard_base@DV?$string_output_adapter@D@__crt_stdio_output@@@__crt_stdio_output@@IAE_NAAU_CRT_DOUBLE@@@Z 1002571e f i libucrt:output.obj
 0001:00024746       ??$extract_argument_from_va_list@U_CRT_DOUBLE@@U1@@?$standard_base@_WV?$stream_output_adapter@_W@__crt_stdio_output@@@__crt_stdio_output@@IAE_NAAU_CRT_DOUBLE@@@Z 10025746 f i libucrt:output.obj
 0001:0002476e       ??$extract_argument_from_va_list@U_CRT_DOUBLE@@U1@@?$standard_base@_WV?$string_output_adapter@_W@__crt_stdio_output@@@__crt_stdio_output@@IAE_NAAU_CRT_DOUBLE@@@Z 1002576e f i libucrt:output.obj
 0001:00024796       ??$extract_argument_from_va_list@_J_J@?$positional_parameter_base@DV?$stream_output_adapter@D@__crt_stdio_output@@@__crt_stdio_output@@IAE_NAA_J@Z 10025796 f i libucrt:output.obj
 0001:00024847       ??$extract_argument_from_va_list@_J_J@?$positional_parameter_base@DV?$string_output_adapter@D@__crt_stdio_output@@@__crt_stdio_output@@IAE_NAA_J@Z 10025847 f i libucrt:output.obj
 0001:000248f8       ??$extract_argument_from_va_list@_J_J@?$positional_parameter_base@_WV?$stream_output_adapter@_W@__crt_stdio_output@@@__crt_stdio_output@@IAE_NAA_J@Z 100258f8 f i libucrt:output.obj
 0001:000249a9       ??$extract_argument_from_va_list@_J_J@?$positional_parameter_base@_WV?$string_output_adapter@_W@__crt_stdio_output@@@__crt_stdio_output@@IAE_NAA_J@Z 100259a9 f i libucrt:output.obj
 0001:00024a5a       ??$extract_argument_from_va_list@_J_J@?$standard_base@DV?$stream_output_adapter@D@__crt_stdio_output@@@__crt_stdio_output@@IAE_NAA_J@Z 10025a5a f i libucrt:output.obj
 0001:00024a82       ??$extract_argument_from_va_list@_J_J@?$standard_base@DV?$string_output_adapter@D@__crt_stdio_output@@@__crt_stdio_output@@IAE_NAA_J@Z 10025a82 f i libucrt:output.obj
 0001:00024aaa       ??$extract_argument_from_va_list@_J_J@?$standard_base@_WV?$stream_output_adapter@_W@__crt_stdio_output@@@__crt_stdio_output@@IAE_NAA_J@Z 10025aaa f i libucrt:output.obj
 0001:00024ad2       ??$extract_argument_from_va_list@_J_J@?$standard_base@_WV?$string_output_adapter@_W@__crt_stdio_output@@@__crt_stdio_output@@IAE_NAA_J@Z 10025ad2 f i libucrt:output.obj
 0001:00024afa       ??$extract_argument_from_va_list@_K_J@?$positional_parameter_base@DV?$stream_output_adapter@D@__crt_stdio_output@@@__crt_stdio_output@@IAE_NAA_J@Z 10025afa f i libucrt:output.obj
 0001:00024bab       ??$extract_argument_from_va_list@_K_J@?$positional_parameter_base@DV?$string_output_adapter@D@__crt_stdio_output@@@__crt_stdio_output@@IAE_NAA_J@Z 10025bab f i libucrt:output.obj
 0001:00024c5c       ??$extract_argument_from_va_list@_K_J@?$positional_parameter_base@_WV?$stream_output_adapter@_W@__crt_stdio_output@@@__crt_stdio_output@@IAE_NAA_J@Z 10025c5c f i libucrt:output.obj
 0001:00024d0d       ??$extract_argument_from_va_list@_K_J@?$positional_parameter_base@_WV?$string_output_adapter@_W@__crt_stdio_output@@@__crt_stdio_output@@IAE_NAA_J@Z 10025d0d f i libucrt:output.obj
 0001:00024dbe       ??$extract_argument_from_va_list@_K_J@?$standard_base@DV?$stream_output_adapter@D@__crt_stdio_output@@@__crt_stdio_output@@IAE_NAA_J@Z 10025dbe f i libucrt:output.obj
 0001:00024de6       ??$extract_argument_from_va_list@_K_J@?$standard_base@DV?$string_output_adapter@D@__crt_stdio_output@@@__crt_stdio_output@@IAE_NAA_J@Z 10025de6 f i libucrt:output.obj
 0001:00024e0e       ??$extract_argument_from_va_list@_K_J@?$standard_base@_WV?$stream_output_adapter@_W@__crt_stdio_output@@@__crt_stdio_output@@IAE_NAA_J@Z 10025e0e f i libucrt:output.obj
 0001:00024e36       ??$extract_argument_from_va_list@_K_J@?$standard_base@_WV?$string_output_adapter@_W@__crt_stdio_output@@@__crt_stdio_output@@IAE_NAA_J@Z 10025e36 f i libucrt:output.obj
 0001:00024e5e       ??$extract_argument_from_va_list@_W_W@?$positional_parameter_base@DV?$stream_output_adapter@D@__crt_stdio_output@@@__crt_stdio_output@@IAE_NAA_W@Z 10025e5e f i libucrt:output.obj
 0001:00024f00       ??$extract_argument_from_va_list@_W_W@?$positional_parameter_base@DV?$string_output_adapter@D@__crt_stdio_output@@@__crt_stdio_output@@IAE_NAA_W@Z 10025f00 f i libucrt:output.obj
 0001:00024fa2       ??$extract_argument_from_va_list@_W_W@?$positional_parameter_base@_WV?$stream_output_adapter@_W@__crt_stdio_output@@@__crt_stdio_output@@IAE_NAA_W@Z 10025fa2 f i libucrt:output.obj
 0001:00025044       ??$extract_argument_from_va_list@_W_W@?$positional_parameter_base@_WV?$string_output_adapter@_W@__crt_stdio_output@@@__crt_stdio_output@@IAE_NAA_W@Z 10026044 f i libucrt:output.obj
 0001:000250e6       ??$extract_argument_from_va_list@_W_W@?$standard_base@DV?$stream_output_adapter@D@__crt_stdio_output@@@__crt_stdio_output@@IAE_NAA_W@Z 100260e6 f i libucrt:output.obj
 0001:00025109       ??$extract_argument_from_va_list@_W_W@?$standard_base@DV?$string_output_adapter@D@__crt_stdio_output@@@__crt_stdio_output@@IAE_NAA_W@Z 10026109 f i libucrt:output.obj
 0001:0002512c       ??$extract_argument_from_va_list@_W_W@?$standard_base@_WV?$stream_output_adapter@_W@__crt_stdio_output@@@__crt_stdio_output@@IAE_NAA_W@Z 1002612c f i libucrt:output.obj
 0001:0002514f       ??$extract_argument_from_va_list@_W_W@?$standard_base@_WV?$string_output_adapter@_W@__crt_stdio_output@@@__crt_stdio_output@@IAE_NAA_W@Z 1002614f f i libucrt:output.obj
 0001:00025172       ??$get_parameter_type@D@?$positional_parameter_base@DV?$stream_output_adapter@D@__crt_stdio_output@@@__crt_stdio_output@@CA?AW4parameter_type@01@PAD@Z 10026172 f i libucrt:output.obj
 0001:00025176       ??$get_parameter_type@D@?$positional_parameter_base@DV?$string_output_adapter@D@__crt_stdio_output@@@__crt_stdio_output@@CA?AW4parameter_type@01@PAD@Z 10026176 f i libucrt:output.obj
 0001:0002517a       ??$get_parameter_type@D@?$positional_parameter_base@_WV?$stream_output_adapter@_W@__crt_stdio_output@@@__crt_stdio_output@@CA?AW4parameter_type@01@PAD@Z 1002617a f i libucrt:output.obj
 0001:0002517e       ??$get_parameter_type@D@?$positional_parameter_base@_WV?$string_output_adapter@_W@__crt_stdio_output@@@__crt_stdio_output@@CA?AW4parameter_type@01@PAD@Z 1002617e f i libucrt:output.obj
 0001:00025182       ??$get_parameter_type@Uansi_string@?1??type_case_Z@?$output_processor@DV?$stream_output_adapter@D@__crt_stdio_output@@V?$positional_parameter_base@DV?$stream_output_adapter@D@__crt_stdio_output@@@2@@__crt_stdio_output@@AAE_NXZ@@?$positional_parameter_base@DV?$stream_output_adapter@D@__crt_stdio_output@@@__crt_stdio_output@@CA?AW4parameter_type@01@PAUansi_string@?1??type_case_Z@?$output_processor@DV?$stream_output_adapter@D@__crt_stdio_output@@V?$positional_parameter_base@DV?$stream_output_adapter@D@__crt_stdio_output@@@2@@1@AAE_NXZ@@Z 10026182 f i libucrt:output.obj
 0001:00025186       ??$get_parameter_type@Uansi_string@?1??type_case_Z@?$output_processor@DV?$string_output_adapter@D@__crt_stdio_output@@V?$positional_parameter_base@DV?$string_output_adapter@D@__crt_stdio_output@@@2@@__crt_stdio_output@@AAE_NXZ@@?$positional_parameter_base@DV?$string_output_adapter@D@__crt_stdio_output@@@__crt_stdio_output@@CA?AW4parameter_type@01@PAUansi_string@?1??type_case_Z@?$output_processor@DV?$string_output_adapter@D@__crt_stdio_output@@V?$positional_parameter_base@DV?$string_output_adapter@D@__crt_stdio_output@@@2@@1@AAE_NXZ@@Z 10026186 f i libucrt:output.obj
 0001:0002518a       ??$get_parameter_type@Uansi_string@?1??type_case_Z@?$output_processor@_WV?$stream_output_adapter@_W@__crt_stdio_output@@V?$positional_parameter_base@_WV?$stream_output_adapter@_W@__crt_stdio_output@@@2@@__crt_stdio_output@@AAE_NXZ@@?$positional_parameter_base@_WV?$stream_output_adapter@_W@__crt_stdio_output@@@__crt_stdio_output@@CA?AW4parameter_type@01@PAUansi_string@?1??type_case_Z@?$output_processor@_WV?$stream_output_adapter@_W@__crt_stdio_output@@V?$positional_parameter_base@_WV?$stream_output_adapter@_W@__crt_stdio_output@@@2@@1@AAE_NXZ@@Z 1002618a f i libucrt:output.obj
 0001:0002518e       ??$get_parameter_type@Uansi_string@?1??type_case_Z@?$output_processor@_WV?$string_output_adapter@_W@__crt_stdio_output@@V?$positional_parameter_base@_WV?$string_output_adapter@_W@__crt_stdio_output@@@2@@__crt_stdio_output@@AAE_NXZ@@?$positional_parameter_base@_WV?$string_output_adapter@_W@__crt_stdio_output@@@__crt_stdio_output@@CA?AW4parameter_type@01@PAUansi_string@?1??type_case_Z@?$output_processor@_WV?$string_output_adapter@_W@__crt_stdio_output@@V?$positional_parameter_base@_WV?$string_output_adapter@_W@__crt_stdio_output@@@2@@1@AAE_NXZ@@Z 1002618e f i libucrt:output.obj
 0001:00025192       ??$get_parameter_type@X@?$positional_parameter_base@DV?$stream_output_adapter@D@__crt_stdio_output@@@__crt_stdio_output@@CA?AW4parameter_type@01@PAX@Z 10026192 f i libucrt:output.obj
 0001:00025196       ??$get_parameter_type@X@?$positional_parameter_base@DV?$string_output_adapter@D@__crt_stdio_output@@@__crt_stdio_output@@CA?AW4parameter_type@01@PAX@Z 10026196 f i libucrt:output.obj
 0001:0002519a       ??$get_parameter_type@X@?$positional_parameter_base@_WV?$stream_output_adapter@_W@__crt_stdio_output@@@__crt_stdio_output@@CA?AW4parameter_type@01@PAX@Z 1002619a f i libucrt:output.obj
 0001:0002519e       ??$get_parameter_type@X@?$positional_parameter_base@_WV?$string_output_adapter@_W@__crt_stdio_output@@@__crt_stdio_output@@CA?AW4parameter_type@01@PAX@Z 1002619e f i libucrt:output.obj
 0001:000251a2       ??$is_character_specifier@D@?$positional_parameter_base@DV?$stream_output_adapter@D@__crt_stdio_output@@@__crt_stdio_output@@CA_ND@Z 100261a2 f i libucrt:output.obj
 0001:000251c1       ??$is_character_specifier@D@?$positional_parameter_base@DV?$string_output_adapter@D@__crt_stdio_output@@@__crt_stdio_output@@CA_ND@Z 100261c1 f i libucrt:output.obj
 0001:000251e0       ??$is_character_specifier@_W@?$positional_parameter_base@_WV?$stream_output_adapter@_W@__crt_stdio_output@@@__crt_stdio_output@@CA_N_W@Z 100261e0 f i libucrt:output.obj
 0001:00025203       ??$is_character_specifier@_W@?$positional_parameter_base@_WV?$string_output_adapter@_W@__crt_stdio_output@@@__crt_stdio_output@@CA_N_W@Z 10026203 f i libucrt:output.obj
 0001:00025226       ??$is_integral_specifier@D@?$positional_parameter_base@DV?$stream_output_adapter@D@__crt_stdio_output@@@__crt_stdio_output@@CA_ND@Z 10026226 f i libucrt:output.obj
 0001:0002525e       ??$is_integral_specifier@D@?$positional_parameter_base@DV?$string_output_adapter@D@__crt_stdio_output@@@__crt_stdio_output@@CA_ND@Z 1002625e f i libucrt:output.obj
 0001:00025296       ??$is_integral_specifier@_W@?$positional_parameter_base@_WV?$stream_output_adapter@_W@__crt_stdio_output@@@__crt_stdio_output@@CA_N_W@Z 10026296 f i libucrt:output.obj
 0001:000252e1       ??$is_integral_specifier@_W@?$positional_parameter_base@_WV?$string_output_adapter@_W@__crt_stdio_output@@@__crt_stdio_output@@CA_N_W@Z 100262e1 f i libucrt:output.obj
 0001:0002532c       ??$is_pointer_specifier@D@?$positional_parameter_base@DV?$stream_output_adapter@D@__crt_stdio_output@@@__crt_stdio_output@@CA_ND@Z 1002632c f i libucrt:output.obj
 0001:00025340       ??$is_pointer_specifier@D@?$positional_parameter_base@DV?$string_output_adapter@D@__crt_stdio_output@@@__crt_stdio_output@@CA_ND@Z 10026340 f i libucrt:output.obj
 0001:00025354       ??$is_pointer_specifier@_W@?$positional_parameter_base@_WV?$stream_output_adapter@_W@__crt_stdio_output@@@__crt_stdio_output@@CA_N_W@Z 10026354 f i libucrt:output.obj
 0001:00025369       ??$is_pointer_specifier@_W@?$positional_parameter_base@_WV?$string_output_adapter@_W@__crt_stdio_output@@@__crt_stdio_output@@CA_N_W@Z 10026369 f i libucrt:output.obj
 0001:0002537e       ??$is_string_specifier@D@?$positional_parameter_base@DV?$stream_output_adapter@D@__crt_stdio_output@@@__crt_stdio_output@@CA_ND@Z 1002637e f i libucrt:output.obj
 0001:0002539d       ??$is_string_specifier@D@?$positional_parameter_base@DV?$string_output_adapter@D@__crt_stdio_output@@@__crt_stdio_output@@CA_ND@Z 1002639d f i libucrt:output.obj
 0001:000253bc       ??$is_string_specifier@_W@?$positional_parameter_base@_WV?$stream_output_adapter@_W@__crt_stdio_output@@@__crt_stdio_output@@CA_N_W@Z 100263bc f i libucrt:output.obj
 0001:000253df       ??$is_string_specifier@_W@?$positional_parameter_base@_WV?$string_output_adapter@_W@__crt_stdio_output@@@__crt_stdio_output@@CA_N_W@Z 100263df f i libucrt:output.obj
 0001:00025402       ??$is_wide_character_specifier@D@__crt_stdio_output@@YA_N_KDW4length_modifier@0@@Z 10026402 f i libucrt:output.obj
 0001:00025452       ??$is_wide_character_specifier@_W@__crt_stdio_output@@YA_N_K_WW4length_modifier@0@@Z 10026452 f i libucrt:output.obj
 0001:000254b4       ??$peek_va_arg@C@__crt_stdio_output@@YACPAD@Z 100264b4 f i libucrt:output.obj
 0001:000254c3       ??$peek_va_arg@E@__crt_stdio_output@@YAEPAD@Z 100264c3 f i libucrt:output.obj
 0001:000254d2       ??$peek_va_arg@F@__crt_stdio_output@@YAFPAD@Z 100264d2 f i libucrt:output.obj
 0001:000254e2       ??$peek_va_arg@G@__crt_stdio_output@@YAGPAD@Z 100264e2 f i libucrt:output.obj
 0001:000254f2       ??$peek_va_arg@H@__crt_stdio_output@@YAHPAD@Z 100264f2 f i libucrt:output.obj
 0001:00025501       ??$peek_va_arg@I@__crt_stdio_output@@YAIPAD@Z 10026501 f i libucrt:output.obj
 0001:00025510       ??$peek_va_arg@PAD@__crt_stdio_output@@YAPADPAD@Z 10026510 f i libucrt:output.obj
 0001:0002551f       ??$peek_va_arg@PAUansi_string@?1??type_case_Z@?$output_processor@DV?$stream_output_adapter@D@__crt_stdio_output@@V?$positional_parameter_base@DV?$stream_output_adapter@D@__crt_stdio_output@@@2@@__crt_stdio_output@@AAE_NXZ@@__crt_stdio_output@@YAPAUansi_string@?1??type_case_Z@?$output_processor@DV?$stream_output_adapter@D@__crt_stdio_output@@V?$positional_parameter_base@DV?$stream_output_adapter@D@__crt_stdio_output@@@2@@0@AAE_NXZ@PAD@Z 1002651f f i libucrt:output.obj
 0001:0002552e       ??$peek_va_arg@PAUansi_string@?1??type_case_Z@?$output_processor@DV?$string_output_adapter@D@__crt_stdio_output@@V?$positional_parameter_base@DV?$string_output_adapter@D@__crt_stdio_output@@@2@@__crt_stdio_output@@AAE_NXZ@@__crt_stdio_output@@YAPAUansi_string@?1??type_case_Z@?$output_processor@DV?$string_output_adapter@D@__crt_stdio_output@@V?$positional_parameter_base@DV?$string_output_adapter@D@__crt_stdio_output@@@2@@0@AAE_NXZ@PAD@Z 1002652e f i libucrt:output.obj
 0001:0002553d       ??$peek_va_arg@PAUansi_string@?1??type_case_Z@?$output_processor@_WV?$stream_output_adapter@_W@__crt_stdio_output@@V?$positional_parameter_base@_WV?$stream_output_adapter@_W@__crt_stdio_output@@@2@@__crt_stdio_output@@AAE_NXZ@@__crt_stdio_output@@YAPAUansi_string@?1??type_case_Z@?$output_processor@_WV?$stream_output_adapter@_W@__crt_stdio_output@@V?$positional_parameter_base@_WV?$stream_output_adapter@_W@__crt_stdio_output@@@2@@0@AAE_NXZ@PAD@Z 1002653d f i libucrt:output.obj
 0001:0002554c       ??$peek_va_arg@PAUansi_string@?1??type_case_Z@?$output_processor@_WV?$string_output_adapter@_W@__crt_stdio_output@@V?$positional_parameter_base@_WV?$string_output_adapter@_W@__crt_stdio_output@@@2@@__crt_stdio_output@@AAE_NXZ@@__crt_stdio_output@@YAPAUansi_string@?1??type_case_Z@?$output_processor@_WV?$string_output_adapter@_W@__crt_stdio_output@@V?$positional_parameter_base@_WV?$string_output_adapter@_W@__crt_stdio_output@@@2@@0@AAE_NXZ@PAD@Z 1002654c f i libucrt:output.obj
 0001:0002555b       ??$peek_va_arg@PAX@__crt_stdio_output@@YAPAXPAD@Z 1002655b f i libucrt:output.obj
 0001:0002556a       ??$peek_va_arg@U_CRT_DOUBLE@@@__crt_stdio_output@@YA?AU_CRT_DOUBLE@@PAD@Z 1002656a f i libucrt:output.obj
 0001:0002557c       ??$peek_va_arg@_J@__crt_stdio_output@@YA_JPAD@Z 1002657c f i libucrt:output.obj
 0001:0002558e       ??$peek_va_arg@_K@__crt_stdio_output@@YA_KPAD@Z 1002658e f i libucrt:output.obj
 0001:000255a0       ??$peek_va_arg@_W@__crt_stdio_output@@YA_WPAD@Z 100265a0 f i libucrt:output.obj
 0001:000255b0       ??$puttc_nolock@ABDPAU_iobuf@@@?$__crt_char_traits@D@@SAHABD$$QAPAU_iobuf@@@Z 100265b0 f i libucrt:output.obj
 0001:000255d0       ??$puttc_nolock@AB_WPAU_iobuf@@@?$__crt_char_traits@_W@@SAGAB_W$$QAPAU_iobuf@@@Z 100265d0 f i libucrt:output.obj
 0001:000255f0       ??$read_va_arg@C@__crt_stdio_output@@YACAAPAD@Z 100265f0 f i libucrt:output.obj
 0001:00025606       ??$read_va_arg@E@__crt_stdio_output@@YAEAAPAD@Z 10026606 f i libucrt:output.obj
 0001:0002561c       ??$read_va_arg@F@__crt_stdio_output@@YAFAAPAD@Z 1002661c f i libucrt:output.obj
 0001:00025633       ??$read_va_arg@G@__crt_stdio_output@@YAGAAPAD@Z 10026633 f i libucrt:output.obj
 0001:0002564a       ??$read_va_arg@H@__crt_stdio_output@@YAHAAPAD@Z 1002664a f i libucrt:output.obj
 0001:00025660       ??$read_va_arg@I@__crt_stdio_output@@YAIAAPAD@Z 10026660 f i libucrt:output.obj
 0001:00025676       ??$read_va_arg@PAD@__crt_stdio_output@@YAPADAAPAD@Z 10026676 f i libucrt:output.obj
 0001:0002568c       ??$read_va_arg@PAUansi_string@?1??type_case_Z@?$output_processor@DV?$stream_output_adapter@D@__crt_stdio_output@@V?$format_validation_base@DV?$stream_output_adapter@D@__crt_stdio_output@@@2@@__crt_stdio_output@@AAE_NXZ@@__crt_stdio_output@@YAPAUansi_string@?1??type_case_Z@?$output_processor@DV?$stream_output_adapter@D@__crt_stdio_output@@V?$format_validation_base@DV?$stream_output_adapter@D@__crt_stdio_output@@@2@@0@AAE_NXZ@AAPAD@Z 1002668c f i libucrt:output.obj
 0001:000256a2       ??$read_va_arg@PAUansi_string@?1??type_case_Z@?$output_processor@DV?$stream_output_adapter@D@__crt_stdio_output@@V?$positional_parameter_base@DV?$stream_output_adapter@D@__crt_stdio_output@@@2@@__crt_stdio_output@@AAE_NXZ@@__crt_stdio_output@@YAPAUansi_string@?1??type_case_Z@?$output_processor@DV?$stream_output_adapter@D@__crt_stdio_output@@V?$positional_parameter_base@DV?$stream_output_adapter@D@__crt_stdio_output@@@2@@0@AAE_NXZ@AAPAD@Z 100266a2 f i libucrt:output.obj
 0001:000256b8       ??$read_va_arg@PAUansi_string@?1??type_case_Z@?$output_processor@DV?$stream_output_adapter@D@__crt_stdio_output@@V?$standard_base@DV?$stream_output_adapter@D@__crt_stdio_output@@@2@@__crt_stdio_output@@AAE_NXZ@@__crt_stdio_output@@YAPAUansi_string@?1??type_case_Z@?$output_processor@DV?$stream_output_adapter@D@__crt_stdio_output@@V?$standard_base@DV?$stream_output_adapter@D@__crt_stdio_output@@@2@@0@AAE_NXZ@AAPAD@Z 100266b8 f i libucrt:output.obj
 0001:000256ce       ??$read_va_arg@PAUansi_string@?1??type_case_Z@?$output_processor@DV?$string_output_adapter@D@__crt_stdio_output@@V?$format_validation_base@DV?$string_output_adapter@D@__crt_stdio_output@@@2@@__crt_stdio_output@@AAE_NXZ@@__crt_stdio_output@@YAPAUansi_string@?1??type_case_Z@?$output_processor@DV?$string_output_adapter@D@__crt_stdio_output@@V?$format_validation_base@DV?$string_output_adapter@D@__crt_stdio_output@@@2@@0@AAE_NXZ@AAPAD@Z 100266ce f i libucrt:output.obj
 0001:000256e4       ??$read_va_arg@PAUansi_string@?1??type_case_Z@?$output_processor@DV?$string_output_adapter@D@__crt_stdio_output@@V?$positional_parameter_base@DV?$string_output_adapter@D@__crt_stdio_output@@@2@@__crt_stdio_output@@AAE_NXZ@@__crt_stdio_output@@YAPAUansi_string@?1??type_case_Z@?$output_processor@DV?$string_output_adapter@D@__crt_stdio_output@@V?$positional_parameter_base@DV?$string_output_adapter@D@__crt_stdio_output@@@2@@0@AAE_NXZ@AAPAD@Z 100266e4 f i libucrt:output.obj
 0001:000256fa       ??$read_va_arg@PAUansi_string@?1??type_case_Z@?$output_processor@DV?$string_output_adapter@D@__crt_stdio_output@@V?$standard_base@DV?$string_output_adapter@D@__crt_stdio_output@@@2@@__crt_stdio_output@@AAE_NXZ@@__crt_stdio_output@@YAPAUansi_string@?1??type_case_Z@?$output_processor@DV?$string_output_adapter@D@__crt_stdio_output@@V?$standard_base@DV?$string_output_adapter@D@__crt_stdio_output@@@2@@0@AAE_NXZ@AAPAD@Z 100266fa f i libucrt:output.obj
 0001:00025710       ??$read_va_arg@PAUansi_string@?1??type_case_Z@?$output_processor@_WV?$stream_output_adapter@_W@__crt_stdio_output@@V?$format_validation_base@_WV?$stream_output_adapter@_W@__crt_stdio_output@@@2@@__crt_stdio_output@@AAE_NXZ@@__crt_stdio_output@@YAPAUansi_string@?1??type_case_Z@?$output_processor@_WV?$stream_output_adapter@_W@__crt_stdio_output@@V?$format_validation_base@_WV?$stream_output_adapter@_W@__crt_stdio_output@@@2@@0@AAE_NXZ@AAPAD@Z 10026710 f i libucrt:output.obj
 0001:00025726       ??$read_va_arg@PAUansi_string@?1??type_case_Z@?$output_processor@_WV?$stream_output_adapter@_W@__crt_stdio_output@@V?$positional_parameter_base@_WV?$stream_output_adapter@_W@__crt_stdio_output@@@2@@__crt_stdio_output@@AAE_NXZ@@__crt_stdio_output@@YAPAUansi_string@?1??type_case_Z@?$output_processor@_WV?$stream_output_adapter@_W@__crt_stdio_output@@V?$positional_parameter_base@_WV?$stream_output_adapter@_W@__crt_stdio_output@@@2@@0@AAE_NXZ@AAPAD@Z 10026726 f i libucrt:output.obj
 0001:0002573c       ??$read_va_arg@PAUansi_string@?1??type_case_Z@?$output_processor@_WV?$stream_output_adapter@_W@__crt_stdio_output@@V?$standard_base@_WV?$stream_output_adapter@_W@__crt_stdio_output@@@2@@__crt_stdio_output@@AAE_NXZ@@__crt_stdio_output@@YAPAUansi_string@?1??type_case_Z@?$output_processor@_WV?$stream_output_adapter@_W@__crt_stdio_output@@V?$standard_base@_WV?$stream_output_adapter@_W@__crt_stdio_output@@@2@@0@AAE_NXZ@AAPAD@Z 1002673c f i libucrt:output.obj
 0001:00025752       ??$read_va_arg@PAUansi_string@?1??type_case_Z@?$output_processor@_WV?$string_output_adapter@_W@__crt_stdio_output@@V?$format_validation_base@_WV?$string_output_adapter@_W@__crt_stdio_output@@@2@@__crt_stdio_output@@AAE_NXZ@@__crt_stdio_output@@YAPAUansi_string@?1??type_case_Z@?$output_processor@_WV?$string_output_adapter@_W@__crt_stdio_output@@V?$format_validation_base@_WV?$string_output_adapter@_W@__crt_stdio_output@@@2@@0@AAE_NXZ@AAPAD@Z 10026752 f i libucrt:output.obj
 0001:00025768       ??$read_va_arg@PAUansi_string@?1??type_case_Z@?$output_processor@_WV?$string_output_adapter@_W@__crt_stdio_output@@V?$positional_parameter_base@_WV?$string_output_adapter@_W@__crt_stdio_output@@@2@@__crt_stdio_output@@AAE_NXZ@@__crt_stdio_output@@YAPAUansi_string@?1??type_case_Z@?$output_processor@_WV?$string_output_adapter@_W@__crt_stdio_output@@V?$positional_parameter_base@_WV?$string_output_adapter@_W@__crt_stdio_output@@@2@@0@AAE_NXZ@AAPAD@Z 10026768 f i libucrt:output.obj
 0001:0002577e       ??$read_va_arg@PAUansi_string@?1??type_case_Z@?$output_processor@_WV?$string_output_adapter@_W@__crt_stdio_output@@V?$standard_base@_WV?$string_output_adapter@_W@__crt_stdio_output@@@2@@__crt_stdio_output@@AAE_NXZ@@__crt_stdio_output@@YAPAUansi_string@?1??type_case_Z@?$output_processor@_WV?$string_output_adapter@_W@__crt_stdio_output@@V?$standard_base@_WV?$string_output_adapter@_W@__crt_stdio_output@@@2@@0@AAE_NXZ@AAPAD@Z 1002677e f i libucrt:output.obj
 0001:00025794       ??$read_va_arg@PAX@__crt_stdio_output@@YAPAXAAPAD@Z 10026794 f i libucrt:output.obj
 0001:000257aa       ??$read_va_arg@U_CRT_DOUBLE@@@__crt_stdio_output@@YA?AU_CRT_DOUBLE@@AAPAD@Z 100267aa f i libucrt:output.obj
 0001:000257c4       ??$read_va_arg@_J@__crt_stdio_output@@YA_JAAPAD@Z 100267c4 f i libucrt:output.obj
 0001:000257de       ??$read_va_arg@_K@__crt_stdio_output@@YA_KAAPAD@Z 100267de f i libucrt:output.obj
 0001:000257f8       ??$read_va_arg@_W@__crt_stdio_output@@YA_WAAPAD@Z 100267f8 f i libucrt:output.obj
 0001:0002580f       ??$scratch_count@D@formatting_buffer@__crt_stdio_output@@QBEIXZ 1002680f f i libucrt:output.obj
 0001:00025814       ??$scratch_data@D@formatting_buffer@__crt_stdio_output@@QAEPADXZ 10026814 f i libucrt:output.obj
 0001:00025839       ??$tcstol@AAPBDPAPADH@?$__crt_char_traits@D@@SAJAAPBD$$QAPAPAD$$QAH@Z 10026839 f i libucrt:output.obj
 0001:0002585e       ??$tcstol@AAPB_WPAPA_WH@?$__crt_char_traits@_W@@SAJAAPB_W$$QAPAPA_W$$QAH@Z 1002685e f i libucrt:output.obj
 0001:00025883       ??$tcstol@PBDPAPADH@?$__crt_char_traits@D@@SAJ$$QAPBD$$QAPAPAD$$QAH@Z 10026883 f i libucrt:output.obj
 0001:000258a8       ??$tcstol@PB_WPAPA_WH@?$__crt_char_traits@_W@@SAJ$$QAPB_W$$QAPAPA_W$$QAH@Z 100268a8 f i libucrt:output.obj
 0001:000258cd       ??$type_case_integer_parse_into_buffer@I@?$output_processor@DV?$stream_output_adapter@D@__crt_stdio_output@@V?$format_validation_base@DV?$stream_output_adapter@D@__crt_stdio_output@@@2@@__crt_stdio_output@@AAEXII_N@Z 100268cd f i libucrt:output.obj
 0001:0002595f       ??$type_case_integer_parse_into_buffer@I@?$output_processor@DV?$stream_output_adapter@D@__crt_stdio_output@@V?$positional_parameter_base@DV?$stream_output_adapter@D@__crt_stdio_output@@@2@@__crt_stdio_output@@AAEXII_N@Z 1002695f f i libucrt:output.obj
 0001:000259f1       ??$type_case_integer_parse_into_buffer@I@?$output_processor@DV?$stream_output_adapter@D@__crt_stdio_output@@V?$standard_base@DV?$stream_output_adapter@D@__crt_stdio_output@@@2@@__crt_stdio_output@@AAEXII_N@Z 100269f1 f i libucrt:output.obj
 0001:00025a83       ??$type_case_integer_parse_into_buffer@I@?$output_processor@DV?$string_output_adapter@D@__crt_stdio_output@@V?$format_validation_base@DV?$string_output_adapter@D@__crt_stdio_output@@@2@@__crt_stdio_output@@AAEXII_N@Z 10026a83 f i libucrt:output.obj
 0001:00025b15       ??$type_case_integer_parse_into_buffer@I@?$output_processor@DV?$string_output_adapter@D@__crt_stdio_output@@V?$positional_parameter_base@DV?$string_output_adapter@D@__crt_stdio_output@@@2@@__crt_stdio_output@@AAEXII_N@Z 10026b15 f i libucrt:output.obj
 0001:00025ba7       ??$type_case_integer_parse_into_buffer@I@?$output_processor@DV?$string_output_adapter@D@__crt_stdio_output@@V?$standard_base@DV?$string_output_adapter@D@__crt_stdio_output@@@2@@__crt_stdio_output@@AAEXII_N@Z 10026ba7 f i libucrt:output.obj
 0001:00025c39       ??$type_case_integer_parse_into_buffer@I@?$output_processor@_WV?$stream_output_adapter@_W@__crt_stdio_output@@V?$format_validation_base@_WV?$stream_output_adapter@_W@__crt_stdio_output@@@2@@__crt_stdio_output@@AAEXII_N@Z 10026c39 f i libucrt:output.obj
 0001:00025ccb       ??$type_case_integer_parse_into_buffer@I@?$output_processor@_WV?$stream_output_adapter@_W@__crt_stdio_output@@V?$positional_parameter_base@_WV?$stream_output_adapter@_W@__crt_stdio_output@@@2@@__crt_stdio_output@@AAEXII_N@Z 10026ccb f i libucrt:output.obj
 0001:00025d5d       ??$type_case_integer_parse_into_buffer@I@?$output_processor@_WV?$stream_output_adapter@_W@__crt_stdio_output@@V?$standard_base@_WV?$stream_output_adapter@_W@__crt_stdio_output@@@2@@__crt_stdio_output@@AAEXII_N@Z 10026d5d f i libucrt:output.obj
 0001:00025def       ??$type_case_integer_parse_into_buffer@I@?$output_processor@_WV?$string_output_adapter@_W@__crt_stdio_output@@V?$format_validation_base@_WV?$string_output_adapter@_W@__crt_stdio_output@@@2@@__crt_stdio_output@@AAEXII_N@Z 10026def f i libucrt:output.obj
 0001:00025e81       ??$type_case_integer_parse_into_buffer@I@?$output_processor@_WV?$string_output_adapter@_W@__crt_stdio_output@@V?$positional_parameter_base@_WV?$string_output_adapter@_W@__crt_stdio_output@@@2@@__crt_stdio_output@@AAEXII_N@Z 10026e81 f i libucrt:output.obj
 0001:00025f13       ??$type_case_integer_parse_into_buffer@I@?$output_processor@_WV?$string_output_adapter@_W@__crt_stdio_output@@V?$standard_base@_WV?$string_output_adapter@_W@__crt_stdio_output@@@2@@__crt_stdio_output@@AAEXII_N@Z 10026f13 f i libucrt:output.obj
 0001:00025fa5       ??$type_case_integer_parse_into_buffer@_K@?$output_processor@DV?$stream_output_adapter@D@__crt_stdio_output@@V?$format_validation_base@DV?$stream_output_adapter@D@__crt_stdio_output@@@2@@__crt_stdio_output@@AAEX_KI_N@Z 10026fa5 f i libucrt:output.obj
 0001:0002604f       ??$type_case_integer_parse_into_buffer@_K@?$output_processor@DV?$stream_output_adapter@D@__crt_stdio_output@@V?$positional_parameter_base@DV?$stream_output_adapter@D@__crt_stdio_output@@@2@@__crt_stdio_output@@AAEX_KI_N@Z 1002704f f i libucrt:output.obj
 0001:000260f9       ??$type_case_integer_parse_into_buffer@_K@?$output_processor@DV?$stream_output_adapter@D@__crt_stdio_output@@V?$standard_base@DV?$stream_output_adapter@D@__crt_stdio_output@@@2@@__crt_stdio_output@@AAEX_KI_N@Z 100270f9 f i libucrt:output.obj
 0001:000261a3       ??$type_case_integer_parse_into_buffer@_K@?$output_processor@DV?$string_output_adapter@D@__crt_stdio_output@@V?$format_validation_base@DV?$string_output_adapter@D@__crt_stdio_output@@@2@@__crt_stdio_output@@AAEX_KI_N@Z 100271a3 f i libucrt:output.obj
 0001:0002624d       ??$type_case_integer_parse_into_buffer@_K@?$output_processor@DV?$string_output_adapter@D@__crt_stdio_output@@V?$positional_parameter_base@DV?$string_output_adapter@D@__crt_stdio_output@@@2@@__crt_stdio_output@@AAEX_KI_N@Z 1002724d f i libucrt:output.obj
 0001:000262f7       ??$type_case_integer_parse_into_buffer@_K@?$output_processor@DV?$string_output_adapter@D@__crt_stdio_output@@V?$standard_base@DV?$string_output_adapter@D@__crt_stdio_output@@@2@@__crt_stdio_output@@AAEX_KI_N@Z 100272f7 f i libucrt:output.obj
 0001:000263a1       ??$type_case_integer_parse_into_buffer@_K@?$output_processor@_WV?$stream_output_adapter@_W@__crt_stdio_output@@V?$format_validation_base@_WV?$stream_output_adapter@_W@__crt_stdio_output@@@2@@__crt_stdio_output@@AAEX_KI_N@Z 100273a1 f i libucrt:output.obj
 0001:0002644b       ??$type_case_integer_parse_into_buffer@_K@?$output_processor@_WV?$stream_output_adapter@_W@__crt_stdio_output@@V?$positional_parameter_base@_WV?$stream_output_adapter@_W@__crt_stdio_output@@@2@@__crt_stdio_output@@AAEX_KI_N@Z 1002744b f i libucrt:output.obj
 0001:000264f5       ??$type_case_integer_parse_into_buffer@_K@?$output_processor@_WV?$stream_output_adapter@_W@__crt_stdio_output@@V?$standard_base@_WV?$stream_output_adapter@_W@__crt_stdio_output@@@2@@__crt_stdio_output@@AAEX_KI_N@Z 100274f5 f i libucrt:output.obj
 0001:0002659f       ??$type_case_integer_parse_into_buffer@_K@?$output_processor@_WV?$string_output_adapter@_W@__crt_stdio_output@@V?$format_validation_base@_WV?$string_output_adapter@_W@__crt_stdio_output@@@2@@__crt_stdio_output@@AAEX_KI_N@Z 1002759f f i libucrt:output.obj
 0001:00026649       ??$type_case_integer_parse_into_buffer@_K@?$output_processor@_WV?$string_output_adapter@_W@__crt_stdio_output@@V?$positional_parameter_base@_WV?$string_output_adapter@_W@__crt_stdio_output@@@2@@__crt_stdio_output@@AAEX_KI_N@Z 10027649 f i libucrt:output.obj
 0001:000266f3       ??$type_case_integer_parse_into_buffer@_K@?$output_processor@_WV?$string_output_adapter@_W@__crt_stdio_output@@V?$standard_base@_WV?$string_output_adapter@_W@__crt_stdio_output@@@2@@__crt_stdio_output@@AAEX_KI_N@Z 100276f3 f i libucrt:output.obj
 0001:0002679d       ??$write_multiple_characters@V?$stream_output_adapter@D@__crt_stdio_output@@D@__crt_stdio_output@@YAXABV?$stream_output_adapter@D@0@DHQAH@Z 1002779d f i libucrt:output.obj
 0001:000267d4       ??$write_multiple_characters@V?$stream_output_adapter@_W@__crt_stdio_output@@D@__crt_stdio_output@@YAXABV?$stream_output_adapter@_W@0@DHQAH@Z 100277d4 f i libucrt:output.obj
 0001:00026811       ??$write_multiple_characters@V?$string_output_adapter@D@__crt_stdio_output@@D@__crt_stdio_output@@YAXABV?$string_output_adapter@D@0@DHQAH@Z 10027811 f i libucrt:output.obj
 0001:00026848       ??$write_multiple_characters@V?$string_output_adapter@_W@__crt_stdio_output@@D@__crt_stdio_output@@YAXABV?$string_output_adapter@_W@0@DHQAH@Z 10027848 f i libucrt:output.obj
 0001:00026ab9       ??0?$common_data@D@__crt_stdio_output@@IAE@XZ 10027ab9 f i libucrt:output.obj
 0001:00026b11       ??0?$common_data@_W@__crt_stdio_output@@IAE@XZ 10027b11 f i libucrt:output.obj
 0001:00026b70       ??0?$output_adapter_data@DV?$stream_output_adapter@D@__crt_stdio_output@@@__crt_stdio_output@@IAE@ABV?$stream_output_adapter@D@1@_KQBDQAU__crt_locale_pointers@@QAD@Z 10027b70 f i libucrt:output.obj
 0001:00026bbb       ??0?$output_adapter_data@DV?$string_output_adapter@D@__crt_stdio_output@@@__crt_stdio_output@@IAE@ABV?$string_output_adapter@D@1@_KQBDQAU__crt_locale_pointers@@QAD@Z 10027bbb f i libucrt:output.obj
 0001:00026c06       ??0?$output_adapter_data@_WV?$stream_output_adapter@_W@__crt_stdio_output@@@__crt_stdio_output@@IAE@ABV?$stream_output_adapter@_W@1@_KQB_WQAU__crt_locale_pointers@@QAD@Z 10027c06 f i libucrt:output.obj
 0001:00026c51       ??0?$output_adapter_data@_WV?$string_output_adapter@_W@__crt_stdio_output@@@__crt_stdio_output@@IAE@ABV?$string_output_adapter@_W@1@_KQB_WQAU__crt_locale_pointers@@QAD@Z 10027c51 f i libucrt:output.obj
 0001:00026c9c       ??0?$output_processor@DV?$stream_output_adapter@D@__crt_stdio_output@@V?$format_validation_base@DV?$stream_output_adapter@D@__crt_stdio_output@@@2@@__crt_stdio_output@@QAE@ABV?$stream_output_adapter@D@1@_KQBDQAU__crt_locale_pointers@@QAD@Z 10027c9c f i libucrt:output.obj
 0001:00026cde       ??0?$output_processor@DV?$stream_output_adapter@D@__crt_stdio_output@@V?$positional_parameter_base@DV?$stream_output_adapter@D@__crt_stdio_output@@@2@@__crt_stdio_output@@QAE@ABV?$stream_output_adapter@D@1@_KQBDQAU__crt_locale_pointers@@QAD@Z 10027cde f i libucrt:output.obj
 0001:00026d18       ??0?$output_processor@DV?$stream_output_adapter@D@__crt_stdio_output@@V?$standard_base@DV?$stream_output_adapter@D@__crt_stdio_output@@@2@@__crt_stdio_output@@QAE@ABV?$stream_output_adapter@D@1@_KQBDQAU__crt_locale_pointers@@QAD@Z 10027d18 f i libucrt:output.obj
 0001:00026d5a       ??0?$output_processor@DV?$string_output_adapter@D@__crt_stdio_output@@V?$format_validation_base@DV?$string_output_adapter@D@__crt_stdio_output@@@2@@__crt_stdio_output@@QAE@ABV?$string_output_adapter@D@1@_KQBDQAU__crt_locale_pointers@@QAD@Z 10027d5a f i libucrt:output.obj
 0001:00026d9c       ??0?$output_processor@DV?$string_output_adapter@D@__crt_stdio_output@@V?$positional_parameter_base@DV?$string_output_adapter@D@__crt_stdio_output@@@2@@__crt_stdio_output@@QAE@ABV?$string_output_adapter@D@1@_KQBDQAU__crt_locale_pointers@@QAD@Z 10027d9c f i libucrt:output.obj
 0001:00026dd6       ??0?$output_processor@DV?$string_output_adapter@D@__crt_stdio_output@@V?$standard_base@DV?$string_output_adapter@D@__crt_stdio_output@@@2@@__crt_stdio_output@@QAE@ABV?$string_output_adapter@D@1@_KQBDQAU__crt_locale_pointers@@QAD@Z 10027dd6 f i libucrt:output.obj
 0001:00026e18       ??0?$output_processor@_WV?$stream_output_adapter@_W@__crt_stdio_output@@V?$format_validation_base@_WV?$stream_output_adapter@_W@__crt_stdio_output@@@2@@__crt_stdio_output@@QAE@ABV?$stream_output_adapter@_W@1@_KQB_WQAU__crt_locale_pointers@@QAD@Z 10027e18 f i libucrt:output.obj
 0001:00026e5a       ??0?$output_processor@_WV?$stream_output_adapter@_W@__crt_stdio_output@@V?$positional_parameter_base@_WV?$stream_output_adapter@_W@__crt_stdio_output@@@2@@__crt_stdio_output@@QAE@ABV?$stream_output_adapter@_W@1@_KQB_WQAU__crt_locale_pointers@@QAD@Z 10027e5a f i libucrt:output.obj
 0001:00026e94       ??0?$output_processor@_WV?$stream_output_adapter@_W@__crt_stdio_output@@V?$standard_base@_WV?$stream_output_adapter@_W@__crt_stdio_output@@@2@@__crt_stdio_output@@QAE@ABV?$stream_output_adapter@_W@1@_KQB_WQAU__crt_locale_pointers@@QAD@Z 10027e94 f i libucrt:output.obj
 0001:00026ed6       ??0?$output_processor@_WV?$string_output_adapter@_W@__crt_stdio_output@@V?$format_validation_base@_WV?$string_output_adapter@_W@__crt_stdio_output@@@2@@__crt_stdio_output@@QAE@ABV?$string_output_adapter@_W@1@_KQB_WQAU__crt_locale_pointers@@QAD@Z 10027ed6 f i libucrt:output.obj
 0001:00026f18       ??0?$output_processor@_WV?$string_output_adapter@_W@__crt_stdio_output@@V?$positional_parameter_base@_WV?$string_output_adapter@_W@__crt_stdio_output@@@2@@__crt_stdio_output@@QAE@ABV?$string_output_adapter@_W@1@_KQB_WQAU__crt_locale_pointers@@QAD@Z 10027f18 f i libucrt:output.obj
 0001:00026f52       ??0?$output_processor@_WV?$string_output_adapter@_W@__crt_stdio_output@@V?$standard_base@_WV?$string_output_adapter@_W@__crt_stdio_output@@@2@@__crt_stdio_output@@QAE@ABV?$string_output_adapter@_W@1@_KQB_WQAU__crt_locale_pointers@@QAD@Z 10027f52 f i libucrt:output.obj
 0001:00026f94       ??0?$stream_output_adapter@D@__crt_stdio_output@@QAE@QAU_iobuf@@@Z 10027f94 f i libucrt:output.obj
 0001:00026fa8       ??0?$stream_output_adapter@_W@__crt_stdio_output@@QAE@QAU_iobuf@@@Z 10027fa8 f i libucrt:output.obj
 0001:00026fbc       ??0?$string_output_adapter@D@__crt_stdio_output@@QAE@QAU?$string_output_adapter_context@D@1@@Z 10027fbc f i libucrt:output.obj
 0001:00026fd0       ??0?$string_output_adapter@_W@__crt_stdio_output@@QAE@QAU?$string_output_adapter_context@_W@1@@Z 10027fd0 f i libucrt:output.obj
 0001:00026fe4       ??0_LocaleUpdate@@QAE@QAU__crt_locale_pointers@@@Z 10027fe4 f i libucrt:output.obj
 0001:00027087       ??0__acrt_stdio_temporary_buffering_guard@@QAE@QAU_iobuf@@@Z 10028087 f i libucrt:output.obj
 0001:000270ac       ??0__crt_errno_guard@@QAE@QAH@Z 100280ac f i libucrt:output.obj
 0001:000270ca       ??0formatting_buffer@__crt_stdio_output@@QAE@XZ 100280ca f i libucrt:output.obj
 0001:000270df       ??1?$common_data@D@__crt_stdio_output@@QAE@XZ 100280df f i libucrt:output.obj
 0001:000270e9       ??1?$common_data@_W@__crt_stdio_output@@QAE@XZ 100280e9 f i libucrt:output.obj
 0001:000270f3       ??1?$format_validation_base@DV?$stream_output_adapter@D@__crt_stdio_output@@@__crt_stdio_output@@QAE@XZ 100280f3 f i libucrt:output.obj
 0001:000270fd       ??1?$format_validation_base@DV?$string_output_adapter@D@__crt_stdio_output@@@__crt_stdio_output@@QAE@XZ 100280fd f i libucrt:output.obj
 0001:00027107       ??1?$format_validation_base@_WV?$stream_output_adapter@_W@__crt_stdio_output@@@__crt_stdio_output@@QAE@XZ 10028107 f i libucrt:output.obj
 0001:00027111       ??1?$format_validation_base@_WV?$string_output_adapter@_W@__crt_stdio_output@@@__crt_stdio_output@@QAE@XZ 10028111 f i libucrt:output.obj
 0001:0002711b       ??1?$output_adapter_data@DV?$stream_output_adapter@D@__crt_stdio_output@@@__crt_stdio_output@@QAE@XZ 1002811b f i libucrt:output.obj
 0001:00027125       ??1?$output_adapter_data@DV?$string_output_adapter@D@__crt_stdio_output@@@__crt_stdio_output@@QAE@XZ 10028125 f i libucrt:output.obj
 0001:0002712f       ??1?$output_adapter_data@_WV?$stream_output_adapter@_W@__crt_stdio_output@@@__crt_stdio_output@@QAE@XZ 1002812f f i libucrt:output.obj
 0001:00027139       ??1?$output_adapter_data@_WV?$string_output_adapter@_W@__crt_stdio_output@@@__crt_stdio_output@@QAE@XZ 10028139 f i libucrt:output.obj
 0001:00027143       ??1?$output_processor@DV?$stream_output_adapter@D@__crt_stdio_output@@V?$format_validation_base@DV?$stream_output_adapter@D@__crt_stdio_output@@@2@@__crt_stdio_output@@QAE@XZ 10028143 f i libucrt:output.obj
 0001:0002714d       ??1?$output_processor@DV?$stream_output_adapter@D@__crt_stdio_output@@V?$positional_parameter_base@DV?$stream_output_adapter@D@__crt_stdio_output@@@2@@__crt_stdio_output@@QAE@XZ 1002814d f i libucrt:output.obj
 0001:00027157       ??1?$output_processor@DV?$stream_output_adapter@D@__crt_stdio_output@@V?$standard_base@DV?$stream_output_adapter@D@__crt_stdio_output@@@2@@__crt_stdio_output@@QAE@XZ 10028157 f i libucrt:output.obj
 0001:00027161       ??1?$output_processor@DV?$string_output_adapter@D@__crt_stdio_output@@V?$format_validation_base@DV?$string_output_adapter@D@__crt_stdio_output@@@2@@__crt_stdio_output@@QAE@XZ 10028161 f i libucrt:output.obj
 0001:0002716b       ??1?$output_processor@DV?$string_output_adapter@D@__crt_stdio_output@@V?$positional_parameter_base@DV?$string_output_adapter@D@__crt_stdio_output@@@2@@__crt_stdio_output@@QAE@XZ 1002816b f i libucrt:output.obj
 0001:00027175       ??1?$output_processor@DV?$string_output_adapter@D@__crt_stdio_output@@V?$standard_base@DV?$string_output_adapter@D@__crt_stdio_output@@@2@@__crt_stdio_output@@QAE@XZ 10028175 f i libucrt:output.obj
 0001:0002717f       ??1?$output_processor@_WV?$stream_output_adapter@_W@__crt_stdio_output@@V?$format_validation_base@_WV?$stream_output_adapter@_W@__crt_stdio_output@@@2@@__crt_stdio_output@@QAE@XZ 1002817f f i libucrt:output.obj
 0001:00027189       ??1?$output_processor@_WV?$stream_output_adapter@_W@__crt_stdio_output@@V?$positional_parameter_base@_WV?$stream_output_adapter@_W@__crt_stdio_output@@@2@@__crt_stdio_output@@QAE@XZ 10028189 f i libucrt:output.obj
 0001:00027193       ??1?$output_processor@_WV?$stream_output_adapter@_W@__crt_stdio_output@@V?$standard_base@_WV?$stream_output_adapter@_W@__crt_stdio_output@@@2@@__crt_stdio_output@@QAE@XZ 10028193 f i libucrt:output.obj
 0001:0002719d       ??1?$output_processor@_WV?$string_output_adapter@_W@__crt_stdio_output@@V?$format_validation_base@_WV?$string_output_adapter@_W@__crt_stdio_output@@@2@@__crt_stdio_output@@QAE@XZ 1002819d f i libucrt:output.obj
 0001:000271a7       ??1?$output_processor@_WV?$string_output_adapter@_W@__crt_stdio_output@@V?$positional_parameter_base@_WV?$string_output_adapter@_W@__crt_stdio_output@@@2@@__crt_stdio_output@@QAE@XZ 100281a7 f i libucrt:output.obj
 0001:000271b1       ??1?$output_processor@_WV?$string_output_adapter@_W@__crt_stdio_output@@V?$standard_base@_WV?$string_output_adapter@_W@__crt_stdio_output@@@2@@__crt_stdio_output@@QAE@XZ 100281b1 f i libucrt:output.obj
 0001:000271bb       ??1?$positional_parameter_base@DV?$stream_output_adapter@D@__crt_stdio_output@@@__crt_stdio_output@@QAE@XZ 100281bb f i libucrt:output.obj
 0001:000271c5       ??1?$positional_parameter_base@DV?$string_output_adapter@D@__crt_stdio_output@@@__crt_stdio_output@@QAE@XZ 100281c5 f i libucrt:output.obj
 0001:000271cf       ??1?$positional_parameter_base@_WV?$stream_output_adapter@_W@__crt_stdio_output@@@__crt_stdio_output@@QAE@XZ 100281cf f i libucrt:output.obj
 0001:000271d9       ??1?$positional_parameter_base@_WV?$string_output_adapter@_W@__crt_stdio_output@@@__crt_stdio_output@@QAE@XZ 100281d9 f i libucrt:output.obj
 0001:000271e3       ??1?$standard_base@DV?$stream_output_adapter@D@__crt_stdio_output@@@__crt_stdio_output@@QAE@XZ 100281e3 f i libucrt:output.obj
 0001:000271ed       ??1?$standard_base@DV?$string_output_adapter@D@__crt_stdio_output@@@__crt_stdio_output@@QAE@XZ 100281ed f i libucrt:output.obj
 0001:000271f7       ??1?$standard_base@_WV?$stream_output_adapter@_W@__crt_stdio_output@@@__crt_stdio_output@@QAE@XZ 100281f7 f i libucrt:output.obj
 0001:00027201       ??1?$standard_base@_WV?$string_output_adapter@_W@__crt_stdio_output@@@__crt_stdio_output@@QAE@XZ 10028201 f i libucrt:output.obj
 0001:0002720b       ??1_LocaleUpdate@@QAE@XZ   1002820b f i libucrt:output.obj
 0001:0002721f       ??1__acrt_stdio_temporary_buffering_guard@@QAE@XZ 1002821f f i libucrt:output.obj
 0001:00027231       ??1__crt_errno_guard@@QAE@XZ 10028231 f i libucrt:output.obj
 0001:00027246       ??1formatting_buffer@__crt_stdio_output@@QAE@XZ 10028246 f i libucrt:output.obj
 0001:00027266       ??4?$__crt_unique_heap_ptr@DU__crt_internal_free_policy@@@@QAEAAV0@$$QAV0@@Z 10028266 f i libucrt:output.obj
 0001:00027949       ?GetLocaleT@_LocaleUpdate@@QAEPAU__crt_locale_pointers@@XZ 10028949 f i libucrt:output.obj
 0001:0002794d       ?__crt_interlocked_read_32@@YAHPDH@Z 1002894d f i libucrt:output.obj
 0001:0002795c       ?adjust_hexit@?$output_processor@DV?$stream_output_adapter@D@__crt_stdio_output@@V?$format_validation_base@DV?$stream_output_adapter@D@__crt_stdio_output@@@2@@__crt_stdio_output@@CADH_N@Z 1002895c f i libucrt:output.obj
 0001:00027981       ?adjust_hexit@?$output_processor@DV?$stream_output_adapter@D@__crt_stdio_output@@V?$positional_parameter_base@DV?$stream_output_adapter@D@__crt_stdio_output@@@2@@__crt_stdio_output@@CADH_N@Z 10028981 f i libucrt:output.obj
 0001:000279a6       ?adjust_hexit@?$output_processor@DV?$stream_output_adapter@D@__crt_stdio_output@@V?$standard_base@DV?$stream_output_adapter@D@__crt_stdio_output@@@2@@__crt_stdio_output@@CADH_N@Z 100289a6 f i libucrt:output.obj
 0001:000279cb       ?adjust_hexit@?$output_processor@DV?$string_output_adapter@D@__crt_stdio_output@@V?$format_validation_base@DV?$string_output_adapter@D@__crt_stdio_output@@@2@@__crt_stdio_output@@CADH_N@Z 100289cb f i libucrt:output.obj
 0001:000279f0       ?adjust_hexit@?$output_processor@DV?$string_output_adapter@D@__crt_stdio_output@@V?$positional_parameter_base@DV?$string_output_adapter@D@__crt_stdio_output@@@2@@__crt_stdio_output@@CADH_N@Z 100289f0 f i libucrt:output.obj
 0001:00027a15       ?adjust_hexit@?$output_processor@DV?$string_output_adapter@D@__crt_stdio_output@@V?$standard_base@DV?$string_output_adapter@D@__crt_stdio_output@@@2@@__crt_stdio_output@@CADH_N@Z 10028a15 f i libucrt:output.obj
 0001:00027a3a       ?adjust_hexit@?$output_processor@_WV?$stream_output_adapter@_W@__crt_stdio_output@@V?$format_validation_base@_WV?$stream_output_adapter@_W@__crt_stdio_output@@@2@@__crt_stdio_output@@CADH_N@Z 10028a3a f i libucrt:output.obj
 0001:00027a5f       ?adjust_hexit@?$output_processor@_WV?$stream_output_adapter@_W@__crt_stdio_output@@V?$positional_parameter_base@_WV?$stream_output_adapter@_W@__crt_stdio_output@@@2@@__crt_stdio_output@@CADH_N@Z 10028a5f f i libucrt:output.obj
 0001:00027a84       ?adjust_hexit@?$output_processor@_WV?$stream_output_adapter@_W@__crt_stdio_output@@V?$standard_base@_WV?$stream_output_adapter@_W@__crt_stdio_output@@@2@@__crt_stdio_output@@CADH_N@Z 10028a84 f i libucrt:output.obj
 0001:00027aa9       ?adjust_hexit@?$output_processor@_WV?$string_output_adapter@_W@__crt_stdio_output@@V?$format_validation_base@_WV?$string_output_adapter@_W@__crt_stdio_output@@@2@@__crt_stdio_output@@CADH_N@Z 10028aa9 f i libucrt:output.obj
 0001:00027ace       ?adjust_hexit@?$output_processor@_WV?$string_output_adapter@_W@__crt_stdio_output@@V?$positional_parameter_base@_WV?$string_output_adapter@_W@__crt_stdio_output@@@2@@__crt_stdio_output@@CADH_N@Z 10028ace f i libucrt:output.obj
 0001:00027af3       ?adjust_hexit@?$output_processor@_WV?$string_output_adapter@_W@__crt_stdio_output@@V?$standard_base@_WV?$string_output_adapter@_W@__crt_stdio_output@@@2@@__crt_stdio_output@@CADH_N@Z 10028af3 f i libucrt:output.obj
 0001:00027b18       ?advance_to_next_pass@?$positional_parameter_base@DV?$stream_output_adapter@D@__crt_stdio_output@@@__crt_stdio_output@@IAE_NXZ 10028b18 f i libucrt:output.obj
 0001:00027b77       ?advance_to_next_pass@?$positional_parameter_base@DV?$string_output_adapter@D@__crt_stdio_output@@@__crt_stdio_output@@IAE_NXZ 10028b77 f i libucrt:output.obj
 0001:00027bd6       ?advance_to_next_pass@?$positional_parameter_base@_WV?$stream_output_adapter@_W@__crt_stdio_output@@@__crt_stdio_output@@IAE_NXZ 10028bd6 f i libucrt:output.obj
 0001:00027c35       ?advance_to_next_pass@?$positional_parameter_base@_WV?$string_output_adapter@_W@__crt_stdio_output@@@__crt_stdio_output@@IAE_NXZ 10028c35 f i libucrt:output.obj
 0001:00027c94       ?advance_to_next_pass@?$standard_base@DV?$stream_output_adapter@D@__crt_stdio_output@@@__crt_stdio_output@@IAE_NXZ 10028c94 f i libucrt:output.obj
 0001:00027cab       ?advance_to_next_pass@?$standard_base@DV?$string_output_adapter@D@__crt_stdio_output@@@__crt_stdio_output@@IAE_NXZ 10028cab f i libucrt:output.obj
 0001:00027cc2       ?advance_to_next_pass@?$standard_base@_WV?$stream_output_adapter@_W@__crt_stdio_output@@@__crt_stdio_output@@IAE_NXZ 10028cc2 f i libucrt:output.obj
 0001:00027cd9       ?advance_to_next_pass@?$standard_base@_WV?$string_output_adapter@_W@__crt_stdio_output@@@__crt_stdio_output@@IAE_NXZ 10028cd9 f i libucrt:output.obj
 0001:00027cf0       ?crop_zeroes@__crt_stdio_output@@YAXPADQAU__crt_locale_pointers@@@Z 10028cf0 f i libucrt:output.obj
 0001:00027d5c       ?find_next_state@?$output_processor@DV?$stream_output_adapter@D@__crt_stdio_output@@V?$format_validation_base@DV?$stream_output_adapter@D@__crt_stdio_output@@@2@@__crt_stdio_output@@ABE?AW4state@2@DW432@@Z 10028d5c f i libucrt:output.obj
 0001:00027d9e       ?find_next_state@?$output_processor@DV?$stream_output_adapter@D@__crt_stdio_output@@V?$positional_parameter_base@DV?$stream_output_adapter@D@__crt_stdio_output@@@2@@__crt_stdio_output@@ABE?AW4state@2@DW432@@Z 10028d9e f i libucrt:output.obj
 0001:00027de0       ?find_next_state@?$output_processor@DV?$stream_output_adapter@D@__crt_stdio_output@@V?$standard_base@DV?$stream_output_adapter@D@__crt_stdio_output@@@2@@__crt_stdio_output@@ABE?AW4state@2@DW432@@Z 10028de0 f i libucrt:output.obj
 0001:00027e1e       ?find_next_state@?$output_processor@DV?$string_output_adapter@D@__crt_stdio_output@@V?$format_validation_base@DV?$string_output_adapter@D@__crt_stdio_output@@@2@@__crt_stdio_output@@ABE?AW4state@2@DW432@@Z 10028e1e f i libucrt:output.obj
 0001:00027e60       ?find_next_state@?$output_processor@DV?$string_output_adapter@D@__crt_stdio_output@@V?$positional_parameter_base@DV?$string_output_adapter@D@__crt_stdio_output@@@2@@__crt_stdio_output@@ABE?AW4state@2@DW432@@Z 10028e60 f i libucrt:output.obj
 0001:00027ea2       ?find_next_state@?$output_processor@DV?$string_output_adapter@D@__crt_stdio_output@@V?$standard_base@DV?$string_output_adapter@D@__crt_stdio_output@@@2@@__crt_stdio_output@@ABE?AW4state@2@DW432@@Z 10028ea2 f i libucrt:output.obj
 0001:00027ee0       ?find_next_state@?$output_processor@_WV?$stream_output_adapter@_W@__crt_stdio_output@@V?$format_validation_base@_WV?$stream_output_adapter@_W@__crt_stdio_output@@@2@@__crt_stdio_output@@ABE?AW4state@2@_WW432@@Z 10028ee0 f i libucrt:output.obj
 0001:00027f24       ?find_next_state@?$output_processor@_WV?$stream_output_adapter@_W@__crt_stdio_output@@V?$positional_parameter_base@_WV?$stream_output_adapter@_W@__crt_stdio_output@@@2@@__crt_stdio_output@@ABE?AW4state@2@_WW432@@Z 10028f24 f i libucrt:output.obj
 0001:00027f68       ?find_next_state@?$output_processor@_WV?$stream_output_adapter@_W@__crt_stdio_output@@V?$standard_base@_WV?$stream_output_adapter@_W@__crt_stdio_output@@@2@@__crt_stdio_output@@ABE?AW4state@2@_WW432@@Z 10028f68 f i libucrt:output.obj
 0001:00027fa9       ?find_next_state@?$output_processor@_WV?$string_output_adapter@_W@__crt_stdio_output@@V?$format_validation_base@_WV?$string_output_adapter@_W@__crt_stdio_output@@@2@@__crt_stdio_output@@ABE?AW4state@2@_WW432@@Z 10028fa9 f i libucrt:output.obj
 0001:00027fed       ?find_next_state@?$output_processor@_WV?$string_output_adapter@_W@__crt_stdio_output@@V?$positional_parameter_base@_WV?$string_output_adapter@_W@__crt_stdio_output@@@2@@__crt_stdio_output@@ABE?AW4state@2@_WW432@@Z 10028fed f i libucrt:output.obj
 0001:00028031       ?find_next_state@?$output_processor@_WV?$string_output_adapter@_W@__crt_stdio_output@@V?$standard_base@_WV?$string_output_adapter@_W@__crt_stdio_output@@@2@@__crt_stdio_output@@ABE?AW4state@2@_WW432@@Z 10029031 f i libucrt:output.obj
 0001:00028072       ?force_decimal_point@__crt_stdio_output@@YAXPADQAU__crt_locale_pointers@@@Z 10029072 f i libucrt:output.obj
 0001:000280e5       ?get_flags@__crt_stdio_stream@@QBEJXZ 100290e5 f i libucrt:output.obj
 0001:000280eb       ?get_parameter_type@?$positional_parameter_base@DV?$stream_output_adapter@D@__crt_stdio_output@@@__crt_stdio_output@@CA?AW4parameter_type@12@F@Z 100290eb f i libucrt:output.obj
 0001:000280ef       ?get_parameter_type@?$positional_parameter_base@DV?$stream_output_adapter@D@__crt_stdio_output@@@__crt_stdio_output@@CA?AW4parameter_type@12@G@Z 100290ef f i libucrt:output.obj
 0001:000280f3       ?get_parameter_type@?$positional_parameter_base@DV?$stream_output_adapter@D@__crt_stdio_output@@@__crt_stdio_output@@CA?AW4parameter_type@12@H@Z 100290f3 f i libucrt:output.obj
 0001:000280f7       ?get_parameter_type@?$positional_parameter_base@DV?$stream_output_adapter@D@__crt_stdio_output@@@__crt_stdio_output@@CA?AW4parameter_type@12@I@Z 100290f7 f i libucrt:output.obj
 0001:000280fb       ?get_parameter_type@?$positional_parameter_base@DV?$stream_output_adapter@D@__crt_stdio_output@@@__crt_stdio_output@@CA?AW4parameter_type@12@U_CRT_DOUBLE@@@Z 100290fb f i libucrt:output.obj
 0001:000280ff       ?get_parameter_type@?$positional_parameter_base@DV?$stream_output_adapter@D@__crt_stdio_output@@@__crt_stdio_output@@CA?AW4parameter_type@12@_J@Z 100290ff f i libucrt:output.obj
 0001:00028103       ?get_parameter_type@?$positional_parameter_base@DV?$stream_output_adapter@D@__crt_stdio_output@@@__crt_stdio_output@@CA?AW4parameter_type@12@_K@Z 10029103 f i libucrt:output.obj
 0001:00028107       ?get_parameter_type@?$positional_parameter_base@DV?$stream_output_adapter@D@__crt_stdio_output@@@__crt_stdio_output@@CA?AW4parameter_type@12@_W@Z 10029107 f i libucrt:output.obj
 0001:0002810b       ?get_parameter_type@?$positional_parameter_base@DV?$string_output_adapter@D@__crt_stdio_output@@@__crt_stdio_output@@CA?AW4parameter_type@12@F@Z 1002910b f i libucrt:output.obj
 0001:0002810f       ?get_parameter_type@?$positional_parameter_base@DV?$string_output_adapter@D@__crt_stdio_output@@@__crt_stdio_output@@CA?AW4parameter_type@12@G@Z 1002910f f i libucrt:output.obj
 0001:00028113       ?get_parameter_type@?$positional_parameter_base@DV?$string_output_adapter@D@__crt_stdio_output@@@__crt_stdio_output@@CA?AW4parameter_type@12@H@Z 10029113 f i libucrt:output.obj
 0001:00028117       ?get_parameter_type@?$positional_parameter_base@DV?$string_output_adapter@D@__crt_stdio_output@@@__crt_stdio_output@@CA?AW4parameter_type@12@I@Z 10029117 f i libucrt:output.obj
 0001:0002811b       ?get_parameter_type@?$positional_parameter_base@DV?$string_output_adapter@D@__crt_stdio_output@@@__crt_stdio_output@@CA?AW4parameter_type@12@U_CRT_DOUBLE@@@Z 1002911b f i libucrt:output.obj
 0001:0002811f       ?get_parameter_type@?$positional_parameter_base@DV?$string_output_adapter@D@__crt_stdio_output@@@__crt_stdio_output@@CA?AW4parameter_type@12@_J@Z 1002911f f i libucrt:output.obj
 0001:00028123       ?get_parameter_type@?$positional_parameter_base@DV?$string_output_adapter@D@__crt_stdio_output@@@__crt_stdio_output@@CA?AW4parameter_type@12@_K@Z 10029123 f i libucrt:output.obj
 0001:00028127       ?get_parameter_type@?$positional_parameter_base@DV?$string_output_adapter@D@__crt_stdio_output@@@__crt_stdio_output@@CA?AW4parameter_type@12@_W@Z 10029127 f i libucrt:output.obj
 0001:0002812b       ?get_parameter_type@?$positional_parameter_base@_WV?$stream_output_adapter@_W@__crt_stdio_output@@@__crt_stdio_output@@CA?AW4parameter_type@12@F@Z 1002912b f i libucrt:output.obj
 0001:0002812f       ?get_parameter_type@?$positional_parameter_base@_WV?$stream_output_adapter@_W@__crt_stdio_output@@@__crt_stdio_output@@CA?AW4parameter_type@12@G@Z 1002912f f i libucrt:output.obj
 0001:00028133       ?get_parameter_type@?$positional_parameter_base@_WV?$stream_output_adapter@_W@__crt_stdio_output@@@__crt_stdio_output@@CA?AW4parameter_type@12@H@Z 10029133 f i libucrt:output.obj
 0001:00028137       ?get_parameter_type@?$positional_parameter_base@_WV?$stream_output_adapter@_W@__crt_stdio_output@@@__crt_stdio_output@@CA?AW4parameter_type@12@I@Z 10029137 f i libucrt:output.obj
 0001:0002813b       ?get_parameter_type@?$positional_parameter_base@_WV?$stream_output_adapter@_W@__crt_stdio_output@@@__crt_stdio_output@@CA?AW4parameter_type@12@U_CRT_DOUBLE@@@Z 1002913b f i libucrt:output.obj
 0001:0002813f       ?get_parameter_type@?$positional_parameter_base@_WV?$stream_output_adapter@_W@__crt_stdio_output@@@__crt_stdio_output@@CA?AW4parameter_type@12@_J@Z 1002913f f i libucrt:output.obj
 0001:00028143       ?get_parameter_type@?$positional_parameter_base@_WV?$stream_output_adapter@_W@__crt_stdio_output@@@__crt_stdio_output@@CA?AW4parameter_type@12@_K@Z 10029143 f i libucrt:output.obj
 0001:00028147       ?get_parameter_type@?$positional_parameter_base@_WV?$stream_output_adapter@_W@__crt_stdio_output@@@__crt_stdio_output@@CA?AW4parameter_type@12@_W@Z 10029147 f i libucrt:output.obj
 0001:0002814b       ?get_parameter_type@?$positional_parameter_base@_WV?$string_output_adapter@_W@__crt_stdio_output@@@__crt_stdio_output@@CA?AW4parameter_type@12@F@Z 1002914b f i libucrt:output.obj
 0001:0002814f       ?get_parameter_type@?$positional_parameter_base@_WV?$string_output_adapter@_W@__crt_stdio_output@@@__crt_stdio_output@@CA?AW4parameter_type@12@G@Z 1002914f f i libucrt:output.obj
 0001:00028153       ?get_parameter_type@?$positional_parameter_base@_WV?$string_output_adapter@_W@__crt_stdio_output@@@__crt_stdio_output@@CA?AW4parameter_type@12@H@Z 10029153 f i libucrt:output.obj
 0001:00028157       ?get_parameter_type@?$positional_parameter_base@_WV?$string_output_adapter@_W@__crt_stdio_output@@@__crt_stdio_output@@CA?AW4parameter_type@12@I@Z 10029157 f i libucrt:output.obj
 0001:0002815b       ?get_parameter_type@?$positional_parameter_base@_WV?$string_output_adapter@_W@__crt_stdio_output@@@__crt_stdio_output@@CA?AW4parameter_type@12@U_CRT_DOUBLE@@@Z 1002915b f i libucrt:output.obj
 0001:0002815f       ?get_parameter_type@?$positional_parameter_base@_WV?$string_output_adapter@_W@__crt_stdio_output@@@__crt_stdio_output@@CA?AW4parameter_type@12@_J@Z 1002915f f i libucrt:output.obj
 0001:00028163       ?get_parameter_type@?$positional_parameter_base@_WV?$string_output_adapter@_W@__crt_stdio_output@@@__crt_stdio_output@@CA?AW4parameter_type@12@_K@Z 10029163 f i libucrt:output.obj
 0001:00028167       ?get_parameter_type@?$positional_parameter_base@_WV?$string_output_adapter@_W@__crt_stdio_output@@@__crt_stdio_output@@CA?AW4parameter_type@12@_W@Z 10029167 f i libucrt:output.obj
 0001:0002816b       ?has_flag@?$output_processor@DV?$stream_output_adapter@D@__crt_stdio_output@@V?$format_validation_base@DV?$stream_output_adapter@D@__crt_stdio_output@@@2@@__crt_stdio_output@@ABE_NI@Z 1002916b f i libucrt:output.obj
 0001:00028185       ?has_flag@?$output_processor@DV?$stream_output_adapter@D@__crt_stdio_output@@V?$positional_parameter_base@DV?$stream_output_adapter@D@__crt_stdio_output@@@2@@__crt_stdio_output@@ABE_NI@Z 10029185 f i libucrt:output.obj
 0001:0002819f       ?has_flag@?$output_processor@DV?$stream_output_adapter@D@__crt_stdio_output@@V?$standard_base@DV?$stream_output_adapter@D@__crt_stdio_output@@@2@@__crt_stdio_output@@ABE_NI@Z 1002919f f i libucrt:output.obj
 0001:000281b9       ?has_flag@?$output_processor@DV?$string_output_adapter@D@__crt_stdio_output@@V?$format_validation_base@DV?$string_output_adapter@D@__crt_stdio_output@@@2@@__crt_stdio_output@@ABE_NI@Z 100291b9 f i libucrt:output.obj
 0001:000281d3       ?has_flag@?$output_processor@DV?$string_output_adapter@D@__crt_stdio_output@@V?$positional_parameter_base@DV?$string_output_adapter@D@__crt_stdio_output@@@2@@__crt_stdio_output@@ABE_NI@Z 100291d3 f i libucrt:output.obj
 0001:000281ed       ?has_flag@?$output_processor@DV?$string_output_adapter@D@__crt_stdio_output@@V?$standard_base@DV?$string_output_adapter@D@__crt_stdio_output@@@2@@__crt_stdio_output@@ABE_NI@Z 100291ed f i libucrt:output.obj
 0001:00028207       ?has_flag@?$output_processor@_WV?$stream_output_adapter@_W@__crt_stdio_output@@V?$format_validation_base@_WV?$stream_output_adapter@_W@__crt_stdio_output@@@2@@__crt_stdio_output@@ABE_NI@Z 10029207 f i libucrt:output.obj
 0001:00028221       ?has_flag@?$output_processor@_WV?$stream_output_adapter@_W@__crt_stdio_output@@V?$positional_parameter_base@_WV?$stream_output_adapter@_W@__crt_stdio_output@@@2@@__crt_stdio_output@@ABE_NI@Z 10029221 f i libucrt:output.obj
 0001:0002823b       ?has_flag@?$output_processor@_WV?$stream_output_adapter@_W@__crt_stdio_output@@V?$standard_base@_WV?$stream_output_adapter@_W@__crt_stdio_output@@@2@@__crt_stdio_output@@ABE_NI@Z 1002923b f i libucrt:output.obj
 0001:00028255       ?has_flag@?$output_processor@_WV?$string_output_adapter@_W@__crt_stdio_output@@V?$format_validation_base@_WV?$string_output_adapter@_W@__crt_stdio_output@@@2@@__crt_stdio_output@@ABE_NI@Z 10029255 f i libucrt:output.obj
 0001:0002826f       ?has_flag@?$output_processor@_WV?$string_output_adapter@_W@__crt_stdio_output@@V?$positional_parameter_base@_WV?$string_output_adapter@_W@__crt_stdio_output@@@2@@__crt_stdio_output@@ABE_NI@Z 1002926f f i libucrt:output.obj
 0001:00028289       ?has_flag@?$output_processor@_WV?$string_output_adapter@_W@__crt_stdio_output@@V?$standard_base@_WV?$string_output_adapter@_W@__crt_stdio_output@@@2@@__crt_stdio_output@@ABE_NI@Z 10029289 f i libucrt:output.obj
 0001:000282a3       ?is_positional_parameter_reappearance_consistent@?$positional_parameter_base@DV?$stream_output_adapter@D@__crt_stdio_output@@@__crt_stdio_output@@AAE_NABUparameter_data@12@W4parameter_type@12@DW4length_modifier@2@@Z 100292a3 f i libucrt:output.obj
 0001:0002841c       ?is_positional_parameter_reappearance_consistent@?$positional_parameter_base@DV?$string_output_adapter@D@__crt_stdio_output@@@__crt_stdio_output@@AAE_NABUparameter_data@12@W4parameter_type@12@DW4length_modifier@2@@Z 1002941c f i libucrt:output.obj
 0001:00028595       ?is_positional_parameter_reappearance_consistent@?$positional_parameter_base@_WV?$stream_output_adapter@_W@__crt_stdio_output@@@__crt_stdio_output@@AAE_NABUparameter_data@12@W4parameter_type@12@_WW4length_modifier@2@@Z 10029595 f i libucrt:output.obj
 0001:00028700       ?is_positional_parameter_reappearance_consistent@?$positional_parameter_base@_WV?$string_output_adapter@_W@__crt_stdio_output@@@__crt_stdio_output@@AAE_NABUparameter_data@12@W4parameter_type@12@_WW4length_modifier@2@@Z 10029700 f i libucrt:output.obj
 0001:0002886b       ?is_string_backed@__crt_stdio_stream@@QBE_NXZ 1002986b f i libucrt:output.obj
 0001:0002887a       ?narrow_null_string@?$output_processor@DV?$stream_output_adapter@D@__crt_stdio_output@@V?$format_validation_base@DV?$stream_output_adapter@D@__crt_stdio_output@@@2@@__crt_stdio_output@@CAPADXZ 1002987a f i libucrt:output.obj
 0001:00028880       ?narrow_null_string@?$output_processor@DV?$stream_output_adapter@D@__crt_stdio_output@@V?$positional_parameter_base@DV?$stream_output_adapter@D@__crt_stdio_output@@@2@@__crt_stdio_output@@CAPADXZ 10029880 f i libucrt:output.obj
 0001:00028886       ?narrow_null_string@?$output_processor@DV?$stream_output_adapter@D@__crt_stdio_output@@V?$standard_base@DV?$stream_output_adapter@D@__crt_stdio_output@@@2@@__crt_stdio_output@@CAPADXZ 10029886 f i libucrt:output.obj
 0001:0002888c       ?narrow_null_string@?$output_processor@DV?$string_output_adapter@D@__crt_stdio_output@@V?$format_validation_base@DV?$string_output_adapter@D@__crt_stdio_output@@@2@@__crt_stdio_output@@CAPADXZ 1002988c f i libucrt:output.obj
 0001:00028892       ?narrow_null_string@?$output_processor@DV?$string_output_adapter@D@__crt_stdio_output@@V?$positional_parameter_base@DV?$string_output_adapter@D@__crt_stdio_output@@@2@@__crt_stdio_output@@CAPADXZ 10029892 f i libucrt:output.obj
 0001:00028898       ?narrow_null_string@?$output_processor@DV?$string_output_adapter@D@__crt_stdio_output@@V?$standard_base@DV?$string_output_adapter@D@__crt_stdio_output@@@2@@__crt_stdio_output@@CAPADXZ 10029898 f i libucrt:output.obj
 0001:0002889e       ?narrow_null_string@?$output_processor@_WV?$stream_output_adapter@_W@__crt_stdio_output@@V?$format_validation_base@_WV?$stream_output_adapter@_W@__crt_stdio_output@@@2@@__crt_stdio_output@@CAPADXZ 1002989e f i libucrt:output.obj
 0001:000288a4       ?narrow_null_string@?$output_processor@_WV?$stream_output_adapter@_W@__crt_stdio_output@@V?$positional_parameter_base@_WV?$stream_output_adapter@_W@__crt_stdio_output@@@2@@__crt_stdio_output@@CAPADXZ 100298a4 f i libucrt:output.obj
 0001:000288aa       ?narrow_null_string@?$output_processor@_WV?$stream_output_adapter@_W@__crt_stdio_output@@V?$standard_base@_WV?$stream_output_adapter@_W@__crt_stdio_output@@@2@@__crt_stdio_output@@CAPADXZ 100298aa f i libucrt:output.obj
 0001:000288b0       ?narrow_null_string@?$output_processor@_WV?$string_output_adapter@_W@__crt_stdio_output@@V?$format_validation_base@_WV?$string_output_adapter@_W@__crt_stdio_output@@@2@@__crt_stdio_output@@CAPADXZ 100298b0 f i libucrt:output.obj
 0001:000288b6       ?narrow_null_string@?$output_processor@_WV?$string_output_adapter@_W@__crt_stdio_output@@V?$positional_parameter_base@_WV?$string_output_adapter@_W@__crt_stdio_output@@@2@@__crt_stdio_output@@CAPADXZ 100298b6 f i libucrt:output.obj
 0001:000288bc       ?narrow_null_string@?$output_processor@_WV?$string_output_adapter@_W@__crt_stdio_output@@V?$standard_base@_WV?$string_output_adapter@_W@__crt_stdio_output@@@2@@__crt_stdio_output@@CAPADXZ 100298bc f i libucrt:output.obj
 0001:000288c2       ?parse_int_from_format_string@?$output_processor@DV?$stream_output_adapter@D@__crt_stdio_output@@V?$format_validation_base@DV?$stream_output_adapter@D@__crt_stdio_output@@@2@@__crt_stdio_output@@AAE_NQAH@Z 100298c2 f i libucrt:output.obj
 0001:00028935       ?parse_int_from_format_string@?$output_processor@DV?$stream_output_adapter@D@__crt_stdio_output@@V?$positional_parameter_base@DV?$stream_output_adapter@D@__crt_stdio_output@@@2@@__crt_stdio_output@@AAE_NQAH@Z 10029935 f i libucrt:output.obj
 0001:000289a8       ?parse_int_from_format_string@?$output_processor@DV?$stream_output_adapter@D@__crt_stdio_output@@V?$standard_base@DV?$stream_output_adapter@D@__crt_stdio_output@@@2@@__crt_stdio_output@@AAE_NQAH@Z 100299a8 f i libucrt:output.obj
 0001:00028a1b       ?parse_int_from_format_string@?$output_processor@DV?$string_output_adapter@D@__crt_stdio_output@@V?$format_validation_base@DV?$string_output_adapter@D@__crt_stdio_output@@@2@@__crt_stdio_output@@AAE_NQAH@Z 10029a1b f i libucrt:output.obj
 0001:00028a8e       ?parse_int_from_format_string@?$output_processor@DV?$string_output_adapter@D@__crt_stdio_output@@V?$positional_parameter_base@DV?$string_output_adapter@D@__crt_stdio_output@@@2@@__crt_stdio_output@@AAE_NQAH@Z 10029a8e f i libucrt:output.obj
 0001:00028b01       ?parse_int_from_format_string@?$output_processor@DV?$string_output_adapter@D@__crt_stdio_output@@V?$standard_base@DV?$string_output_adapter@D@__crt_stdio_output@@@2@@__crt_stdio_output@@AAE_NQAH@Z 10029b01 f i libucrt:output.obj
 0001:00028b74       ?parse_int_from_format_string@?$output_processor@_WV?$stream_output_adapter@_W@__crt_stdio_output@@V?$format_validation_base@_WV?$stream_output_adapter@_W@__crt_stdio_output@@@2@@__crt_stdio_output@@AAE_NQAH@Z 10029b74 f i libucrt:output.obj
 0001:00028be9       ?parse_int_from_format_string@?$output_processor@_WV?$stream_output_adapter@_W@__crt_stdio_output@@V?$positional_parameter_base@_WV?$stream_output_adapter@_W@__crt_stdio_output@@@2@@__crt_stdio_output@@AAE_NQAH@Z 10029be9 f i libucrt:output.obj
 0001:00028c5e       ?parse_int_from_format_string@?$output_processor@_WV?$stream_output_adapter@_W@__crt_stdio_output@@V?$standard_base@_WV?$stream_output_adapter@_W@__crt_stdio_output@@@2@@__crt_stdio_output@@AAE_NQAH@Z 10029c5e f i libucrt:output.obj
 0001:00028cd3       ?parse_int_from_format_string@?$output_processor@_WV?$string_output_adapter@_W@__crt_stdio_output@@V?$format_validation_base@_WV?$string_output_adapter@_W@__crt_stdio_output@@@2@@__crt_stdio_output@@AAE_NQAH@Z 10029cd3 f i libucrt:output.obj
 0001:00028d48       ?parse_int_from_format_string@?$output_processor@_WV?$string_output_adapter@_W@__crt_stdio_output@@V?$positional_parameter_base@_WV?$string_output_adapter@_W@__crt_stdio_output@@@2@@__crt_stdio_output@@AAE_NQAH@Z 10029d48 f i libucrt:output.obj
 0001:00028dbd       ?parse_int_from_format_string@?$output_processor@_WV?$string_output_adapter@_W@__crt_stdio_output@@V?$standard_base@_WV?$string_output_adapter@_W@__crt_stdio_output@@@2@@__crt_stdio_output@@AAE_NQAH@Z 10029dbd f i libucrt:output.obj
 0001:00028e32       ?process@?$output_processor@DV?$stream_output_adapter@D@__crt_stdio_output@@V?$format_validation_base@DV?$stream_output_adapter@D@__crt_stdio_output@@@2@@__crt_stdio_output@@QAEHXZ 10029e32 f i libucrt:output.obj
 0001:00028fa4       ?process@?$output_processor@DV?$stream_output_adapter@D@__crt_stdio_output@@V?$positional_parameter_base@DV?$stream_output_adapter@D@__crt_stdio_output@@@2@@__crt_stdio_output@@QAEHXZ 10029fa4 f i libucrt:output.obj
 0001:00029157       ?process@?$output_processor@DV?$stream_output_adapter@D@__crt_stdio_output@@V?$standard_base@DV?$stream_output_adapter@D@__crt_stdio_output@@@2@@__crt_stdio_output@@QAEHXZ 1002a157 f i libucrt:output.obj
 0001:000292ba       ?process@?$output_processor@DV?$string_output_adapter@D@__crt_stdio_output@@V?$format_validation_base@DV?$string_output_adapter@D@__crt_stdio_output@@@2@@__crt_stdio_output@@QAEHXZ 1002a2ba f i libucrt:output.obj
 0001:0002942c       ?process@?$output_processor@DV?$string_output_adapter@D@__crt_stdio_output@@V?$positional_parameter_base@DV?$string_output_adapter@D@__crt_stdio_output@@@2@@__crt_stdio_output@@QAEHXZ 1002a42c f i libucrt:output.obj
 0001:000295df       ?process@?$output_processor@DV?$string_output_adapter@D@__crt_stdio_output@@V?$standard_base@DV?$string_output_adapter@D@__crt_stdio_output@@@2@@__crt_stdio_output@@QAEHXZ 1002a5df f i libucrt:output.obj
 0001:00029742       ?process@?$output_processor@_WV?$stream_output_adapter@_W@__crt_stdio_output@@V?$format_validation_base@_WV?$stream_output_adapter@_W@__crt_stdio_output@@@2@@__crt_stdio_output@@QAEHXZ 1002a742 f i libucrt:output.obj
 0001:000298be       ?process@?$output_processor@_WV?$stream_output_adapter@_W@__crt_stdio_output@@V?$positional_parameter_base@_WV?$stream_output_adapter@_W@__crt_stdio_output@@@2@@__crt_stdio_output@@QAEHXZ 1002a8be f i libucrt:output.obj
 0001:00029a76       ?process@?$output_processor@_WV?$stream_output_adapter@_W@__crt_stdio_output@@V?$standard_base@_WV?$stream_output_adapter@_W@__crt_stdio_output@@@2@@__crt_stdio_output@@QAEHXZ 1002aa76 f i libucrt:output.obj
 0001:00029bde       ?process@?$output_processor@_WV?$string_output_adapter@_W@__crt_stdio_output@@V?$format_validation_base@_WV?$string_output_adapter@_W@__crt_stdio_output@@@2@@__crt_stdio_output@@QAEHXZ 1002abde f i libucrt:output.obj
 0001:00029d5a       ?process@?$output_processor@_WV?$string_output_adapter@_W@__crt_stdio_output@@V?$positional_parameter_base@_WV?$string_output_adapter@_W@__crt_stdio_output@@@2@@__crt_stdio_output@@QAEHXZ 1002ad5a f i libucrt:output.obj
 0001:00029f12       ?process@?$output_processor@_WV?$string_output_adapter@_W@__crt_stdio_output@@V?$standard_base@_WV?$string_output_adapter@_W@__crt_stdio_output@@@2@@__crt_stdio_output@@QAEHXZ 1002af12 f i libucrt:output.obj
 0001:0002a07a       ?public_stream@__crt_stdio_stream@@QBEPAU_iobuf@@XZ 1002b07a f i libucrt:output.obj
 0001:0002a07d       ?set_flag@?$output_processor@DV?$stream_output_adapter@D@__crt_stdio_output@@V?$format_validation_base@DV?$stream_output_adapter@D@__crt_stdio_output@@@2@@__crt_stdio_output@@AAEXI@Z 1002b07d f i libucrt:output.obj
 0001:0002a08f       ?set_flag@?$output_processor@DV?$stream_output_adapter@D@__crt_stdio_output@@V?$positional_parameter_base@DV?$stream_output_adapter@D@__crt_stdio_output@@@2@@__crt_stdio_output@@AAEXI@Z 1002b08f f i libucrt:output.obj
 0001:0002a0a1       ?set_flag@?$output_processor@DV?$stream_output_adapter@D@__crt_stdio_output@@V?$standard_base@DV?$stream_output_adapter@D@__crt_stdio_output@@@2@@__crt_stdio_output@@AAEXI@Z 1002b0a1 f i libucrt:output.obj
 0001:0002a0b3       ?set_flag@?$output_processor@DV?$string_output_adapter@D@__crt_stdio_output@@V?$format_validation_base@DV?$string_output_adapter@D@__crt_stdio_output@@@2@@__crt_stdio_output@@AAEXI@Z 1002b0b3 f i libucrt:output.obj
 0001:0002a0c5       ?set_flag@?$output_processor@DV?$string_output_adapter@D@__crt_stdio_output@@V?$positional_parameter_base@DV?$string_output_adapter@D@__crt_stdio_output@@@2@@__crt_stdio_output@@AAEXI@Z 1002b0c5 f i libucrt:output.obj
 0001:0002a0d7       ?set_flag@?$output_processor@DV?$string_output_adapter@D@__crt_stdio_output@@V?$standard_base@DV?$string_output_adapter@D@__crt_stdio_output@@@2@@__crt_stdio_output@@AAEXI@Z 1002b0d7 f i libucrt:output.obj
 0001:0002a0e9       ?set_flag@?$output_processor@_WV?$stream_output_adapter@_W@__crt_stdio_output@@V?$format_validation_base@_WV?$stream_output_adapter@_W@__crt_stdio_output@@@2@@__crt_stdio_output@@AAEXI@Z 1002b0e9 f i libucrt:output.obj
 0001:0002a0fb       ?set_flag@?$output_processor@_WV?$stream_output_adapter@_W@__crt_stdio_output@@V?$positional_parameter_base@_WV?$stream_output_adapter@_W@__crt_stdio_output@@@2@@__crt_stdio_output@@AAEXI@Z 1002b0fb f i libucrt:output.obj
 0001:0002a10d       ?set_flag@?$output_processor@_WV?$stream_output_adapter@_W@__crt_stdio_output@@V?$standard_base@_WV?$stream_output_adapter@_W@__crt_stdio_output@@@2@@__crt_stdio_output@@AAEXI@Z 1002b10d f i libucrt:output.obj
 0001:0002a11f       ?set_flag@?$output_processor@_WV?$string_output_adapter@_W@__crt_stdio_output@@V?$format_validation_base@_WV?$string_output_adapter@_W@__crt_stdio_output@@@2@@__crt_stdio_output@@AAEXI@Z 1002b11f f i libucrt:output.obj
 0001:0002a131       ?set_flag@?$output_processor@_WV?$string_output_adapter@_W@__crt_stdio_output@@V?$positional_parameter_base@_WV?$string_output_adapter@_W@__crt_stdio_output@@@2@@__crt_stdio_output@@AAEXI@Z 1002b131 f i libucrt:output.obj
 0001:0002a143       ?set_flag@?$output_processor@_WV?$string_output_adapter@_W@__crt_stdio_output@@V?$standard_base@_WV?$string_output_adapter@_W@__crt_stdio_output@@@2@@__crt_stdio_output@@AAEXI@Z 1002b143 f i libucrt:output.obj
 0001:0002a155       ?should_format@?$positional_parameter_base@DV?$stream_output_adapter@D@__crt_stdio_output@@@__crt_stdio_output@@IAE_NXZ 1002b155 f i libucrt:output.obj
 0001:0002a170       ?should_format@?$positional_parameter_base@DV?$string_output_adapter@D@__crt_stdio_output@@@__crt_stdio_output@@IAE_NXZ 1002b170 f i libucrt:output.obj
 0001:0002a18b       ?should_format@?$positional_parameter_base@_WV?$stream_output_adapter@_W@__crt_stdio_output@@@__crt_stdio_output@@IAE_NXZ 1002b18b f i libucrt:output.obj
 0001:0002a1a6       ?should_format@?$positional_parameter_base@_WV?$string_output_adapter@_W@__crt_stdio_output@@@__crt_stdio_output@@IAE_NXZ 1002b1a6 f i libucrt:output.obj
 0001:0002a1c1       ?should_format@?$standard_base@DV?$stream_output_adapter@D@__crt_stdio_output@@@__crt_stdio_output@@IAE_NXZ 1002b1c1 f i libucrt:output.obj
 0001:0002a1c4       ?should_format@?$standard_base@DV?$string_output_adapter@D@__crt_stdio_output@@@__crt_stdio_output@@IAE_NXZ 1002b1c4 f i libucrt:output.obj
 0001:0002a1c7       ?should_format@?$standard_base@_WV?$stream_output_adapter@_W@__crt_stdio_output@@@__crt_stdio_output@@IAE_NXZ 1002b1c7 f i libucrt:output.obj
 0001:0002a1ca       ?should_format@?$standard_base@_WV?$string_output_adapter@_W@__crt_stdio_output@@@__crt_stdio_output@@IAE_NXZ 1002b1ca f i libucrt:output.obj
 0001:0002a1cd       ?should_skip_normal_state_processing@?$positional_parameter_base@DV?$stream_output_adapter@D@__crt_stdio_output@@@__crt_stdio_output@@IAE_NXZ 1002b1cd f i libucrt:output.obj
 0001:0002a1ff       ?should_skip_normal_state_processing@?$positional_parameter_base@DV?$string_output_adapter@D@__crt_stdio_output@@@__crt_stdio_output@@IAE_NXZ 1002b1ff f i libucrt:output.obj
 0001:0002a231       ?should_skip_normal_state_processing@?$positional_parameter_base@_WV?$stream_output_adapter@_W@__crt_stdio_output@@@__crt_stdio_output@@IAE_NXZ 1002b231 f i libucrt:output.obj
 0001:0002a263       ?should_skip_normal_state_processing@?$positional_parameter_base@_WV?$string_output_adapter@_W@__crt_stdio_output@@@__crt_stdio_output@@IAE_NXZ 1002b263 f i libucrt:output.obj
 0001:0002a295       ?should_skip_normal_state_processing@?$standard_base@DV?$stream_output_adapter@D@__crt_stdio_output@@@__crt_stdio_output@@IAE_NXZ 1002b295 f i libucrt:output.obj
 0001:0002a298       ?should_skip_normal_state_processing@?$standard_base@DV?$string_output_adapter@D@__crt_stdio_output@@@__crt_stdio_output@@IAE_NXZ 1002b298 f i libucrt:output.obj
 0001:0002a29b       ?should_skip_normal_state_processing@?$standard_base@_WV?$stream_output_adapter@_W@__crt_stdio_output@@@__crt_stdio_output@@IAE_NXZ 1002b29b f i libucrt:output.obj
 0001:0002a29e       ?should_skip_normal_state_processing@?$standard_base@_WV?$string_output_adapter@_W@__crt_stdio_output@@@__crt_stdio_output@@IAE_NXZ 1002b29e f i libucrt:output.obj
 0001:0002a2a1       ?should_skip_type_state_output@?$positional_parameter_base@DV?$stream_output_adapter@D@__crt_stdio_output@@@__crt_stdio_output@@IBE_NXZ 1002b2a1 f i libucrt:output.obj
 0001:0002a2bd       ?should_skip_type_state_output@?$positional_parameter_base@DV?$string_output_adapter@D@__crt_stdio_output@@@__crt_stdio_output@@IBE_NXZ 1002b2bd f i libucrt:output.obj
 0001:0002a2d9       ?should_skip_type_state_output@?$positional_parameter_base@_WV?$stream_output_adapter@_W@__crt_stdio_output@@@__crt_stdio_output@@IBE_NXZ 1002b2d9 f i libucrt:output.obj
 0001:0002a2f5       ?should_skip_type_state_output@?$positional_parameter_base@_WV?$string_output_adapter@_W@__crt_stdio_output@@@__crt_stdio_output@@IBE_NXZ 1002b2f5 f i libucrt:output.obj
 0001:0002a311       ?should_skip_type_state_output@?$standard_base@DV?$stream_output_adapter@D@__crt_stdio_output@@@__crt_stdio_output@@IBE_NXZ 1002b311 f i libucrt:output.obj
 0001:0002a314       ?should_skip_type_state_output@?$standard_base@DV?$string_output_adapter@D@__crt_stdio_output@@@__crt_stdio_output@@IBE_NXZ 1002b314 f i libucrt:output.obj
 0001:0002a317       ?should_skip_type_state_output@?$standard_base@_WV?$stream_output_adapter@_W@__crt_stdio_output@@@__crt_stdio_output@@IBE_NXZ 1002b317 f i libucrt:output.obj
 0001:0002a31a       ?should_skip_type_state_output@?$standard_base@_WV?$string_output_adapter@_W@__crt_stdio_output@@@__crt_stdio_output@@IBE_NXZ 1002b31a f i libucrt:output.obj
 0001:0002a31d       ?state_case_dot@?$output_processor@DV?$stream_output_adapter@D@__crt_stdio_output@@V?$format_validation_base@DV?$stream_output_adapter@D@__crt_stdio_output@@@2@@__crt_stdio_output@@AAE_NXZ 1002b31d f i libucrt:output.obj
 0001:0002a324       ?state_case_dot@?$output_processor@DV?$stream_output_adapter@D@__crt_stdio_output@@V?$positional_parameter_base@DV?$stream_output_adapter@D@__crt_stdio_output@@@2@@__crt_stdio_output@@AAE_NXZ 1002b324 f i libucrt:output.obj
 0001:0002a32b       ?state_case_dot@?$output_processor@DV?$stream_output_adapter@D@__crt_stdio_output@@V?$standard_base@DV?$stream_output_adapter@D@__crt_stdio_output@@@2@@__crt_stdio_output@@AAE_NXZ 1002b32b f i libucrt:output.obj
 0001:0002a332       ?state_case_dot@?$output_processor@DV?$string_output_adapter@D@__crt_stdio_output@@V?$format_validation_base@DV?$string_output_adapter@D@__crt_stdio_output@@@2@@__crt_stdio_output@@AAE_NXZ 1002b332 f i libucrt:output.obj
 0001:0002a339       ?state_case_dot@?$output_processor@DV?$string_output_adapter@D@__crt_stdio_output@@V?$positional_parameter_base@DV?$string_output_adapter@D@__crt_stdio_output@@@2@@__crt_stdio_output@@AAE_NXZ 1002b339 f i libucrt:output.obj
 0001:0002a340       ?state_case_dot@?$output_processor@DV?$string_output_adapter@D@__crt_stdio_output@@V?$standard_base@DV?$string_output_adapter@D@__crt_stdio_output@@@2@@__crt_stdio_output@@AAE_NXZ 1002b340 f i libucrt:output.obj
 0001:0002a347       ?state_case_dot@?$output_processor@_WV?$stream_output_adapter@_W@__crt_stdio_output@@V?$format_validation_base@_WV?$stream_output_adapter@_W@__crt_stdio_output@@@2@@__crt_stdio_output@@AAE_NXZ 1002b347 f i libucrt:output.obj
 0001:0002a34e       ?state_case_dot@?$output_processor@_WV?$stream_output_adapter@_W@__crt_stdio_output@@V?$positional_parameter_base@_WV?$stream_output_adapter@_W@__crt_stdio_output@@@2@@__crt_stdio_output@@AAE_NXZ 1002b34e f i libucrt:output.obj
 0001:0002a355       ?state_case_dot@?$output_processor@_WV?$stream_output_adapter@_W@__crt_stdio_output@@V?$standard_base@_WV?$stream_output_adapter@_W@__crt_stdio_output@@@2@@__crt_stdio_output@@AAE_NXZ 1002b355 f i libucrt:output.obj
 0001:0002a35c       ?state_case_dot@?$output_processor@_WV?$string_output_adapter@_W@__crt_stdio_output@@V?$format_validation_base@_WV?$string_output_adapter@_W@__crt_stdio_output@@@2@@__crt_stdio_output@@AAE_NXZ 1002b35c f i libucrt:output.obj
 0001:0002a363       ?state_case_dot@?$output_processor@_WV?$string_output_adapter@_W@__crt_stdio_output@@V?$positional_parameter_base@_WV?$string_output_adapter@_W@__crt_stdio_output@@@2@@__crt_stdio_output@@AAE_NXZ 1002b363 f i libucrt:output.obj
 0001:0002a36a       ?state_case_dot@?$output_processor@_WV?$string_output_adapter@_W@__crt_stdio_output@@V?$standard_base@_WV?$string_output_adapter@_W@__crt_stdio_output@@@2@@__crt_stdio_output@@AAE_NXZ 1002b36a f i libucrt:output.obj
 0001:0002a371       ?state_case_flag@?$output_processor@DV?$stream_output_adapter@D@__crt_stdio_output@@V?$format_validation_base@DV?$stream_output_adapter@D@__crt_stdio_output@@@2@@__crt_stdio_output@@AAE_NXZ 1002b371 f i libucrt:output.obj
 0001:0002a3bd       ?state_case_flag@?$output_processor@DV?$stream_output_adapter@D@__crt_stdio_output@@V?$positional_parameter_base@DV?$stream_output_adapter@D@__crt_stdio_output@@@2@@__crt_stdio_output@@AAE_NXZ 1002b3bd f i libucrt:output.obj
 0001:0002a409       ?state_case_flag@?$output_processor@DV?$stream_output_adapter@D@__crt_stdio_output@@V?$standard_base@DV?$stream_output_adapter@D@__crt_stdio_output@@@2@@__crt_stdio_output@@AAE_NXZ 1002b409 f i libucrt:output.obj
 0001:0002a455       ?state_case_flag@?$output_processor@DV?$string_output_adapter@D@__crt_stdio_output@@V?$format_validation_base@DV?$string_output_adapter@D@__crt_stdio_output@@@2@@__crt_stdio_output@@AAE_NXZ 1002b455 f i libucrt:output.obj
 0001:0002a4a1       ?state_case_flag@?$output_processor@DV?$string_output_adapter@D@__crt_stdio_output@@V?$positional_parameter_base@DV?$string_output_adapter@D@__crt_stdio_output@@@2@@__crt_stdio_output@@AAE_NXZ 1002b4a1 f i libucrt:output.obj
 0001:0002a4ed       ?state_case_flag@?$output_processor@DV?$string_output_adapter@D@__crt_stdio_output@@V?$standard_base@DV?$string_output_adapter@D@__crt_stdio_output@@@2@@__crt_stdio_output@@AAE_NXZ 1002b4ed f i libucrt:output.obj
 0001:0002a539       ?state_case_flag@?$output_processor@_WV?$stream_output_adapter@_W@__crt_stdio_output@@V?$format_validation_base@_WV?$stream_output_adapter@_W@__crt_stdio_output@@@2@@__crt_stdio_output@@AAE_NXZ 1002b539 f i libucrt:output.obj
 0001:0002a585       ?state_case_flag@?$output_processor@_WV?$stream_output_adapter@_W@__crt_stdio_output@@V?$positional_parameter_base@_WV?$stream_output_adapter@_W@__crt_stdio_output@@@2@@__crt_stdio_output@@AAE_NXZ 1002b585 f i libucrt:output.obj
 0001:0002a5d1       ?state_case_flag@?$output_processor@_WV?$stream_output_adapter@_W@__crt_stdio_output@@V?$standard_base@_WV?$stream_output_adapter@_W@__crt_stdio_output@@@2@@__crt_stdio_output@@AAE_NXZ 1002b5d1 f i libucrt:output.obj
 0001:0002a61d       ?state_case_flag@?$output_processor@_WV?$string_output_adapter@_W@__crt_stdio_output@@V?$format_validation_base@_WV?$string_output_adapter@_W@__crt_stdio_output@@@2@@__crt_stdio_output@@AAE_NXZ 1002b61d f i libucrt:output.obj
 0001:0002a669       ?state_case_flag@?$output_processor@_WV?$string_output_adapter@_W@__crt_stdio_output@@V?$positional_parameter_base@_WV?$string_output_adapter@_W@__crt_stdio_output@@@2@@__crt_stdio_output@@AAE_NXZ 1002b669 f i libucrt:output.obj
 0001:0002a6b5       ?state_case_flag@?$output_processor@_WV?$string_output_adapter@_W@__crt_stdio_output@@V?$standard_base@_WV?$string_output_adapter@_W@__crt_stdio_output@@@2@@__crt_stdio_output@@AAE_NXZ 1002b6b5 f i libucrt:output.obj
 0001:0002a701       ?state_case_normal@?$output_processor@DV?$stream_output_adapter@D@__crt_stdio_output@@V?$format_validation_base@DV?$stream_output_adapter@D@__crt_stdio_output@@@2@@__crt_stdio_output@@AAE_NXZ 1002b701 f i libucrt:output.obj
 0001:0002a727       ?state_case_normal@?$output_processor@DV?$stream_output_adapter@D@__crt_stdio_output@@V?$positional_parameter_base@DV?$stream_output_adapter@D@__crt_stdio_output@@@2@@__crt_stdio_output@@AAE_NXZ 1002b727 f i libucrt:output.obj
 0001:0002a764       ?state_case_normal@?$output_processor@DV?$stream_output_adapter@D@__crt_stdio_output@@V?$standard_base@DV?$stream_output_adapter@D@__crt_stdio_output@@@2@@__crt_stdio_output@@AAE_NXZ 1002b764 f i libucrt:output.obj
 0001:0002a78a       ?state_case_normal@?$output_processor@DV?$string_output_adapter@D@__crt_stdio_output@@V?$format_validation_base@DV?$string_output_adapter@D@__crt_stdio_output@@@2@@__crt_stdio_output@@AAE_NXZ 1002b78a f i libucrt:output.obj
 0001:0002a7b0       ?state_case_normal@?$output_processor@DV?$string_output_adapter@D@__crt_stdio_output@@V?$positional_parameter_base@DV?$string_output_adapter@D@__crt_stdio_output@@@2@@__crt_stdio_output@@AAE_NXZ 1002b7b0 f i libucrt:output.obj
 0001:0002a7ed       ?state_case_normal@?$output_processor@DV?$string_output_adapter@D@__crt_stdio_output@@V?$standard_base@DV?$string_output_adapter@D@__crt_stdio_output@@@2@@__crt_stdio_output@@AAE_NXZ 1002b7ed f i libucrt:output.obj
 0001:0002a813       ?state_case_normal@?$output_processor@_WV?$stream_output_adapter@_W@__crt_stdio_output@@V?$format_validation_base@_WV?$stream_output_adapter@_W@__crt_stdio_output@@@2@@__crt_stdio_output@@AAE_NXZ 1002b813 f i libucrt:output.obj
 0001:0002a839       ?state_case_normal@?$output_processor@_WV?$stream_output_adapter@_W@__crt_stdio_output@@V?$positional_parameter_base@_WV?$stream_output_adapter@_W@__crt_stdio_output@@@2@@__crt_stdio_output@@AAE_NXZ 1002b839 f i libucrt:output.obj
 0001:0002a876       ?state_case_normal@?$output_processor@_WV?$stream_output_adapter@_W@__crt_stdio_output@@V?$standard_base@_WV?$stream_output_adapter@_W@__crt_stdio_output@@@2@@__crt_stdio_output@@AAE_NXZ 1002b876 f i libucrt:output.obj
 0001:0002a89c       ?state_case_normal@?$output_processor@_WV?$string_output_adapter@_W@__crt_stdio_output@@V?$format_validation_base@_WV?$string_output_adapter@_W@__crt_stdio_output@@@2@@__crt_stdio_output@@AAE_NXZ 1002b89c f i libucrt:output.obj
 0001:0002a8c2       ?state_case_normal@?$output_processor@_WV?$string_output_adapter@_W@__crt_stdio_output@@V?$positional_parameter_base@_WV?$string_output_adapter@_W@__crt_stdio_output@@@2@@__crt_stdio_output@@AAE_NXZ 1002b8c2 f i libucrt:output.obj
 0001:0002a8ff       ?state_case_normal@?$output_processor@_WV?$string_output_adapter@_W@__crt_stdio_output@@V?$standard_base@_WV?$string_output_adapter@_W@__crt_stdio_output@@@2@@__crt_stdio_output@@AAE_NXZ 1002b8ff f i libucrt:output.obj
 0001:0002a925       ?state_case_normal_common@?$output_processor@DV?$stream_output_adapter@D@__crt_stdio_output@@V?$format_validation_base@DV?$stream_output_adapter@D@__crt_stdio_output@@@2@@__crt_stdio_output@@AAE_NXZ 1002b925 f i libucrt:output.obj
 0001:0002a959       ?state_case_normal_common@?$output_processor@DV?$stream_output_adapter@D@__crt_stdio_output@@V?$positional_parameter_base@DV?$stream_output_adapter@D@__crt_stdio_output@@@2@@__crt_stdio_output@@AAE_NXZ 1002b959 f i libucrt:output.obj
 0001:0002a98d       ?state_case_normal_common@?$output_processor@DV?$stream_output_adapter@D@__crt_stdio_output@@V?$standard_base@DV?$stream_output_adapter@D@__crt_stdio_output@@@2@@__crt_stdio_output@@AAE_NXZ 1002b98d f i libucrt:output.obj
 0001:0002a9c1       ?state_case_normal_common@?$output_processor@DV?$string_output_adapter@D@__crt_stdio_output@@V?$format_validation_base@DV?$string_output_adapter@D@__crt_stdio_output@@@2@@__crt_stdio_output@@AAE_NXZ 1002b9c1 f i libucrt:output.obj
 0001:0002a9f5       ?state_case_normal_common@?$output_processor@DV?$string_output_adapter@D@__crt_stdio_output@@V?$positional_parameter_base@DV?$string_output_adapter@D@__crt_stdio_output@@@2@@__crt_stdio_output@@AAE_NXZ 1002b9f5 f i libucrt:output.obj
 0001:0002aa29       ?state_case_normal_common@?$output_processor@DV?$string_output_adapter@D@__crt_stdio_output@@V?$standard_base@DV?$string_output_adapter@D@__crt_stdio_output@@@2@@__crt_stdio_output@@AAE_NXZ 1002ba29 f i libucrt:output.obj
 0001:0002aa5d       ?state_case_normal_common@?$output_processor@_WV?$stream_output_adapter@_W@__crt_stdio_output@@V?$format_validation_base@_WV?$stream_output_adapter@_W@__crt_stdio_output@@@2@@__crt_stdio_output@@AAE_NXZ 1002ba5d f i libucrt:output.obj
 0001:0002aa7e       ?state_case_normal_common@?$output_processor@_WV?$stream_output_adapter@_W@__crt_stdio_output@@V?$positional_parameter_base@_WV?$stream_output_adapter@_W@__crt_stdio_output@@@2@@__crt_stdio_output@@AAE_NXZ 1002ba7e f i libucrt:output.obj
 0001:0002aa9f       ?state_case_normal_common@?$output_processor@_WV?$stream_output_adapter@_W@__crt_stdio_output@@V?$standard_base@_WV?$stream_output_adapter@_W@__crt_stdio_output@@@2@@__crt_stdio_output@@AAE_NXZ 1002ba9f f i libucrt:output.obj
 0001:0002aac0       ?state_case_normal_common@?$output_processor@_WV?$string_output_adapter@_W@__crt_stdio_output@@V?$format_validation_base@_WV?$string_output_adapter@_W@__crt_stdio_output@@@2@@__crt_stdio_output@@AAE_NXZ 1002bac0 f i libucrt:output.obj
 0001:0002aae1       ?state_case_normal_common@?$output_processor@_WV?$string_output_adapter@_W@__crt_stdio_output@@V?$positional_parameter_base@_WV?$string_output_adapter@_W@__crt_stdio_output@@@2@@__crt_stdio_output@@AAE_NXZ 1002bae1 f i libucrt:output.obj
 0001:0002ab02       ?state_case_normal_common@?$output_processor@_WV?$string_output_adapter@_W@__crt_stdio_output@@V?$standard_base@_WV?$string_output_adapter@_W@__crt_stdio_output@@@2@@__crt_stdio_output@@AAE_NXZ 1002bb02 f i libucrt:output.obj
 0001:0002ab23       ?state_case_normal_tchar@?$output_processor@DV?$stream_output_adapter@D@__crt_stdio_output@@V?$format_validation_base@DV?$stream_output_adapter@D@__crt_stdio_output@@@2@@__crt_stdio_output@@AAE_ND@Z 1002bb23 f i libucrt:output.obj
 0001:0002ab9c       ?state_case_normal_tchar@?$output_processor@DV?$stream_output_adapter@D@__crt_stdio_output@@V?$positional_parameter_base@DV?$stream_output_adapter@D@__crt_stdio_output@@@2@@__crt_stdio_output@@AAE_ND@Z 1002bb9c f i libucrt:output.obj
 0001:0002ac15       ?state_case_normal_tchar@?$output_processor@DV?$stream_output_adapter@D@__crt_stdio_output@@V?$standard_base@DV?$stream_output_adapter@D@__crt_stdio_output@@@2@@__crt_stdio_output@@AAE_ND@Z 1002bc15 f i libucrt:output.obj
 0001:0002ac8e       ?state_case_normal_tchar@?$output_processor@DV?$string_output_adapter@D@__crt_stdio_output@@V?$format_validation_base@DV?$string_output_adapter@D@__crt_stdio_output@@@2@@__crt_stdio_output@@AAE_ND@Z 1002bc8e f i libucrt:output.obj
 0001:0002ad07       ?state_case_normal_tchar@?$output_processor@DV?$string_output_adapter@D@__crt_stdio_output@@V?$positional_parameter_base@DV?$string_output_adapter@D@__crt_stdio_output@@@2@@__crt_stdio_output@@AAE_ND@Z 1002bd07 f i libucrt:output.obj
 0001:0002ad80       ?state_case_normal_tchar@?$output_processor@DV?$string_output_adapter@D@__crt_stdio_output@@V?$standard_base@DV?$string_output_adapter@D@__crt_stdio_output@@@2@@__crt_stdio_output@@AAE_ND@Z 1002bd80 f i libucrt:output.obj
 0001:0002adf9       ?state_case_normal_tchar@?$output_processor@_WV?$stream_output_adapter@_W@__crt_stdio_output@@V?$format_validation_base@_WV?$stream_output_adapter@_W@__crt_stdio_output@@@2@@__crt_stdio_output@@AAE_N_W@Z 1002bdf9 f i libucrt:output.obj
 0001:0002ae04       ?state_case_normal_tchar@?$output_processor@_WV?$stream_output_adapter@_W@__crt_stdio_output@@V?$positional_parameter_base@_WV?$stream_output_adapter@_W@__crt_stdio_output@@@2@@__crt_stdio_output@@AAE_N_W@Z 1002be04 f i libucrt:output.obj
 0001:0002ae0f       ?state_case_normal_tchar@?$output_processor@_WV?$stream_output_adapter@_W@__crt_stdio_output@@V?$standard_base@_WV?$stream_output_adapter@_W@__crt_stdio_output@@@2@@__crt_stdio_output@@AAE_N_W@Z 1002be0f f i libucrt:output.obj
 0001:0002ae1a       ?state_case_normal_tchar@?$output_processor@_WV?$string_output_adapter@_W@__crt_stdio_output@@V?$format_validation_base@_WV?$string_output_adapter@_W@__crt_stdio_output@@@2@@__crt_stdio_output@@AAE_N_W@Z 1002be1a f i libucrt:output.obj
 0001:0002ae25       ?state_case_normal_tchar@?$output_processor@_WV?$string_output_adapter@_W@__crt_stdio_output@@V?$positional_parameter_base@_WV?$string_output_adapter@_W@__crt_stdio_output@@@2@@__crt_stdio_output@@AAE_N_W@Z 1002be25 f i libucrt:output.obj
 0001:0002ae30       ?state_case_normal_tchar@?$output_processor@_WV?$string_output_adapter@_W@__crt_stdio_output@@V?$standard_base@_WV?$string_output_adapter@_W@__crt_stdio_output@@@2@@__crt_stdio_output@@AAE_N_W@Z 1002be30 f i libucrt:output.obj
 0001:0002ae3b       ?state_case_percent@?$output_processor@DV?$stream_output_adapter@D@__crt_stdio_output@@V?$format_validation_base@DV?$stream_output_adapter@D@__crt_stdio_output@@@2@@__crt_stdio_output@@AAE_NXZ 1002be3b f i libucrt:output.obj
 0001:0002ae59       ?state_case_percent@?$output_processor@DV?$stream_output_adapter@D@__crt_stdio_output@@V?$positional_parameter_base@DV?$stream_output_adapter@D@__crt_stdio_output@@@2@@__crt_stdio_output@@AAE_NXZ 1002be59 f i libucrt:output.obj
 0001:0002ae77       ?state_case_percent@?$output_processor@DV?$stream_output_adapter@D@__crt_stdio_output@@V?$standard_base@DV?$stream_output_adapter@D@__crt_stdio_output@@@2@@__crt_stdio_output@@AAE_NXZ 1002be77 f i libucrt:output.obj
 0001:0002ae95       ?state_case_percent@?$output_processor@DV?$string_output_adapter@D@__crt_stdio_output@@V?$format_validation_base@DV?$string_output_adapter@D@__crt_stdio_output@@@2@@__crt_stdio_output@@AAE_NXZ 1002be95 f i libucrt:output.obj
 0001:0002aeb3       ?state_case_percent@?$output_processor@DV?$string_output_adapter@D@__crt_stdio_output@@V?$positional_parameter_base@DV?$string_output_adapter@D@__crt_stdio_output@@@2@@__crt_stdio_output@@AAE_NXZ 1002beb3 f i libucrt:output.obj
 0001:0002aed1       ?state_case_percent@?$output_processor@DV?$string_output_adapter@D@__crt_stdio_output@@V?$standard_base@DV?$string_output_adapter@D@__crt_stdio_output@@@2@@__crt_stdio_output@@AAE_NXZ 1002bed1 f i libucrt:output.obj
 0001:0002aeef       ?state_case_percent@?$output_processor@_WV?$stream_output_adapter@_W@__crt_stdio_output@@V?$format_validation_base@_WV?$stream_output_adapter@_W@__crt_stdio_output@@@2@@__crt_stdio_output@@AAE_NXZ 1002beef f i libucrt:output.obj
 0001:0002af0d       ?state_case_percent@?$output_processor@_WV?$stream_output_adapter@_W@__crt_stdio_output@@V?$positional_parameter_base@_WV?$stream_output_adapter@_W@__crt_stdio_output@@@2@@__crt_stdio_output@@AAE_NXZ 1002bf0d f i libucrt:output.obj
 0001:0002af2b       ?state_case_percent@?$output_processor@_WV?$stream_output_adapter@_W@__crt_stdio_output@@V?$standard_base@_WV?$stream_output_adapter@_W@__crt_stdio_output@@@2@@__crt_stdio_output@@AAE_NXZ 1002bf2b f i libucrt:output.obj
 0001:0002af49       ?state_case_percent@?$output_processor@_WV?$string_output_adapter@_W@__crt_stdio_output@@V?$format_validation_base@_WV?$string_output_adapter@_W@__crt_stdio_output@@@2@@__crt_stdio_output@@AAE_NXZ 1002bf49 f i libucrt:output.obj
 0001:0002af67       ?state_case_percent@?$output_processor@_WV?$string_output_adapter@_W@__crt_stdio_output@@V?$positional_parameter_base@_WV?$string_output_adapter@_W@__crt_stdio_output@@@2@@__crt_stdio_output@@AAE_NXZ 1002bf67 f i libucrt:output.obj
 0001:0002af85       ?state_case_percent@?$output_processor@_WV?$string_output_adapter@_W@__crt_stdio_output@@V?$standard_base@_WV?$string_output_adapter@_W@__crt_stdio_output@@@2@@__crt_stdio_output@@AAE_NXZ 1002bf85 f i libucrt:output.obj
 0001:0002afa3       ?state_case_precision@?$output_processor@DV?$stream_output_adapter@D@__crt_stdio_output@@V?$format_validation_base@DV?$stream_output_adapter@D@__crt_stdio_output@@@2@@__crt_stdio_output@@AAE_NXZ 1002bfa3 f i libucrt:output.obj
 0001:0002afd5       ?state_case_precision@?$output_processor@DV?$stream_output_adapter@D@__crt_stdio_output@@V?$positional_parameter_base@DV?$stream_output_adapter@D@__crt_stdio_output@@@2@@__crt_stdio_output@@AAE_NXZ 1002bfd5 f i libucrt:output.obj
 0001:0002b01d       ?state_case_precision@?$output_processor@DV?$stream_output_adapter@D@__crt_stdio_output@@V?$standard_base@DV?$stream_output_adapter@D@__crt_stdio_output@@@2@@__crt_stdio_output@@AAE_NXZ 1002c01d f i libucrt:output.obj
 0001:0002b04f       ?state_case_precision@?$output_processor@DV?$string_output_adapter@D@__crt_stdio_output@@V?$format_validation_base@DV?$string_output_adapter@D@__crt_stdio_output@@@2@@__crt_stdio_output@@AAE_NXZ 1002c04f f i libucrt:output.obj
 0001:0002b081       ?state_case_precision@?$output_processor@DV?$string_output_adapter@D@__crt_stdio_output@@V?$positional_parameter_base@DV?$string_output_adapter@D@__crt_stdio_output@@@2@@__crt_stdio_output@@AAE_NXZ 1002c081 f i libucrt:output.obj
 0001:0002b0c9       ?state_case_precision@?$output_processor@DV?$string_output_adapter@D@__crt_stdio_output@@V?$standard_base@DV?$string_output_adapter@D@__crt_stdio_output@@@2@@__crt_stdio_output@@AAE_NXZ 1002c0c9 f i libucrt:output.obj
 0001:0002b0fb       ?state_case_precision@?$output_processor@_WV?$stream_output_adapter@_W@__crt_stdio_output@@V?$format_validation_base@_WV?$stream_output_adapter@_W@__crt_stdio_output@@@2@@__crt_stdio_output@@AAE_NXZ 1002c0fb f i libucrt:output.obj
 0001:0002b12e       ?state_case_precision@?$output_processor@_WV?$stream_output_adapter@_W@__crt_stdio_output@@V?$positional_parameter_base@_WV?$stream_output_adapter@_W@__crt_stdio_output@@@2@@__crt_stdio_output@@AAE_NXZ 1002c12e f i libucrt:output.obj
 0001:0002b177       ?state_case_precision@?$output_processor@_WV?$stream_output_adapter@_W@__crt_stdio_output@@V?$standard_base@_WV?$stream_output_adapter@_W@__crt_stdio_output@@@2@@__crt_stdio_output@@AAE_NXZ 1002c177 f i libucrt:output.obj
 0001:0002b1aa       ?state_case_precision@?$output_processor@_WV?$string_output_adapter@_W@__crt_stdio_output@@V?$format_validation_base@_WV?$string_output_adapter@_W@__crt_stdio_output@@@2@@__crt_stdio_output@@AAE_NXZ 1002c1aa f i libucrt:output.obj
 0001:0002b1dd       ?state_case_precision@?$output_processor@_WV?$string_output_adapter@_W@__crt_stdio_output@@V?$positional_parameter_base@_WV?$string_output_adapter@_W@__crt_stdio_output@@@2@@__crt_stdio_output@@AAE_NXZ 1002c1dd f i libucrt:output.obj
 0001:0002b226       ?state_case_precision@?$output_processor@_WV?$string_output_adapter@_W@__crt_stdio_output@@V?$standard_base@_WV?$string_output_adapter@_W@__crt_stdio_output@@@2@@__crt_stdio_output@@AAE_NXZ 1002c226 f i libucrt:output.obj
 0001:0002b259       ?state_case_size@?$output_processor@DV?$stream_output_adapter@D@__crt_stdio_output@@V?$format_validation_base@DV?$stream_output_adapter@D@__crt_stdio_output@@@2@@__crt_stdio_output@@AAE_NXZ 1002c259 f i libucrt:output.obj
 0001:0002b41c       ?state_case_size@?$output_processor@DV?$stream_output_adapter@D@__crt_stdio_output@@V?$positional_parameter_base@DV?$stream_output_adapter@D@__crt_stdio_output@@@2@@__crt_stdio_output@@AAE_NXZ 1002c41c f i libucrt:output.obj
 0001:0002b5df       ?state_case_size@?$output_processor@DV?$stream_output_adapter@D@__crt_stdio_output@@V?$standard_base@DV?$stream_output_adapter@D@__crt_stdio_output@@@2@@__crt_stdio_output@@AAE_NXZ 1002c5df f i libucrt:output.obj
 0001:0002b7a2       ?state_case_size@?$output_processor@DV?$string_output_adapter@D@__crt_stdio_output@@V?$format_validation_base@DV?$string_output_adapter@D@__crt_stdio_output@@@2@@__crt_stdio_output@@AAE_NXZ 1002c7a2 f i libucrt:output.obj
 0001:0002b965       ?state_case_size@?$output_processor@DV?$string_output_adapter@D@__crt_stdio_output@@V?$positional_parameter_base@DV?$string_output_adapter@D@__crt_stdio_output@@@2@@__crt_stdio_output@@AAE_NXZ 1002c965 f i libucrt:output.obj
 0001:0002bb28       ?state_case_size@?$output_processor@DV?$string_output_adapter@D@__crt_stdio_output@@V?$standard_base@DV?$string_output_adapter@D@__crt_stdio_output@@@2@@__crt_stdio_output@@AAE_NXZ 1002cb28 f i libucrt:output.obj
 0001:0002bceb       ?state_case_size@?$output_processor@_WV?$stream_output_adapter@_W@__crt_stdio_output@@V?$format_validation_base@_WV?$stream_output_adapter@_W@__crt_stdio_output@@@2@@__crt_stdio_output@@AAE_NXZ 1002cceb f i libucrt:output.obj
 0001:0002bec6       ?state_case_size@?$output_processor@_WV?$stream_output_adapter@_W@__crt_stdio_output@@V?$positional_parameter_base@_WV?$stream_output_adapter@_W@__crt_stdio_output@@@2@@__crt_stdio_output@@AAE_NXZ 1002cec6 f i libucrt:output.obj
 0001:0002c0a1       ?state_case_size@?$output_processor@_WV?$stream_output_adapter@_W@__crt_stdio_output@@V?$standard_base@_WV?$stream_output_adapter@_W@__crt_stdio_output@@@2@@__crt_stdio_output@@AAE_NXZ 1002d0a1 f i libucrt:output.obj
 0001:0002c27c       ?state_case_size@?$output_processor@_WV?$string_output_adapter@_W@__crt_stdio_output@@V?$format_validation_base@_WV?$string_output_adapter@_W@__crt_stdio_output@@@2@@__crt_stdio_output@@AAE_NXZ 1002d27c f i libucrt:output.obj
 0001:0002c457       ?state_case_size@?$output_processor@_WV?$string_output_adapter@_W@__crt_stdio_output@@V?$positional_parameter_base@_WV?$string_output_adapter@_W@__crt_stdio_output@@@2@@__crt_stdio_output@@AAE_NXZ 1002d457 f i libucrt:output.obj
 0001:0002c632       ?state_case_size@?$output_processor@_WV?$string_output_adapter@_W@__crt_stdio_output@@V?$standard_base@_WV?$string_output_adapter@_W@__crt_stdio_output@@@2@@__crt_stdio_output@@AAE_NXZ 1002d632 f i libucrt:output.obj
 0001:0002c80d       ?state_case_type@?$output_processor@DV?$stream_output_adapter@D@__crt_stdio_output@@V?$format_validation_base@DV?$stream_output_adapter@D@__crt_stdio_output@@@2@@__crt_stdio_output@@AAE_NXZ 1002d80d f i libucrt:output.obj
 0001:0002cac7       ?state_case_type@?$output_processor@DV?$stream_output_adapter@D@__crt_stdio_output@@V?$positional_parameter_base@DV?$stream_output_adapter@D@__crt_stdio_output@@@2@@__crt_stdio_output@@AAE_NXZ 1002dac7 f i libucrt:output.obj
 0001:0002cd8f       ?state_case_type@?$output_processor@DV?$stream_output_adapter@D@__crt_stdio_output@@V?$standard_base@DV?$stream_output_adapter@D@__crt_stdio_output@@@2@@__crt_stdio_output@@AAE_NXZ 1002dd8f f i libucrt:output.obj
 0001:0002d049       ?state_case_type@?$output_processor@DV?$string_output_adapter@D@__crt_stdio_output@@V?$format_validation_base@DV?$string_output_adapter@D@__crt_stdio_output@@@2@@__crt_stdio_output@@AAE_NXZ 1002e049 f i libucrt:output.obj
 0001:0002d303       ?state_case_type@?$output_processor@DV?$string_output_adapter@D@__crt_stdio_output@@V?$positional_parameter_base@DV?$string_output_adapter@D@__crt_stdio_output@@@2@@__crt_stdio_output@@AAE_NXZ 1002e303 f i libucrt:output.obj
 0001:0002d5cb       ?state_case_type@?$output_processor@DV?$string_output_adapter@D@__crt_stdio_output@@V?$standard_base@DV?$string_output_adapter@D@__crt_stdio_output@@@2@@__crt_stdio_output@@AAE_NXZ 1002e5cb f i libucrt:output.obj
 0001:0002d885       ?state_case_type@?$output_processor@_WV?$stream_output_adapter@_W@__crt_stdio_output@@V?$format_validation_base@_WV?$stream_output_adapter@_W@__crt_stdio_output@@@2@@__crt_stdio_output@@AAE_NXZ 1002e885 f i libucrt:output.obj
 0001:0002db79       ?state_case_type@?$output_processor@_WV?$stream_output_adapter@_W@__crt_stdio_output@@V?$positional_parameter_base@_WV?$stream_output_adapter@_W@__crt_stdio_output@@@2@@__crt_stdio_output@@AAE_NXZ 1002eb79 f i libucrt:output.obj
 0001:0002de80       ?state_case_type@?$output_processor@_WV?$stream_output_adapter@_W@__crt_stdio_output@@V?$standard_base@_WV?$stream_output_adapter@_W@__crt_stdio_output@@@2@@__crt_stdio_output@@AAE_NXZ 1002ee80 f i libucrt:output.obj
 0001:0002e174       ?state_case_type@?$output_processor@_WV?$string_output_adapter@_W@__crt_stdio_output@@V?$format_validation_base@_WV?$string_output_adapter@_W@__crt_stdio_output@@@2@@__crt_stdio_output@@AAE_NXZ 1002f174 f i libucrt:output.obj
 0001:0002e468       ?state_case_type@?$output_processor@_WV?$string_output_adapter@_W@__crt_stdio_output@@V?$positional_parameter_base@_WV?$string_output_adapter@_W@__crt_stdio_output@@@2@@__crt_stdio_output@@AAE_NXZ 1002f468 f i libucrt:output.obj
 0001:0002e76f       ?state_case_type@?$output_processor@_WV?$string_output_adapter@_W@__crt_stdio_output@@V?$standard_base@_WV?$string_output_adapter@_W@__crt_stdio_output@@@2@@__crt_stdio_output@@AAE_NXZ 1002f76f f i libucrt:output.obj
 0001:0002ea63       ?state_case_width@?$output_processor@DV?$stream_output_adapter@D@__crt_stdio_output@@V?$format_validation_base@DV?$stream_output_adapter@D@__crt_stdio_output@@@2@@__crt_stdio_output@@AAE_NXZ 1002fa63 f i libucrt:output.obj
 0001:0002ea98       ?state_case_width@?$output_processor@DV?$stream_output_adapter@D@__crt_stdio_output@@V?$positional_parameter_base@DV?$stream_output_adapter@D@__crt_stdio_output@@@2@@__crt_stdio_output@@AAE_NXZ 1002fa98 f i libucrt:output.obj
 0001:0002eae8       ?state_case_width@?$output_processor@DV?$stream_output_adapter@D@__crt_stdio_output@@V?$standard_base@DV?$stream_output_adapter@D@__crt_stdio_output@@@2@@__crt_stdio_output@@AAE_NXZ 1002fae8 f i libucrt:output.obj
 0001:0002eb1d       ?state_case_width@?$output_processor@DV?$string_output_adapter@D@__crt_stdio_output@@V?$format_validation_base@DV?$string_output_adapter@D@__crt_stdio_output@@@2@@__crt_stdio_output@@AAE_NXZ 1002fb1d f i libucrt:output.obj
 0001:0002eb52       ?state_case_width@?$output_processor@DV?$string_output_adapter@D@__crt_stdio_output@@V?$positional_parameter_base@DV?$string_output_adapter@D@__crt_stdio_output@@@2@@__crt_stdio_output@@AAE_NXZ 1002fb52 f i libucrt:output.obj
 0001:0002eba2       ?state_case_width@?$output_processor@DV?$string_output_adapter@D@__crt_stdio_output@@V?$standard_base@DV?$string_output_adapter@D@__crt_stdio_output@@@2@@__crt_stdio_output@@AAE_NXZ 1002fba2 f i libucrt:output.obj
 0001:0002ebd7       ?state_case_width@?$output_processor@_WV?$stream_output_adapter@_W@__crt_stdio_output@@V?$format_validation_base@_WV?$stream_output_adapter@_W@__crt_stdio_output@@@2@@__crt_stdio_output@@AAE_NXZ 1002fbd7 f i libucrt:output.obj
 0001:0002ec0e       ?state_case_width@?$output_processor@_WV?$stream_output_adapter@_W@__crt_stdio_output@@V?$positional_parameter_base@_WV?$stream_output_adapter@_W@__crt_stdio_output@@@2@@__crt_stdio_output@@AAE_NXZ 1002fc0e f i libucrt:output.obj
 0001:0002ec5f       ?state_case_width@?$output_processor@_WV?$stream_output_adapter@_W@__crt_stdio_output@@V?$standard_base@_WV?$stream_output_adapter@_W@__crt_stdio_output@@@2@@__crt_stdio_output@@AAE_NXZ 1002fc5f f i libucrt:output.obj
 0001:0002ec96       ?state_case_width@?$output_processor@_WV?$string_output_adapter@_W@__crt_stdio_output@@V?$format_validation_base@_WV?$string_output_adapter@_W@__crt_stdio_output@@@2@@__crt_stdio_output@@AAE_NXZ 1002fc96 f i libucrt:output.obj
 0001:0002eccd       ?state_case_width@?$output_processor@_WV?$string_output_adapter@_W@__crt_stdio_output@@V?$positional_parameter_base@_WV?$string_output_adapter@_W@__crt_stdio_output@@@2@@__crt_stdio_output@@AAE_NXZ 1002fccd f i libucrt:output.obj
 0001:0002ed1e       ?state_case_width@?$output_processor@_WV?$string_output_adapter@_W@__crt_stdio_output@@V?$standard_base@_WV?$string_output_adapter@_W@__crt_stdio_output@@@2@@__crt_stdio_output@@AAE_NXZ 1002fd1e f i libucrt:output.obj
 0001:0002ed55       ?state_count@?$format_validation_base@DV?$stream_output_adapter@D@__crt_stdio_output@@@__crt_stdio_output@@KAIXZ 1002fd55 f i libucrt:output.obj
 0001:0002ed59       ?state_count@?$format_validation_base@DV?$string_output_adapter@D@__crt_stdio_output@@@__crt_stdio_output@@KAIXZ 1002fd59 f i libucrt:output.obj
 0001:0002ed5d       ?state_count@?$format_validation_base@_WV?$stream_output_adapter@_W@__crt_stdio_output@@@__crt_stdio_output@@KAIXZ 1002fd5d f i libucrt:output.obj
 0001:0002ed61       ?state_count@?$format_validation_base@_WV?$string_output_adapter@_W@__crt_stdio_output@@@__crt_stdio_output@@KAIXZ 1002fd61 f i libucrt:output.obj
 0001:0002ed65       ?state_count@?$standard_base@DV?$stream_output_adapter@D@__crt_stdio_output@@@__crt_stdio_output@@KAIXZ 1002fd65 f i libucrt:output.obj
 0001:0002ed69       ?state_count@?$standard_base@DV?$string_output_adapter@D@__crt_stdio_output@@@__crt_stdio_output@@KAIXZ 1002fd69 f i libucrt:output.obj
 0001:0002ed6d       ?state_count@?$standard_base@_WV?$stream_output_adapter@_W@__crt_stdio_output@@@__crt_stdio_output@@KAIXZ 1002fd6d f i libucrt:output.obj
 0001:0002ed71       ?state_count@?$standard_base@_WV?$string_output_adapter@_W@__crt_stdio_output@@@__crt_stdio_output@@KAIXZ 1002fd71 f i libucrt:output.obj
 0001:0002ed75       ?state_transition_table@?$format_validation_base@DV?$stream_output_adapter@D@__crt_stdio_output@@@__crt_stdio_output@@KAPBEXZ 1002fd75 f i libucrt:output.obj
 0001:0002ed7b       ?state_transition_table@?$format_validation_base@DV?$string_output_adapter@D@__crt_stdio_output@@@__crt_stdio_output@@KAPBEXZ 1002fd7b f i libucrt:output.obj
 0001:0002ed81       ?state_transition_table@?$format_validation_base@_WV?$stream_output_adapter@_W@__crt_stdio_output@@@__crt_stdio_output@@KAPBEXZ 1002fd81 f i libucrt:output.obj
 0001:0002ed87       ?state_transition_table@?$format_validation_base@_WV?$string_output_adapter@_W@__crt_stdio_output@@@__crt_stdio_output@@KAPBEXZ 1002fd87 f i libucrt:output.obj
 0001:0002ed8d       ?state_transition_table@?$standard_base@DV?$stream_output_adapter@D@__crt_stdio_output@@@__crt_stdio_output@@KAPBEXZ 1002fd8d f i libucrt:output.obj
 0001:0002ed93       ?state_transition_table@?$standard_base@DV?$string_output_adapter@D@__crt_stdio_output@@@__crt_stdio_output@@KAPBEXZ 1002fd93 f i libucrt:output.obj
 0001:0002ed99       ?state_transition_table@?$standard_base@_WV?$stream_output_adapter@_W@__crt_stdio_output@@@__crt_stdio_output@@KAPBEXZ 1002fd99 f i libucrt:output.obj
 0001:0002ed9f       ?state_transition_table@?$standard_base@_WV?$string_output_adapter@_W@__crt_stdio_output@@@__crt_stdio_output@@KAPBEXZ 1002fd9f f i libucrt:output.obj
 0001:0002eda5       ?to_integer_size@__crt_stdio_output@@YAIW4length_modifier@1@@Z 1002fda5 f i libucrt:output.obj
 0001:0002ee18       ?type_case_X@?$output_processor@DV?$stream_output_adapter@D@__crt_stdio_output@@V?$format_validation_base@DV?$stream_output_adapter@D@__crt_stdio_output@@@2@@__crt_stdio_output@@AAE_NXZ 1002fe18 f i libucrt:output.obj
 0001:0002ee24       ?type_case_X@?$output_processor@DV?$stream_output_adapter@D@__crt_stdio_output@@V?$positional_parameter_base@DV?$stream_output_adapter@D@__crt_stdio_output@@@2@@__crt_stdio_output@@AAE_NXZ 1002fe24 f i libucrt:output.obj
 0001:0002ee30       ?type_case_X@?$output_processor@DV?$stream_output_adapter@D@__crt_stdio_output@@V?$standard_base@DV?$stream_output_adapter@D@__crt_stdio_output@@@2@@__crt_stdio_output@@AAE_NXZ 1002fe30 f i libucrt:output.obj
 0001:0002ee3c       ?type_case_X@?$output_processor@DV?$string_output_adapter@D@__crt_stdio_output@@V?$format_validation_base@DV?$string_output_adapter@D@__crt_stdio_output@@@2@@__crt_stdio_output@@AAE_NXZ 1002fe3c f i libucrt:output.obj
 0001:0002ee48       ?type_case_X@?$output_processor@DV?$string_output_adapter@D@__crt_stdio_output@@V?$positional_parameter_base@DV?$string_output_adapter@D@__crt_stdio_output@@@2@@__crt_stdio_output@@AAE_NXZ 1002fe48 f i libucrt:output.obj
 0001:0002ee54       ?type_case_X@?$output_processor@DV?$string_output_adapter@D@__crt_stdio_output@@V?$standard_base@DV?$string_output_adapter@D@__crt_stdio_output@@@2@@__crt_stdio_output@@AAE_NXZ 1002fe54 f i libucrt:output.obj
 0001:0002ee60       ?type_case_X@?$output_processor@_WV?$stream_output_adapter@_W@__crt_stdio_output@@V?$format_validation_base@_WV?$stream_output_adapter@_W@__crt_stdio_output@@@2@@__crt_stdio_output@@AAE_NXZ 1002fe60 f i libucrt:output.obj
 0001:0002ee6c       ?type_case_X@?$output_processor@_WV?$stream_output_adapter@_W@__crt_stdio_output@@V?$positional_parameter_base@_WV?$stream_output_adapter@_W@__crt_stdio_output@@@2@@__crt_stdio_output@@AAE_NXZ 1002fe6c f i libucrt:output.obj
 0001:0002ee78       ?type_case_X@?$output_processor@_WV?$stream_output_adapter@_W@__crt_stdio_output@@V?$standard_base@_WV?$stream_output_adapter@_W@__crt_stdio_output@@@2@@__crt_stdio_output@@AAE_NXZ 1002fe78 f i libucrt:output.obj
 0001:0002ee84       ?type_case_X@?$output_processor@_WV?$string_output_adapter@_W@__crt_stdio_output@@V?$format_validation_base@_WV?$string_output_adapter@_W@__crt_stdio_output@@@2@@__crt_stdio_output@@AAE_NXZ 1002fe84 f i libucrt:output.obj
 0001:0002ee90       ?type_case_X@?$output_processor@_WV?$string_output_adapter@_W@__crt_stdio_output@@V?$positional_parameter_base@_WV?$string_output_adapter@_W@__crt_stdio_output@@@2@@__crt_stdio_output@@AAE_NXZ 1002fe90 f i libucrt:output.obj
 0001:0002ee9c       ?type_case_X@?$output_processor@_WV?$string_output_adapter@_W@__crt_stdio_output@@V?$standard_base@_WV?$string_output_adapter@_W@__crt_stdio_output@@@2@@__crt_stdio_output@@AAE_NXZ 1002fe9c f i libucrt:output.obj
 0001:0002eea8       ?type_case_Z@?$output_processor@DV?$stream_output_adapter@D@__crt_stdio_output@@V?$format_validation_base@DV?$stream_output_adapter@D@__crt_stdio_output@@@2@@__crt_stdio_output@@AAE_NXZ 1002fea8 f i libucrt:output.obj
 0001:0002ef23       ?type_case_Z@?$output_processor@DV?$stream_output_adapter@D@__crt_stdio_output@@V?$positional_parameter_base@DV?$stream_output_adapter@D@__crt_stdio_output@@@2@@__crt_stdio_output@@AAE_NXZ 1002ff23 f i libucrt:output.obj
 0001:0002efc1       ?type_case_Z@?$output_processor@DV?$stream_output_adapter@D@__crt_stdio_output@@V?$standard_base@DV?$stream_output_adapter@D@__crt_stdio_output@@@2@@__crt_stdio_output@@AAE_NXZ 1002ffc1 f i libucrt:output.obj
 0001:0002f03c       ?type_case_Z@?$output_processor@DV?$string_output_adapter@D@__crt_stdio_output@@V?$format_validation_base@DV?$string_output_adapter@D@__crt_stdio_output@@@2@@__crt_stdio_output@@AAE_NXZ 1003003c f i libucrt:output.obj
 0001:0002f0b7       ?type_case_Z@?$output_processor@DV?$string_output_adapter@D@__crt_stdio_output@@V?$positional_parameter_base@DV?$string_output_adapter@D@__crt_stdio_output@@@2@@__crt_stdio_output@@AAE_NXZ 100300b7 f i libucrt:output.obj
 0001:0002f155       ?type_case_Z@?$output_processor@DV?$string_output_adapter@D@__crt_stdio_output@@V?$standard_base@DV?$string_output_adapter@D@__crt_stdio_output@@@2@@__crt_stdio_output@@AAE_NXZ 10030155 f i libucrt:output.obj
 0001:0002f1d0       ?type_case_Z@?$output_processor@_WV?$stream_output_adapter@_W@__crt_stdio_output@@V?$format_validation_base@_WV?$stream_output_adapter@_W@__crt_stdio_output@@@2@@__crt_stdio_output@@AAE_NXZ 100301d0 f i libucrt:output.obj
 0001:0002f24b       ?type_case_Z@?$output_processor@_WV?$stream_output_adapter@_W@__crt_stdio_output@@V?$positional_parameter_base@_WV?$stream_output_adapter@_W@__crt_stdio_output@@@2@@__crt_stdio_output@@AAE_NXZ 1003024b f i libucrt:output.obj
 0001:0002f2e9       ?type_case_Z@?$output_processor@_WV?$stream_output_adapter@_W@__crt_stdio_output@@V?$standard_base@_WV?$stream_output_adapter@_W@__crt_stdio_output@@@2@@__crt_stdio_output@@AAE_NXZ 100302e9 f i libucrt:output.obj
 0001:0002f364       ?type_case_Z@?$output_processor@_WV?$string_output_adapter@_W@__crt_stdio_output@@V?$format_validation_base@_WV?$string_output_adapter@_W@__crt_stdio_output@@@2@@__crt_stdio_output@@AAE_NXZ 10030364 f i libucrt:output.obj
 0001:0002f3df       ?type_case_Z@?$output_processor@_WV?$string_output_adapter@_W@__crt_stdio_output@@V?$positional_parameter_base@_WV?$string_output_adapter@_W@__crt_stdio_output@@@2@@__crt_stdio_output@@AAE_NXZ 100303df f i libucrt:output.obj
 0001:0002f47d       ?type_case_Z@?$output_processor@_WV?$string_output_adapter@_W@__crt_stdio_output@@V?$standard_base@_WV?$string_output_adapter@_W@__crt_stdio_output@@@2@@__crt_stdio_output@@AAE_NXZ 1003047d f i libucrt:output.obj
 0001:0002f4f8       ?type_case_a@?$output_processor@DV?$stream_output_adapter@D@__crt_stdio_output@@V?$format_validation_base@DV?$stream_output_adapter@D@__crt_stdio_output@@@2@@__crt_stdio_output@@AAE_NXZ 100304f8 f i libucrt:output.obj
 0001:0002f6a8       ?type_case_a@?$output_processor@DV?$stream_output_adapter@D@__crt_stdio_output@@V?$positional_parameter_base@DV?$stream_output_adapter@D@__crt_stdio_output@@@2@@__crt_stdio_output@@AAE_NXZ 100306a8 f i libucrt:output.obj
 0001:0002f87f       ?type_case_a@?$output_processor@DV?$stream_output_adapter@D@__crt_stdio_output@@V?$standard_base@DV?$stream_output_adapter@D@__crt_stdio_output@@@2@@__crt_stdio_output@@AAE_NXZ 1003087f f i libucrt:output.obj
 0001:0002fa2f       ?type_case_a@?$output_processor@DV?$string_output_adapter@D@__crt_stdio_output@@V?$format_validation_base@DV?$string_output_adapter@D@__crt_stdio_output@@@2@@__crt_stdio_output@@AAE_NXZ 10030a2f f i libucrt:output.obj
 0001:0002fbdf       ?type_case_a@?$output_processor@DV?$string_output_adapter@D@__crt_stdio_output@@V?$positional_parameter_base@DV?$string_output_adapter@D@__crt_stdio_output@@@2@@__crt_stdio_output@@AAE_NXZ 10030bdf f i libucrt:output.obj
 0001:0002fdb6       ?type_case_a@?$output_processor@DV?$string_output_adapter@D@__crt_stdio_output@@V?$standard_base@DV?$string_output_adapter@D@__crt_stdio_output@@@2@@__crt_stdio_output@@AAE_NXZ 10030db6 f i libucrt:output.obj
 0001:0002ff66       ?type_case_a@?$output_processor@_WV?$stream_output_adapter@_W@__crt_stdio_output@@V?$format_validation_base@_WV?$stream_output_adapter@_W@__crt_stdio_output@@@2@@__crt_stdio_output@@AAE_NXZ 10030f66 f i libucrt:output.obj
 0001:00030134       ?type_case_a@?$output_processor@_WV?$stream_output_adapter@_W@__crt_stdio_output@@V?$positional_parameter_base@_WV?$stream_output_adapter@_W@__crt_stdio_output@@@2@@__crt_stdio_output@@AAE_NXZ 10031134 f i libucrt:output.obj
 0001:00030329       ?type_case_a@?$output_processor@_WV?$stream_output_adapter@_W@__crt_stdio_output@@V?$standard_base@_WV?$stream_output_adapter@_W@__crt_stdio_output@@@2@@__crt_stdio_output@@AAE_NXZ 10031329 f i libucrt:output.obj
 0001:000304f7       ?type_case_a@?$output_processor@_WV?$string_output_adapter@_W@__crt_stdio_output@@V?$format_validation_base@_WV?$string_output_adapter@_W@__crt_stdio_output@@@2@@__crt_stdio_output@@AAE_NXZ 100314f7 f i libucrt:output.obj
 0001:000306c5       ?type_case_a@?$output_processor@_WV?$string_output_adapter@_W@__crt_stdio_output@@V?$positional_parameter_base@_WV?$string_output_adapter@_W@__crt_stdio_output@@@2@@__crt_stdio_output@@AAE_NXZ 100316c5 f i libucrt:output.obj
 0001:000308ba       ?type_case_a@?$output_processor@_WV?$string_output_adapter@_W@__crt_stdio_output@@V?$standard_base@_WV?$string_output_adapter@_W@__crt_stdio_output@@@2@@__crt_stdio_output@@AAE_NXZ 100318ba f i libucrt:output.obj
 0001:00030a88       ?type_case_c@?$output_processor@DV?$stream_output_adapter@D@__crt_stdio_output@@V?$format_validation_base@DV?$stream_output_adapter@D@__crt_stdio_output@@@2@@__crt_stdio_output@@AAE_NXZ 10031a88 f i libucrt:output.obj
 0001:00030a92       ?type_case_c@?$output_processor@DV?$stream_output_adapter@D@__crt_stdio_output@@V?$positional_parameter_base@DV?$stream_output_adapter@D@__crt_stdio_output@@@2@@__crt_stdio_output@@AAE_NXZ 10031a92 f i libucrt:output.obj
 0001:00030a9c       ?type_case_c@?$output_processor@DV?$stream_output_adapter@D@__crt_stdio_output@@V?$standard_base@DV?$stream_output_adapter@D@__crt_stdio_output@@@2@@__crt_stdio_output@@AAE_NXZ 10031a9c f i libucrt:output.obj
 0001:00030aa6       ?type_case_c@?$output_processor@DV?$string_output_adapter@D@__crt_stdio_output@@V?$format_validation_base@DV?$string_output_adapter@D@__crt_stdio_output@@@2@@__crt_stdio_output@@AAE_NXZ 10031aa6 f i libucrt:output.obj
 0001:00030ab0       ?type_case_c@?$output_processor@DV?$string_output_adapter@D@__crt_stdio_output@@V?$positional_parameter_base@DV?$string_output_adapter@D@__crt_stdio_output@@@2@@__crt_stdio_output@@AAE_NXZ 10031ab0 f i libucrt:output.obj
 0001:00030aba       ?type_case_c@?$output_processor@DV?$string_output_adapter@D@__crt_stdio_output@@V?$standard_base@DV?$string_output_adapter@D@__crt_stdio_output@@@2@@__crt_stdio_output@@AAE_NXZ 10031aba f i libucrt:output.obj
 0001:00030ac4       ?type_case_c@?$output_processor@_WV?$stream_output_adapter@_W@__crt_stdio_output@@V?$format_validation_base@_WV?$stream_output_adapter@_W@__crt_stdio_output@@@2@@__crt_stdio_output@@AAE_NXZ 10031ac4 f i libucrt:output.obj
 0001:00030ace       ?type_case_c@?$output_processor@_WV?$stream_output_adapter@_W@__crt_stdio_output@@V?$positional_parameter_base@_WV?$stream_output_adapter@_W@__crt_stdio_output@@@2@@__crt_stdio_output@@AAE_NXZ 10031ace f i libucrt:output.obj
 0001:00030ad8       ?type_case_c@?$output_processor@_WV?$stream_output_adapter@_W@__crt_stdio_output@@V?$standard_base@_WV?$stream_output_adapter@_W@__crt_stdio_output@@@2@@__crt_stdio_output@@AAE_NXZ 10031ad8 f i libucrt:output.obj
 0001:00030ae2       ?type_case_c@?$output_processor@_WV?$string_output_adapter@_W@__crt_stdio_output@@V?$format_validation_base@_WV?$string_output_adapter@_W@__crt_stdio_output@@@2@@__crt_stdio_output@@AAE_NXZ 10031ae2 f i libucrt:output.obj
 0001:00030aec       ?type_case_c@?$output_processor@_WV?$string_output_adapter@_W@__crt_stdio_output@@V?$positional_parameter_base@_WV?$string_output_adapter@_W@__crt_stdio_output@@@2@@__crt_stdio_output@@AAE_NXZ 10031aec f i libucrt:output.obj
 0001:00030af6       ?type_case_c@?$output_processor@_WV?$string_output_adapter@_W@__crt_stdio_output@@V?$standard_base@_WV?$string_output_adapter@_W@__crt_stdio_output@@@2@@__crt_stdio_output@@AAE_NXZ 10031af6 f i libucrt:output.obj
 0001:00030b00       ?type_case_c_tchar@?$output_processor@DV?$stream_output_adapter@D@__crt_stdio_output@@V?$format_validation_base@DV?$stream_output_adapter@D@__crt_stdio_output@@@2@@__crt_stdio_output@@AAE_ND@Z 10031b00 f i libucrt:output.obj
 0001:00030bb4       ?type_case_c_tchar@?$output_processor@DV?$stream_output_adapter@D@__crt_stdio_output@@V?$positional_parameter_base@DV?$stream_output_adapter@D@__crt_stdio_output@@@2@@__crt_stdio_output@@AAE_ND@Z 10031bb4 f i libucrt:output.obj
 0001:00030ca4       ?type_case_c_tchar@?$output_processor@DV?$stream_output_adapter@D@__crt_stdio_output@@V?$standard_base@DV?$stream_output_adapter@D@__crt_stdio_output@@@2@@__crt_stdio_output@@AAE_ND@Z 10031ca4 f i libucrt:output.obj
 0001:00030d58       ?type_case_c_tchar@?$output_processor@DV?$string_output_adapter@D@__crt_stdio_output@@V?$format_validation_base@DV?$string_output_adapter@D@__crt_stdio_output@@@2@@__crt_stdio_output@@AAE_ND@Z 10031d58 f i libucrt:output.obj
 0001:00030e0c       ?type_case_c_tchar@?$output_processor@DV?$string_output_adapter@D@__crt_stdio_output@@V?$positional_parameter_base@DV?$string_output_adapter@D@__crt_stdio_output@@@2@@__crt_stdio_output@@AAE_ND@Z 10031e0c f i libucrt:output.obj
 0001:00030efc       ?type_case_c_tchar@?$output_processor@DV?$string_output_adapter@D@__crt_stdio_output@@V?$standard_base@DV?$string_output_adapter@D@__crt_stdio_output@@@2@@__crt_stdio_output@@AAE_ND@Z 10031efc f i libucrt:output.obj
 0001:00030fb0       ?type_case_c_tchar@?$output_processor@_WV?$stream_output_adapter@_W@__crt_stdio_output@@V?$format_validation_base@_WV?$stream_output_adapter@_W@__crt_stdio_output@@@2@@__crt_stdio_output@@AAE_N_W@Z 10031fb0 f i libucrt:output.obj
 0001:0003106e       ?type_case_c_tchar@?$output_processor@_WV?$stream_output_adapter@_W@__crt_stdio_output@@V?$positional_parameter_base@_WV?$stream_output_adapter@_W@__crt_stdio_output@@@2@@__crt_stdio_output@@AAE_N_W@Z 1003206e f i libucrt:output.obj
 0001:00031148       ?type_case_c_tchar@?$output_processor@_WV?$stream_output_adapter@_W@__crt_stdio_output@@V?$standard_base@_WV?$stream_output_adapter@_W@__crt_stdio_output@@@2@@__crt_stdio_output@@AAE_N_W@Z 10032148 f i libucrt:output.obj
 0001:00031206       ?type_case_c_tchar@?$output_processor@_WV?$string_output_adapter@_W@__crt_stdio_output@@V?$format_validation_base@_WV?$string_output_adapter@_W@__crt_stdio_output@@@2@@__crt_stdio_output@@AAE_N_W@Z 10032206 f i libucrt:output.obj
 0001:000312c4       ?type_case_c_tchar@?$output_processor@_WV?$string_output_adapter@_W@__crt_stdio_output@@V?$positional_parameter_base@_WV?$string_output_adapter@_W@__crt_stdio_output@@@2@@__crt_stdio_output@@AAE_N_W@Z 100322c4 f i libucrt:output.obj
 0001:0003139e       ?type_case_c_tchar@?$output_processor@_WV?$string_output_adapter@_W@__crt_stdio_output@@V?$standard_base@_WV?$string_output_adapter@_W@__crt_stdio_output@@@2@@__crt_stdio_output@@AAE_N_W@Z 1003239e f i libucrt:output.obj
 0001:0003145c       ?type_case_d@?$output_processor@DV?$stream_output_adapter@D@__crt_stdio_output@@V?$format_validation_base@DV?$stream_output_adapter@D@__crt_stdio_output@@@2@@__crt_stdio_output@@AAE_NXZ 1003245c f i libucrt:output.obj
 0001:0003146d       ?type_case_d@?$output_processor@DV?$stream_output_adapter@D@__crt_stdio_output@@V?$positional_parameter_base@DV?$stream_output_adapter@D@__crt_stdio_output@@@2@@__crt_stdio_output@@AAE_NXZ 1003246d f i libucrt:output.obj
 0001:0003147e       ?type_case_d@?$output_processor@DV?$stream_output_adapter@D@__crt_stdio_output@@V?$standard_base@DV?$stream_output_adapter@D@__crt_stdio_output@@@2@@__crt_stdio_output@@AAE_NXZ 1003247e f i libucrt:output.obj
 0001:0003148f       ?type_case_d@?$output_processor@DV?$string_output_adapter@D@__crt_stdio_output@@V?$format_validation_base@DV?$string_output_adapter@D@__crt_stdio_output@@@2@@__crt_stdio_output@@AAE_NXZ 1003248f f i libucrt:output.obj
 0001:000314a0       ?type_case_d@?$output_processor@DV?$string_output_adapter@D@__crt_stdio_output@@V?$positional_parameter_base@DV?$string_output_adapter@D@__crt_stdio_output@@@2@@__crt_stdio_output@@AAE_NXZ 100324a0 f i libucrt:output.obj
 0001:000314b1       ?type_case_d@?$output_processor@DV?$string_output_adapter@D@__crt_stdio_output@@V?$standard_base@DV?$string_output_adapter@D@__crt_stdio_output@@@2@@__crt_stdio_output@@AAE_NXZ 100324b1 f i libucrt:output.obj
 0001:000314c2       ?type_case_d@?$output_processor@_WV?$stream_output_adapter@_W@__crt_stdio_output@@V?$format_validation_base@_WV?$stream_output_adapter@_W@__crt_stdio_output@@@2@@__crt_stdio_output@@AAE_NXZ 100324c2 f i libucrt:output.obj
 0001:000314d3       ?type_case_d@?$output_processor@_WV?$stream_output_adapter@_W@__crt_stdio_output@@V?$positional_parameter_base@_WV?$stream_output_adapter@_W@__crt_stdio_output@@@2@@__crt_stdio_output@@AAE_NXZ 100324d3 f i libucrt:output.obj
 0001:000314e4       ?type_case_d@?$output_processor@_WV?$stream_output_adapter@_W@__crt_stdio_output@@V?$standard_base@_WV?$stream_output_adapter@_W@__crt_stdio_output@@@2@@__crt_stdio_output@@AAE_NXZ 100324e4 f i libucrt:output.obj
 0001:000314f5       ?type_case_d@?$output_processor@_WV?$string_output_adapter@_W@__crt_stdio_output@@V?$format_validation_base@_WV?$string_output_adapter@_W@__crt_stdio_output@@@2@@__crt_stdio_output@@AAE_NXZ 100324f5 f i libucrt:output.obj
 0001:00031506       ?type_case_d@?$output_processor@_WV?$string_output_adapter@_W@__crt_stdio_output@@V?$positional_parameter_base@_WV?$string_output_adapter@_W@__crt_stdio_output@@@2@@__crt_stdio_output@@AAE_NXZ 10032506 f i libucrt:output.obj
 0001:00031517       ?type_case_d@?$output_processor@_WV?$string_output_adapter@_W@__crt_stdio_output@@V?$standard_base@_WV?$string_output_adapter@_W@__crt_stdio_output@@@2@@__crt_stdio_output@@AAE_NXZ 10032517 f i libucrt:output.obj
 0001:00031528       ?type_case_integer@?$output_processor@DV?$stream_output_adapter@D@__crt_stdio_output@@V?$format_validation_base@DV?$stream_output_adapter@D@__crt_stdio_output@@@2@@__crt_stdio_output@@AAE_NI_N@Z 10032528 f i libucrt:output.obj
 0001:000316c4       ?type_case_integer@?$output_processor@DV?$stream_output_adapter@D@__crt_stdio_output@@V?$positional_parameter_base@DV?$stream_output_adapter@D@__crt_stdio_output@@@2@@__crt_stdio_output@@AAE_NI_N@Z 100326c4 f i libucrt:output.obj
 0001:000318a1       ?type_case_integer@?$output_processor@DV?$stream_output_adapter@D@__crt_stdio_output@@V?$standard_base@DV?$stream_output_adapter@D@__crt_stdio_output@@@2@@__crt_stdio_output@@AAE_NI_N@Z 100328a1 f i libucrt:output.obj
 0001:00031a3d       ?type_case_integer@?$output_processor@DV?$string_output_adapter@D@__crt_stdio_output@@V?$format_validation_base@DV?$string_output_adapter@D@__crt_stdio_output@@@2@@__crt_stdio_output@@AAE_NI_N@Z 10032a3d f i libucrt:output.obj
 0001:00031bd9       ?type_case_integer@?$output_processor@DV?$string_output_adapter@D@__crt_stdio_output@@V?$positional_parameter_base@DV?$string_output_adapter@D@__crt_stdio_output@@@2@@__crt_stdio_output@@AAE_NI_N@Z 10032bd9 f i libucrt:output.obj
 0001:00031db6       ?type_case_integer@?$output_processor@DV?$string_output_adapter@D@__crt_stdio_output@@V?$standard_base@DV?$string_output_adapter@D@__crt_stdio_output@@@2@@__crt_stdio_output@@AAE_NI_N@Z 10032db6 f i libucrt:output.obj
 0001:00031f52       ?type_case_integer@?$output_processor@_WV?$stream_output_adapter@_W@__crt_stdio_output@@V?$format_validation_base@_WV?$stream_output_adapter@_W@__crt_stdio_output@@@2@@__crt_stdio_output@@AAE_NI_N@Z 10032f52 f i libucrt:output.obj
 0001:000320ee       ?type_case_integer@?$output_processor@_WV?$stream_output_adapter@_W@__crt_stdio_output@@V?$positional_parameter_base@_WV?$stream_output_adapter@_W@__crt_stdio_output@@@2@@__crt_stdio_output@@AAE_NI_N@Z 100330ee f i libucrt:output.obj
 0001:000322cb       ?type_case_integer@?$output_processor@_WV?$stream_output_adapter@_W@__crt_stdio_output@@V?$standard_base@_WV?$stream_output_adapter@_W@__crt_stdio_output@@@2@@__crt_stdio_output@@AAE_NI_N@Z 100332cb f i libucrt:output.obj
 0001:00032467       ?type_case_integer@?$output_processor@_WV?$string_output_adapter@_W@__crt_stdio_output@@V?$format_validation_base@_WV?$string_output_adapter@_W@__crt_stdio_output@@@2@@__crt_stdio_output@@AAE_NI_N@Z 10033467 f i libucrt:output.obj
 0001:00032603       ?type_case_integer@?$output_processor@_WV?$string_output_adapter@_W@__crt_stdio_output@@V?$positional_parameter_base@_WV?$string_output_adapter@_W@__crt_stdio_output@@@2@@__crt_stdio_output@@AAE_NI_N@Z 10033603 f i libucrt:output.obj
 0001:000327e0       ?type_case_integer@?$output_processor@_WV?$string_output_adapter@_W@__crt_stdio_output@@V?$standard_base@_WV?$string_output_adapter@_W@__crt_stdio_output@@@2@@__crt_stdio_output@@AAE_NI_N@Z 100337e0 f i libucrt:output.obj
 0001:0003297c       ?type_case_n@?$output_processor@DV?$stream_output_adapter@D@__crt_stdio_output@@V?$format_validation_base@DV?$stream_output_adapter@D@__crt_stdio_output@@@2@@__crt_stdio_output@@AAE_NXZ 1003397c f i libucrt:output.obj
 0001:00032a0d       ?type_case_n@?$output_processor@DV?$stream_output_adapter@D@__crt_stdio_output@@V?$positional_parameter_base@DV?$stream_output_adapter@D@__crt_stdio_output@@@2@@__crt_stdio_output@@AAE_NXZ 10033a0d f i libucrt:output.obj
 0001:00032acc       ?type_case_n@?$output_processor@DV?$stream_output_adapter@D@__crt_stdio_output@@V?$standard_base@DV?$stream_output_adapter@D@__crt_stdio_output@@@2@@__crt_stdio_output@@AAE_NXZ 10033acc f i libucrt:output.obj
 0001:00032b5d       ?type_case_n@?$output_processor@DV?$string_output_adapter@D@__crt_stdio_output@@V?$format_validation_base@DV?$string_output_adapter@D@__crt_stdio_output@@@2@@__crt_stdio_output@@AAE_NXZ 10033b5d f i libucrt:output.obj
 0001:00032bee       ?type_case_n@?$output_processor@DV?$string_output_adapter@D@__crt_stdio_output@@V?$positional_parameter_base@DV?$string_output_adapter@D@__crt_stdio_output@@@2@@__crt_stdio_output@@AAE_NXZ 10033bee f i libucrt:output.obj
 0001:00032cad       ?type_case_n@?$output_processor@DV?$string_output_adapter@D@__crt_stdio_output@@V?$standard_base@DV?$string_output_adapter@D@__crt_stdio_output@@@2@@__crt_stdio_output@@AAE_NXZ 10033cad f i libucrt:output.obj
 0001:00032d3e       ?type_case_n@?$output_processor@_WV?$stream_output_adapter@_W@__crt_stdio_output@@V?$format_validation_base@_WV?$stream_output_adapter@_W@__crt_stdio_output@@@2@@__crt_stdio_output@@AAE_NXZ 10033d3e f i libucrt:output.obj
 0001:00032dcf       ?type_case_n@?$output_processor@_WV?$stream_output_adapter@_W@__crt_stdio_output@@V?$positional_parameter_base@_WV?$stream_output_adapter@_W@__crt_stdio_output@@@2@@__crt_stdio_output@@AAE_NXZ 10033dcf f i libucrt:output.obj
 0001:00032e8e       ?type_case_n@?$output_processor@_WV?$stream_output_adapter@_W@__crt_stdio_output@@V?$standard_base@_WV?$stream_output_adapter@_W@__crt_stdio_output@@@2@@__crt_stdio_output@@AAE_NXZ 10033e8e f i libucrt:output.obj
 0001:00032f1f       ?type_case_n@?$output_processor@_WV?$string_output_adapter@_W@__crt_stdio_output@@V?$format_validation_base@_WV?$string_output_adapter@_W@__crt_stdio_output@@@2@@__crt_stdio_output@@AAE_NXZ 10033f1f f i libucrt:output.obj
 0001:00032fb0       ?type_case_n@?$output_processor@_WV?$string_output_adapter@_W@__crt_stdio_output@@V?$positional_parameter_base@_WV?$string_output_adapter@_W@__crt_stdio_output@@@2@@__crt_stdio_output@@AAE_NXZ 10033fb0 f i libucrt:output.obj
 0001:0003306f       ?type_case_n@?$output_processor@_WV?$string_output_adapter@_W@__crt_stdio_output@@V?$standard_base@_WV?$string_output_adapter@_W@__crt_stdio_output@@@2@@__crt_stdio_output@@AAE_NXZ 1003406f f i libucrt:output.obj
 0001:00033100       ?type_case_o@?$output_processor@DV?$stream_output_adapter@D@__crt_stdio_output@@V?$format_validation_base@DV?$stream_output_adapter@D@__crt_stdio_output@@@2@@__crt_stdio_output@@AAE_NXZ 10034100 f i libucrt:output.obj
 0001:00033126       ?type_case_o@?$output_processor@DV?$stream_output_adapter@D@__crt_stdio_output@@V?$positional_parameter_base@DV?$stream_output_adapter@D@__crt_stdio_output@@@2@@__crt_stdio_output@@AAE_NXZ 10034126 f i libucrt:output.obj
 0001:0003314c       ?type_case_o@?$output_processor@DV?$stream_output_adapter@D@__crt_stdio_output@@V?$standard_base@DV?$stream_output_adapter@D@__crt_stdio_output@@@2@@__crt_stdio_output@@AAE_NXZ 1003414c f i libucrt:output.obj
 0001:00033172       ?type_case_o@?$output_processor@DV?$string_output_adapter@D@__crt_stdio_output@@V?$format_validation_base@DV?$string_output_adapter@D@__crt_stdio_output@@@2@@__crt_stdio_output@@AAE_NXZ 10034172 f i libucrt:output.obj
 0001:00033198       ?type_case_o@?$output_processor@DV?$string_output_adapter@D@__crt_stdio_output@@V?$positional_parameter_base@DV?$string_output_adapter@D@__crt_stdio_output@@@2@@__crt_stdio_output@@AAE_NXZ 10034198 f i libucrt:output.obj
 0001:000331be       ?type_case_o@?$output_processor@DV?$string_output_adapter@D@__crt_stdio_output@@V?$standard_base@DV?$string_output_adapter@D@__crt_stdio_output@@@2@@__crt_stdio_output@@AAE_NXZ 100341be f i libucrt:output.obj
 0001:000331e4       ?type_case_o@?$output_processor@_WV?$stream_output_adapter@_W@__crt_stdio_output@@V?$format_validation_base@_WV?$stream_output_adapter@_W@__crt_stdio_output@@@2@@__crt_stdio_output@@AAE_NXZ 100341e4 f i libucrt:output.obj
 0001:0003320a       ?type_case_o@?$output_processor@_WV?$stream_output_adapter@_W@__crt_stdio_output@@V?$positional_parameter_base@_WV?$stream_output_adapter@_W@__crt_stdio_output@@@2@@__crt_stdio_output@@AAE_NXZ 1003420a f i libucrt:output.obj
 0001:00033230       ?type_case_o@?$output_processor@_WV?$stream_output_adapter@_W@__crt_stdio_output@@V?$standard_base@_WV?$stream_output_adapter@_W@__crt_stdio_output@@@2@@__crt_stdio_output@@AAE_NXZ 10034230 f i libucrt:output.obj
 0001:00033256       ?type_case_o@?$output_processor@_WV?$string_output_adapter@_W@__crt_stdio_output@@V?$format_validation_base@_WV?$string_output_adapter@_W@__crt_stdio_output@@@2@@__crt_stdio_output@@AAE_NXZ 10034256 f i libucrt:output.obj
 0001:0003327c       ?type_case_o@?$output_processor@_WV?$string_output_adapter@_W@__crt_stdio_output@@V?$positional_parameter_base@_WV?$string_output_adapter@_W@__crt_stdio_output@@@2@@__crt_stdio_output@@AAE_NXZ 1003427c f i libucrt:output.obj
 0001:000332a2       ?type_case_o@?$output_processor@_WV?$string_output_adapter@_W@__crt_stdio_output@@V?$standard_base@_WV?$string_output_adapter@_W@__crt_stdio_output@@@2@@__crt_stdio_output@@AAE_NXZ 100342a2 f i libucrt:output.obj
 0001:000332c8       ?type_case_p@?$output_processor@DV?$stream_output_adapter@D@__crt_stdio_output@@V?$format_validation_base@DV?$stream_output_adapter@D@__crt_stdio_output@@@2@@__crt_stdio_output@@AAE_NXZ 100342c8 f i libucrt:output.obj
 0001:000332e6       ?type_case_p@?$output_processor@DV?$stream_output_adapter@D@__crt_stdio_output@@V?$positional_parameter_base@DV?$stream_output_adapter@D@__crt_stdio_output@@@2@@__crt_stdio_output@@AAE_NXZ 100342e6 f i libucrt:output.obj
 0001:00033304       ?type_case_p@?$output_processor@DV?$stream_output_adapter@D@__crt_stdio_output@@V?$standard_base@DV?$stream_output_adapter@D@__crt_stdio_output@@@2@@__crt_stdio_output@@AAE_NXZ 10034304 f i libucrt:output.obj
 0001:00033322       ?type_case_p@?$output_processor@DV?$string_output_adapter@D@__crt_stdio_output@@V?$format_validation_base@DV?$string_output_adapter@D@__crt_stdio_output@@@2@@__crt_stdio_output@@AAE_NXZ 10034322 f i libucrt:output.obj
 0001:00033340       ?type_case_p@?$output_processor@DV?$string_output_adapter@D@__crt_stdio_output@@V?$positional_parameter_base@DV?$string_output_adapter@D@__crt_stdio_output@@@2@@__crt_stdio_output@@AAE_NXZ 10034340 f i libucrt:output.obj
 0001:0003335e       ?type_case_p@?$output_processor@DV?$string_output_adapter@D@__crt_stdio_output@@V?$standard_base@DV?$string_output_adapter@D@__crt_stdio_output@@@2@@__crt_stdio_output@@AAE_NXZ 1003435e f i libucrt:output.obj
 0001:0003337c       ?type_case_p@?$output_processor@_WV?$stream_output_adapter@_W@__crt_stdio_output@@V?$format_validation_base@_WV?$stream_output_adapter@_W@__crt_stdio_output@@@2@@__crt_stdio_output@@AAE_NXZ 1003437c f i libucrt:output.obj
 0001:0003339a       ?type_case_p@?$output_processor@_WV?$stream_output_adapter@_W@__crt_stdio_output@@V?$positional_parameter_base@_WV?$stream_output_adapter@_W@__crt_stdio_output@@@2@@__crt_stdio_output@@AAE_NXZ 1003439a f i libucrt:output.obj
 0001:000333b8       ?type_case_p@?$output_processor@_WV?$stream_output_adapter@_W@__crt_stdio_output@@V?$standard_base@_WV?$stream_output_adapter@_W@__crt_stdio_output@@@2@@__crt_stdio_output@@AAE_NXZ 100343b8 f i libucrt:output.obj
 0001:000333d6       ?type_case_p@?$output_processor@_WV?$string_output_adapter@_W@__crt_stdio_output@@V?$format_validation_base@_WV?$string_output_adapter@_W@__crt_stdio_output@@@2@@__crt_stdio_output@@AAE_NXZ 100343d6 f i libucrt:output.obj
 0001:000333f4       ?type_case_p@?$output_processor@_WV?$string_output_adapter@_W@__crt_stdio_output@@V?$positional_parameter_base@_WV?$string_output_adapter@_W@__crt_stdio_output@@@2@@__crt_stdio_output@@AAE_NXZ 100343f4 f i libucrt:output.obj
 0001:00033412       ?type_case_p@?$output_processor@_WV?$string_output_adapter@_W@__crt_stdio_output@@V?$standard_base@_WV?$string_output_adapter@_W@__crt_stdio_output@@@2@@__crt_stdio_output@@AAE_NXZ 10034412 f i libucrt:output.obj
 0001:00033430       ?type_case_s@?$output_processor@DV?$stream_output_adapter@D@__crt_stdio_output@@V?$format_validation_base@DV?$stream_output_adapter@D@__crt_stdio_output@@@2@@__crt_stdio_output@@AAE_NXZ 10034430 f i libucrt:output.obj
 0001:000334bf       ?type_case_s@?$output_processor@DV?$stream_output_adapter@D@__crt_stdio_output@@V?$positional_parameter_base@DV?$stream_output_adapter@D@__crt_stdio_output@@@2@@__crt_stdio_output@@AAE_NXZ 100344bf f i libucrt:output.obj
 0001:0003355a       ?type_case_s@?$output_processor@DV?$stream_output_adapter@D@__crt_stdio_output@@V?$standard_base@DV?$stream_output_adapter@D@__crt_stdio_output@@@2@@__crt_stdio_output@@AAE_NXZ 1003455a f i libucrt:output.obj
 0001:000335e9       ?type_case_s@?$output_processor@DV?$string_output_adapter@D@__crt_stdio_output@@V?$format_validation_base@DV?$string_output_adapter@D@__crt_stdio_output@@@2@@__crt_stdio_output@@AAE_NXZ 100345e9 f i libucrt:output.obj
 0001:00033678       ?type_case_s@?$output_processor@DV?$string_output_adapter@D@__crt_stdio_output@@V?$positional_parameter_base@DV?$string_output_adapter@D@__crt_stdio_output@@@2@@__crt_stdio_output@@AAE_NXZ 10034678 f i libucrt:output.obj
 0001:00033713       ?type_case_s@?$output_processor@DV?$string_output_adapter@D@__crt_stdio_output@@V?$standard_base@DV?$string_output_adapter@D@__crt_stdio_output@@@2@@__crt_stdio_output@@AAE_NXZ 10034713 f i libucrt:output.obj
 0001:000337a2       ?type_case_s@?$output_processor@_WV?$stream_output_adapter@_W@__crt_stdio_output@@V?$format_validation_base@_WV?$stream_output_adapter@_W@__crt_stdio_output@@@2@@__crt_stdio_output@@AAE_NXZ 100347a2 f i libucrt:output.obj
 0001:00033833       ?type_case_s@?$output_processor@_WV?$stream_output_adapter@_W@__crt_stdio_output@@V?$positional_parameter_base@_WV?$stream_output_adapter@_W@__crt_stdio_output@@@2@@__crt_stdio_output@@AAE_NXZ 10034833 f i libucrt:output.obj
 0001:000338d0       ?type_case_s@?$output_processor@_WV?$stream_output_adapter@_W@__crt_stdio_output@@V?$standard_base@_WV?$stream_output_adapter@_W@__crt_stdio_output@@@2@@__crt_stdio_output@@AAE_NXZ 100348d0 f i libucrt:output.obj
 0001:00033961       ?type_case_s@?$output_processor@_WV?$string_output_adapter@_W@__crt_stdio_output@@V?$format_validation_base@_WV?$string_output_adapter@_W@__crt_stdio_output@@@2@@__crt_stdio_output@@AAE_NXZ 10034961 f i libucrt:output.obj
 0001:000339f2       ?type_case_s@?$output_processor@_WV?$string_output_adapter@_W@__crt_stdio_output@@V?$positional_parameter_base@_WV?$string_output_adapter@_W@__crt_stdio_output@@@2@@__crt_stdio_output@@AAE_NXZ 100349f2 f i libucrt:output.obj
 0001:00033a8f       ?type_case_s@?$output_processor@_WV?$string_output_adapter@_W@__crt_stdio_output@@V?$standard_base@_WV?$string_output_adapter@_W@__crt_stdio_output@@@2@@__crt_stdio_output@@AAE_NXZ 10034a8f f i libucrt:output.obj
 0001:00033b20       ?type_case_s_compute_narrow_string_length@?$output_processor@DV?$stream_output_adapter@D@__crt_stdio_output@@V?$format_validation_base@DV?$stream_output_adapter@D@__crt_stdio_output@@@2@@__crt_stdio_output@@ABEHHD@Z 10034b20 f i libucrt:output.obj
 0001:00033b3b       ?type_case_s_compute_narrow_string_length@?$output_processor@DV?$stream_output_adapter@D@__crt_stdio_output@@V?$positional_parameter_base@DV?$stream_output_adapter@D@__crt_stdio_output@@@2@@__crt_stdio_output@@ABEHHD@Z 10034b3b f i libucrt:output.obj
 0001:00033b56       ?type_case_s_compute_narrow_string_length@?$output_processor@DV?$stream_output_adapter@D@__crt_stdio_output@@V?$standard_base@DV?$stream_output_adapter@D@__crt_stdio_output@@@2@@__crt_stdio_output@@ABEHHD@Z 10034b56 f i libucrt:output.obj
 0001:00033b71       ?type_case_s_compute_narrow_string_length@?$output_processor@DV?$string_output_adapter@D@__crt_stdio_output@@V?$format_validation_base@DV?$string_output_adapter@D@__crt_stdio_output@@@2@@__crt_stdio_output@@ABEHHD@Z 10034b71 f i libucrt:output.obj
 0001:00033b8c       ?type_case_s_compute_narrow_string_length@?$output_processor@DV?$string_output_adapter@D@__crt_stdio_output@@V?$positional_parameter_base@DV?$string_output_adapter@D@__crt_stdio_output@@@2@@__crt_stdio_output@@ABEHHD@Z 10034b8c f i libucrt:output.obj
 0001:00033ba7       ?type_case_s_compute_narrow_string_length@?$output_processor@DV?$string_output_adapter@D@__crt_stdio_output@@V?$standard_base@DV?$string_output_adapter@D@__crt_stdio_output@@@2@@__crt_stdio_output@@ABEHHD@Z 10034ba7 f i libucrt:output.obj
 0001:00033bc2       ?type_case_s_compute_narrow_string_length@?$output_processor@_WV?$stream_output_adapter@_W@__crt_stdio_output@@V?$format_validation_base@_WV?$stream_output_adapter@_W@__crt_stdio_output@@@2@@__crt_stdio_output@@ABEHH_W@Z 10034bc2 f i libucrt:output.obj
 0001:00033c12       ?type_case_s_compute_narrow_string_length@?$output_processor@_WV?$stream_output_adapter@_W@__crt_stdio_output@@V?$positional_parameter_base@_WV?$stream_output_adapter@_W@__crt_stdio_output@@@2@@__crt_stdio_output@@ABEHH_W@Z 10034c12 f i libucrt:output.obj
 0001:00033c62       ?type_case_s_compute_narrow_string_length@?$output_processor@_WV?$stream_output_adapter@_W@__crt_stdio_output@@V?$standard_base@_WV?$stream_output_adapter@_W@__crt_stdio_output@@@2@@__crt_stdio_output@@ABEHH_W@Z 10034c62 f i libucrt:output.obj
 0001:00033cb2       ?type_case_s_compute_narrow_string_length@?$output_processor@_WV?$string_output_adapter@_W@__crt_stdio_output@@V?$format_validation_base@_WV?$string_output_adapter@_W@__crt_stdio_output@@@2@@__crt_stdio_output@@ABEHH_W@Z 10034cb2 f i libucrt:output.obj
 0001:00033d02       ?type_case_s_compute_narrow_string_length@?$output_processor@_WV?$string_output_adapter@_W@__crt_stdio_output@@V?$positional_parameter_base@_WV?$string_output_adapter@_W@__crt_stdio_output@@@2@@__crt_stdio_output@@ABEHH_W@Z 10034d02 f i libucrt:output.obj
 0001:00033d52       ?type_case_s_compute_narrow_string_length@?$output_processor@_WV?$string_output_adapter@_W@__crt_stdio_output@@V?$standard_base@_WV?$string_output_adapter@_W@__crt_stdio_output@@@2@@__crt_stdio_output@@ABEHH_W@Z 10034d52 f i libucrt:output.obj
 0001:00033da2       ?type_case_u@?$output_processor@DV?$stream_output_adapter@D@__crt_stdio_output@@V?$format_validation_base@DV?$stream_output_adapter@D@__crt_stdio_output@@@2@@__crt_stdio_output@@AAE_NXZ 10034da2 f i libucrt:output.obj
 0001:00033dae       ?type_case_u@?$output_processor@DV?$stream_output_adapter@D@__crt_stdio_output@@V?$positional_parameter_base@DV?$stream_output_adapter@D@__crt_stdio_output@@@2@@__crt_stdio_output@@AAE_NXZ 10034dae f i libucrt:output.obj
 0001:00033dba       ?type_case_u@?$output_processor@DV?$stream_output_adapter@D@__crt_stdio_output@@V?$standard_base@DV?$stream_output_adapter@D@__crt_stdio_output@@@2@@__crt_stdio_output@@AAE_NXZ 10034dba f i libucrt:output.obj
 0001:00033dc6       ?type_case_u@?$output_processor@DV?$string_output_adapter@D@__crt_stdio_output@@V?$format_validation_base@DV?$string_output_adapter@D@__crt_stdio_output@@@2@@__crt_stdio_output@@AAE_NXZ 10034dc6 f i libucrt:output.obj
 0001:00033dd2       ?type_case_u@?$output_processor@DV?$string_output_adapter@D@__crt_stdio_output@@V?$positional_parameter_base@DV?$string_output_adapter@D@__crt_stdio_output@@@2@@__crt_stdio_output@@AAE_NXZ 10034dd2 f i libucrt:output.obj
 0001:00033dde       ?type_case_u@?$output_processor@DV?$string_output_adapter@D@__crt_stdio_output@@V?$standard_base@DV?$string_output_adapter@D@__crt_stdio_output@@@2@@__crt_stdio_output@@AAE_NXZ 10034dde f i libucrt:output.obj
 0001:00033dea       ?type_case_u@?$output_processor@_WV?$stream_output_adapter@_W@__crt_stdio_output@@V?$format_validation_base@_WV?$stream_output_adapter@_W@__crt_stdio_output@@@2@@__crt_stdio_output@@AAE_NXZ 10034dea f i libucrt:output.obj
 0001:00033df6       ?type_case_u@?$output_processor@_WV?$stream_output_adapter@_W@__crt_stdio_output@@V?$positional_parameter_base@_WV?$stream_output_adapter@_W@__crt_stdio_output@@@2@@__crt_stdio_output@@AAE_NXZ 10034df6 f i libucrt:output.obj
 0001:00033e02       ?type_case_u@?$output_processor@_WV?$stream_output_adapter@_W@__crt_stdio_output@@V?$standard_base@_WV?$stream_output_adapter@_W@__crt_stdio_output@@@2@@__crt_stdio_output@@AAE_NXZ 10034e02 f i libucrt:output.obj
 0001:00033e0e       ?type_case_u@?$output_processor@_WV?$string_output_adapter@_W@__crt_stdio_output@@V?$format_validation_base@_WV?$string_output_adapter@_W@__crt_stdio_output@@@2@@__crt_stdio_output@@AAE_NXZ 10034e0e f i libucrt:output.obj
 0001:00033e1a       ?type_case_u@?$output_processor@_WV?$string_output_adapter@_W@__crt_stdio_output@@V?$positional_parameter_base@_WV?$string_output_adapter@_W@__crt_stdio_output@@@2@@__crt_stdio_output@@AAE_NXZ 10034e1a f i libucrt:output.obj
 0001:00033e26       ?type_case_u@?$output_processor@_WV?$string_output_adapter@_W@__crt_stdio_output@@V?$standard_base@_WV?$string_output_adapter@_W@__crt_stdio_output@@@2@@__crt_stdio_output@@AAE_NXZ 10034e26 f i libucrt:output.obj
 0001:00033e32       ?type_case_x@?$output_processor@DV?$stream_output_adapter@D@__crt_stdio_output@@V?$format_validation_base@DV?$stream_output_adapter@D@__crt_stdio_output@@@2@@__crt_stdio_output@@AAE_NXZ 10034e32 f i libucrt:output.obj
 0001:00033e3e       ?type_case_x@?$output_processor@DV?$stream_output_adapter@D@__crt_stdio_output@@V?$positional_parameter_base@DV?$stream_output_adapter@D@__crt_stdio_output@@@2@@__crt_stdio_output@@AAE_NXZ 10034e3e f i libucrt:output.obj
 0001:00033e4a       ?type_case_x@?$output_processor@DV?$stream_output_adapter@D@__crt_stdio_output@@V?$standard_base@DV?$stream_output_adapter@D@__crt_stdio_output@@@2@@__crt_stdio_output@@AAE_NXZ 10034e4a f i libucrt:output.obj
 0001:00033e56       ?type_case_x@?$output_processor@DV?$string_output_adapter@D@__crt_stdio_output@@V?$format_validation_base@DV?$string_output_adapter@D@__crt_stdio_output@@@2@@__crt_stdio_output@@AAE_NXZ 10034e56 f i libucrt:output.obj
 0001:00033e62       ?type_case_x@?$output_processor@DV?$string_output_adapter@D@__crt_stdio_output@@V?$positional_parameter_base@DV?$string_output_adapter@D@__crt_stdio_output@@@2@@__crt_stdio_output@@AAE_NXZ 10034e62 f i libucrt:output.obj
 0001:00033e6e       ?type_case_x@?$output_processor@DV?$string_output_adapter@D@__crt_stdio_output@@V?$standard_base@DV?$string_output_adapter@D@__crt_stdio_output@@@2@@__crt_stdio_output@@AAE_NXZ 10034e6e f i libucrt:output.obj
 0001:00033e7a       ?type_case_x@?$output_processor@_WV?$stream_output_adapter@_W@__crt_stdio_output@@V?$format_validation_base@_WV?$stream_output_adapter@_W@__crt_stdio_output@@@2@@__crt_stdio_output@@AAE_NXZ 10034e7a f i libucrt:output.obj
 0001:00033e86       ?type_case_x@?$output_processor@_WV?$stream_output_adapter@_W@__crt_stdio_output@@V?$positional_parameter_base@_WV?$stream_output_adapter@_W@__crt_stdio_output@@@2@@__crt_stdio_output@@AAE_NXZ 10034e86 f i libucrt:output.obj
 0001:00033e92       ?type_case_x@?$output_processor@_WV?$stream_output_adapter@_W@__crt_stdio_output@@V?$standard_base@_WV?$stream_output_adapter@_W@__crt_stdio_output@@@2@@__crt_stdio_output@@AAE_NXZ 10034e92 f i libucrt:output.obj
 0001:00033e9e       ?type_case_x@?$output_processor@_WV?$string_output_adapter@_W@__crt_stdio_output@@V?$format_validation_base@_WV?$string_output_adapter@_W@__crt_stdio_output@@@2@@__crt_stdio_output@@AAE_NXZ 10034e9e f i libucrt:output.obj
 0001:00033eaa       ?type_case_x@?$output_processor@_WV?$string_output_adapter@_W@__crt_stdio_output@@V?$positional_parameter_base@_WV?$string_output_adapter@_W@__crt_stdio_output@@@2@@__crt_stdio_output@@AAE_NXZ 10034eaa f i libucrt:output.obj
 0001:00033eb6       ?type_case_x@?$output_processor@_WV?$string_output_adapter@_W@__crt_stdio_output@@V?$standard_base@_WV?$string_output_adapter@_W@__crt_stdio_output@@@2@@__crt_stdio_output@@AAE_NXZ 10034eb6 f i libucrt:output.obj
 0001:00033ec2       ?unset_flag@?$output_processor@DV?$stream_output_adapter@D@__crt_stdio_output@@V?$format_validation_base@DV?$stream_output_adapter@D@__crt_stdio_output@@@2@@__crt_stdio_output@@AAEXI@Z 10034ec2 f i libucrt:output.obj
 0001:00033ed7       ?unset_flag@?$output_processor@DV?$stream_output_adapter@D@__crt_stdio_output@@V?$positional_parameter_base@DV?$stream_output_adapter@D@__crt_stdio_output@@@2@@__crt_stdio_output@@AAEXI@Z 10034ed7 f i libucrt:output.obj
 0001:00033eec       ?unset_flag@?$output_processor@DV?$stream_output_adapter@D@__crt_stdio_output@@V?$standard_base@DV?$stream_output_adapter@D@__crt_stdio_output@@@2@@__crt_stdio_output@@AAEXI@Z 10034eec f i libucrt:output.obj
 0001:00033f01       ?unset_flag@?$output_processor@DV?$string_output_adapter@D@__crt_stdio_output@@V?$format_validation_base@DV?$string_output_adapter@D@__crt_stdio_output@@@2@@__crt_stdio_output@@AAEXI@Z 10034f01 f i libucrt:output.obj
 0001:00033f16       ?unset_flag@?$output_processor@DV?$string_output_adapter@D@__crt_stdio_output@@V?$positional_parameter_base@DV?$string_output_adapter@D@__crt_stdio_output@@@2@@__crt_stdio_output@@AAEXI@Z 10034f16 f i libucrt:output.obj
 0001:00033f2b       ?unset_flag@?$output_processor@DV?$string_output_adapter@D@__crt_stdio_output@@V?$standard_base@DV?$string_output_adapter@D@__crt_stdio_output@@@2@@__crt_stdio_output@@AAEXI@Z 10034f2b f i libucrt:output.obj
 0001:00033f40       ?unset_flag@?$output_processor@_WV?$stream_output_adapter@_W@__crt_stdio_output@@V?$format_validation_base@_WV?$stream_output_adapter@_W@__crt_stdio_output@@@2@@__crt_stdio_output@@AAEXI@Z 10034f40 f i libucrt:output.obj
 0001:00033f55       ?unset_flag@?$output_processor@_WV?$stream_output_adapter@_W@__crt_stdio_output@@V?$positional_parameter_base@_WV?$stream_output_adapter@_W@__crt_stdio_output@@@2@@__crt_stdio_output@@AAEXI@Z 10034f55 f i libucrt:output.obj
 0001:00033f6a       ?unset_flag@?$output_processor@_WV?$stream_output_adapter@_W@__crt_stdio_output@@V?$standard_base@_WV?$stream_output_adapter@_W@__crt_stdio_output@@@2@@__crt_stdio_output@@AAEXI@Z 10034f6a f i libucrt:output.obj
 0001:00033f7f       ?unset_flag@?$output_processor@_WV?$string_output_adapter@_W@__crt_stdio_output@@V?$format_validation_base@_WV?$string_output_adapter@_W@__crt_stdio_output@@@2@@__crt_stdio_output@@AAEXI@Z 10034f7f f i libucrt:output.obj
 0001:00033f94       ?unset_flag@?$output_processor@_WV?$string_output_adapter@_W@__crt_stdio_output@@V?$positional_parameter_base@_WV?$string_output_adapter@_W@__crt_stdio_output@@@2@@__crt_stdio_output@@AAEXI@Z 10034f94 f i libucrt:output.obj
 0001:00033fa9       ?unset_flag@?$output_processor@_WV?$string_output_adapter@_W@__crt_stdio_output@@V?$standard_base@_WV?$string_output_adapter@_W@__crt_stdio_output@@@2@@__crt_stdio_output@@AAEXI@Z 10034fa9 f i libucrt:output.obj
 0001:00033fbe       ?update_field_width@?$positional_parameter_base@DV?$stream_output_adapter@D@__crt_stdio_output@@@__crt_stdio_output@@IAE_NXZ 10034fbe f i libucrt:output.obj
 0001:000340a1       ?update_field_width@?$positional_parameter_base@DV?$string_output_adapter@D@__crt_stdio_output@@@__crt_stdio_output@@IAE_NXZ 100350a1 f i libucrt:output.obj
 0001:00034184       ?update_field_width@?$positional_parameter_base@_WV?$stream_output_adapter@_W@__crt_stdio_output@@@__crt_stdio_output@@IAE_NXZ 10035184 f i libucrt:output.obj
 0001:00034268       ?update_field_width@?$positional_parameter_base@_WV?$string_output_adapter@_W@__crt_stdio_output@@@__crt_stdio_output@@IAE_NXZ 10035268 f i libucrt:output.obj
 0001:0003434c       ?update_field_width@?$standard_base@DV?$stream_output_adapter@D@__crt_stdio_output@@@__crt_stdio_output@@IAE_NXZ 1003534c f i libucrt:output.obj
 0001:00034360       ?update_field_width@?$standard_base@DV?$string_output_adapter@D@__crt_stdio_output@@@__crt_stdio_output@@IAE_NXZ 10035360 f i libucrt:output.obj
 0001:00034374       ?update_field_width@?$standard_base@_WV?$stream_output_adapter@_W@__crt_stdio_output@@@__crt_stdio_output@@IAE_NXZ 10035374 f i libucrt:output.obj
 0001:00034388       ?update_field_width@?$standard_base@_WV?$string_output_adapter@_W@__crt_stdio_output@@@__crt_stdio_output@@IAE_NXZ 10035388 f i libucrt:output.obj
 0001:0003439c       ?update_precision@?$positional_parameter_base@DV?$stream_output_adapter@D@__crt_stdio_output@@@__crt_stdio_output@@IAE_NXZ 1003539c f i libucrt:output.obj
 0001:0003447f       ?update_precision@?$positional_parameter_base@DV?$string_output_adapter@D@__crt_stdio_output@@@__crt_stdio_output@@IAE_NXZ 1003547f f i libucrt:output.obj
 0001:00034562       ?update_precision@?$positional_parameter_base@_WV?$stream_output_adapter@_W@__crt_stdio_output@@@__crt_stdio_output@@IAE_NXZ 10035562 f i libucrt:output.obj
 0001:00034646       ?update_precision@?$positional_parameter_base@_WV?$string_output_adapter@_W@__crt_stdio_output@@@__crt_stdio_output@@IAE_NXZ 10035646 f i libucrt:output.obj
 0001:0003472a       ?update_precision@?$standard_base@DV?$stream_output_adapter@D@__crt_stdio_output@@@__crt_stdio_output@@IAE_NXZ 1003572a f i libucrt:output.obj
 0001:0003473e       ?update_precision@?$standard_base@DV?$string_output_adapter@D@__crt_stdio_output@@@__crt_stdio_output@@IAE_NXZ 1003573e f i libucrt:output.obj
 0001:00034752       ?update_precision@?$standard_base@_WV?$stream_output_adapter@_W@__crt_stdio_output@@@__crt_stdio_output@@IAE_NXZ 10035752 f i libucrt:output.obj
 0001:00034766       ?update_precision@?$standard_base@_WV?$string_output_adapter@_W@__crt_stdio_output@@@__crt_stdio_output@@IAE_NXZ 10035766 f i libucrt:output.obj
 0001:0003477a       ?valid@__crt_stdio_stream@@QBE_NXZ 1003577a f i libucrt:output.obj
 0001:00034784       ?validate@?$stream_output_adapter@D@__crt_stdio_output@@QBE_NXZ 10035784 f i libucrt:output.obj
 0001:000347ad       ?validate@?$stream_output_adapter@_W@__crt_stdio_output@@QBE_NXZ 100357ad f i libucrt:output.obj
 0001:000347ce       ?validate@?$string_output_adapter@D@__crt_stdio_output@@QBE_NXZ 100357ce f i libucrt:output.obj
 0001:000347ef       ?validate@?$string_output_adapter@_W@__crt_stdio_output@@QBE_NXZ 100357ef f i libucrt:output.obj
 0001:00034810       ?validate_and_store_parameter_data@?$positional_parameter_base@DV?$stream_output_adapter@D@__crt_stdio_output@@@__crt_stdio_output@@AAE_NAAUparameter_data@12@W4parameter_type@12@DW4length_modifier@2@@Z 10035810 f i libucrt:output.obj
 0001:0003486d       ?validate_and_store_parameter_data@?$positional_parameter_base@DV?$string_output_adapter@D@__crt_stdio_output@@@__crt_stdio_output@@AAE_NAAUparameter_data@12@W4parameter_type@12@DW4length_modifier@2@@Z 1003586d f i libucrt:output.obj
 0001:000348ca       ?validate_and_store_parameter_data@?$positional_parameter_base@_WV?$stream_output_adapter@_W@__crt_stdio_output@@@__crt_stdio_output@@AAE_NAAUparameter_data@12@W4parameter_type@12@_WW4length_modifier@2@@Z 100358ca f i libucrt:output.obj
 0001:0003492a       ?validate_and_store_parameter_data@?$positional_parameter_base@_WV?$string_output_adapter@_W@__crt_stdio_output@@@__crt_stdio_output@@AAE_NAAUparameter_data@12@W4parameter_type@12@_WW4length_modifier@2@@Z 1003592a f i libucrt:output.obj
 0001:0003498a       ?validate_and_update_state_at_beginning_of_format_character@?$positional_parameter_base@DV?$stream_output_adapter@D@__crt_stdio_output@@@__crt_stdio_output@@IAE_NXZ 1003598a f i libucrt:output.obj
 0001:00034ac0       ?validate_and_update_state_at_beginning_of_format_character@?$positional_parameter_base@DV?$string_output_adapter@D@__crt_stdio_output@@@__crt_stdio_output@@IAE_NXZ 10035ac0 f i libucrt:output.obj
 0001:00034bf6       ?validate_and_update_state_at_beginning_of_format_character@?$positional_parameter_base@_WV?$stream_output_adapter@_W@__crt_stdio_output@@@__crt_stdio_output@@IAE_NXZ 10035bf6 f i libucrt:output.obj
 0001:00034d38       ?validate_and_update_state_at_beginning_of_format_character@?$positional_parameter_base@_WV?$string_output_adapter@_W@__crt_stdio_output@@@__crt_stdio_output@@IAE_NXZ 10035d38 f i libucrt:output.obj
 0001:00034e7a       ?validate_and_update_state_at_beginning_of_format_character@?$standard_base@DV?$stream_output_adapter@D@__crt_stdio_output@@@__crt_stdio_output@@IAE_NXZ 10035e7a f i libucrt:output.obj
 0001:00034e7d       ?validate_and_update_state_at_beginning_of_format_character@?$standard_base@DV?$string_output_adapter@D@__crt_stdio_output@@@__crt_stdio_output@@IAE_NXZ 10035e7d f i libucrt:output.obj
 0001:00034e80       ?validate_and_update_state_at_beginning_of_format_character@?$standard_base@_WV?$stream_output_adapter@_W@__crt_stdio_output@@@__crt_stdio_output@@IAE_NXZ 10035e80 f i libucrt:output.obj
 0001:00034e83       ?validate_and_update_state_at_beginning_of_format_character@?$standard_base@_WV?$string_output_adapter@_W@__crt_stdio_output@@@__crt_stdio_output@@IAE_NXZ 10035e83 f i libucrt:output.obj
 0001:00034e86       ?validate_and_update_state_at_end_of_format_string@?$format_validation_base@DV?$stream_output_adapter@D@__crt_stdio_output@@@__crt_stdio_output@@IBE_NXZ 10035e86 f i libucrt:output.obj
 0001:00034eb0       ?validate_and_update_state_at_end_of_format_string@?$format_validation_base@DV?$string_output_adapter@D@__crt_stdio_output@@@__crt_stdio_output@@IBE_NXZ 10035eb0 f i libucrt:output.obj
 0001:00034eda       ?validate_and_update_state_at_end_of_format_string@?$format_validation_base@_WV?$stream_output_adapter@_W@__crt_stdio_output@@@__crt_stdio_output@@IBE_NXZ 10035eda f i libucrt:output.obj
 0001:00034f04       ?validate_and_update_state_at_end_of_format_string@?$format_validation_base@_WV?$string_output_adapter@_W@__crt_stdio_output@@@__crt_stdio_output@@IBE_NXZ 10035f04 f i libucrt:output.obj
 0001:00034f2e       ?validate_and_update_state_at_end_of_format_string@?$positional_parameter_base@DV?$stream_output_adapter@D@__crt_stdio_output@@@__crt_stdio_output@@IAE_NXZ 10035f2e f i libucrt:output.obj
 0001:00034fce       ?validate_and_update_state_at_end_of_format_string@?$positional_parameter_base@DV?$string_output_adapter@D@__crt_stdio_output@@@__crt_stdio_output@@IAE_NXZ 10035fce f i libucrt:output.obj
 0001:0003506e       ?validate_and_update_state_at_end_of_format_string@?$positional_parameter_base@_WV?$stream_output_adapter@_W@__crt_stdio_output@@@__crt_stdio_output@@IAE_NXZ 1003606e f i libucrt:output.obj
 0001:0003510e       ?validate_and_update_state_at_end_of_format_string@?$positional_parameter_base@_WV?$string_output_adapter@_W@__crt_stdio_output@@@__crt_stdio_output@@IAE_NXZ 1003610e f i libucrt:output.obj
 0001:000351ae       ?validate_and_update_state_at_end_of_format_string@?$standard_base@DV?$stream_output_adapter@D@__crt_stdio_output@@@__crt_stdio_output@@IBE_NXZ 100361ae f i libucrt:output.obj
 0001:000351b1       ?validate_and_update_state_at_end_of_format_string@?$standard_base@DV?$string_output_adapter@D@__crt_stdio_output@@@__crt_stdio_output@@IBE_NXZ 100361b1 f i libucrt:output.obj
 0001:000351b4       ?validate_and_update_state_at_end_of_format_string@?$standard_base@_WV?$stream_output_adapter@_W@__crt_stdio_output@@@__crt_stdio_output@@IBE_NXZ 100361b4 f i libucrt:output.obj
 0001:000351b7       ?validate_and_update_state_at_end_of_format_string@?$standard_base@_WV?$string_output_adapter@_W@__crt_stdio_output@@@__crt_stdio_output@@IBE_NXZ 100361b7 f i libucrt:output.obj
 0001:000351ba       ?validate_state_for_type_case_a@?$positional_parameter_base@DV?$stream_output_adapter@D@__crt_stdio_output@@@__crt_stdio_output@@IAE_NXZ 100361ba f i libucrt:output.obj
 0001:00035221       ?validate_state_for_type_case_a@?$positional_parameter_base@DV?$string_output_adapter@D@__crt_stdio_output@@@__crt_stdio_output@@IAE_NXZ 10036221 f i libucrt:output.obj
 0001:00035288       ?validate_state_for_type_case_a@?$positional_parameter_base@_WV?$stream_output_adapter@_W@__crt_stdio_output@@@__crt_stdio_output@@IAE_NXZ 10036288 f i libucrt:output.obj
 0001:000352ef       ?validate_state_for_type_case_a@?$positional_parameter_base@_WV?$string_output_adapter@_W@__crt_stdio_output@@@__crt_stdio_output@@IAE_NXZ 100362ef f i libucrt:output.obj
 0001:00035356       ?validate_state_for_type_case_a@?$standard_base@DV?$stream_output_adapter@D@__crt_stdio_output@@@__crt_stdio_output@@IBE_NXZ 10036356 f i libucrt:output.obj
 0001:00035359       ?validate_state_for_type_case_a@?$standard_base@DV?$string_output_adapter@D@__crt_stdio_output@@@__crt_stdio_output@@IBE_NXZ 10036359 f i libucrt:output.obj
 0001:0003535c       ?validate_state_for_type_case_a@?$standard_base@_WV?$stream_output_adapter@_W@__crt_stdio_output@@@__crt_stdio_output@@IBE_NXZ 1003635c f i libucrt:output.obj
 0001:0003535f       ?validate_state_for_type_case_a@?$standard_base@_WV?$string_output_adapter@_W@__crt_stdio_output@@@__crt_stdio_output@@IBE_NXZ 1003635f f i libucrt:output.obj
 0001:00035362       ?validate_stream_is_ansi_if_required@?$__acrt_stdio_char_traits@D@@SA_NQAU_iobuf@@@Z 10036362 f i libucrt:output.obj
 0001:00035404       ?validate_stream_is_ansi_if_required@?$__acrt_stdio_char_traits@_W@@SA_NQAU_iobuf@@@Z 10036404 f i libucrt:output.obj
 0001:00035407       ?wide_null_string@?$output_processor@DV?$stream_output_adapter@D@__crt_stdio_output@@V?$format_validation_base@DV?$stream_output_adapter@D@__crt_stdio_output@@@2@@__crt_stdio_output@@CAPA_WXZ 10036407 f i libucrt:output.obj
 0001:0003540d       ?wide_null_string@?$output_processor@DV?$stream_output_adapter@D@__crt_stdio_output@@V?$positional_parameter_base@DV?$stream_output_adapter@D@__crt_stdio_output@@@2@@__crt_stdio_output@@CAPA_WXZ 1003640d f i libucrt:output.obj
 0001:00035413       ?wide_null_string@?$output_processor@DV?$stream_output_adapter@D@__crt_stdio_output@@V?$standard_base@DV?$stream_output_adapter@D@__crt_stdio_output@@@2@@__crt_stdio_output@@CAPA_WXZ 10036413 f i libucrt:output.obj
 0001:00035419       ?wide_null_string@?$output_processor@DV?$string_output_adapter@D@__crt_stdio_output@@V?$format_validation_base@DV?$string_output_adapter@D@__crt_stdio_output@@@2@@__crt_stdio_output@@CAPA_WXZ 10036419 f i libucrt:output.obj
 0001:0003541f       ?wide_null_string@?$output_processor@DV?$string_output_adapter@D@__crt_stdio_output@@V?$positional_parameter_base@DV?$string_output_adapter@D@__crt_stdio_output@@@2@@__crt_stdio_output@@CAPA_WXZ 1003641f f i libucrt:output.obj
 0001:00035425       ?wide_null_string@?$output_processor@DV?$string_output_adapter@D@__crt_stdio_output@@V?$standard_base@DV?$string_output_adapter@D@__crt_stdio_output@@@2@@__crt_stdio_output@@CAPA_WXZ 10036425 f i libucrt:output.obj
 0001:0003542b       ?wide_null_string@?$output_processor@_WV?$stream_output_adapter@_W@__crt_stdio_output@@V?$format_validation_base@_WV?$stream_output_adapter@_W@__crt_stdio_output@@@2@@__crt_stdio_output@@CAPA_WXZ 1003642b f i libucrt:output.obj
 0001:00035431       ?wide_null_string@?$output_processor@_WV?$stream_output_adapter@_W@__crt_stdio_output@@V?$positional_parameter_base@_WV?$stream_output_adapter@_W@__crt_stdio_output@@@2@@__crt_stdio_output@@CAPA_WXZ 10036431 f i libucrt:output.obj
 0001:00035437       ?wide_null_string@?$output_processor@_WV?$stream_output_adapter@_W@__crt_stdio_output@@V?$standard_base@_WV?$stream_output_adapter@_W@__crt_stdio_output@@@2@@__crt_stdio_output@@CAPA_WXZ 10036437 f i libucrt:output.obj
 0001:0003543d       ?wide_null_string@?$output_processor@_WV?$string_output_adapter@_W@__crt_stdio_output@@V?$format_validation_base@_WV?$string_output_adapter@_W@__crt_stdio_output@@@2@@__crt_stdio_output@@CAPA_WXZ 1003643d f i libucrt:output.obj
 0001:00035443       ?wide_null_string@?$output_processor@_WV?$string_output_adapter@_W@__crt_stdio_output@@V?$positional_parameter_base@_WV?$string_output_adapter@_W@__crt_stdio_output@@@2@@__crt_stdio_output@@CAPA_WXZ 10036443 f i libucrt:output.obj
 0001:00035449       ?wide_null_string@?$output_processor@_WV?$string_output_adapter@_W@__crt_stdio_output@@V?$standard_base@_WV?$string_output_adapter@_W@__crt_stdio_output@@@2@@__crt_stdio_output@@CAPA_WXZ 10036449 f i libucrt:output.obj
 0001:0003544f       ?write_character@?$stream_output_adapter@D@__crt_stdio_output@@QBEXDQAH@Z 1003644f f i libucrt:output.obj
 0001:0003549b       ?write_character@?$stream_output_adapter@_W@__crt_stdio_output@@QBEX_WQAH@Z 1003649b f i libucrt:output.obj
 0001:000354eb       ?write_character@?$string_output_adapter@D@__crt_stdio_output@@QBE_NDQAH@Z 100364eb f i libucrt:output.obj
 0001:0003553d       ?write_character@?$string_output_adapter@_W@__crt_stdio_output@@QBE_N_WQAH@Z 1003653d f i libucrt:output.obj
 0001:00035593       ?write_stored_string_tchar@?$output_processor@DV?$stream_output_adapter@D@__crt_stdio_output@@V?$format_validation_base@DV?$stream_output_adapter@D@__crt_stdio_output@@@2@@__crt_stdio_output@@AAE_ND@Z 10036593 f i libucrt:output.obj
 0001:00035663       ?write_stored_string_tchar@?$output_processor@DV?$stream_output_adapter@D@__crt_stdio_output@@V?$positional_parameter_base@DV?$stream_output_adapter@D@__crt_stdio_output@@@2@@__crt_stdio_output@@AAE_ND@Z 10036663 f i libucrt:output.obj
 0001:00035733       ?write_stored_string_tchar@?$output_processor@DV?$stream_output_adapter@D@__crt_stdio_output@@V?$standard_base@DV?$stream_output_adapter@D@__crt_stdio_output@@@2@@__crt_stdio_output@@AAE_ND@Z 10036733 f i libucrt:output.obj
 0001:00035803       ?write_stored_string_tchar@?$output_processor@DV?$string_output_adapter@D@__crt_stdio_output@@V?$format_validation_base@DV?$string_output_adapter@D@__crt_stdio_output@@@2@@__crt_stdio_output@@AAE_ND@Z 10036803 f i libucrt:output.obj
 0001:000358d3       ?write_stored_string_tchar@?$output_processor@DV?$string_output_adapter@D@__crt_stdio_output@@V?$positional_parameter_base@DV?$string_output_adapter@D@__crt_stdio_output@@@2@@__crt_stdio_output@@AAE_ND@Z 100368d3 f i libucrt:output.obj
 0001:000359a3       ?write_stored_string_tchar@?$output_processor@DV?$string_output_adapter@D@__crt_stdio_output@@V?$standard_base@DV?$string_output_adapter@D@__crt_stdio_output@@@2@@__crt_stdio_output@@AAE_ND@Z 100369a3 f i libucrt:output.obj
 0001:00035a73       ?write_stored_string_tchar@?$output_processor@_WV?$stream_output_adapter@_W@__crt_stdio_output@@V?$format_validation_base@_WV?$stream_output_adapter@_W@__crt_stdio_output@@@2@@__crt_stdio_output@@AAE_N_W@Z 10036a73 f i libucrt:output.obj
 0001:00035b20       ?write_stored_string_tchar@?$output_processor@_WV?$stream_output_adapter@_W@__crt_stdio_output@@V?$positional_parameter_base@_WV?$stream_output_adapter@_W@__crt_stdio_output@@@2@@__crt_stdio_output@@AAE_N_W@Z 10036b20 f i libucrt:output.obj
 0001:00035bcd       ?write_stored_string_tchar@?$output_processor@_WV?$stream_output_adapter@_W@__crt_stdio_output@@V?$standard_base@_WV?$stream_output_adapter@_W@__crt_stdio_output@@@2@@__crt_stdio_output@@AAE_N_W@Z 10036bcd f i libucrt:output.obj
 0001:00035c7a       ?write_stored_string_tchar@?$output_processor@_WV?$string_output_adapter@_W@__crt_stdio_output@@V?$format_validation_base@_WV?$string_output_adapter@_W@__crt_stdio_output@@@2@@__crt_stdio_output@@AAE_N_W@Z 10036c7a f i libucrt:output.obj
 0001:00035d27       ?write_stored_string_tchar@?$output_processor@_WV?$string_output_adapter@_W@__crt_stdio_output@@V?$positional_parameter_base@_WV?$string_output_adapter@_W@__crt_stdio_output@@@2@@__crt_stdio_output@@AAE_N_W@Z 10036d27 f i libucrt:output.obj
 0001:00035dd4       ?write_stored_string_tchar@?$output_processor@_WV?$string_output_adapter@_W@__crt_stdio_output@@V?$standard_base@_WV?$string_output_adapter@_W@__crt_stdio_output@@@2@@__crt_stdio_output@@AAE_N_W@Z 10036dd4 f i libucrt:output.obj
 0001:00035e81       ?write_string@?$stream_output_adapter@D@__crt_stdio_output@@QBEXQBDHQAH1@Z 10036e81 f i libucrt:output.obj
 0001:00035f2d       ?write_string@?$stream_output_adapter@_W@__crt_stdio_output@@QBEXQB_WHQAH1@Z 10036f2d f i libucrt:output.obj
 0001:00035fdd       ?write_string@?$string_output_adapter@D@__crt_stdio_output@@QBEXQBDHQAH1@Z 10036fdd f i libucrt:output.obj
 0001:00036094       ?write_string@?$string_output_adapter@_W@__crt_stdio_output@@QBEXQB_WHQAH1@Z 10037094 f i libucrt:output.obj
 0001:00036154       ___acrt_isleadbyte_l_noupdate 10037154 f i libucrt:output.obj
 0001:00036175       ___acrt_locale_changed     10037175 f i libucrt:output.obj
 0001:00036186       ___stdio_common_vfprintf   10037186 f   libucrt:output.obj
 0001:0003621a       ___stdio_common_vfprintf_p 1003721a f   libucrt:output.obj
 0001:000362ae       ___stdio_common_vfprintf_s 100372ae f   libucrt:output.obj
 0001:00036342       ___stdio_common_vfwprintf  10037342 f   libucrt:output.obj
 0001:000363d6       ___stdio_common_vfwprintf_p 100373d6 f   libucrt:output.obj
 0001:0003646a       ___stdio_common_vfwprintf_s 1003746a f   libucrt:output.obj
 0001:000364fe       ___stdio_common_vsnprintf_s 100374fe f   libucrt:output.obj
 0001:0003652e       ___stdio_common_vsnwprintf_s 1003752e f   libucrt:output.obj
 0001:0003655e       ___stdio_common_vsprintf   1003755e f   libucrt:output.obj
 0001:0003658b       ___stdio_common_vsprintf_p 1003758b f   libucrt:output.obj
 0001:000365b8       ___stdio_common_vsprintf_s 100375b8 f   libucrt:output.obj
 0001:000365e5       ___stdio_common_vswprintf  100375e5 f   libucrt:output.obj
 0001:00036612       ___stdio_common_vswprintf_p 10037612 f   libucrt:output.obj
 0001:0003663f       ___stdio_common_vswprintf_s 1003763f f   libucrt:output.obj
 0001:0003666c       _calloc                    1003766c f   libucrt:calloc.obj
 0001:00036679       _free                      10037679 f   libucrt:free.obj
 0001:0003667e       ??$__vcrt_va_start_verify_argument_type@QB_W@@YAXXZ 1003767e f i libucrt:assert.obj
 0001:0003761b       ??$ftprintf@PAU_iobuf@@PBDABQBDABQBDABI@?$__crt_char_traits@D@@SAH$$QAPAU_iobuf@@$$QAPBDABQBD2ABI@Z 1003861b f i libucrt:assert.obj
 0001:0003764d       ??$ftprintf@PAU_iobuf@@PB_WABQB_WABQB_WABI@?$__crt_char_traits@_W@@SAH$$QAPAU_iobuf@@$$QAPB_WABQB_W2ABI@Z 1003864d f i libucrt:assert.obj
 0001:0003767f       ??$get_module_file_name@AAPAUHINSTANCE__@@AAY0BAF@DK@?$__crt_char_traits@D@@SAKAAPAUHINSTANCE__@@AAY0BAF@D$$QAK@Z 1003867f f i libucrt:assert.obj
 0001:0003769f       ??$get_module_file_name@AAPAUHINSTANCE__@@AAY0BAF@_WK@?$__crt_char_traits@_W@@SAKAAPAUHINSTANCE__@@AAY0BAF@_W$$QAK@Z 1003869f f i libucrt:assert.obj
 0001:000376bf       ??$itot_s@ABIQAD$$CBIH@?$__crt_char_traits@D@@SAHABI$$QBQAD$$QBI$$QAH@Z 100386bf f i libucrt:assert.obj
 0001:000376ea       ??$itot_s@ABIQA_W$$CBIH@?$__crt_char_traits@_W@@SAHABI$$QBQA_W$$QBI$$QAH@Z 100386ea f i libucrt:assert.obj
 0001:00037715       ??$show_message_box@AAY0CEA@DPBDJ@?$__crt_char_traits@D@@SAHAAY0CEA@D$$QAPBD$$QAJ@Z 10038715 f i libucrt:assert.obj
 0001:00037738       ??$show_message_box@AAY0CEA@_WPB_WJ@?$__crt_char_traits@_W@@SAHAAY0CEA@_W$$QAPB_W$$QAJ@Z 10038738 f i libucrt:assert.obj
 0001:0003775b       ??$tcscat_s@ABQADABIAAPAD@?$__crt_char_traits@D@@SAHABQADABIAAPAD@Z 1003875b f i libucrt:assert.obj
 0001:00037780       ??$tcscat_s@ABQADABIABQBD@?$__crt_char_traits@D@@SAHABQADABIABQBD@Z 10038780 f i libucrt:assert.obj
 0001:000377a5       ??$tcscat_s@ABQADABIPBD@?$__crt_char_traits@D@@SAHABQADABI$$QAPBD@Z 100387a5 f i libucrt:assert.obj
 0001:000377ca       ??$tcscat_s@ABQA_WABIAAPA_W@?$__crt_char_traits@_W@@SAHABQA_WABIAAPA_W@Z 100387ca f i libucrt:assert.obj
 0001:000377ef       ??$tcscat_s@ABQA_WABIABQB_W@?$__crt_char_traits@_W@@SAHABQA_WABIABQB_W@Z 100387ef f i libucrt:assert.obj
 0001:00037814       ??$tcscat_s@ABQA_WABIPB_W@?$__crt_char_traits@_W@@SAHABQA_WABI$$QAPB_W@Z 10038814 f i libucrt:assert.obj
 0001:00037839       ??$tcscpy_s@AAY0BAF@DIPBD@?$__crt_char_traits@D@@SAHAAY0BAF@D$$QAI$$QAPBD@Z 10038839 f i libucrt:assert.obj
 0001:0003785c       ??$tcscpy_s@AAY0BAF@_WIPB_W@?$__crt_char_traits@_W@@SAHAAY0BAF@_W$$QAI$$QAPB_W@Z 1003885c f i libucrt:assert.obj
 0001:0003787f       ??$tcscpy_s@ABQADABIPBD@?$__crt_char_traits@D@@SAHABQADABI$$QAPBD@Z 1003887f f i libucrt:assert.obj
 0001:000378a4       ??$tcscpy_s@ABQA_WABIPB_W@?$__crt_char_traits@_W@@SAHABQA_WABI$$QAPB_W@Z 100388a4 f i libucrt:assert.obj
 0001:000378c9       ??$tcslen@AAY0BAF@D@?$__crt_char_traits@D@@SAIAAY0BAF@D@Z 100388c9 f i libucrt:assert.obj
 0001:000378e4       ??$tcslen@AAY0BAF@_W@?$__crt_char_traits@_W@@SAIAAY0BAF@_W@Z 100388e4 f i libucrt:assert.obj
 0001:00037907       ??$tcslen@ABQAD@?$__crt_char_traits@D@@SAIABQAD@Z 10038907 f i libucrt:assert.obj
 0001:00037925       ??$tcslen@ABQA_W@?$__crt_char_traits@_W@@SAIABQA_W@Z 10038925 f i libucrt:assert.obj
 0001:0003794a       ??$tcslen@ABQBD@?$__crt_char_traits@D@@SAIABQBD@Z 1003894a f i libucrt:assert.obj
 0001:00037968       ??$tcslen@ABQB_W@?$__crt_char_traits@_W@@SAIABQB_W@Z 10038968 f i libucrt:assert.obj
 0001:0003798d       ??$tcsncat_s@ABQADABIAAPBD$$CBI@?$__crt_char_traits@D@@SAHABQADABIAAPBD$$QBI@Z 1003898d f i libucrt:assert.obj
 0001:000379b8       ??$tcsncat_s@ABQADABIABQBDABI@?$__crt_char_traits@D@@SAHABQADABIABQBD1@Z 100389b8 f i libucrt:assert.obj
 0001:000379e3       ??$tcsncat_s@ABQADABIPBD$$CBI@?$__crt_char_traits@D@@SAHABQADABI$$QAPBD$$QBI@Z 100389e3 f i libucrt:assert.obj
 0001:00037a0e       ??$tcsncat_s@ABQA_WABIAAPB_W$$CBI@?$__crt_char_traits@_W@@SAHABQA_WABIAAPB_W$$QBI@Z 10038a0e f i libucrt:assert.obj
 0001:00037a39       ??$tcsncat_s@ABQA_WABIABQB_WABI@?$__crt_char_traits@_W@@SAHABQA_WABIABQB_W1@Z 10038a39 f i libucrt:assert.obj
 0001:00037a64       ??$tcsncat_s@ABQA_WABIPB_W$$CBI@?$__crt_char_traits@_W@@SAHABQA_WABI$$QAPB_W$$QBI@Z 10038a64 f i libucrt:assert.obj
 0001:00037c09       ?has_any_buffer@__crt_stdio_stream@@QBE_NXZ 10038c09 f i libucrt:assert.obj
 0001:00037c1e       ?has_any_of@__crt_stdio_stream@@QBE_NJ@Z 10038c1e f i libucrt:assert.obj
 0001:00037c3a       __assert                   10038c3a f   libucrt:assert.obj
 0001:00037c94       __invoke_watson_if_error   10038c94 f i libucrt:assert.obj
 0001:00037cbe       __vfwprintf_l              10038cbe f i libucrt:assert.obj
 0001:00037cec       __vswprintf_c_l            10038cec f i libucrt:assert.obj
 0001:00037d26       __wassert                  10038d26 f   libucrt:assert.obj
 0001:00037d80       _fwprintf                  10038d80 f i libucrt:assert.obj
 0001:00037e42       _swprintf                  10038e42 f i libucrt:assert.obj
 0001:00037e67       _realloc                   10038e67 f   libucrt:realloc.obj
 0001:00037e74       ??$?B$$A6GXPAXK0@Z@__crt_fast_encoded_nullptr_t@@QBEP6GXPAXK0@ZXZ 10038e74 f i libucrt:exit.obj
 0001:00037e92       ??$__crt_fast_decode_pointer@P6GXPAXK0@Z@@YAP6GXPAXK0@ZQ6GX0K0@Z@Z 10038e92 f i libucrt:exit.obj
 0001:00037ead       ??$__crt_fast_encode_pointer@P6GXPAXK0@Z@@YAP6GXPAXK0@ZQ6GX0K0@Z@Z 10038ead f i libucrt:exit.obj
 0001:00037ed3       ??$__crt_get_proc_address@P6GXI@Z@@YAP6GXI@ZQAUHINSTANCE__@@QBD@Z 10038ed3 f i libucrt:exit.obj
 0001:00037eea       ??0?$__crt_unique_handle_t@U__crt_hmodule_traits@@@@QAE@QAUHINSTANCE__@@@Z 10038eea f i libucrt:exit.obj
 0001:00037efe       ??1?$__crt_unique_handle_t@U__crt_hmodule_traits@@@@QAE@XZ 10038efe f i libucrt:exit.obj
 0001:00037f31       ?close@?$__crt_unique_handle_t@U__crt_hmodule_traits@@@@QAEXXZ 10038f31 f i libucrt:exit.obj
 0001:00037f4d       ?close@__crt_hmodule_traits@@SA_NPAUHINSTANCE__@@@Z 10038f4d f i libucrt:exit.obj
 0001:00038118       ?get@?$__crt_unique_handle_t@U__crt_hmodule_traits@@@@QBEPAUHINSTANCE__@@XZ 10039118 f i libucrt:exit.obj
 0001:0003811b       ?get_address_of@?$__crt_unique_handle_t@U__crt_hmodule_traits@@@@QAEPAPAUHINSTANCE__@@XZ 1003911b f i libucrt:exit.obj
 0001:0003811e       ?get_invalid_value@__crt_hmodule_traits@@SAPAUHINSTANCE__@@XZ 1003911e f i libucrt:exit.obj
 0001:0003821b       __Exit                     1003921b f   libucrt:exit.obj
 0001:00038236       ___acrt_initialize_thread_local_exit_callback 10039236 f   libucrt:exit.obj
 0001:00038248       __c_exit                   10039248 f   libucrt:exit.obj
 0001:0003825a       __cexit                    1003925a f   libucrt:exit.obj
 0001:0003826c       __exit                     1003926c f   libucrt:exit.obj
 0001:00038287       __is_c_termination_complete 10039287 f   libucrt:exit.obj
 0001:0003828d       __register_thread_local_exe_atexit_callback 1003928d f   libucrt:exit.obj
 0001:000382d3       _exit                      100392d3 f   libucrt:exit.obj
 0001:000382ee       _quick_exit                100392ee f   libucrt:exit.obj
 0001:00038310       _strncat                   10039310 f   libucrt:strncat.obj
 0001:000384a0       _strncpy                   100394a0 f   libucrt:strncpy.obj
 0001:0003860d       ?is_in_use@__crt_stdio_stream@@QBE_NXZ 1003960d f i libucrt:fclose.obj
 0001:0003861c       __fclose_nolock            1003961c f   libucrt:fclose.obj
 0001:000386af       _fclose                    100396af f   libucrt:fclose.obj
 0001:000389e1       ??$open_file@ABQBDABQBDABHPAU_iobuf@@@?$__crt_char_traits@D@@SAPAU_iobuf@@ABQBD0ABH$$QAPAU1@@Z 100399e1 f i libucrt:fopen.obj
 0001:00038a0c       ??$open_file@ABQB_WABQB_WABHPAU_iobuf@@@?$__crt_char_traits@_W@@SAPAU_iobuf@@ABQB_W0ABH$$QAPAU1@@Z 10039a0c f i libucrt:fopen.obj
 0001:00038a37       ?unlock@__crt_stdio_stream@@QBEXXZ 10039a37 f i libucrt:fopen.obj
 0001:00038a42       __fsopen                   10039a42 f   libucrt:fopen.obj
 0001:00038a4f       __wfopen                   10039a4f f   libucrt:fopen.obj
 0001:00038a6b       __wfopen_s                 10039a6b f   libucrt:fopen.obj
 0001:00038ac3       __wfsopen                  10039ac3 f   libucrt:fopen.obj
 0001:00038ad0       _fopen                     10039ad0 f   libucrt:fopen.obj
 0001:00038aec       _fopen_s                   10039aec f   libucrt:fopen.obj
 0001:00038b44       ?set_flags@__crt_stdio_stream@@QBE_NJ@Z 10039b44 f i libucrt:fread.obj
 0001:00038b74       __fread_nolock             10039b74 f   libucrt:fread.obj
 0001:00038b98       __fread_nolock_s           10039b98 f   libucrt:fread.obj
 0001:00038dd7       _fread                     10039dd7 f   libucrt:fread.obj
 0001:00038dfb       _fread_s                   10039dfb f   libucrt:fread.obj
 0001:00038f53       ??$?RV<lambda_11b4f7b0d3157825a5656a18eba1ae27>@@AAV<lambda_b51c0495177f500e782686251704ae76>@@V<lambda_cf89b47920b5017557bfe891e78aca36>@@@?$__crt_seh_guarded_call@I@@QAEI$$QAV<lambda_11b4f7b0d3157825a5656a18eba1ae27>@@AAV<lambda_b51c0495177f500e782686251704ae76>@@$$QAV<lambda_cf89b47920b5017557bfe891e78aca36>@@@Z 10039f53 f i libucrt:fwrite.obj
 0001:00038fb8       ??$__acrt_lock_stream_and_call@V<lambda_b51c0495177f500e782686251704ae76>@@@@YAIQAU_iobuf@@$$QAV<lambda_b51c0495177f500e782686251704ae76>@@@Z 10039fb8 f i libucrt:fwrite.obj
 0001:000390ad       ?has_big_buffer@__crt_stdio_stream@@QBE_NXZ 1003a0ad f i libucrt:fwrite.obj
 0001:000390be       __fwrite_nolock            1003a0be f   libucrt:fwrite.obj
 0001:00039295       _fwrite                    1003a295 f   libucrt:fwrite.obj
 0001:00039303       ??$?R_W@__crt_internal_free_policy@@QBEXQB_W@Z 1003a303 f i libucrt:unlink.obj
 0001:00039319       ??0?$__crt_unique_heap_ptr@_WU__crt_internal_free_policy@@@@QAE@QA_W@Z 1003a319 f i libucrt:unlink.obj
 0001:0003932d       ??1?$__crt_unique_heap_ptr@_WU__crt_internal_free_policy@@@@QAE@XZ 1003a32d f i libucrt:unlink.obj
 0001:00039343       ?get@?$__crt_unique_heap_ptr@_WU__crt_internal_free_policy@@@@QBEPA_WXZ 1003a343 f i libucrt:unlink.obj
 0001:00039346       ?get_address_of@?$__crt_unique_heap_ptr@_WU__crt_internal_free_policy@@@@QAEPAPA_WXZ 1003a346 f i libucrt:unlink.obj
 0001:00039349       ?release@?$__crt_unique_heap_ptr@_WU__crt_internal_free_policy@@@@QAEXXZ 1003a349 f i libucrt:unlink.obj
 0001:0003935f       __unlink                   1003a35f f   libucrt:unlink.obj
 0001:0003936c       _remove                    1003a36c f   libucrt:unlink.obj
 0001:000393cc       ?__acrt_stdio_reset_buffer@@YAXV__crt_stdio_stream@@@Z 1003a3cc f i libucrt:rewind.obj
 0001:000393e7       ?has_all_of@__crt_stdio_stream@@QBE_NJ@Z 1003a3e7 f i libucrt:rewind.obj
 0001:00039406       ?unset_flags@__crt_stdio_stream@@QBE_NJ@Z 1003a406 f i libucrt:rewind.obj
 0001:0003943a       _rewind                    1003a43a f   libucrt:rewind.obj
 0001:0003953b       _ldexp                     1003a53b f   libucrt:ldexp.obj
 0001:0003979b       __errcode                  1003a79b f   libucrt:fpexcept.obj
 0001:000397dc       __except1                  1003a7dc f   libucrt:fpexcept.obj
 0001:000398dd       __except2                  1003a8dd f   libucrt:fpexcept.obj
 0001:00039a26       __handle_exc               1003aa26 f   libucrt:fpexcept.obj
 0001:00039c7e       __handle_qnan2             1003ac7e f   libucrt:fpexcept.obj
 0001:00039c8e       __raise_exc                1003ac8e f   libucrt:fpexcept.obj
 0001:00039cb9       __raise_exc_ex             1003acb9 f   libucrt:fpexcept.obj
 0001:0003a066       __raise_excf               1003b066 f   libucrt:fpexcept.obj
 0001:0003a091       __set_errno_from_matherr   1003b091 f   libucrt:fpexcept.obj
 0001:0003a0cb       __umatherr                 1003b0cb f   libucrt:fpexcept.obj
 0001:0003a195       __initterm                 1003b195 f   libucrt:initterm.obj
 0001:0003a208       __initterm_e               1003b208 f   libucrt:initterm.obj
 0001:0003a28b       __seh_filter_dll           1003b28b f   libucrt:exception_filter.obj
 0001:0003a2b3       __seh_filter_exe           1003b2b3 f   libucrt:exception_filter.obj
 0001:0003a482       ??$?RE@__crt_internal_free_policy@@QBEXQBE@Z 1003b482 f i libucrt:argv_parsing.obj
 0001:0003a498       ??$?RPAD@__crt_internal_free_policy@@QBEXQBQAD@Z 1003b498 f i libucrt:argv_parsing.obj
 0001:0003a4ae       ??$?RPA_W@__crt_internal_free_policy@@QBEXQBQA_W@Z 1003b4ae f i libucrt:argv_parsing.obj
 0001:0003a797       ??$get_module_file_name@$$TAAY0BAF@DH@?$__crt_char_traits@D@@SAK$$QA$$TAAY0BAF@D$$QAH@Z 1003b797 f i libucrt:argv_parsing.obj
 0001:0003a7b7       ??$get_module_file_name@$$TAAY0BAF@_WH@?$__crt_char_traits@_W@@SAK$$QA$$TAAY0BAF@_W$$QAH@Z 1003b7b7 f i libucrt:argv_parsing.obj
 0001:0003ab90       ??$set_program_name@PAD@?$__crt_char_traits@D@@SAX$$QAPAD@Z 1003bb90 f i libucrt:argv_parsing.obj
 0001:0003aba5       ??$set_program_name@PA_W@?$__crt_char_traits@_W@@SAX$$QAPA_W@Z 1003bba5 f i libucrt:argv_parsing.obj
 0001:0003abe2       ??0?$__crt_unique_heap_ptr@EU__crt_internal_free_policy@@@@QAE@QAE@Z 1003bbe2 f i libucrt:argv_parsing.obj
 0001:0003abf6       ??0?$__crt_unique_heap_ptr@PADU__crt_internal_free_policy@@@@QAE@QAPAD@Z 1003bbf6 f i libucrt:argv_parsing.obj
 0001:0003ac0a       ??0?$__crt_unique_heap_ptr@PA_WU__crt_internal_free_policy@@@@QAE@QAPA_W@Z 1003bc0a f i libucrt:argv_parsing.obj
 0001:0003ac1e       ??1?$__crt_unique_heap_ptr@EU__crt_internal_free_policy@@@@QAE@XZ 1003bc1e f i libucrt:argv_parsing.obj
 0001:0003ac34       ??1?$__crt_unique_heap_ptr@PADU__crt_internal_free_policy@@@@QAE@XZ 1003bc34 f i libucrt:argv_parsing.obj
 0001:0003ac4a       ??1?$__crt_unique_heap_ptr@PA_WU__crt_internal_free_policy@@@@QAE@XZ 1003bc4a f i libucrt:argv_parsing.obj
 0001:0003ac60       ??B?$__crt_unique_heap_ptr@EU__crt_internal_free_policy@@@@QBE_NXZ 1003bc60 f i libucrt:argv_parsing.obj
 0001:0003aca0       ?detach@?$__crt_unique_heap_ptr@EU__crt_internal_free_policy@@@@QAEPAEXZ 1003bca0 f i libucrt:argv_parsing.obj
 0001:0003aca6       ?detach@?$__crt_unique_heap_ptr@PADU__crt_internal_free_policy@@@@QAEPAPADXZ 1003bca6 f i libucrt:argv_parsing.obj
 0001:0003acac       ?detach@?$__crt_unique_heap_ptr@PA_WU__crt_internal_free_policy@@@@QAEPAPA_WXZ 1003bcac f i libucrt:argv_parsing.obj
 0001:0003acd2       ?get@?$__crt_unique_heap_ptr@EU__crt_internal_free_policy@@@@QBEPAEXZ 1003bcd2 f i libucrt:argv_parsing.obj
 0001:0003acd5       ?get@?$__crt_unique_heap_ptr@PADU__crt_internal_free_policy@@@@QBEPAPADXZ 1003bcd5 f i libucrt:argv_parsing.obj
 0001:0003acd8       ?get@?$__crt_unique_heap_ptr@PA_WU__crt_internal_free_policy@@@@QBEPAPA_WXZ 1003bcd8 f i libucrt:argv_parsing.obj
 0001:0003acdb       ?get_address_of@?$__crt_unique_heap_ptr@PADU__crt_internal_free_policy@@@@QAEPAPAPADXZ 1003bcdb f i libucrt:argv_parsing.obj
 0001:0003acde       ?get_address_of@?$__crt_unique_heap_ptr@PA_WU__crt_internal_free_policy@@@@QAEPAPAPA_WXZ 1003bcde f i libucrt:argv_parsing.obj
 0001:0003acf9       ?is_valid@?$__crt_unique_heap_ptr@EU__crt_internal_free_policy@@@@QBE_NXZ 1003bcf9 f i libucrt:argv_parsing.obj
 0001:0003ad03       ?release@?$__crt_unique_heap_ptr@EU__crt_internal_free_policy@@@@QAEXXZ 1003bd03 f i libucrt:argv_parsing.obj
 0001:0003ad19       ?release@?$__crt_unique_heap_ptr@PADU__crt_internal_free_policy@@@@QAEXXZ 1003bd19 f i libucrt:argv_parsing.obj
 0001:0003ad2f       ?release@?$__crt_unique_heap_ptr@PA_WU__crt_internal_free_policy@@@@QAEXXZ 1003bd2f f i libucrt:argv_parsing.obj
 0001:0003ad66       ___acrt_allocate_buffer_for_argv 1003bd66 f   libucrt:argv_parsing.obj
 0001:0003add0       __configure_narrow_argv    1003bdd0 f   libucrt:argv_parsing.obj
 0001:0003addd       __configure_wide_argv      1003bddd f   libucrt:argv_parsing.obj
 0001:0003adea       __set_pgmptr               1003bdea f i libucrt:argv_parsing.obj
 0001:0003adfc       __set_wpgmptr              1003bdfc f i libucrt:argv_parsing.obj
 0001:0003b2d6       ??$get_environment_from_os@$$$V@?$__crt_char_traits@D@@SAPADXZ 1003c2d6 f i libucrt:environment_initialization.obj
 0001:0003b2db       ??$get_environment_from_os@$$$V@?$__crt_char_traits@_W@@SAPA_WXZ 1003c2db f i libucrt:environment_initialization.obj
 0001:0003b415       ??$set_variable_in_environment_nolock@PADH@?$__crt_char_traits@D@@SAH$$QAPAD$$QAH@Z 1003c415 f i libucrt:environment_initialization.obj
 0001:0003b433       ??$set_variable_in_environment_nolock@PA_WH@?$__crt_char_traits@_W@@SAH$$QAPA_W$$QAH@Z 1003c433 f i libucrt:environment_initialization.obj
 0001:0003b451       ??$tcscpy_s@PADABIAAPAD@?$__crt_char_traits@D@@SAH$$QAPADABIAAPAD@Z 1003c451 f i libucrt:environment_initialization.obj
 0001:0003b476       ??$tcscpy_s@PA_WABIAAPA_W@?$__crt_char_traits@_W@@SAH$$QAPA_WABIAAPA_W@Z 1003c476 f i libucrt:environment_initialization.obj
 0001:0003b49b       ??$tcslen@AAPAD@?$__crt_char_traits@D@@SAIAAPAD@Z 1003c49b f i libucrt:environment_initialization.obj
 0001:0003b4b9       ??$tcslen@AAPA_W@?$__crt_char_traits@_W@@SAIAAPA_W@Z 1003c4b9 f i libucrt:environment_initialization.obj
 0001:0003b4de       ??$uninitialize@A6AXAAPAPAD@Z@?$dual_state_global@PAPAD@__crt_state_management@@QAEXA6AXAAPAPAD@Z@Z 1003c4de f i libucrt:environment_initialization.obj
 0001:0003b52e       ??$uninitialize@A6AXAAPAPA_W@Z@?$dual_state_global@PAPA_W@__crt_state_management@@QAEXA6AXAAPAPA_W@Z@Z 1003c52e f i libucrt:environment_initialization.obj
 0001:0003b5c0       ??B?$__crt_unique_heap_ptr@PADU__crt_internal_free_policy@@@@QBE_NXZ 1003c5c0 f i libucrt:environment_initialization.obj
 0001:0003b5ca       ??B?$__crt_unique_heap_ptr@PA_WU__crt_internal_free_policy@@@@QBE_NXZ 1003c5ca f i libucrt:environment_initialization.obj
 0001:0003b5d4       ??B?$__crt_unique_heap_ptr@_WU__crt_internal_free_policy@@@@QBE_NXZ 1003c5d4 f i libucrt:environment_initialization.obj
 0001:0003b5de       ?__crt_compute_required_transform_buffer_count@@YAIIQBD@Z 1003c5de f i libucrt:environment_initialization.obj
 0001:0003b5fe       ?__crt_compute_required_transform_buffer_count@@YAIIQB_W@Z 1003c5fe f i libucrt:environment_initialization.obj
 0001:0003b621       ?__crt_transform_string@@YAIIQBDQA_WI@Z 1003c621 f i libucrt:environment_initialization.obj
 0001:0003b645       ?__crt_transform_string@@YAIIQB_WQADI@Z 1003c645 f i libucrt:environment_initialization.obj
 0001:0003b66d       ?detach@?$__crt_unique_heap_ptr@DU__crt_internal_free_policy@@@@QAEPADXZ 1003c66d f i libucrt:environment_initialization.obj
 0001:0003b673       ?detach@?$__crt_unique_heap_ptr@_WU__crt_internal_free_policy@@@@QAEPA_WXZ 1003c673 f i libucrt:environment_initialization.obj
 0001:0003b679       ?get_current_state_index@__crt_state_management@@YAIXZ 1003c679 f i libucrt:environment_initialization.obj
 0001:0003b6a0       ?initialize@?$dual_state_global@PAPAD@__crt_state_management@@QAEXQAPAD@Z 1003c6a0 f i libucrt:environment_initialization.obj
 0001:0003b6dd       ?initialize@?$dual_state_global@PAPA_W@__crt_state_management@@QAEXQAPA_W@Z 1003c6dd f i libucrt:environment_initialization.obj
 0001:0003b71a       ?is_valid@?$__crt_unique_heap_ptr@PADU__crt_internal_free_policy@@@@QBE_NXZ 1003c71a f i libucrt:environment_initialization.obj
 0001:0003b724       ?is_valid@?$__crt_unique_heap_ptr@PA_WU__crt_internal_free_policy@@@@QBE_NXZ 1003c724 f i libucrt:environment_initialization.obj
 0001:0003b72e       ?is_valid@?$__crt_unique_heap_ptr@_WU__crt_internal_free_policy@@@@QBE_NXZ 1003c72e f i libucrt:environment_initialization.obj
 0001:0003b73e       ?value@?$dual_state_global@PAPAD@__crt_state_management@@QAEAAPAPADXZ 1003c73e f i libucrt:environment_initialization.obj
 0001:0003b741       ?value@?$dual_state_global@PAPA_W@__crt_state_management@@QAEAAPAPA_WXZ 1003c741 f i libucrt:environment_initialization.obj
 0001:0003b744       ___dcrt_get_or_create_narrow_environment_nolock 1003c744 f   libucrt:environment_initialization.obj
 0001:0003b749       ___dcrt_get_or_create_wide_environment_nolock 1003c749 f   libucrt:environment_initialization.obj
 0001:0003b74e       ___dcrt_uninitialize_environments_nolock 1003c74e f   libucrt:environment_initialization.obj
 0001:0003b792       ___p__environ              1003c792 f   libucrt:environment_initialization.obj
 0001:0003b798       ___p__wenviron             1003c798 f   libucrt:environment_initialization.obj
 0001:0003b79e       __get_initial_narrow_environment 1003c79e f   libucrt:environment_initialization.obj
 0001:0003b7b7       __get_initial_wide_environment 1003c7b7 f   libucrt:environment_initialization.obj
 0001:0003b7d0       __initialize_narrow_environment 1003c7d0 f   libucrt:environment_initialization.obj
 0001:0003b7d5       __initialize_wide_environment 1003c7d5 f   libucrt:environment_initialization.obj
 0001:0003b7da       ??$?BP6AXXZ@__crt_fast_encoded_nullptr_t@@QBEPAP6AXXZXZ 1003c7da f i libucrt:onexit.obj
 0001:0003b7f8       ??$?RP6AXXZ@__crt_internal_free_policy@@QBEXQBQ6AXXZ@Z 1003c7f8 f i libucrt:onexit.obj
 0001:0003b80e       ??$?RV<lambda_800076c951b434888f4765a74a194fcc>@@AAV<lambda_4e60a939b0d047cfe11ddc22648dfba9>@@V<lambda_6dbb1268764f43b569ce7b67e331d33a>@@@?$__crt_seh_guarded_call@H@@QAEH$$QAV<lambda_800076c951b434888f4765a74a194fcc>@@AAV<lambda_4e60a939b0d047cfe11ddc22648dfba9>@@$$QAV<lambda_6dbb1268764f43b569ce7b67e331d33a>@@@Z 1003c80e f i libucrt:onexit.obj
 0001:0003b873       ??$?RV<lambda_995298e7d72eb4c2aab26c0585b3abe5>@@AAV<lambda_275893d493268fdec8709772e3fcec0e>@@V<lambda_293819299cbf9a7022e18b56a874bb5c>@@@?$__crt_seh_guarded_call@H@@QAEH$$QAV<lambda_995298e7d72eb4c2aab26c0585b3abe5>@@AAV<lambda_275893d493268fdec8709772e3fcec0e>@@$$QAV<lambda_293819299cbf9a7022e18b56a874bb5c>@@@Z 1003c873 f i libucrt:onexit.obj
 0001:0003b8d8       ??$__acrt_lock_and_call@V<lambda_275893d493268fdec8709772e3fcec0e>@@@@YAHW4__acrt_lock_id@@$$QAV<lambda_275893d493268fdec8709772e3fcec0e>@@@Z 1003c8d8 f i libucrt:onexit.obj
 0001:0003b90a       ??$__acrt_lock_and_call@V<lambda_4e60a939b0d047cfe11ddc22648dfba9>@@@@YAHW4__acrt_lock_id@@$$QAV<lambda_4e60a939b0d047cfe11ddc22648dfba9>@@@Z 1003c90a f i libucrt:onexit.obj
 0001:0003b93c       ??$__crt_fast_encode_pointer@P6AHXZ@@YAP6AHXZQ6AHXZ@Z 1003c93c f i libucrt:onexit.obj
 0001:0003b9e9       ??0?$__crt_unique_heap_ptr@P6AXXZU__crt_internal_free_policy@@@@QAE@QAP6AXXZ@Z 1003c9e9 f i libucrt:onexit.obj
 0001:0003b9fd       ??1?$__crt_unique_heap_ptr@P6AXXZU__crt_internal_free_policy@@@@QAE@XZ 1003c9fd f i libucrt:onexit.obj
 0001:0003bd38       ?detach@?$__crt_unique_heap_ptr@P6AXXZU__crt_internal_free_policy@@@@QAEPAP6AXXZXZ 1003cd38 f i libucrt:onexit.obj
 0001:0003bd3e       ?release@?$__crt_unique_heap_ptr@P6AXXZU__crt_internal_free_policy@@@@QAEXXZ 1003cd3e f i libucrt:onexit.obj
 0001:0003bd54       __crt_at_quick_exit        1003cd54 f   libucrt:onexit.obj
 0001:0003bd6f       __crt_atexit               1003cd6f f   libucrt:onexit.obj
 0001:0003bd8a       __execute_onexit_table     1003cd8a f   libucrt:onexit.obj
 0001:0003bdae       __initialize_onexit_table  1003cdae f   libucrt:onexit.obj
 0001:0003bdfa       __register_onexit_function 1003cdfa f   libucrt:onexit.obj
 0001:0003bf61       ?initialize@?$dual_state_global@PAU__crt_locale_data@@@__crt_state_management@@QAEXQAU__crt_locale_data@@@Z 1003cf61 f i libucrt:initialization.obj
 0001:0003bf9e       ___acrt_initialize         1003cf9e f   libucrt:initialization.obj
 0001:0003bfb4       ___acrt_thread_attach      1003cfb4 f   libucrt:initialization.obj
 0001:0003bfc1       ___acrt_thread_detach      1003cfc1 f   libucrt:initialization.obj
 0001:0003bfcb       ___acrt_uninitialize       1003cfcb f   libucrt:initialization.obj
 0001:0003bfe1       ___acrt_uninitialize_critical 1003cfe1 f   libucrt:initialization.obj
 0001:0003c012       __get_terminate            1003d012 f   libucrt:terminate.obj
 0001:0003c028       _set_terminate             1003d028 f   libucrt:terminate.obj
 0001:0003c050       _terminate                 1003d050 f   libucrt:terminate.obj
 0001:0003c09b       ??$__crt_interlocked_exchange_pointer@X$$T@@YAPAXPDSAX$$T@Z 1003d09b f i libucrt:free_base.obj
 0001:0003c0b3       ___acrt_get_msvcrt_heap_handle 1003d0b3 f   libucrt:free_base.obj
 0001:0003c144       __free_base                1003d144 f   libucrt:free_base.obj
 0001:0003c18c       __malloc_base              1003d18c f   libucrt:malloc_base.obj
 0001:0003c25d       _strcpy_s                  1003d25d f   libucrt:strcpy_s.obj
 0001:0003c2cd       __set_abort_behavior       1003d2cd f   libucrt:abort.obj
 0001:0003c2f6       _abort                     1003d2f6 f   libucrt:abort.obj
 0001:0003c349       __calloc_base              1003d349 f   libucrt:calloc_base.obj
 0001:0003c3bd       ??$is_overflow_condition@K@__crt_strtox@@YA_NIK@Z 1003d3bd f i libucrt:atox.obj
 0001:0003c3fc       ??$is_overflow_condition@_K@__crt_strtox@@YA_NI_K@Z 1003d3fc f i libucrt:atox.obj
 0001:0003c44f       ??$make_c_string_character_source@D$$T@__crt_strtox@@YA?AV?$c_string_character_source@D@0@QBD$$T@Z 1003d44f f i libucrt:atox.obj
 0001:0003c470       ??$make_c_string_character_source@_W$$T@__crt_strtox@@YA?AV?$c_string_character_source@_W@0@QB_W$$T@Z 1003d470 f i libucrt:atox.obj
 0001:0003c491       ??$parse_integer@KV?$c_string_character_source@D@__crt_strtox@@@__crt_strtox@@YAKQAU__crt_locale_pointers@@V?$c_string_character_source@D@0@H_N@Z 1003d491 f i libucrt:atox.obj
 0001:0003c743       ??$parse_integer@KV?$c_string_character_source@_W@__crt_strtox@@@__crt_strtox@@YAKQAU__crt_locale_pointers@@V?$c_string_character_source@_W@0@H_N@Z 1003d743 f i libucrt:atox.obj
 0001:0003cfe1       ??$parse_integer@_KV?$c_string_character_source@D@__crt_strtox@@@__crt_strtox@@YA_KQAU__crt_locale_pointers@@V?$c_string_character_source@D@0@H_N@Z 1003dfe1 f i libucrt:atox.obj
 0001:0003d330       ??$parse_integer@_KV?$c_string_character_source@_W@__crt_strtox@@@__crt_strtox@@YA_KQAU__crt_locale_pointers@@V?$c_string_character_source@_W@0@H_N@Z 1003e330 f i libucrt:atox.obj
 0001:0003daa2       ??$parse_integer_from_string@JD$$T@__crt_strtox@@YAJQBD$$THQAU__crt_locale_pointers@@@Z 1003eaa2 f i libucrt:atox.obj
 0001:0003dada       ??$parse_integer_from_string@J_W$$T@__crt_strtox@@YAJQB_W$$THQAU__crt_locale_pointers@@@Z 1003eada f i libucrt:atox.obj
 0001:0003db12       ??$parse_integer_from_string@_JD$$T@__crt_strtox@@YA_JQBD$$THQAU__crt_locale_pointers@@@Z 1003eb12 f i libucrt:atox.obj
 0001:0003db4a       ??$parse_integer_from_string@_J_W$$T@__crt_strtox@@YA_JQB_W$$THQAU__crt_locale_pointers@@@Z 1003eb4a f i libucrt:atox.obj
 0001:0003db82       ??0?$c_string_character_source@D@__crt_strtox@@QAE@QBDQAPBD@Z 1003eb82 f i libucrt:atox.obj
 0001:0003dba5       ??0?$c_string_character_source@_W@__crt_strtox@@QAE@QB_WQAPB_W@Z 1003eba5 f i libucrt:atox.obj
 0001:0003dbc8       ??1?$c_string_character_source@D@__crt_strtox@@QAE@XZ 1003ebc8 f i libucrt:atox.obj
 0001:0003dbd7       ??1?$c_string_character_source@_W@__crt_strtox@@QAE@XZ 1003ebd7 f i libucrt:atox.obj
 0001:0003dbe6       ?get@?$c_string_character_source@D@__crt_strtox@@QAEDXZ 1003ebe6 f i libucrt:atox.obj
 0001:0003dbf0       ?get@?$c_string_character_source@_W@__crt_strtox@@QAE_WXZ 1003ebf0 f i libucrt:atox.obj
 0001:0003dbfd       ?is_space@__crt_strtox@@YA_NDQAU__crt_locale_pointers@@@Z 1003ebfd f i libucrt:atox.obj
 0001:0003dc23       ?is_space@__crt_strtox@@YA_N_WPAU__crt_locale_pointers@@@Z 1003ec23 f i libucrt:atox.obj
 0001:0003dc42       ?maximum_signed_value@__crt_strtox@@YAJK@Z 1003ec42 f i libucrt:atox.obj
 0001:0003dc48       ?maximum_signed_value@__crt_strtox@@YA_J_K@Z 1003ec48 f i libucrt:atox.obj
 0001:0003dc53       ?minimum_signed_value@__crt_strtox@@YAJK@Z 1003ec53 f i libucrt:atox.obj
 0001:0003dc59       ?minimum_signed_value@__crt_strtox@@YA_J_K@Z 1003ec59 f i libucrt:atox.obj
 0001:0003dc63       ?parse_digit@__crt_strtox@@YAID@Z 1003ec63 f i libucrt:atox.obj
 0001:0003dcab       ?parse_digit@__crt_strtox@@YAI_W@Z 1003ecab f i libucrt:atox.obj
 0001:0003df08       ?restore_state@?$c_string_character_source@D@__crt_strtox@@QAE_NQBD@Z 1003ef08 f i libucrt:atox.obj
 0001:0003df1c       ?restore_state@?$c_string_character_source@_W@__crt_strtox@@QAE_NQB_W@Z 1003ef1c f i libucrt:atox.obj
 0001:0003df30       ?save_state@?$c_string_character_source@D@__crt_strtox@@QBEPBDXZ 1003ef30 f i libucrt:atox.obj
 0001:0003df33       ?save_state@?$c_string_character_source@_W@__crt_strtox@@QBEPB_WXZ 1003ef33 f i libucrt:atox.obj
 0001:0003df36       ?unget@?$c_string_character_source@D@__crt_strtox@@QAEXD@Z 1003ef36 f i libucrt:atox.obj
 0001:0003df68       ?unget@?$c_string_character_source@_W@__crt_strtox@@QAEX_W@Z 1003ef68 f i libucrt:atox.obj
 0001:0003df9f       ?validate@?$c_string_character_source@D@__crt_strtox@@QBE_NXZ 1003ef9f f i libucrt:atox.obj
 0001:0003dfc0       ?validate@?$c_string_character_source@_W@__crt_strtox@@QBE_NXZ 1003efc0 f i libucrt:atox.obj
 0001:0003dfe1       ?wide_character_to_digit@__crt_strtox@@YAH_W@Z 1003efe1 f i libucrt:atox.obj
 0001:0003e1ea       ___acrt_get_locale_data_prefix 1003f1ea f i libucrt:atox.obj
 0001:0003e1f9       __atoi64                   1003f1f9 f   libucrt:atox.obj
 0001:0003e22d       __atoi64_l                 1003f22d f   libucrt:atox.obj
 0001:0003e262       __atoi_l                   1003f262 f   libucrt:atox.obj
 0001:0003e297       __atol_l                   1003f297 f   libucrt:atox.obj
 0001:0003e2cc       __atoll_l                  1003f2cc f   libucrt:atox.obj
 0001:0003e301       __chvalidchk_l             1003f301 f i libucrt:atox.obj
 0001:0003e335       __ischartype_l             1003f335 f i libucrt:atox.obj
 0001:0003e374       __wtoi                     1003f374 f   libucrt:atox.obj
 0001:0003e3a8       __wtoi64                   1003f3a8 f   libucrt:atox.obj
 0001:0003e3dc       __wtoi64_l                 1003f3dc f   libucrt:atox.obj
 0001:0003e411       __wtoi_l                   1003f411 f   libucrt:atox.obj
 0001:0003e446       __wtol                     1003f446 f   libucrt:atox.obj
 0001:0003e47a       __wtol_l                   1003f47a f   libucrt:atox.obj
 0001:0003e4af       __wtoll                    1003f4af f   libucrt:atox.obj
 0001:0003e4e3       __wtoll_l                  1003f4e3 f   libucrt:atox.obj
 0001:0003e518       _atoi                      1003f518 f   libucrt:atox.obj
 0001:0003e54c       _atol                      1003f54c f   libucrt:atox.obj
 0001:0003e580       _atoll                     1003f580 f   libucrt:atox.obj
 0001:0003e5b4       ??$__crt_fast_decode_pointer@P6AXPB_W00II@Z@@YAP6AXPB_W00II@ZQ6AX000II@Z@Z 1003f5b4 f i libucrt:invalid_parameter.obj
 0001:0003e5cf       ??$__crt_fast_encode_pointer@P6AXPB_W00II@Z@@YAP6AXPB_W00II@ZQ6AX000II@Z@Z 1003f5cf f i libucrt:invalid_parameter.obj
 0001:0003e5f5       ?initialize@?$dual_state_global@P6AXPB_W00II@Z@__crt_state_management@@QAEXQ6AXPB_W00II@Z@Z 1003f5f5 f i libucrt:invalid_parameter.obj
 0001:0003e632       ?value@?$dual_state_global@P6AXPB_W00II@Z@__crt_state_management@@QAEAAP6AXPB_W00II@ZXZ 1003f632 f i libucrt:invalid_parameter.obj
 0001:0003e635       ___acrt_call_reportfault   1003f635 f   libucrt:invalid_parameter.obj
 0001:0003e7be       ___acrt_initialize_invalid_parameter_handler 1003f7be f   libucrt:invalid_parameter.obj
 0001:0003e7d7       __get_invalid_parameter_handler 1003f7d7 f   libucrt:invalid_parameter.obj
 0001:0003e7ee       __get_thread_local_invalid_parameter_handler 1003f7ee f   libucrt:invalid_parameter.obj
 0001:0003e803       __invalid_parameter        1003f803 f   libucrt:invalid_parameter.obj
 0001:0003e89c       __invalid_parameter_noinfo 1003f89c f   libucrt:invalid_parameter.obj
 0001:0003e8b0       __invalid_parameter_noinfo_noreturn 1003f8b0 f   libucrt:invalid_parameter.obj
 0001:0003e8d4       __invoke_watson            1003f8d4 f   libucrt:invalid_parameter.obj
 0001:0003e913       __set_invalid_parameter_handler 1003f913 f   libucrt:invalid_parameter.obj
 0001:0003e94f       __set_thread_local_invalid_parameter_handler 1003f94f f   libucrt:invalid_parameter.obj
 0001:0003e973       ___acrt_errno_from_os_error 1003f973 f   libucrt:errno.obj
 0001:0003e9c6       ___acrt_errno_map_os_error 1003f9c6 f   libucrt:errno.obj
 0001:0003e9f1       ___doserrno                1003f9f1 f   libucrt:errno.obj
 0001:0003ea08       __errno                    1003fa08 f   libucrt:errno.obj
 0001:0003ea1f       __get_doserrno             1003fa1f f   libucrt:errno.obj
 0001:0003ea4d       __get_errno                1003fa4d f   libucrt:errno.obj
 0001:0003ea7b       __set_doserrno             1003fa7b f   libucrt:errno.obj
 0001:0003eaa4       __set_errno                1003faa4 f   libucrt:errno.obj
 0001:0003eb24       ??$?B$$A6GHPA_WKJ@Z@__crt_fast_encoded_nullptr_t@@QBEP6GHPA_WKJ@ZXZ 1003fb24 f i libucrt:winapi_thunks.obj
 0001:0003eb42       ??$?RV<lambda_9227be29367c048ad7fd93a717dcb1a1>@@AAV<lambda_a463b7b0560cfcaf9b17f27c6ef46564>@@V<lambda_ccea11b5727ccf69be64f5f5d9a08d9f>@@@?$__crt_seh_guarded_call@H@@QAEH$$QAV<lambda_9227be29367c048ad7fd93a717dcb1a1>@@AAV<lambda_a463b7b0560cfcaf9b17f27c6ef46564>@@$$QAV<lambda_ccea11b5727ccf69be64f5f5d9a08d9f>@@@Z 1003fb42 f i libucrt:winapi_thunks.obj
 0001:0003ebe7       ??$__acrt_lock_and_call@V<lambda_a463b7b0560cfcaf9b17f27c6ef46564>@@@@YAHW4__acrt_lock_id@@$$QAV<lambda_a463b7b0560cfcaf9b17f27c6ef46564>@@@Z 1003fbe7 f i libucrt:winapi_thunks.obj
 0001:0003ec19       ??$__crt_fast_decode_pointer@P6GHPA_WKJ@Z@@YAP6GHPA_WKJ@ZQ6GH0KJ@Z@Z 1003fc19 f i libucrt:winapi_thunks.obj
 0001:0003ec34       ??$__crt_fast_encode_pointer@P6GHPA_WKJ@Z@@YAP6GHPA_WKJ@ZQ6GH0KJ@Z@Z 1003fc34 f i libucrt:winapi_thunks.obj
 0001:0003f361       ___acrt_AreFileApisANSI@0  10040361 f   libucrt:winapi_thunks.obj
 0001:0003f3c2       ___acrt_CompareStringEx@36 100403c2 f   libucrt:winapi_thunks.obj
 0001:0003f453       ___acrt_EnumSystemLocalesEx@16 10040453 f   libucrt:winapi_thunks.obj
 0001:0003f4db       ___acrt_FlsAlloc@4         100404db f   libucrt:winapi_thunks.obj
 0001:0003f546       ___acrt_FlsFree@4          10040546 f   libucrt:winapi_thunks.obj
 0001:0003f5b1       ___acrt_FlsGetValue@4      100405b1 f   libucrt:winapi_thunks.obj
 0001:0003f61c       ___acrt_FlsSetValue@8      1004061c f   libucrt:winapi_thunks.obj
 0001:0003f68b       ___acrt_GetDateFormatEx@28 1004068b f   libucrt:winapi_thunks.obj
 0001:0003f72d       ___acrt_GetEnabledXStateFeatures@0 1004072d f   libucrt:winapi_thunks.obj
 0001:0003f78f       ___acrt_GetFileInformationByHandleEx@16 1004078f f   libucrt:winapi_thunks.obj
 0001:0003f80a       ___acrt_GetLocaleInfoEx@16 1004080a f   libucrt:winapi_thunks.obj
 0001:0003f88e       ___acrt_GetSystemTimePreciseAsFileTime@4 1004088e f   libucrt:winapi_thunks.obj
 0001:0003f8f9       ___acrt_GetTimeFormatEx@24 100408f9 f   libucrt:winapi_thunks.obj
 0001:0003f985       ___acrt_GetUserDefaultLocaleName@8 10040985 f   libucrt:winapi_thunks.obj
 0001:0003fa05       ___acrt_GetXStateFeaturesMask@8 10040a05 f   libucrt:winapi_thunks.obj
 0001:0003fa71       ___acrt_InitializeCriticalSectionEx@12 10040a71 f   libucrt:winapi_thunks.obj
 0001:0003faeb       ___acrt_IsValidLocaleName@4 10040aeb f   libucrt:winapi_thunks.obj
 0001:0003fb66       ___acrt_LCIDToLocaleName@16 10040b66 f   libucrt:winapi_thunks.obj
 0001:0003fbea       ___acrt_LCMapStringEx@36   10040bea f   libucrt:winapi_thunks.obj
 0001:0003fc94       ___acrt_LocaleNameToLCID@8 10040c94 f   libucrt:winapi_thunks.obj
 0001:0003fd07       ___acrt_LocateXStateFeature@12 10040d07 f   libucrt:winapi_thunks.obj
 0001:0003fd5e       ___acrt_MessageBoxA@16     10040d5e f   libucrt:winapi_thunks.obj
 0001:0003fdb9       ___acrt_MessageBoxW@16     10040db9 f   libucrt:winapi_thunks.obj
 0001:0003fe14       ___acrt_RoInitialize@4     10040e14 f   libucrt:winapi_thunks.obj
 0001:0003fe7a       ___acrt_RoUninitialize@0   10040e7a f   libucrt:winapi_thunks.obj
 0001:0003fed5       ___acrt_RtlGenRandom@8     10040ed5 f   libucrt:winapi_thunks.obj
 0001:0003ff41       ___acrt_SetThreadStackGuarantee@4 10040f41 f   libucrt:winapi_thunks.obj
 0001:0003ffa7       ___acrt_can_show_message_box 10040fa7 f   libucrt:winapi_thunks.obj
 0001:0003ffc6       ___acrt_can_use_vista_locale_apis 10040fc6 f   libucrt:winapi_thunks.obj
 0001:0003ffd5       ___acrt_can_use_xstate_apis 10040fd5 f   libucrt:winapi_thunks.obj
 0001:0003ffe4       ___acrt_get_parent_window  10040fe4 f   libucrt:winapi_thunks.obj
 0001:00040082       ___acrt_initialize_winapi_thunks 10041082 f   libucrt:winapi_thunks.obj
 0001:000400b1       ___acrt_is_interactive     100410b1 f   libucrt:winapi_thunks.obj
 0001:00040180       ___acrt_is_packaged_app    10041180 f   libucrt:winapi_thunks.obj
 0001:00040228       ___acrt_uninitialize_winapi_thunks 10041228 f   libucrt:winapi_thunks.obj
 0001:0004026b       ??0__crt_stdio_stream@@QAE@QAU__crt_stdio_stream_data@@@Z 1004126b f i libucrt:closeall.obj
 0001:0004027f       __fcloseall                1004127f f   libucrt:closeall.obj
 0001:00040347       ___acrt_stdio_flush_nolock 10041347 f   libucrt:fflush.obj
 0001:000403c6       __fflush_nolock            100413c6 f   libucrt:fflush.obj
 0001:0004041e       __flushall                 1004141e f   libucrt:fflush.obj
 0001:00040537       _fflush                    10041537 f   libucrt:fflush.obj
 0001:000405a6       ?has_crt_buffer@__crt_stdio_stream@@QBE_NXZ 100415a6 f i libucrt:_freebuf.obj
 0001:000405b5       ___acrt_stdio_free_buffer_nolock 100415b5 f   libucrt:_freebuf.obj
 0001:000407f2       ___acrt_initialize_lowio   100417f2 f   libucrt:ioinit.obj
 0001:0004085d       ___acrt_uninitialize_lowio 1004185d f   libucrt:ioinit.obj
 0001:000408af       ___isascii                 100418af f i libucrt:_ctype.obj
 0001:000408c5       ___iscsym                  100418c5 f i libucrt:_ctype.obj
 0001:000408ef       ___iscsymf                 100418ef f i libucrt:_ctype.obj
 0001:00040915       ___toascii                 10041915 f i libucrt:_ctype.obj
 0001:00040925       __isalnum_l                10041925 f i libucrt:_ctype.obj
 0001:0004096e       __isalpha_l                1004196e f i libucrt:_ctype.obj
 0001:000409b7       __isblank_l                100419b7 f i libucrt:_ctype.obj
 0001:00040a0a       __iscntrl_l                10041a0a f i libucrt:_ctype.obj
 0001:00040a50       __iscsym_l                 10041a50 f i libucrt:_ctype.obj
 0001:00040a7b       __iscsymf_l                10041a7b f i libucrt:_ctype.obj
 0001:00040aa6       __isdigit_l                10041aa6 f i libucrt:_ctype.obj
 0001:00040aec       __isgraph_l                10041aec f i libucrt:_ctype.obj
 0001:00040b35       __islower_l                10041b35 f i libucrt:_ctype.obj
 0001:00040b7b       __isprint_l                10041b7b f i libucrt:_ctype.obj
 0001:00040bc4       __ispunct_l                10041bc4 f i libucrt:_ctype.obj
 0001:00040c0a       __isspace_l                10041c0a f i libucrt:_ctype.obj
 0001:00040c50       __isupper_l                10041c50 f i libucrt:_ctype.obj
 0001:00040c96       __isxdigit_l               10041c96 f i libucrt:_ctype.obj
 0001:00040cdf       _isalnum                   10041cdf f i libucrt:_ctype.obj
 0001:00040d19       _isalpha                   10041d19 f i libucrt:_ctype.obj
 0001:00040d53       _isblank                   10041d53 f i libucrt:_ctype.obj
 0001:00040d97       _iscntrl                   10041d97 f i libucrt:_ctype.obj
 0001:00040dcf       _isdigit                   10041dcf f i libucrt:_ctype.obj
 0001:00040e07       _isgraph                   10041e07 f i libucrt:_ctype.obj
 0001:00040e41       _islower                   10041e41 f i libucrt:_ctype.obj
 0001:00040e79       _isprint                   10041e79 f i libucrt:_ctype.obj
 0001:00040eb3       _ispunct                   10041eb3 f i libucrt:_ctype.obj
 0001:00040eeb       _isspace                   10041eeb f i libucrt:_ctype.obj
 0001:00040f23       _isupper                   10041f23 f i libucrt:_ctype.obj
 0001:00040f5b       _isxdigit                  10041f5b f i libucrt:_ctype.obj
 0001:00041353       __tolower                  10042353 f   libucrt:tolower_toupper.obj
 0001:00041363       __tolower_l                10042363 f   libucrt:tolower_toupper.obj
 0001:00041383       __toupper                  10042383 f   libucrt:tolower_toupper.obj
 0001:00041393       __toupper_l                10042393 f   libucrt:tolower_toupper.obj
 0001:000413b3       _tolower                   100423b3 f   libucrt:tolower_toupper.obj
 0001:000413ef       _toupper                   100423ef f   libucrt:tolower_toupper.obj
 0001:0004142b       ??$make_c_string_character_source@DPAPAD@__crt_strtox@@YA?AV?$c_string_character_source@D@0@QBDQAPAD@Z 1004242b f i libucrt:strtox.obj
 0001:0004144c       ??$make_c_string_character_source@_WPAPA_W@__crt_strtox@@YA?AV?$c_string_character_source@_W@0@QB_WQAPA_W@Z 1004244c f i libucrt:strtox.obj
 0001:0004146d       ??$parse_integer_from_string@JDPAPAD@__crt_strtox@@YAJQBDQAPADHQAU__crt_locale_pointers@@@Z 1004246d f i libucrt:strtox.obj
 0001:000414a5       ??$parse_integer_from_string@J_WPAPA_W@__crt_strtox@@YAJQB_WQAPA_WHQAU__crt_locale_pointers@@@Z 100424a5 f i libucrt:strtox.obj
 0001:000414dd       ??$parse_integer_from_string@KDPAPAD@__crt_strtox@@YAKQBDQAPADHQAU__crt_locale_pointers@@@Z 100424dd f i libucrt:strtox.obj
 0001:00041515       ??$parse_integer_from_string@K_WPAPA_W@__crt_strtox@@YAKQB_WQAPA_WHQAU__crt_locale_pointers@@@Z 10042515 f i libucrt:strtox.obj
 0001:0004154d       ??$parse_integer_from_string@_JDPAPAD@__crt_strtox@@YA_JQBDQAPADHQAU__crt_locale_pointers@@@Z 1004254d f i libucrt:strtox.obj
 0001:00041585       ??$parse_integer_from_string@_J_WPAPA_W@__crt_strtox@@YA_JQB_WQAPA_WHQAU__crt_locale_pointers@@@Z 10042585 f i libucrt:strtox.obj
 0001:000415bd       ??$parse_integer_from_string@_KDPAPAD@__crt_strtox@@YA_KQBDQAPADHQAU__crt_locale_pointers@@@Z 100425bd f i libucrt:strtox.obj
 0001:000415f5       ??$parse_integer_from_string@_K_WPAPA_W@__crt_strtox@@YA_KQB_WQAPA_WHQAU__crt_locale_pointers@@@Z 100425f5 f i libucrt:strtox.obj
 0001:0004162d       __strtoi64                 1004262d f   libucrt:strtox.obj
 0001:00041664       __strtoi64_l               10042664 f   libucrt:strtox.obj
 0001:0004169c       __strtoimax_l              1004269c f   libucrt:strtox.obj
 0001:000416d4       __strtol_l                 100426d4 f   libucrt:strtox.obj
 0001:0004170c       __strtoll_l                1004270c f   libucrt:strtox.obj
 0001:00041744       __strtoui64                10042744 f   libucrt:strtox.obj
 0001:0004177b       __strtoui64_l              1004277b f   libucrt:strtox.obj
 0001:000417b3       __strtoul_l                100427b3 f   libucrt:strtox.obj
 0001:000417eb       __strtoull_l               100427eb f   libucrt:strtox.obj
 0001:00041823       __strtoumax_l              10042823 f   libucrt:strtox.obj
 0001:0004185b       __wcstoi64                 1004285b f   libucrt:strtox.obj
 0001:00041892       __wcstoi64_l               10042892 f   libucrt:strtox.obj
 0001:000418ca       __wcstoimax_l              100428ca f   libucrt:strtox.obj
 0001:00041902       __wcstol_l                 10042902 f   libucrt:strtox.obj
 0001:0004193a       __wcstoll_l                1004293a f   libucrt:strtox.obj
 0001:00041972       __wcstoui64                10042972 f   libucrt:strtox.obj
 0001:000419a9       __wcstoui64_l              100429a9 f   libucrt:strtox.obj
 0001:000419e1       __wcstoul_l                100429e1 f   libucrt:strtox.obj
 0001:00041a19       __wcstoull_l               10042a19 f   libucrt:strtox.obj
 0001:00041a51       __wcstoumax_l              10042a51 f   libucrt:strtox.obj
 0001:00041a89       _strtoimax                 10042a89 f   libucrt:strtox.obj
 0001:00041ac0       _strtol                    10042ac0 f   libucrt:strtox.obj
 0001:00041af7       _strtoll                   10042af7 f   libucrt:strtox.obj
 0001:00041b2e       _strtoul                   10042b2e f   libucrt:strtox.obj
 0001:00041b65       _strtoull                  10042b65 f   libucrt:strtox.obj
 0001:00041b9c       _strtoumax                 10042b9c f   libucrt:strtox.obj
 0001:00041bd3       _wcstoimax                 10042bd3 f   libucrt:strtox.obj
 0001:00041c0a       _wcstol                    10042c0a f   libucrt:strtox.obj
 0001:00041c41       _wcstoll                   10042c41 f   libucrt:strtox.obj
 0001:00041c78       _wcstoul                   10042c78 f   libucrt:strtox.obj
 0001:00041caf       _wcstoull                  10042caf f   libucrt:strtox.obj
 0001:00041ce6       _wcstoumax                 10042ce6 f   libucrt:strtox.obj
 0001:00041d1d       __mbtowc_l                 10042d1d f   libucrt:mbtowc.obj
 0001:00041e55       _mbtowc                    10042e55 f   libucrt:mbtowc.obj
 0001:00041e75       __wctomb_l                 10042e75 f   libucrt:wctomb.obj
 0001:00041edc       __wctomb_s_l               10042edc f   libucrt:wctomb.obj
 0001:00042045       _wctomb                    10043045 f   libucrt:wctomb.obj
 0001:00042086       _wctomb_s                  10043086 f   libucrt:wctomb.obj
 0001:0004279e       ??1?$__crt_simd_cleanup_guard@$00@@QAE@XZ 1004379e f i libucrt:strnlen.obj
 0001:000427a2       ??1?$__crt_simd_cleanup_guard@$0A@@@QAE@XZ 100437a2 f i libucrt:strnlen.obj
 0001:000427a3       ?compare_equals@?$__crt_simd_traits@$00E@@SA?AT__m256i@@T2@0@Z 100437a3 f i libucrt:strnlen.obj
 0001:000427a8       ?compare_equals@?$__crt_simd_traits@$00G@@SA?AT__m256i@@T2@0@Z 100437a8 f i libucrt:strnlen.obj
 0001:000427ad       ?compare_equals@?$__crt_simd_traits@$0A@E@@SA?AT__m128i@@T2@0@Z 100437ad f i libucrt:strnlen.obj
 0001:000427b2       ?compare_equals@?$__crt_simd_traits@$0A@G@@SA?AT__m128i@@T2@0@Z 100437b2 f i libucrt:strnlen.obj
 0001:000427b7       ?compute_byte_mask@?$__crt_simd_pack_traits@$00@@SAHT__m256i@@@Z 100437b7 f i libucrt:strnlen.obj
 0001:000427bc       ?compute_byte_mask@?$__crt_simd_pack_traits@$0A@@@SAHT__m128i@@@Z 100437bc f i libucrt:strnlen.obj
 0001:000427c1       ?get_zero_pack@?$__crt_simd_pack_traits@$00@@SA?AT__m256i@@XZ 100437c1 f i libucrt:strnlen.obj
 0001:000427c6       ?get_zero_pack@?$__crt_simd_pack_traits@$0A@@@SA?AT__m128i@@XZ 100437c6 f i libucrt:strnlen.obj
 0001:000427cb       _strnlen                   100437cb f   libucrt:strnlen.obj
 0001:0004293b       _wcsnlen                   1004393b f   libucrt:strnlen.obj
 0001:00042b5f       ??$?RU__acrt_ptd@@@__crt_internal_free_policy@@QBEXQBU__acrt_ptd@@@Z 10043b5f f i libucrt:per_thread_data.obj
 0001:00042b75       ??$?RV<lambda_3518db117f0e7cdb002338c5d3c47b6c>@@AAV<lambda_b2ea41f6bbb362cd97d94c6828d90b61>@@V<lambda_abdedf541bb04549bc734292b4a045d4>@@@?$__crt_seh_guarded_call@X@@QAEX$$QAV<lambda_3518db117f0e7cdb002338c5d3c47b6c>@@AAV<lambda_b2ea41f6bbb362cd97d94c6828d90b61>@@$$QAV<lambda_abdedf541bb04549bc734292b4a045d4>@@@Z 10043b75 f i libucrt:per_thread_data.obj
 0001:00042bd9       ??$?RV<lambda_51b6e8b1eb166f2a3faf91f424b38130>@@AAV<lambda_6250bd4b2a391816dd638c3bf72b0bcb>@@V<lambda_0b5a4a3e68152e1d9b943535f5f47bed>@@@?$__crt_seh_guarded_call@X@@QAEX$$QAV<lambda_51b6e8b1eb166f2a3faf91f424b38130>@@AAV<lambda_6250bd4b2a391816dd638c3bf72b0bcb>@@$$QAV<lambda_0b5a4a3e68152e1d9b943535f5f47bed>@@@Z 10043bd9 f i libucrt:per_thread_data.obj
 0001:00042c52       ??$?RV<lambda_5b71d36f03204c0beab531769a5b5694>@@AAV<lambda_be2b3da3f62db62e9dad5dc70221a656>@@V<lambda_8f9ce462984622f9bf76b59e2aaaf805>@@@?$__crt_seh_guarded_call@X@@QAEX$$QAV<lambda_5b71d36f03204c0beab531769a5b5694>@@AAV<lambda_be2b3da3f62db62e9dad5dc70221a656>@@$$QAV<lambda_8f9ce462984622f9bf76b59e2aaaf805>@@@Z 10043c52 f i libucrt:per_thread_data.obj
 0001:00042caf       ??$?RV<lambda_9df27f884b057bc3edfc946cb5b7cf47>@@AAV<lambda_e69574bed617af4e071282c136b37893>@@V<lambda_cc0d902bcbbeb830f749456577db4721>@@@?$__crt_seh_guarded_call@X@@QAEX$$QAV<lambda_9df27f884b057bc3edfc946cb5b7cf47>@@AAV<lambda_e69574bed617af4e071282c136b37893>@@$$QAV<lambda_cc0d902bcbbeb830f749456577db4721>@@@Z 10043caf f i libucrt:per_thread_data.obj
 0001:00042d09       ??$__acrt_lock_and_call@V<lambda_6250bd4b2a391816dd638c3bf72b0bcb>@@@@YAXW4__acrt_lock_id@@$$QAV<lambda_6250bd4b2a391816dd638c3bf72b0bcb>@@@Z 10043d09 f i libucrt:per_thread_data.obj
 0001:00042d3b       ??$__acrt_lock_and_call@V<lambda_b2ea41f6bbb362cd97d94c6828d90b61>@@@@YAXW4__acrt_lock_id@@$$QAV<lambda_b2ea41f6bbb362cd97d94c6828d90b61>@@@Z 10043d3b f i libucrt:per_thread_data.obj
 0001:00042d6d       ??$__acrt_lock_and_call@V<lambda_be2b3da3f62db62e9dad5dc70221a656>@@@@YAXW4__acrt_lock_id@@$$QAV<lambda_be2b3da3f62db62e9dad5dc70221a656>@@@Z 10043d6d f i libucrt:per_thread_data.obj
 0001:00042d9f       ??$__acrt_lock_and_call@V<lambda_e69574bed617af4e071282c136b37893>@@@@YAXW4__acrt_lock_id@@$$QAV<lambda_e69574bed617af4e071282c136b37893>@@@Z 10043d9f f i libucrt:per_thread_data.obj
 0001:00042ed8       ??0?$__crt_unique_heap_ptr@U__acrt_ptd@@U__crt_internal_free_policy@@@@QAE@QAU__acrt_ptd@@@Z 10043ed8 f i libucrt:per_thread_data.obj
 0001:00042eec       ??0__crt_scoped_get_last_error_reset@@QAE@XZ 10043eec f i libucrt:per_thread_data.obj
 0001:00042f01       ??1?$__crt_unique_heap_ptr@U__acrt_ptd@@U__crt_internal_free_policy@@@@QAE@XZ 10043f01 f i libucrt:per_thread_data.obj
 0001:00042f17       ??1__crt_scoped_get_last_error_reset@@QAE@XZ 10043f17 f i libucrt:per_thread_data.obj
 0001:00042f22       ??B?$__crt_unique_heap_ptr@U__acrt_ptd@@U__crt_internal_free_policy@@@@QBE_NXZ 10043f22 f i libucrt:per_thread_data.obj
 0001:00043098       ?dangerous_get_state_array@?$dual_state_global@PAU__crt_locale_data@@@__crt_state_management@@QAEPAPAU__crt_locale_data@@XZ 10044098 f i libucrt:per_thread_data.obj
 0001:0004319c       ?detach@?$__crt_unique_heap_ptr@U__acrt_ptd@@U__crt_internal_free_policy@@@@QAEPAU__acrt_ptd@@XZ 1004419c f i libucrt:per_thread_data.obj
 0001:000431a2       ?get@?$__crt_unique_heap_ptr@U__acrt_ptd@@U__crt_internal_free_policy@@@@QBEPAU__acrt_ptd@@XZ 100441a2 f i libucrt:per_thread_data.obj
 0001:000432b1       ?is_valid@?$__crt_unique_heap_ptr@U__acrt_ptd@@U__crt_internal_free_policy@@@@QBE_NXZ 100442b1 f i libucrt:per_thread_data.obj
 0001:000432bb       ?release@?$__crt_unique_heap_ptr@U__acrt_ptd@@U__crt_internal_free_policy@@@@QAEXXZ 100442bb f i libucrt:per_thread_data.obj
 0001:00043347       ?value@?$dual_state_global@PAU__crt_locale_data@@@__crt_state_management@@QAEAAPAU__crt_locale_data@@XZ 10044347 f i libucrt:per_thread_data.obj
 0001:0004334a       ___acrt_freeptd            1004434a f   libucrt:per_thread_data.obj
 0001:00043381       ___acrt_getptd             10044381 f   libucrt:per_thread_data.obj
 0001:00043426       ___acrt_getptd_noexit      10044426 f   libucrt:per_thread_data.obj
 0001:000434cc       ___acrt_initialize_ptd     100444cc f   libucrt:per_thread_data.obj
 0001:00043503       ___acrt_uninitialize_ptd   10044503 f   libucrt:per_thread_data.obj
 0001:00043523       ___threadhandle            10044523 f   libucrt:per_thread_data.obj
 0001:00043529       ___threadid                10044529 f   libucrt:per_thread_data.obj
 0001:0004352f       ___acrt_update_locale_info 1004452f f   libucrt:locale_update.obj
 0001:00043567       ___acrt_update_multibyte_info 10044567 f   libucrt:locale_update.obj
 0001:0004359f       ?__acrt_fp_classify@@YA?AW4__acrt_fp_class@@ABN@Z 1004459f f i libucrt:cvt.obj
 0001:00043626       ?__acrt_fp_is_negative@@YA_NABN@Z 10044626 f i libucrt:cvt.obj
 0001:00044099       ?strrchr@@YAPADQADH@Z      10045099 f i libucrt:cvt.obj
 0001:000440a6       ___acrt_fp_format          100450a6 f   libucrt:cvt.obj
 0001:00044280       __fputwc_nolock            10045280 f   libucrt:fputwc.obj
 0001:000443ef       __fputwchar                100453ef f   libucrt:fputwc.obj
 0001:0004440f       __putwc_nolock             1004540f f   libucrt:fputwc.obj
 0001:0004441c       _fputwc                    1004541c f   libucrt:fputwc.obj
 0001:000444b5       _putwc                     100454b5 f   libucrt:fputwc.obj
 0001:000444c2       _putwchar                  100454c2 f   libucrt:fputwc.obj
 0001:000444cf       ?lowio_handle@__crt_stdio_stream@@QBEHXZ 100454cf f i libucrt:fileno.obj
 0001:000444d5       __fileno                   100454d5 f   libucrt:fileno.obj
 0001:00044504       __fputc_nolock             10045504 f   libucrt:fputc.obj
 0001:00044537       __fputchar                 10045537 f   libucrt:fputc.obj
 0001:00044557       __putc_nolock              10045557 f   libucrt:fputc.obj
 0001:00044564       _fputc                     10045564 f   libucrt:fputc.obj
 0001:000446a9       _putc                      100456a9 f   libucrt:fputc.obj
 0001:000446b6       _putchar                   100456b6 f   libucrt:fputc.obj
 0001:000446c3       __get_printf_count_output  100456c3 f   libucrt:printf_count_output.obj
 0001:000446dd       __set_printf_count_output  100456dd f   libucrt:printf_count_output.obj
 0001:00044711       ?has_temporary_buffer@__crt_stdio_stream@@QBE_NXZ 10045711 f i libucrt:_sftbuf.obj
 0001:00044720       ___acrt_stdio_begin_temporary_buffering_nolock 10045720 f   libucrt:_sftbuf.obj
 0001:00044802       ___acrt_stdio_end_temporary_buffering_nolock 10045802 f   libucrt:_sftbuf.obj
 0001:0004484c       ??$?RU__crt_locale_data@@@__crt_internal_free_policy@@QBEXQBU__crt_locale_data@@@Z 1004584c f i libucrt:wsetlocale.obj
 0001:00044862       ??$?RU__crt_locale_pointers@@@__crt_internal_free_policy@@QBEXQBU__crt_locale_pointers@@@Z 10045862 f i libucrt:wsetlocale.obj
 0001:00044878       ??$?RU__crt_multibyte_data@@@__crt_internal_free_policy@@QBEXQBU__crt_multibyte_data@@@Z 10045878 f i libucrt:wsetlocale.obj
 0001:0004488e       ??$?RV<lambda_70818de7b02deff9841e8b0962a60ed9>@@AAV<lambda_2af78c5f5901b1372d98f9ab3177dfa6>@@AAV<lambda_f51fe5fd7c79a33db34fc9310f277369>@@@?$__crt_seh_guarded_call@X@@QAEX$$QAV<lambda_70818de7b02deff9841e8b0962a60ed9>@@AAV<lambda_2af78c5f5901b1372d98f9ab3177dfa6>@@AAV<lambda_f51fe5fd7c79a33db34fc9310f277369>@@@Z 1004588e f i libucrt:wsetlocale.obj
 0001:000448d7       ??$?RV<lambda_76aaead6e312921abc834cb00a638bdd>@@AAV<lambda_176e34f99554166dd2fac165c457248c>@@V<lambda_998ee1c9f4290b119b936bcd6215875a>@@@?$__crt_seh_guarded_call@X@@QAEX$$QAV<lambda_76aaead6e312921abc834cb00a638bdd>@@AAV<lambda_176e34f99554166dd2fac165c457248c>@@$$QAV<lambda_998ee1c9f4290b119b936bcd6215875a>@@@Z 100458d7 f i libucrt:wsetlocale.obj
 0001:00044933       ??$?RV<lambda_c76fdea48760d5f9368b465f31df4405>@@AAV<lambda_e378711a6f6581bf7f0efd7cdf97f5d9>@@V<lambda_e927a58b2a85c081d733e8c6192ae2d2>@@@?$__crt_seh_guarded_call@X@@QAEX$$QAV<lambda_c76fdea48760d5f9368b465f31df4405>@@AAV<lambda_e378711a6f6581bf7f0efd7cdf97f5d9>@@$$QAV<lambda_e927a58b2a85c081d733e8c6192ae2d2>@@@Z 10045933 f i libucrt:wsetlocale.obj
 0001:00044986       ??$?RV<lambda_c9469061b39d205f0f236529d4a41659>@@AAV<lambda_b7fb1a997d3ebc0cc0186c5835178808>@@V<lambda_14b92c79d699846b5cc916cd4cf280e4>@@@?$__crt_seh_guarded_call@X@@QAEX$$QAV<lambda_c9469061b39d205f0f236529d4a41659>@@AAV<lambda_b7fb1a997d3ebc0cc0186c5835178808>@@$$QAV<lambda_14b92c79d699846b5cc916cd4cf280e4>@@@Z 10045986 f i libucrt:wsetlocale.obj
 0001:000449e0       ??$__acrt_lock_and_call@V<lambda_176e34f99554166dd2fac165c457248c>@@@@YAXW4__acrt_lock_id@@$$QAV<lambda_176e34f99554166dd2fac165c457248c>@@@Z 100459e0 f i libucrt:wsetlocale.obj
 0001:00044a12       ??$__acrt_lock_and_call@V<lambda_b7fb1a997d3ebc0cc0186c5835178808>@@@@YAXW4__acrt_lock_id@@$$QAV<lambda_b7fb1a997d3ebc0cc0186c5835178808>@@@Z 10045a12 f i libucrt:wsetlocale.obj
 0001:00044a44       ??$__acrt_lock_and_call@V<lambda_e378711a6f6581bf7f0efd7cdf97f5d9>@@@@YAXW4__acrt_lock_id@@$$QAV<lambda_e378711a6f6581bf7f0efd7cdf97f5d9>@@@Z 10045a44 f i libucrt:wsetlocale.obj
 0001:00044a76       ??$__crt_call_and_cleanup@V<lambda_2af78c5f5901b1372d98f9ab3177dfa6>@@V<lambda_f51fe5fd7c79a33db34fc9310f277369>@@@@YAX$$QAV<lambda_2af78c5f5901b1372d98f9ab3177dfa6>@@$$QAV<lambda_f51fe5fd7c79a33db34fc9310f277369>@@@Z 10045a76 f i libucrt:wsetlocale.obj
 0001:00044a99       ??$__vcrt_va_start_verify_argument_type@H@@YAXXZ 10045a99 f i libucrt:wsetlocale.obj
 0001:00044bbe       ??0?$__crt_unique_heap_ptr@U__crt_locale_data@@U__crt_internal_free_policy@@@@QAE@QAU__crt_locale_data@@@Z 10045bbe f i libucrt:wsetlocale.obj
 0001:00044bd2       ??0?$__crt_unique_heap_ptr@U__crt_locale_pointers@@U__crt_internal_free_policy@@@@QAE@QAU__crt_locale_pointers@@@Z 10045bd2 f i libucrt:wsetlocale.obj
 0001:00044be6       ??0?$__crt_unique_heap_ptr@U__crt_multibyte_data@@U__crt_internal_free_policy@@@@QAE@QAU__crt_multibyte_data@@@Z 10045be6 f i libucrt:wsetlocale.obj
 0001:00044bfa       ??1?$__crt_unique_heap_ptr@U__crt_locale_data@@U__crt_internal_free_policy@@@@QAE@XZ 10045bfa f i libucrt:wsetlocale.obj
 0001:00044c10       ??1?$__crt_unique_heap_ptr@U__crt_locale_pointers@@U__crt_internal_free_policy@@@@QAE@XZ 10045c10 f i libucrt:wsetlocale.obj
 0001:00044c26       ??1?$__crt_unique_heap_ptr@U__crt_multibyte_data@@U__crt_internal_free_policy@@@@QAE@XZ 10045c26 f i libucrt:wsetlocale.obj
 0001:00044c3c       ??B?$__crt_unique_heap_ptr@U__crt_locale_data@@U__crt_internal_free_policy@@@@QBE_NXZ 10045c3c f i libucrt:wsetlocale.obj
 0001:00044c46       ??B?$__crt_unique_heap_ptr@U__crt_locale_pointers@@U__crt_internal_free_policy@@@@QBE_NXZ 10045c46 f i libucrt:wsetlocale.obj
 0001:00044c50       ??B?$__crt_unique_heap_ptr@U__crt_multibyte_data@@U__crt_internal_free_policy@@@@QBE_NXZ 10045c50 f i libucrt:wsetlocale.obj
 0001:00044e79       ?detach@?$__crt_unique_heap_ptr@U__crt_locale_data@@U__crt_internal_free_policy@@@@QAEPAU__crt_locale_data@@XZ 10045e79 f i libucrt:wsetlocale.obj
 0001:00044e7f       ?detach@?$__crt_unique_heap_ptr@U__crt_locale_pointers@@U__crt_internal_free_policy@@@@QAEPAU__crt_locale_pointers@@XZ 10045e7f f i libucrt:wsetlocale.obj
 0001:00044e85       ?detach@?$__crt_unique_heap_ptr@U__crt_multibyte_data@@U__crt_internal_free_policy@@@@QAEPAU__crt_multibyte_data@@XZ 10045e85 f i libucrt:wsetlocale.obj
 0001:00044e8b       ?get@?$__crt_unique_heap_ptr@U__crt_locale_data@@U__crt_internal_free_policy@@@@QBEPAU__crt_locale_data@@XZ 10045e8b f i libucrt:wsetlocale.obj
 0001:00044e8e       ?get@?$__crt_unique_heap_ptr@U__crt_locale_pointers@@U__crt_internal_free_policy@@@@QBEPAU__crt_locale_pointers@@XZ 10045e8e f i libucrt:wsetlocale.obj
 0001:00044e91       ?get@?$__crt_unique_heap_ptr@U__crt_multibyte_data@@U__crt_internal_free_policy@@@@QBEPAU__crt_multibyte_data@@XZ 10045e91 f i libucrt:wsetlocale.obj
 0001:00044e94       ?is_valid@?$__crt_unique_heap_ptr@U__crt_locale_data@@U__crt_internal_free_policy@@@@QBE_NXZ 10045e94 f i libucrt:wsetlocale.obj
 0001:00044e9e       ?is_valid@?$__crt_unique_heap_ptr@U__crt_locale_pointers@@U__crt_internal_free_policy@@@@QBE_NXZ 10045e9e f i libucrt:wsetlocale.obj
 0001:00044ea8       ?is_valid@?$__crt_unique_heap_ptr@U__crt_multibyte_data@@U__crt_internal_free_policy@@@@QBE_NXZ 10045ea8 f i libucrt:wsetlocale.obj
 0001:00044eb2       ?release@?$__crt_unique_heap_ptr@U__crt_locale_data@@U__crt_internal_free_policy@@@@QAEXXZ 10045eb2 f i libucrt:wsetlocale.obj
 0001:00044ec8       ?release@?$__crt_unique_heap_ptr@U__crt_locale_pointers@@U__crt_internal_free_policy@@@@QAEXXZ 10045ec8 f i libucrt:wsetlocale.obj
 0001:00044ede       ?release@?$__crt_unique_heap_ptr@U__crt_multibyte_data@@U__crt_internal_free_policy@@@@QAEXXZ 10045ede f i libucrt:wsetlocale.obj
 0001:00044ef4       ___acrt_copy_locale_name   10045ef4 f   libucrt:wsetlocale.obj
 0001:00044f73       ___acrt_set_locale_changed 10045f73 f   libucrt:wsetlocale.obj
 0001:00044f80       ___acrt_uninitialize_locale 10045f80 f   libucrt:wsetlocale.obj
 0001:00044fe6       ___lc_lctowcs              10045fe6 f   libucrt:wsetlocale.obj
 0001:00045072       ___lc_wcstolc              10046072 f   libucrt:wsetlocale.obj
 0001:000451ec       __configthreadlocale       100461ec f   libucrt:wsetlocale.obj
 0001:000452a0       __create_locale            100462a0 f   libucrt:wsetlocale.obj
 0001:0004531d       __expandlocale             1004631d f   libucrt:wsetlocale.obj
 0001:00045771       __free_locale              10046771 f   libucrt:wsetlocale.obj
 0001:00045857       __get_current_locale       10046857 f   libucrt:wsetlocale.obj
 0001:000458f0       __wcreate_locale           100468f0 f   libucrt:wsetlocale.obj
 0001:00045a3b       __wcscats                  10046a3b f   libucrt:wsetlocale.obj
 0001:00045a8c       __wsetlocale               10046a8c f   libucrt:wsetlocale.obj
 0001:000465b2       ___p___mb_cur_max          100475b2 f   libucrt:nlsdata.obj
 0001:000466a9       ___acrt_report_runtime_error 100476a9 f   libucrt:report_runtime_error.obj
 0001:0004680f       __query_app_type           1004780f f   libucrt:report_runtime_error.obj
 0001:00046815       __set_app_type             10047815 f   libucrt:report_runtime_error.obj
 0001:00046d01       __i64toa                   10047d01 f   libucrt:xtoa.obj
 0001:00046d54       __i64toa_s                 10047d54 f   libucrt:xtoa.obj
 0001:00046da5       __i64tow                   10047da5 f   libucrt:xtoa.obj
 0001:00046df8       __i64tow_s                 10047df8 f   libucrt:xtoa.obj
 0001:00046e49       __itoa                     10047e49 f   libucrt:xtoa.obj
 0001:00046e8d       __itoa_s                   10047e8d f   libucrt:xtoa.obj
 0001:00046ecf       __itow                     10047ecf f   libucrt:xtoa.obj
 0001:00046f13       __itow_s                   10047f13 f   libucrt:xtoa.obj
 0001:00046f55       __ltoa                     10047f55 f   libucrt:xtoa.obj
 0001:00046f99       __ltoa_s                   10047f99 f   libucrt:xtoa.obj
 0001:00046fdb       __ltow                     10047fdb f   libucrt:xtoa.obj
 0001:0004701f       __ltow_s                   1004801f f   libucrt:xtoa.obj
 0001:00047061       __ui64toa                  10048061 f   libucrt:xtoa.obj
 0001:0004708b       __ui64toa_s                1004808b f   libucrt:xtoa.obj
 0001:000470b3       __ui64tow                  100480b3 f   libucrt:xtoa.obj
 0001:000470dd       __ui64tow_s                100480dd f   libucrt:xtoa.obj
 0001:00047105       __ultoa                    10048105 f   libucrt:xtoa.obj
 0001:0004712b       __ultoa_s                  1004812b f   libucrt:xtoa.obj
 0001:0004714f       __ultow                    1004814f f   libucrt:xtoa.obj
 0001:00047175       __ultow_s                  10048175 f   libucrt:xtoa.obj
 0001:00047199       __set_error_mode           10048199 f   libucrt:set_error_mode.obj
 0001:00047275       _wcscat_s                  10048275 f   libucrt:wcscat_s.obj
 0001:0004737f       _wcscpy_s                  1004837f f   libucrt:wcscpy_s.obj
 0001:0004751f       _wcsncat_s                 1004851f f   libucrt:wcsncat_s.obj
 0001:000475af       _strcat_s                  100485af f   libucrt:strcat_s.obj
 0001:00047736       _strncat_s                 10048736 f   libucrt:strncat_s.obj
 0001:00047961       ??$message_box@$$TAAPBDAAPBDAAI@?$__crt_char_traits@D@@SAH$$QA$$TAAPBD1AAI@Z 10048961 f i libucrt:crtmbox.obj
 0001:00047989       ??$message_box@$$TAAPB_WAAPB_WAAI@?$__crt_char_traits@_W@@SAH$$QA$$TAAPB_W1AAI@Z 10048989 f i libucrt:crtmbox.obj
 0001:000479b1       ??$message_box@$$TABQBDABQBDK@?$__crt_char_traits@D@@SAH$$QA$$TABQBD1$$QAK@Z 100489b1 f i libucrt:crtmbox.obj
 0001:000479d9       ??$message_box@$$TABQB_WABQB_WK@?$__crt_char_traits@_W@@SAH$$QA$$TABQB_W1$$QAK@Z 100489d9 f i libucrt:crtmbox.obj
 0001:00047a01       ??$message_box@PAUHWND__@@ABQBDABQBDABI@?$__crt_char_traits@D@@SAH$$QAPAUHWND__@@ABQBD1ABI@Z 10048a01 f i libucrt:crtmbox.obj
 0001:00047a29       ??$message_box@PAUHWND__@@ABQB_WABQB_WABI@?$__crt_char_traits@_W@@SAH$$QAPAUHWND__@@ABQB_W1ABI@Z 10048a29 f i libucrt:crtmbox.obj
 0001:00047aa5       ??$output_debug_string@ABQBD@?$__crt_char_traits@D@@SAXABQBD@Z 10048aa5 f i libucrt:crtmbox.obj
 0001:00047abb       ??$output_debug_string@ABQB_W@?$__crt_char_traits@_W@@SAXABQB_W@Z 10048abb f i libucrt:crtmbox.obj
 0001:00047ad1       ??0?$__crt_unique_handle_t@U__crt_handle_traits@@@@QAE@QAX@Z 10048ad1 f i libucrt:crtmbox.obj
 0001:00047ae5       ??1?$__crt_unique_handle_t@U__crt_handle_traits@@@@QAE@XZ 10048ae5 f i libucrt:crtmbox.obj
 0001:00047b01       ??B?$__crt_unique_handle_t@U__crt_handle_traits@@@@QBE_NXZ 10048b01 f i libucrt:crtmbox.obj
 0001:00047b0c       ?close@?$__crt_unique_handle_t@U__crt_handle_traits@@@@QAEXXZ 10048b0c f i libucrt:crtmbox.obj
 0001:00047b28       ?close@__crt_handle_traits@@SA_NPAX@Z 10048b28 f i libucrt:crtmbox.obj
 0001:00047b43       ?get@?$__crt_unique_handle_t@U__crt_handle_traits@@@@QBEPAXXZ 10048b43 f i libucrt:crtmbox.obj
 0001:00047b46       ?get_invalid_value@__crt_handle_traits@@SAPAXXZ 10048b46 f i libucrt:crtmbox.obj
 0001:00047b4a       ?is_valid@?$__crt_unique_handle_t@U__crt_handle_traits@@@@QBE_NXZ 10048b4a f i libucrt:crtmbox.obj
 0001:00047b55       ___acrt_show_narrow_message_box 10048b55 f   libucrt:crtmbox.obj
 0001:00047b62       ___acrt_show_wide_message_box 10048b62 f   libucrt:crtmbox.obj
 0001:00047b6f       ??$?RV<lambda_d92cfe8357b99225085016881b624cb0>@@AAV<lambda_b721fa326cdb32351d23dfa67958c160>@@V<lambda_42d75b0848218ec137fa420c8ba9fdf9>@@@?$__crt_seh_guarded_call@H@@QAEH$$QAV<lambda_d92cfe8357b99225085016881b624cb0>@@AAV<lambda_b721fa326cdb32351d23dfa67958c160>@@$$QAV<lambda_42d75b0848218ec137fa420c8ba9fdf9>@@@Z 10048b6f f i libucrt:setvbuf.obj
 0001:00047bd4       ??$__acrt_lock_stream_and_call@V<lambda_b721fa326cdb32351d23dfa67958c160>@@@@YAHQAU_iobuf@@$$QAV<lambda_b721fa326cdb32351d23dfa67958c160>@@@Z 10048bd4 f i libucrt:setvbuf.obj
 0001:00047d71       _setvbuf                   10048d71 f   libucrt:setvbuf.obj
 0001:00047e04       ??$?B$$A6AXH@Z@__crt_fast_encoded_nullptr_t@@QBEP6AXH@ZXZ 10048e04 f i libucrt:signal.obj
 0001:00047e22       ??$?RV<lambda_a048d3beccc847880fc8490e18b82769>@@AAV<lambda_ec61778202f4f5fc7e7711acc23c3bca>@@V<lambda_f7496a158712204296dd6628a163878e>@@@?$__crt_seh_guarded_call@P6AXH@Z@@QAEP6AXH@Z$$QAV<lambda_a048d3beccc847880fc8490e18b82769>@@AAV<lambda_ec61778202f4f5fc7e7711acc23c3bca>@@$$QAV<lambda_f7496a158712204296dd6628a163878e>@@@Z 10048e22 f i libucrt:signal.obj
 0001:00047e92       ??$__acrt_lock_and_call@V<lambda_ec61778202f4f5fc7e7711acc23c3bca>@@@@YAP6AXH@ZW4__acrt_lock_id@@$$QAV<lambda_ec61778202f4f5fc7e7711acc23c3bca>@@@Z 10048e92 f i libucrt:signal.obj
 0001:00047ec4       ??$__crt_fast_decode_pointer@P6AXH@Z@@YAP6AXH@ZQ6AXH@Z@Z 10048ec4 f i libucrt:signal.obj
 0001:00047edf       ??$__crt_fast_encode_pointer@P6AXH@Z@@YAP6AXH@ZQ6AXH@Z@Z 10048edf f i libucrt:signal.obj
 0001:00048089       ?initialize@?$dual_state_global@P6AXH@Z@__crt_state_management@@QAEXQ6AXH@Z@Z 10049089 f i libucrt:signal.obj
 0001:00048135       ?value@?$dual_state_global@P6AXH@Z@__crt_state_management@@QAEAAP6AXH@ZXZ 10049135 f i libucrt:signal.obj
 0001:00048138       ___acrt_get_sigabrt_handler 10049138 f   libucrt:signal.obj
 0001:00048154       ___acrt_initialize_signal_handlers 10049154 f   libucrt:signal.obj
 0001:0004819d       ___fpecode                 1004919d f   libucrt:signal.obj
 0001:000481a8       ___pxcptinfoptrs           100491a8 f   libucrt:signal.obj
 0001:000481b3       _raise                     100491b3 f   libucrt:signal.obj
 0001:0004843d       _signal                    1004943d f   libucrt:signal.obj
 0001:0004865b       __realloc_base             1004965b f   libucrt:realloc_base.obj
 0001:000486de       ___acrt_initialize_locks   100496de f   libucrt:locks.obj
 0001:0004872f       ___acrt_lock               1004972f f   libucrt:locks.obj
 0001:0004874b       ___acrt_uninitialize_locks 1004974b f   libucrt:locks.obj
 0001:00048788       ___acrt_unlock             10049788 f   libucrt:locks.obj
 0001:000487a4       __lock_locales             100497a4 f   libucrt:locks.obj
 0001:000487af       __unlock_locales           100497af f   libucrt:locks.obj
 0001:000487ba       ??$?RV<lambda_123407a5e2ac06da108355a851863b7a>@@AAV<lambda_2fe9b910cf3cbf4a0ab98a02ba45b3ec>@@V<lambda_ae55bdf541ad94d75914d381c370e64d>@@@?$__crt_seh_guarded_call@H@@QAEH$$QAV<lambda_123407a5e2ac06da108355a851863b7a>@@AAV<lambda_2fe9b910cf3cbf4a0ab98a02ba45b3ec>@@$$QAV<lambda_ae55bdf541ad94d75914d381c370e64d>@@@Z 100497ba f i libucrt:close.obj
 0001:0004885c       ??$__acrt_lowio_lock_fh_and_call@V<lambda_2fe9b910cf3cbf4a0ab98a02ba45b3ec>@@@@YAHH$$QAV<lambda_2fe9b910cf3cbf4a0ab98a02ba45b3ec>@@@Z 1004985c f i libucrt:close.obj
 0001:000489af       __close                    100499af f   libucrt:close.obj
 0001:00048a4d       __close_nolock             10049a4d f   libucrt:close.obj
 0001:00048b10       ??$?RU__crt_stdio_stream_data@@@__crt_internal_free_policy@@QBEXQBU__crt_stdio_stream_data@@@Z 10049b10 f i libucrt:stream.obj
 0001:00048b26       ??0?$__crt_unique_heap_ptr@U__crt_stdio_stream_data@@U__crt_internal_free_policy@@@@QAE@QAU__crt_stdio_stream_data@@@Z 10049b26 f i libucrt:stream.obj
 0001:00048b3a       ??0__crt_stdio_stream@@QAE@XZ 10049b3a f i libucrt:stream.obj
 0001:00048b40       ??1?$__crt_unique_heap_ptr@U__crt_stdio_stream_data@@U__crt_internal_free_policy@@@@QAE@XZ 10049b40 f i libucrt:stream.obj
 0001:00048b56       ?__acrt_stdio_allocate_stream@@YA?AV__crt_stdio_stream@@XZ 10049b56 f   libucrt:stream.obj
 0001:00048bcc       ?__acrt_stdio_free_stream@@YAXV__crt_stdio_stream@@@Z 10049bcc f   libucrt:stream.obj
 0001:00048c15       ?deallocate@__crt_stdio_stream@@QAEXXZ 10049c15 f i libucrt:stream.obj
 0001:00048c21       ?detach@?$__crt_unique_heap_ptr@U__crt_stdio_stream_data@@U__crt_internal_free_policy@@@@QAEPAU__crt_stdio_stream_data@@XZ 10049c21 f i libucrt:stream.obj
 0001:00048d1a       ?lock@__crt_stdio_stream@@QBEXXZ 10049d1a f i libucrt:stream.obj
 0001:00048d25       ?release@?$__crt_unique_heap_ptr@U__crt_stdio_stream_data@@U__crt_internal_free_policy@@@@QAEXXZ 10049d25 f i libucrt:stream.obj
 0001:00048d3b       ?try_allocate@__crt_stdio_stream@@QAE_NXZ 10049d3b f i libucrt:stream.obj
 0001:00048d64       ??$__acrt_stdio_parse_mode@D@@YA?AU__acrt_stdio_stream_mode@@QBD@Z 10049d64 f i libucrt:openfile.obj
 0001:00049022       ??$__acrt_stdio_parse_mode@_W@@YA?AU__acrt_stdio_stream_mode@@QB_W@Z 1004a022 f i libucrt:openfile.obj
 0001:00049443       ??$tcsncmp@AAPBDAAY02$$CBDI@?$__crt_char_traits@D@@SAHAAPBDAAY02$$CBD$$QAI@Z 1004a443 f i libucrt:openfile.obj
 0001:00049466       ??$tcsncmp@AAPB_WAAY02$$CB_WI@?$__crt_char_traits@_W@@SAHAAPB_WAAY02$$CB_W$$QAI@Z 1004a466 f i libucrt:openfile.obj
 0001:00049489       ??$tcsnicmp@AAPBDAAY04$$CBDI@?$__crt_char_traits@D@@SAHAAPBDAAY04$$CBD$$QAI@Z 1004a489 f i libucrt:openfile.obj
 0001:000494ac       ??$tcsnicmp@AAPBDAAY06$$CBDI@?$__crt_char_traits@D@@SAHAAPBDAAY06$$CBD$$QAI@Z 1004a4ac f i libucrt:openfile.obj
 0001:000494cf       ??$tcsnicmp@AAPBDAAY07$$CBDI@?$__crt_char_traits@D@@SAHAAPBDAAY07$$CBD$$QAI@Z 1004a4cf f i libucrt:openfile.obj
 0001:000494f2       ??$tcsnicmp@AAPB_WAAY04$$CB_WI@?$__crt_char_traits@_W@@SAHAAPB_WAAY04$$CB_W$$QAI@Z 1004a4f2 f i libucrt:openfile.obj
 0001:00049515       ??$tcsnicmp@AAPB_WAAY06$$CB_WI@?$__crt_char_traits@_W@@SAHAAPB_WAAY06$$CB_W$$QAI@Z 1004a515 f i libucrt:openfile.obj
 0001:00049538       ??$tcsnicmp@AAPB_WAAY07$$CB_WI@?$__crt_char_traits@_W@@SAHAAPB_WAAY07$$CB_W$$QAI@Z 1004a538 f i libucrt:openfile.obj
 0001:0004955b       ??$tsopen_s@PAHABQBDABHABHH@?$__crt_char_traits@D@@SAH$$QAPAHABQBDABH2$$QAH@Z 1004a55b f i libucrt:openfile.obj
 0001:0004958d       ??$tsopen_s@PAHABQB_WABHABHH@?$__crt_char_traits@_W@@SAH$$QAPAHABQB_WABH2$$QAH@Z 1004a58d f i libucrt:openfile.obj
 0001:000495bf       ?__acrt_stdio_parse_mode_D@@YA_NAAU__acrt_stdio_stream_mode@@@Z 1004a5bf f i libucrt:openfile.obj
 0001:000495e0       ?__acrt_stdio_parse_mode_N@@YA_NAAU__acrt_stdio_stream_mode@@@Z 1004a5e0 f i libucrt:openfile.obj
 0001:000495f6       ?__acrt_stdio_parse_mode_R@@YA_NAAU__acrt_stdio_stream_mode@@AA_N@Z 1004a5f6 f i libucrt:openfile.obj
 0001:0004961b       ?__acrt_stdio_parse_mode_S@@YA_NAAU__acrt_stdio_stream_mode@@AA_N@Z 1004a61b f i libucrt:openfile.obj
 0001:00049640       ?__acrt_stdio_parse_mode_T@@YA_NAAU__acrt_stdio_stream_mode@@@Z 1004a640 f i libucrt:openfile.obj
 0001:00049666       ?__acrt_stdio_parse_mode_b@@YA_NAAU__acrt_stdio_stream_mode@@@Z 1004a666 f i libucrt:openfile.obj
 0001:0004968e       ?__acrt_stdio_parse_mode_c@@YA_NAAU__acrt_stdio_stream_mode@@AA_N@Z 1004a68e f i libucrt:openfile.obj
 0001:000496b8       ?__acrt_stdio_parse_mode_n@@YA_NAAU__acrt_stdio_stream_mode@@AA_N@Z 1004a6b8 f i libucrt:openfile.obj
 0001:000496e2       ?__acrt_stdio_parse_mode_plus@@YA_NAAU__acrt_stdio_stream_mode@@AA_N@Z 1004a6e2 f i libucrt:openfile.obj
 0001:00049724       ?__acrt_stdio_parse_mode_t@@YA_NAAU__acrt_stdio_stream_mode@@@Z 1004a724 f i libucrt:openfile.obj
 0001:0004974c       __openfile                 1004a74c f   libucrt:openfile.obj
 0001:00049759       __wopenfile                1004a759 f   libucrt:openfile.obj
 0001:00049dfe       __read                     1004adfe f   libucrt:read.obj
 0001:00049f55       __read_nolock              1004af55 f   libucrt:read.obj
 0001:0004a8ed       ___acrt_stdio_refill_and_read_narrow_nolock 1004b8ed f   libucrt:_filbuf.obj
 0001:0004a8fa       ___acrt_stdio_refill_and_read_wide_nolock 1004b8fa f   libucrt:_filbuf.obj
 0001:0004b059       __write                    1004c059 f   libucrt:write.obj
 0001:0004b17e       __write_nolock             1004c17e f   libucrt:write.obj
 0001:0004b8c4       ___acrt_stdio_flush_and_write_narrow_nolock 1004c8c4 f   libucrt:_flsbuf.obj
 0001:0004b8d1       ___acrt_stdio_flush_and_write_wide_nolock 1004c8d1 f   libucrt:_flsbuf.obj
 0001:0004b8de       ___acrt_copy_path_to_wide_string 1004c8de f   libucrt:string_utilities.obj
 0001:0004b9d6       ___acrt_copy_to_char       1004c9d6 f   libucrt:string_utilities.obj
 0001:0004bac1       __wremove                  1004cac1 f   libucrt:wunlink.obj
 0001:0004baf3       __wunlink                  1004caf3 f   libucrt:wunlink.obj
 0001:0004bf67       __lseek                    1004cf67 f   libucrt:lseek.obj
 0001:0004bf74       __lseek_nolock             1004cf74 f   libucrt:lseek.obj
 0001:0004bf81       __lseeki64                 1004cf81 f   libucrt:lseek.obj
 0001:0004bfa2       __lseeki64_nolock          1004cfa2 f   libucrt:lseek.obj
 0001:0004bfc3       __chgsign                  1004cfc3 f   libucrt:ieeemisc.obj
 0001:0004bffd       __chgsignf                 1004cffd f   libucrt:ieeemisc.obj
 0001:0004c028       __copysign                 1004d028 f   libucrt:ieeemisc.obj
 0001:0004c05c       __copysignf                1004d05c f   libucrt:ieeemisc.obj
 0001:0004c081       __finite                   1004d081 f   libucrt:ieeemisc.obj
 0001:0004c0a1       __fpclass                  1004d0a1 f   libucrt:ieeemisc.obj
 0001:0004c16e       __isnan                    1004d16e f   libucrt:ieeemisc.obj
 0001:0004c1b1       __logb                     1004d1b1 f   libucrt:ieeemisc.obj
 0001:0004c2b6       __nextafter                1004d2b6 f   libucrt:ieeemisc.obj
 0001:0004c2dc       __scalb                    1004d2dc f   libucrt:ieeemisc.obj
 0001:0004c2fc       __add_exp                  1004d2fc f   libucrt:util.obj
 0001:0004c336       __decomp                   1004d336 f   libucrt:util.obj
 0001:0004c43f       __get_exp                  1004d43f f   libucrt:util.obj
 0001:0004c45e       __set_bexp                 1004d45e f   libucrt:util.obj
 0001:0004c491       __set_exp                  1004d491 f   libucrt:util.obj
 0001:0004c4cb       __sptype                   1004d4cb f   libucrt:util.obj
 0001:0004c540       ___clrfp_sse2              1004d540 f   libucrt:fpctrl.obj
 0001:0004c569       ___ctrlfp_sse2             1004d569 f   libucrt:fpctrl.obj
 0001:0004c5b2       ___fclrf_sse2              1004d5b2 f   libucrt:fpctrl.obj
 0001:0004c5d8       ___get_fpsr_sse2           1004d5d8 f   libucrt:fpctrl.obj
 0001:0004c5fd       ___set_fpsr_sse2           1004d5fd f   libucrt:fpctrl.obj
 0001:0004c690       ___set_statfp_sse2         1004d690 f   libucrt:fpctrl.obj
 0001:0004c6b1       ___statfp_sse2             1004d6b1 f   libucrt:fpctrl.obj
 0001:0004c6cb       __clrfp                    1004d6cb f   libucrt:fpctrl.obj
 0001:0004c6e2       __ctrlfp                   1004d6e2 f   libucrt:fpctrl.obj
 0001:0004c719       __set_statfp               1004d719 f   libucrt:fpctrl.obj
 0001:0004c78a       __statfp                   1004d78a f   libucrt:fpctrl.obj
 0001:0004c7a0       ??$__crt_fast_decode_pointer@P6AHPAU_exception@@@Z@@YAP6AHPAU_exception@@@ZQ6AH0@Z@Z 1004d7a0 f i libucrt:matherr.obj
 0001:0004c7bb       ??$__crt_fast_encode_pointer@P6AHPAU_exception@@@Z@@YAP6AHPAU_exception@@@ZQ6AH0@Z@Z 1004d7bb f i libucrt:matherr.obj
 0001:0004c7e1       ?initialize@?$dual_state_global@P6AHPAU_exception@@@Z@__crt_state_management@@QAEXQ6AHPAU_exception@@@Z@Z 1004d7e1 f i libucrt:matherr.obj
 0001:0004c81e       ?value@?$dual_state_global@P6AHPAU_exception@@@Z@__crt_state_management@@QAEAAP6AHPAU_exception@@@ZXZ 1004d81e f i libucrt:matherr.obj
 0001:0004c821       ___acrt_has_user_matherr   1004d821 f   libucrt:matherr.obj
 0001:0004c840       ___acrt_initialize_user_matherr 1004d840 f   libucrt:matherr.obj
 0001:0004c859       ___acrt_invoke_user_matherr 1004d859 f   libucrt:matherr.obj
 0001:0004c8b4       ___setusermatherr          1004d8b4 f   libucrt:matherr.obj
 0001:0004d2c6       ??$find_first_file_ex@ABQADW4_FINDEX_INFO_LEVELS@@PAU_WIN32_FIND_DATAA@@W4_FINDEX_SEARCH_OPS@@$$TH@?$__crt_char_traits@D@@SAPAXABQAD$$QAW4_FINDEX_INFO_LEVELS@@$$QAPAU_WIN32_FIND_DATAA@@$$QAW4_FINDEX_SEARCH_OPS@@$$QA$$T$$QAH@Z 1004e2c6 f i libucrt:argv_wildcards.obj
 0001:0004d2fb       ??$find_first_file_ex@ABQA_WW4_FINDEX_INFO_LEVELS@@PAU_WIN32_FIND_DATAW@@W4_FINDEX_SEARCH_OPS@@$$TH@?$__crt_char_traits@_W@@SAPAXABQA_W$$QAW4_FINDEX_INFO_LEVELS@@$$QAPAU_WIN32_FIND_DATAW@@$$QAW4_FINDEX_SEARCH_OPS@@$$QA$$T$$QAH@Z 1004e2fb f i libucrt:argv_wildcards.obj
 0001:0004d330       ??$find_next_file@PAXPAU_WIN32_FIND_DATAA@@@?$__crt_char_traits@D@@SAH$$QAPAX$$QAPAU_WIN32_FIND_DATAA@@@Z 1004e330 f i libucrt:argv_wildcards.obj
 0001:0004d34c       ??$find_next_file@PAXPAU_WIN32_FIND_DATAW@@@?$__crt_char_traits@_W@@SAH$$QAPAX$$QAPAU_WIN32_FIND_DATAW@@@Z 1004e34c f i libucrt:argv_wildcards.obj
 0001:0004d368       ??$tcsncpy_s@AAPADIAAPADABI@?$__crt_char_traits@D@@SAHAAPAD$$QAI0ABI@Z 1004e368 f i libucrt:argv_wildcards.obj
 0001:0004d393       ??$tcsncpy_s@AAPA_WIAAPA_WABI@?$__crt_char_traits@_W@@SAHAAPA_W$$QAI0ABI@Z 1004e393 f i libucrt:argv_wildcards.obj
 0001:0004d3be       ??$tcsncpy_s@PAD$$CBIABQBDABI@?$__crt_char_traits@D@@SAH$$QAPAD$$QBIABQBDABI@Z 1004e3be f i libucrt:argv_wildcards.obj
 0001:0004d3e9       ??$tcsncpy_s@PADABIABQBDABI@?$__crt_char_traits@D@@SAH$$QAPADABIABQBD1@Z 1004e3e9 f i libucrt:argv_wildcards.obj
 0001:0004d414       ??$tcsncpy_s@PA_W$$CBIABQB_WABI@?$__crt_char_traits@_W@@SAH$$QAPA_W$$QBIABQB_WABI@Z 1004e414 f i libucrt:argv_wildcards.obj
 0001:0004d43f       ??$tcsncpy_s@PA_WABIABQB_WABI@?$__crt_char_traits@_W@@SAH$$QAPA_WABIABQB_W1@Z 1004e43f f i libucrt:argv_wildcards.obj
 0001:0004d46a       ??$tcspbrk@AAPADAAY02$$CBD@?$__crt_char_traits@D@@SAPADAAPADAAY02$$CBD@Z 1004e46a f i libucrt:argv_wildcards.obj
 0001:0004d485       ??$tcspbrk@AAPA_WAAY02$$CB_W@?$__crt_char_traits@_W@@SAPA_WAAPA_WAAY02$$CB_W@Z 1004e485 f i libucrt:argv_wildcards.obj
 0001:0004d4a0       ??0?$__crt_unique_handle_t@U__crt_findfile_traits@@@@QAE@QAX@Z 1004e4a0 f i libucrt:argv_wildcards.obj
 0001:0004d4b4       ??0?$argument_list@D@?A0xb0e4b824@@QAE@XZ 1004e4b4 f i libucrt:argv_wildcards.obj
 0001:0004d4c4       ??0?$argument_list@_W@?A0xb0e4b824@@QAE@XZ 1004e4c4 f i libucrt:argv_wildcards.obj
 0001:0004d4d4       ??1?$__crt_unique_handle_t@U__crt_findfile_traits@@@@QAE@XZ 1004e4d4 f i libucrt:argv_wildcards.obj
 0001:0004d4f0       ??1?$argument_list@D@?A0xb0e4b824@@QAE@XZ 1004e4f0 f i libucrt:argv_wildcards.obj
 0001:0004d51e       ??1?$argument_list@_W@?A0xb0e4b824@@QAE@XZ 1004e51e f i libucrt:argv_wildcards.obj
 0001:0004d5ac       ?append@?$argument_list@D@?A0xb0e4b824@@QAEHQAD@Z 1004e5ac f i libucrt:argv_wildcards.obj
 0001:0004d5ee       ?append@?$argument_list@_W@?A0xb0e4b824@@QAEHQA_W@Z 1004e5ee f i libucrt:argv_wildcards.obj
 0001:0004d630       ?begin@?$argument_list@D@?A0xb0e4b824@@QBEPAPADXZ 1004e630 f i libucrt:argv_wildcards.obj
 0001:0004d633       ?begin@?$argument_list@_W@?A0xb0e4b824@@QBEPAPA_WXZ 1004e633 f i libucrt:argv_wildcards.obj
 0001:0004d636       ?close@?$__crt_unique_handle_t@U__crt_findfile_traits@@@@QAEXXZ 1004e636 f i libucrt:argv_wildcards.obj
 0001:0004d652       ?close@__crt_findfile_traits@@SA_NPAX@Z 1004e652 f i libucrt:argv_wildcards.obj
 0001:0004d66d       ?end@?$argument_list@D@?A0xb0e4b824@@QBEPAPADXZ 1004e66d f i libucrt:argv_wildcards.obj
 0001:0004d671       ?end@?$argument_list@_W@?A0xb0e4b824@@QBEPAPA_WXZ 1004e671 f i libucrt:argv_wildcards.obj
 0001:0004d675       ?expand_if_necessary@?$argument_list@D@?A0xb0e4b824@@AAEHXZ 1004e675 f i libucrt:argv_wildcards.obj
 0001:0004d71d       ?expand_if_necessary@?$argument_list@_W@?A0xb0e4b824@@AAEHXZ 1004e71d f i libucrt:argv_wildcards.obj
 0001:0004d7c5       ?get@?$__crt_unique_handle_t@U__crt_findfile_traits@@@@QBEPAXXZ 1004e7c5 f i libucrt:argv_wildcards.obj
 0001:0004d7c8       ?get_invalid_value@__crt_findfile_traits@@SAPAXXZ 1004e7c8 f i libucrt:argv_wildcards.obj
 0001:0004d7e9       ?size@?$argument_list@D@?A0xb0e4b824@@QBEIXZ 1004e7e9 f i libucrt:argv_wildcards.obj
 0001:0004d7f4       ?size@?$argument_list@_W@?A0xb0e4b824@@QBEIXZ 1004e7f4 f i libucrt:argv_wildcards.obj
 0001:0004d7ff       ?strpbrk@@YAPADQADQBD@Z    1004e7ff f i libucrt:argv_wildcards.obj
 0001:0004d80c       ?wcspbrk@@YAPA_WPA_WPB_W@Z 1004e80c f i libucrt:argv_wildcards.obj
 0001:0004d819       ___acrt_expand_narrow_argv_wildcards 1004e819 f   libucrt:argv_wildcards.obj
 0001:0004d826       ___acrt_expand_wide_argv_wildcards 1004e826 f   libucrt:argv_wildcards.obj
 0001:0004d833       ??$?RV<lambda_978dc153c237d78434369da87b74ff60>@@AAV<lambda_ad1ced32f4ac17aa236e5ef05d6b3b7c>@@V<lambda_4a8533e2866a575feecb8298ce776b0d>@@@?$__crt_seh_guarded_call@X@@QAEX$$QAV<lambda_978dc153c237d78434369da87b74ff60>@@AAV<lambda_ad1ced32f4ac17aa236e5ef05d6b3b7c>@@$$QAV<lambda_4a8533e2866a575feecb8298ce776b0d>@@@Z 1004e833 f i libucrt:mbctype.obj
 0001:0004d886       ??$__acrt_lock_and_call@V<lambda_ad1ced32f4ac17aa236e5ef05d6b3b7c>@@@@YAXW4__acrt_lock_id@@$$QAV<lambda_ad1ced32f4ac17aa236e5ef05d6b3b7c>@@@Z 1004e886 f i libucrt:mbctype.obj
 0001:0004de97       ___acrt_initialize_multibyte 1004ee97 f   libucrt:mbctype.obj
 0001:0004debc       ___acrt_update_thread_multibyte_data 1004eebc f   libucrt:mbctype.obj
 0001:0004df86       ___p__mbcasemap            1004ef86 f   libucrt:mbctype.obj
 0001:0004df8c       ___p__mbctype              1004ef8c f   libucrt:mbctype.obj
 0001:0004df92       __getmbcp                  1004ef92 f   libucrt:mbctype.obj
 0001:0004dfd5       __setmbcp                  1004efd5 f   libucrt:mbctype.obj
 0001:0004dfec       __setmbcp_nolock           1004efec f   libucrt:mbctype.obj
 0001:0004e369       __ismbbalnum               1004f369 f   libucrt:ismbbyte.obj
 0001:0004e38a       __ismbbalnum_l             1004f38a f   libucrt:ismbbyte.obj
 0001:0004e3ad       __ismbbalpha               1004f3ad f   libucrt:ismbbyte.obj
 0001:0004e3ce       __ismbbalpha_l             1004f3ce f   libucrt:ismbbyte.obj
 0001:0004e3f1       __ismbbblank               1004f3f1 f   libucrt:ismbbyte.obj
 0001:0004e41c       __ismbbblank_l             1004f41c f   libucrt:ismbbyte.obj
 0001:0004e449       __ismbbgraph               1004f449 f   libucrt:ismbbyte.obj
 0001:0004e46a       __ismbbgraph_l             1004f46a f   libucrt:ismbbyte.obj
 0001:0004e48d       __ismbbkalnum              1004f48d f   libucrt:ismbbyte.obj
 0001:0004e4ab       __ismbbkalnum_l            1004f4ab f   libucrt:ismbbyte.obj
 0001:0004e4ca       __ismbbkana                1004f4ca f   libucrt:ismbbyte.obj
 0001:0004e4e1       __ismbbkana_l              1004f4e1 f   libucrt:ismbbyte.obj
 0001:0004e546       __ismbbkprint              1004f546 f   libucrt:ismbbyte.obj
 0001:0004e564       __ismbbkprint_l            1004f564 f   libucrt:ismbbyte.obj
 0001:0004e583       __ismbbkpunct              1004f583 f   libucrt:ismbbyte.obj
 0001:0004e5a1       __ismbbkpunct_l            1004f5a1 f   libucrt:ismbbyte.obj
 0001:0004e5c0       __ismbblead                1004f5c0 f   libucrt:ismbbyte.obj
 0001:0004e5de       __ismbblead_l              1004f5de f   libucrt:ismbbyte.obj
 0001:0004e5fd       __ismbbprint               1004f5fd f   libucrt:ismbbyte.obj
 0001:0004e61e       __ismbbprint_l             1004f61e f   libucrt:ismbbyte.obj
 0001:0004e641       __ismbbpunct               1004f641 f   libucrt:ismbbyte.obj
 0001:0004e65f       __ismbbpunct_l             1004f65f f   libucrt:ismbbyte.obj
 0001:0004e67e       __ismbbtrail               1004f67e f   libucrt:ismbbyte.obj
 0001:0004e69c       __ismbbtrail_l             1004f69c f   libucrt:ismbbyte.obj
 0001:0004e6bb       ___acrt_initialize_command_line 1004f6bb f   libucrt:argv_data.obj
 0001:0004e6da       ___acrt_uninitialize_command_line 1004f6da f   libucrt:argv_data.obj
 0001:0004e6dd       ___p___argc                1004f6dd f   libucrt:argv_data.obj
 0001:0004e6e3       ___p___argv                1004f6e3 f   libucrt:argv_data.obj
 0001:0004e6e9       ___p___wargv               1004f6e9 f   libucrt:argv_data.obj
 0001:0004e6ef       ___p__acmdln               1004f6ef f   libucrt:argv_data.obj
 0001:0004e6f5       ___p__pgmptr               1004f6f5 f   libucrt:argv_data.obj
 0001:0004e6fb       ___p__wcmdln               1004f6fb f   libucrt:argv_data.obj
 0001:0004e701       ___p__wpgmptr              1004f701 f   libucrt:argv_data.obj
 0001:0004e707       __get_pgmptr               1004f707 f   libucrt:argv_data.obj
 0001:0004e744       __get_wpgmptr              1004f744 f   libucrt:argv_data.obj
 0001:0004e781       ??0?$__crt_unique_handle_t@Uenvironment_strings_traits@?A0x588e5281@@@@QAE@QA_W@Z 1004f781 f i libucrt:get_environment_from_os.obj
 0001:0004e795       ??1?$__crt_unique_handle_t@Uenvironment_strings_traits@?A0x588e5281@@@@QAE@XZ 1004f795 f i libucrt:get_environment_from_os.obj
 0001:0004e7b1       ??B?$__crt_unique_handle_t@Uenvironment_strings_traits@?A0x588e5281@@@@QBE_NXZ 1004f7b1 f i libucrt:get_environment_from_os.obj
 0001:0004e7bb       ?close@?$__crt_unique_handle_t@Uenvironment_strings_traits@?A0x588e5281@@@@QAEXXZ 1004f7bb f i libucrt:get_environment_from_os.obj
 0001:0004e7d7       ?close@environment_strings_traits@?A0x588e5281@@SA_NPA_W@Z 1004f7d7 f i libucrt:get_environment_from_os.obj
 0001:0004e831       ?get@?$__crt_unique_handle_t@Uenvironment_strings_traits@?A0x588e5281@@@@QBEPA_WXZ 1004f831 f i libucrt:get_environment_from_os.obj
 0001:0004e834       ?get_invalid_value@environment_strings_traits@?A0x588e5281@@SAPA_WXZ 1004f834 f i libucrt:get_environment_from_os.obj
 0001:0004e837       ?is_valid@?$__crt_unique_handle_t@Uenvironment_strings_traits@?A0x588e5281@@@@QBE_NXZ 1004f837 f i libucrt:get_environment_from_os.obj
 0001:0004e841       ___dcrt_get_narrow_environment_from_os 1004f841 f   libucrt:get_environment_from_os.obj
 0001:0004e8e4       ___dcrt_get_wide_environment_from_os 1004f8e4 f   libucrt:get_environment_from_os.obj
 0001:0004f17c       ??$get_or_create_environment_nolock@$$$V@?$__crt_char_traits@D@@SAPAPADXZ 1005017c f i libucrt:setenv.obj
 0001:0004f181       ??$get_or_create_environment_nolock@$$$V@?$__crt_char_traits@_W@@SAPAPA_WXZ 10050181 f i libucrt:setenv.obj
 0001:0004f186       ??$set_environment_variable@ABQADQAD@?$__crt_char_traits@D@@SAHABQAD$$QBQAD@Z 10050186 f i libucrt:setenv.obj
 0001:0004f1a2       ??$set_environment_variable@ABQA_WQA_W@?$__crt_char_traits@_W@@SAHABQA_W$$QBQA_W@Z 100501a2 f i libucrt:setenv.obj
 0001:0004f1be       ??$tcschr@ABQADD@?$__crt_char_traits@D@@SAPADABQAD$$QAD@Z 100501be f i libucrt:setenv.obj
 0001:0004f1de       ??$tcschr@ABQA_WD@?$__crt_char_traits@_W@@SAPA_WABQA_W$$QAD@Z 100501de f i libucrt:setenv.obj
 0001:0004f203       ??$tcscpy_s@AAPADABIAAPAD@?$__crt_char_traits@D@@SAHAAPADABI0@Z 10050203 f i libucrt:setenv.obj
 0001:0004f228       ??$tcscpy_s@AAPA_WABIAAPA_W@?$__crt_char_traits@_W@@SAHAAPA_WABI0@Z 10050228 f i libucrt:setenv.obj
 0001:0004f24d       ??$tcscpy_s@ABQADABIABQAD@?$__crt_char_traits@D@@SAHABQADABI0@Z 1005024d f i libucrt:setenv.obj
 0001:0004f272       ??$tcscpy_s@ABQA_WABIABQA_W@?$__crt_char_traits@_W@@SAHABQA_WABI0@Z 10050272 f i libucrt:setenv.obj
 0001:0004f297       ??$tcsnicoll@ABQBDAAPADABI@?$__crt_char_traits@D@@SAHABQBDAAPADABI@Z 10050297 f i libucrt:setenv.obj
 0001:0004f2bc       ??$tcsnicoll@ABQB_WAAPA_WABI@?$__crt_char_traits@_W@@SAHABQB_WAAPA_WABI@Z 100502bc f i libucrt:setenv.obj
 0001:0004f305       ?strchr@@YAPADQADH@Z       10050305 f i libucrt:setenv.obj
 0001:0004f312       ?wcschr@@YAPA_WPA_W_W@Z    10050312 f i libucrt:setenv.obj
 0001:0004f31f       ___dcrt_set_variable_in_narrow_environment_nolock 1005031f f   libucrt:setenv.obj
 0001:0004f32c       ___dcrt_set_variable_in_wide_environment_nolock 1005032c f   libucrt:setenv.obj
 0001:0004f339       __recalloc                 10050339 f   libucrt:recalloc.obj
 0001:0004f346       __recalloc_base            10050346 f   libucrt:recalloc.obj
 0001:0004f3ce       ___acrt_getheap            100503ce f   libucrt:heap_handle.obj
 0001:0004f3d4       ___acrt_initialize_heap    100503d4 f   libucrt:heap_handle.obj
 0001:0004f3e9       ___acrt_uninitialize_heap  100503e9 f   libucrt:heap_handle.obj
 0001:0004f3f5       __get_heap_handle          100503f5 f   libucrt:heap_handle.obj
 0001:0004f3fb       ___acrt_execute_initializers 100503fb f   libucrt:shared_initialization.obj
 0001:0004f49e       ___acrt_execute_uninitializers 1005049e f   libucrt:shared_initialization.obj
 0001:0004f4fe       ??$?B$$A6AHI@Z@__crt_fast_encoded_nullptr_t@@QBEP6AHI@ZXZ 100504fe f i libucrt:new_handler.obj
 0001:0004f51c       ??$__crt_fast_decode_pointer@P6AHI@Z@@YAP6AHI@ZQ6AHI@Z@Z 1005051c f i libucrt:new_handler.obj
 0001:0004f537       ??$__crt_fast_encode_pointer@P6AHI@Z@@YAP6AHI@ZQ6AHI@Z@Z 10050537 f i libucrt:new_handler.obj
 0001:0004f55d       ?_set_new_handler@@YAP6AHI@ZH@Z 1005055d f   libucrt:new_handler.obj
 0001:0004f583       ?initialize@?$dual_state_global@P6AHI@Z@__crt_state_management@@QAEXQ6AHI@Z@Z 10050583 f i libucrt:new_handler.obj
 0001:0004f5c0       ?value@?$dual_state_global@P6AHI@Z@__crt_state_management@@QAEAAP6AHI@ZXZ 100505c0 f i libucrt:new_handler.obj
 0001:0004f5c3       ___acrt_initialize_new_handler 100505c3 f   libucrt:new_handler.obj
 0001:0004f5dc       __callnewh                 100505dc f   libucrt:new_handler.obj
 0001:0004f631       __query_new_handler        10050631 f   libucrt:new_handler.obj
 0001:0004f697       __set_new_handler          10050697 f   libucrt:new_handler.obj
 0001:0004f70f       ?value@?$dual_state_global@J@__crt_state_management@@QAEAAJXZ 1005070f f i libucrt:new_mode.obj
 0001:0004f712       __query_new_mode           10050712 f   libucrt:new_mode.obj
 0001:0004f718       __set_new_mode             10050718 f   libucrt:new_mode.obj
 0001:0004f752       ___pctype_func             10050752 f   libucrt:ctype.obj
 0001:0004f781       ___pwctype_func            10050781 f   libucrt:ctype.obj
 0001:0004f787       __iswctype_l               10050787 f   libucrt:iswctype.obj
 0001:0004f7a0       _iswctype                  100507a0 f   libucrt:iswctype.obj
 0001:0004f816       __isctype                  10050816 f   libucrt:isctype.obj
 0001:0004f853       __isctype_l                10050853 f   libucrt:isctype.obj
 0001:0004fb1a       ___acrt_DownlevelLCIDToLocaleName 10050b1a f   libucrt:lcidtoname_downlevel.obj
 0001:0004fbee       ___acrt_DownlevelLocaleNameToLCID 10050bee f   libucrt:lcidtoname_downlevel.obj
 0001:0004fc25       ??$?RV<lambda_61cee617f5178ae960314fd4d05640a0>@@AAV<lambda_6978c1fb23f02e42e1d9e99668cc68aa>@@V<lambda_9cd88cf8ad10232537feb2133f08c833>@@@?$__crt_seh_guarded_call@H@@QAEH$$QAV<lambda_61cee617f5178ae960314fd4d05640a0>@@AAV<lambda_6978c1fb23f02e42e1d9e99668cc68aa>@@$$QAV<lambda_9cd88cf8ad10232537feb2133f08c833>@@@Z 10050c25 f i libucrt:commit.obj
 0001:0004fce3       ??$__acrt_lowio_lock_fh_and_call@V<lambda_6978c1fb23f02e42e1d9e99668cc68aa>@@@@YAHH$$QAV<lambda_6978c1fb23f02e42e1d9e99668cc68aa>@@@Z 10050ce3 f i libucrt:commit.obj
 0001:0004fdd5       __commit                   10050dd5 f   libucrt:commit.obj
 0001:0004fe5f       ??$?RU__crt_lowio_handle_data@@@__crt_internal_free_policy@@QBEXQBU__crt_lowio_handle_data@@@Z 10050e5f f i libucrt:osfinfo.obj
 0001:0004fe75       ??0?$__crt_unique_heap_ptr@U__crt_lowio_handle_data@@U__crt_internal_free_policy@@@@QAE@QAU__crt_lowio_handle_data@@@Z 10050e75 f i libucrt:osfinfo.obj
 0001:0004fe89       ??1?$__crt_unique_heap_ptr@U__crt_lowio_handle_data@@U__crt_internal_free_policy@@@@QAE@XZ 10050e89 f i libucrt:osfinfo.obj
 0001:0004fe9f       ??B?$__crt_unique_heap_ptr@U__crt_lowio_handle_data@@U__crt_internal_free_policy@@@@QBE_NXZ 10050e9f f i libucrt:osfinfo.obj
 0001:0004fea9       ?detach@?$__crt_unique_heap_ptr@U__crt_lowio_handle_data@@U__crt_internal_free_policy@@@@QAEPAU__crt_lowio_handle_data@@XZ 10050ea9 f i libucrt:osfinfo.obj
 0001:0004feaf       ?get@?$__crt_unique_heap_ptr@U__crt_lowio_handle_data@@U__crt_internal_free_policy@@@@QBEPAU__crt_lowio_handle_data@@XZ 10050eaf f i libucrt:osfinfo.obj
 0001:0004feb2       ?is_valid@?$__crt_unique_heap_ptr@U__crt_lowio_handle_data@@U__crt_internal_free_policy@@@@QBE_NXZ 10050eb2 f i libucrt:osfinfo.obj
 0001:0004febc       ?release@?$__crt_unique_heap_ptr@U__crt_lowio_handle_data@@U__crt_internal_free_policy@@@@QAEXXZ 10050ebc f i libucrt:osfinfo.obj
 0001:0004fed2       ___acrt_lowio_create_handle_array 10050ed2 f   libucrt:osfinfo.obj
 0001:0004ff6a       ___acrt_lowio_destroy_handle_array 10050f6a f   libucrt:osfinfo.obj
 0001:0004ffac       ___acrt_lowio_ensure_fh_exists 10050fac f   libucrt:osfinfo.obj
 0001:0005006a       ___acrt_lowio_lock_fh      1005106a f   libucrt:osfinfo.obj
 0001:00050095       ___acrt_lowio_set_os_handle 10051095 f   libucrt:osfinfo.obj
 0001:0005014e       ___acrt_lowio_unlock_fh    1005114e f   libucrt:osfinfo.obj
 0001:00050179       __alloc_osfhnd             10051179 f   libucrt:osfinfo.obj
 0001:000502cf       __free_osfhnd              100512cf f   libucrt:osfinfo.obj
 0001:00050384       __get_osfhandle            10051384 f   libucrt:osfinfo.obj
 0001:00050408       __open_osfhandle           10051408 f   libucrt:osfinfo.obj
 0001:00050559       ___iswcsym                 10051559 f i libucrt:_wctype.obj
 0001:00050588       ___iswcsymf                10051588 f i libucrt:_wctype.obj
 0001:000505b7       __isleadbyte_l             100515b7 f i libucrt:_wctype.obj
 0001:000505fe       __iswalnum_l               100515fe f i libucrt:_wctype.obj
 0001:00050619       __iswalpha_l               10051619 f i libucrt:_wctype.obj
 0001:00050634       __iswblank_l               10051634 f i libucrt:_wctype.obj
 0001:00050658       __iswcntrl_l               10051658 f i libucrt:_wctype.obj
 0001:0005066f       __iswcsym_l                1005166f f i libucrt:_wctype.obj
 0001:0005069e       __iswcsymf_l               1005169e f i libucrt:_wctype.obj
 0001:000506cd       __iswdigit_l               100516cd f i libucrt:_wctype.obj
 0001:000506e4       __iswgraph_l               100516e4 f i libucrt:_wctype.obj
 0001:000506ff       __iswlower_l               100516ff f i libucrt:_wctype.obj
 0001:00050716       __iswprint_l               10051716 f i libucrt:_wctype.obj
 0001:00050731       __iswpunct_l               10051731 f i libucrt:_wctype.obj
 0001:00050748       __iswspace_l               10051748 f i libucrt:_wctype.obj
 0001:0005075f       __iswupper_l               1005175f f i libucrt:_wctype.obj
 0001:00050776       __iswxdigit_l              10051776 f i libucrt:_wctype.obj
 0001:00050791       _isleadbyte                10051791 f i libucrt:_wctype.obj
 0001:000507a8       _iswalnum                  100517a8 f i libucrt:_wctype.obj
 0001:000507c3       _iswalpha                  100517c3 f i libucrt:_wctype.obj
 0001:000507de       _iswascii                  100517de f i libucrt:_wctype.obj
 0001:000507f7       _iswblank                  100517f7 f i libucrt:_wctype.obj
 0001:0005081b       _iswcntrl                  1005181b f i libucrt:_wctype.obj
 0001:00050832       _iswdigit                  10051832 f i libucrt:_wctype.obj
 0001:00050849       _iswgraph                  10051849 f i libucrt:_wctype.obj
 0001:00050864       _iswlower                  10051864 f i libucrt:_wctype.obj
 0001:0005087b       _iswprint                  1005187b f i libucrt:_wctype.obj
 0001:00050896       _iswpunct                  10051896 f i libucrt:_wctype.obj
 0001:000508ad       _iswspace                  100518ad f i libucrt:_wctype.obj
 0001:000508c4       _iswupper                  100518c4 f i libucrt:_wctype.obj
 0001:000508db       _iswxdigit                 100518db f i libucrt:_wctype.obj
 0001:000508f6       ??0?$__crt_scoped_stack_ptr@_W@@QAE@U?$__crt_scoped_stack_ptr_tag@_W@@@Z 100518f6 f i libucrt:lcmapstringa.obj
 0001:0005090a       ??0?$__crt_scoped_stack_ptr_tag@_W@@QAE@QA_W@Z 1005190a f i libucrt:lcmapstringa.obj
 0001:0005091e       ??1?$__crt_scoped_stack_ptr@_W@@QAE@XZ 1005191e f i libucrt:lcmapstringa.obj
 0001:00050929       ??B?$__crt_scoped_stack_ptr@_W@@QBE_NXZ 10051929 f i libucrt:lcmapstringa.obj
 0001:00050bd7       ?get@?$__crt_scoped_stack_ptr@_W@@QBEPA_WXZ 10051bd7 f i libucrt:lcmapstringa.obj
 0001:00050bda       __MallocaComputeSize       10051bda f i libucrt:lcmapstringa.obj
 0001:00050bf1       __MarkAllocaS              10051bf1 f i libucrt:lcmapstringa.obj
 0001:00050c0c       ___acrt_LCMapStringA       10051c0c f   libucrt:lcmapstringa.obj
 0001:00050c69       __freea_crt                10051c69 f i libucrt:lcmapstringa.obj
 0001:00050c91       ??$?RG@__crt_internal_free_policy@@QBEXQBG@Z 10051c91 f i libucrt:initctype.obj
 0001:00050ca7       ??$?RJ@__crt_internal_free_policy@@QBEXQBJ@Z 10051ca7 f i libucrt:initctype.obj
 0001:00050cbd       ??0?$__crt_unique_heap_ptr@GU__crt_internal_free_policy@@@@QAE@QAG@Z 10051cbd f i libucrt:initctype.obj
 0001:00050cd1       ??0?$__crt_unique_heap_ptr@JU__crt_internal_free_policy@@@@QAE@QAJ@Z 10051cd1 f i libucrt:initctype.obj
 0001:00050ce5       ??1?$__crt_unique_heap_ptr@GU__crt_internal_free_policy@@@@QAE@XZ 10051ce5 f i libucrt:initctype.obj
 0001:00050cfb       ??1?$__crt_unique_heap_ptr@JU__crt_internal_free_policy@@@@QAE@XZ 10051cfb f i libucrt:initctype.obj
 0001:00050d11       ?detach@?$__crt_unique_heap_ptr@GU__crt_internal_free_policy@@@@QAEPAGXZ 10051d11 f i libucrt:initctype.obj
 0001:00050d17       ?detach@?$__crt_unique_heap_ptr@JU__crt_internal_free_policy@@@@QAEPAJXZ 10051d17 f i libucrt:initctype.obj
 0001:00050d1d       ?release@?$__crt_unique_heap_ptr@GU__crt_internal_free_policy@@@@QAEXXZ 10051d1d f i libucrt:initctype.obj
 0001:00050d33       ?release@?$__crt_unique_heap_ptr@JU__crt_internal_free_policy@@@@QAEXXZ 10051d33 f i libucrt:initctype.obj
 0001:00050d49       ____lc_codepage_func       10051d49 f   libucrt:initctype.obj
 0001:00050d79       ____lc_collate_cp_func     10051d79 f   libucrt:initctype.obj
 0001:00050da9       ____lc_locale_name_func    10051da9 f   libucrt:initctype.obj
 0001:00050ddc       ____mb_cur_max_func        10051ddc f   libucrt:initctype.obj
 0001:00050e0c       ____mb_cur_max_l_func      10051e0c f   libucrt:initctype.obj
 0001:00050e2b       ___acrt_locale_initialize_ctype 10051e2b f   libucrt:initctype.obj
 0001:000512b0       ___acrt_add_locale_ref     100522b0 f   libucrt:locale_refcounting.obj
 0001:0005134c       ___acrt_free_locale        1005234c f   libucrt:locale_refcounting.obj
 0001:000514e8       ___acrt_locale_add_lc_time_reference 100524e8 f   libucrt:locale_refcounting.obj
 0001:0005151b       ___acrt_locale_free_lc_time_if_unreferenced 1005251b f   libucrt:locale_refcounting.obj
 0001:00051557       ___acrt_locale_release_lc_time_reference 10052557 f   libucrt:locale_refcounting.obj
 0001:0005158a       ___acrt_release_locale_ref 1005258a f   libucrt:locale_refcounting.obj
 0001:0005162b       ___acrt_update_thread_locale_data 1005262b f   libucrt:locale_refcounting.obj
 0001:000516bf       __updatetlocinfoEx_nolock  100526bf f   libucrt:locale_refcounting.obj
 0001:00051723       ___acrt_fp_strflt_to_string 10052723 f   libucrt:_fptostr.obj
 0001:00052f50       ??0big_integer@__crt_strtox@@QAE@ABU01@@Z 10053f50 f i libucrt:cfout.obj
 0001:00052f90       ??0big_integer@__crt_strtox@@QAE@XZ 10053f90 f i libucrt:cfout.obj
 0001:00052f9b       ??0scoped_fp_state_reset@?A0x48fbfdd4@@QAE@XZ 10053f9b f i libucrt:cfout.obj
 0001:00052fcf       ??1scoped_fp_state_reset@?A0x48fbfdd4@@QAE@XZ 10053fcf f i libucrt:cfout.obj
 0001:00052fe0       ??4big_integer@__crt_strtox@@QAEAAU01@ABU01@@Z 10053fe0 f i libucrt:cfout.obj
 0001:00053020       ??8__crt_strtox@@YA_NABUbig_integer@0@0@Z 10054020 f i libucrt:cfout.obj
 0001:00053070       ??9__crt_strtox@@YA_NABUbig_integer@0@0@Z 10054070 f i libucrt:cfout.obj
 0001:000530d0       ?add_carry@__crt_strtox@@YAIAAIII@Z 100540d0 f i libucrt:cfout.obj
 0001:00053100       ?add_multiply_carry@__crt_strtox@@YAIAAIIII@Z 10054100 f i libucrt:cfout.obj
 0001:00053130       ?bit_scan_reverse@__crt_strtox@@YAII@Z 10054130 f i libucrt:cfout.obj
 0001:00053160       ?count_sequential_high_zeroes@__crt_strtox@@YAII@Z 10054160 f i libucrt:cfout.obj
 0001:00053190       ?divide@__crt_strtox@@YA_KAAUbig_integer@1@ABU21@@Z 10054190 f i libucrt:cfout.obj
 0001:00053770       ?is_zero@__crt_strtox@@YA_NABUbig_integer@1@@Z 10054770 f i libucrt:cfout.obj
 0001:00053790       ?make_big_integer@__crt_strtox@@YA?AUbig_integer@1@_K@Z 10054790 f i libucrt:cfout.obj
 0001:000537c0       ?make_big_integer_power_of_two@__crt_strtox@@YA?AUbig_integer@1@I@Z 100547c0 f i libucrt:cfout.obj
 0001:00053820       ?multiply@__crt_strtox@@YA_NAAUbig_integer@1@ABU21@@Z 10054820 f i libucrt:cfout.obj
 0001:00053cd0       ?multiply@__crt_strtox@@YA_NAAUbig_integer@1@I@Z 10054cd0 f i libucrt:cfout.obj
 0001:00053dd0       ?multiply_64_32@__crt_strtox@@YA_K_KI@Z 10054dd0 f i libucrt:cfout.obj
 0001:00053df0       ?multiply_by_power_of_ten@__crt_strtox@@YA_NAAUbig_integer@1@I@Z 10054df0 f i libucrt:cfout.obj
 0001:000544f0       ?multiply_core@__crt_strtox@@YAIQAIII@Z 100554f0 f i libucrt:cfout.obj
 0001:00054540       ?shift_left@__crt_strtox@@YA_NAAUbig_integer@1@I@Z 10055540 f i libucrt:cfout.obj
 0001:000546e2       ___acrt_fltout             100556e2 f   libucrt:cfout.obj
 0001:00056006       __isatty                   10057006 f   libucrt:isatty.obj
 0001:00056071       ??$?RUlconv@@@__crt_internal_free_policy@@QBEXQBUlconv@@@Z 10057071 f i libucrt:initmon.obj
 0001:00056087       ??0?$__crt_unique_heap_ptr@Ulconv@@U__crt_internal_free_policy@@@@QAE@QAUlconv@@@Z 10057087 f i libucrt:initmon.obj
 0001:0005609b       ??1?$__crt_unique_heap_ptr@Ulconv@@U__crt_internal_free_policy@@@@QAE@XZ 1005709b f i libucrt:initmon.obj
 0001:000560b1       ?detach@?$__crt_unique_heap_ptr@Ulconv@@U__crt_internal_free_policy@@@@QAEPAUlconv@@XZ 100570b1 f i libucrt:initmon.obj
 0001:000560b7       ?release@?$__crt_unique_heap_ptr@Ulconv@@U__crt_internal_free_policy@@@@QAEXXZ 100570b7 f i libucrt:initmon.obj
 0001:000560cd       ___acrt_locale_free_monetary 100570cd f   libucrt:initmon.obj
 0001:0005620a       ___acrt_locale_initialize_monetary 1005720a f   libucrt:initmon.obj
 0001:000566fd       ___acrt_locale_free_numeric 100576fd f   libucrt:initnum.obj
 0001:00056780       ___acrt_locale_initialize_numeric 10057780 f   libucrt:initnum.obj
 0001:00056a6b       ??$?RU__crt_lc_time_data@@@__crt_internal_free_policy@@QBEXQBU__crt_lc_time_data@@@Z 10057a6b f i libucrt:inittime.obj
 0001:00056b0b       ??0?$__crt_unique_heap_ptr@U__crt_lc_time_data@@U__crt_internal_free_policy@@@@QAE@QAU__crt_lc_time_data@@@Z 10057b0b f i libucrt:inittime.obj
 0001:00056b1f       ??1?$__crt_unique_heap_ptr@U__crt_lc_time_data@@U__crt_internal_free_policy@@@@QAE@XZ 10057b1f f i libucrt:inittime.obj
 0001:00056b35       ??B?$__crt_unique_heap_ptr@U__crt_lc_time_data@@U__crt_internal_free_policy@@@@QBE_NXZ 10057b35 f i libucrt:inittime.obj
 0001:00056b3f       ?detach@?$__crt_unique_heap_ptr@U__crt_lc_time_data@@U__crt_internal_free_policy@@@@QAEPAU__crt_lc_time_data@@XZ 10057b3f f i libucrt:inittime.obj
 0001:00056b90       ?get@?$__crt_unique_heap_ptr@U__crt_lc_time_data@@U__crt_internal_free_policy@@@@QBEPAU__crt_lc_time_data@@XZ 10057b90 f i libucrt:inittime.obj
 0001:00056f28       ?is_valid@?$__crt_unique_heap_ptr@U__crt_lc_time_data@@U__crt_internal_free_policy@@@@QBE_NXZ 10057f28 f i libucrt:inittime.obj
 0001:00056f32       ?release@?$__crt_unique_heap_ptr@U__crt_lc_time_data@@U__crt_internal_free_policy@@@@QAEXXZ 10057f32 f i libucrt:inittime.obj
 0001:00056f48       ___acrt_locale_free_time   10057f48 f   libucrt:inittime.obj
 0001:00057065       ___acrt_locale_initialize_time 10058065 f   libucrt:inittime.obj
 0001:00057203       _wcsncpy_s                 10058203 f   libucrt:wcsncpy_s.obj
 0001:00057210       _wcscspn                   10058210 f   libucrt:wcscspn.obj
 0001:00057274       _wcsncmp                   10058274 f   libucrt:wcsncmp.obj
 0001:000572bc       _wcspbrk                   100582bc f   libucrt:wcspbrk.obj
 0001:00057312       ___acrt_GetStringTypeA     10058312 f   libucrt:getstringtypea.obj
 0001:00057d86       ___acrt_get_qualified_locale 10058d86 f   libucrt:get_qualified_locale.obj
 0001:0005892d       ___acrt_get_qualified_locale_downlevel 1005992d f   libucrt:getqloc_downlevel.obj
 0001:00058bb5       _localeconv                10059bb5 f   libucrt:localeconv.obj
 0001:00058be9       __wcsnicmp                 10059be9 f   libucrt:wcsnicmp.obj
 0001:00058ccf       __wcsnicmp_l               10059ccf f   libucrt:wcsnicmp.obj
 0001:00058e10       _strncmp                   10059e10 f   libucrt:strncmp.obj
 0001:00058ea6       __strnicmp                 10059ea6 f   libucrt:strnicmp.obj
 0001:00058f2d       __strnicmp_l               10059f2d f   libucrt:strnicmp.obj
 0001:00059011       ??$__vcrt_va_start_verify_argument_type@$$CBH@@YAXXZ 1005a011 f i libucrt:open.obj
 0001:000593c8       ??$tsopen_nolock@PAHABQAHABQBDABHABHABHABH@?$__crt_char_traits@D@@SAH$$QAPAHABQAHABQBDABH333@Z 1005a3c8 f i libucrt:open.obj
 0001:00059406       ??$tsopen_nolock@PAHABQAHABQB_WABHABHABHABH@?$__crt_char_traits@_W@@SAH$$QAPAHABQAHABQB_WABH333@Z 1005a406 f i libucrt:open.obj
 0001:00059444       ??$tsopen_nolock@PAHPAHABQBDABHHABHH@?$__crt_char_traits@D@@SAH$$QAPAH0ABQBDABH$$QAH23@Z 1005a444 f i libucrt:open.obj
 0001:00059482       ??$tsopen_nolock@PAHPAHABQB_WABHHABHH@?$__crt_char_traits@_W@@SAH$$QAPAH0ABQB_WABH$$QAH23@Z 1005a482 f i libucrt:open.obj
 0001:00059c50       __open                     1005ac50 f   libucrt:open.obj
 0001:00059c6e       __sopen                    1005ac6e f   libucrt:open.obj
 0001:00059cb0       __sopen_dispatch           1005acb0 f   libucrt:open.obj
 0001:00059cbd       __sopen_nolock             1005acbd f   libucrt:open.obj
 0001:00059d22       __sopen_s                  1005ad22 f   libucrt:open.obj
 0001:00059d4a       __wopen                    1005ad4a f   libucrt:open.obj
 0001:00059d68       __wsopen                   1005ad68 f   libucrt:open.obj
 0001:00059daa       __wsopen_dispatch          1005adaa f   libucrt:open.obj
 0001:00059db7       __wsopen_nolock            1005adb7 f   libucrt:open.obj
 0001:0005a1aa       __wsopen_s                 1005b1aa f   libucrt:open.obj
 0001:0005a1d2       ___p__commode              1005b1d2 f   libucrt:ncommode.obj
 0001:0005a1d8       ___acrt_stdio_allocate_buffer_nolock 1005b1d8 f   libucrt:_getbuf.obj
 0001:0005a24c       ??$?RV<lambda_4980db0136e49a56f91ef52c46ca659a>@@AAV<lambda_6e3e78bb6855d1e4040e022c1b427e22>@@V<lambda_9c074eaf62197b4fd0274ed9e7824161>@@@?$__crt_seh_guarded_call@G@@QAEG$$QAV<lambda_4980db0136e49a56f91ef52c46ca659a>@@AAV<lambda_6e3e78bb6855d1e4040e022c1b427e22>@@$$QAV<lambda_9c074eaf62197b4fd0274ed9e7824161>@@@Z 1005b24c f i libucrt:putwch.obj
 0001:0005a2c1       ??$__acrt_lock_and_call@V<lambda_6e3e78bb6855d1e4040e022c1b427e22>@@@@YAGW4__acrt_lock_id@@$$QAV<lambda_6e3e78bb6855d1e4040e022c1b427e22>@@@Z 1005b2c1 f i libucrt:putwch.obj
 0001:0005a359       __putwch                   1005b359 f   libucrt:putwch.obj
 0001:0005a37d       __putwch_nolock            1005b37d f   libucrt:putwch.obj
 0001:0005a3d3       _nextafter                 1005b3d3 f   libucrt:nextafter.obj
 0001:0005a3f9       ??1scoped_global_state_reset@__crt_state_management@@QAE@XZ 1005b3f9 f i libucrt:qsort.obj
 0001:0005a510       _qsort                     1005b510 f   libucrt:qsort.obj
 0001:0005aa6d       _strncpy_s                 1005ba6d f   libucrt:strncpy_s.obj
 0001:0005aa80       _strpbrk                   1005ba80 f   libucrt:strpbrk.obj
 0001:0005aad0       __mbsdec                   1005bad0 f   libucrt:mbsdec.obj
 0001:0005aaec       __mbsdec_l                 1005baec f   libucrt:mbsdec.obj
 0001:0005abae       __wcsnicoll                1005bbae f   libucrt:wcsnicol.obj
 0001:0005acb2       __wcsnicoll_l              1005bcb2 f   libucrt:wcsnicol.obj
 0001:0005ae2a       __strnicoll                1005be2a f   libucrt:strnicol.obj
 0001:0005ae5d       __strnicoll_l              1005be5d f   libucrt:strnicol.obj
 0001:0005af98       __msize                    1005bf98 f   libucrt:msize.obj
 0001:0005afd7       ___strncnt                 1005bfd7 f   libucrt:strncnt.obj
 0001:0005b133       ___acrt_GetLocaleInfoA     1005c133 f   libucrt:getlocaleinfoa.obj
 0001:0005b351       _fegetenv                  1005c351 f   libucrt:fegetenv.obj
 0001:0005b375       _fesetenv                  1005c375 f   libucrt:fesetenv.obj
 0001:0005b3d0       _feholdexcept              1005c3d0 f   libucrt:feholdexcept.obj
 0001:0005b440       _log10                     1005c440 f   libucrt:log10.obj
 0001:0005b480       __CIlog10                  1005c480 f   libucrt:log10.obj
 0001:0005b4bb       __CIlog10_default          1005c4bb f   libucrt:log10.obj
 0001:0005b4cf       __log10_default            1005c4cf     libucrt:log10.obj
 0001:0005b5f0       _ceil                      1005c5f0 f   libucrt:ceil_pentium4.obj
 0001:0005b630       __ceil_pentium4            1005c630 f   libucrt:ceil_pentium4.obj
 0001:0005b754       __wcsicmp                  1005c754 f   libucrt:wcsicmp.obj
 0001:0005b80e       __wcsicmp_l                1005c80e f   libucrt:wcsicmp.obj
 0001:0005b926       __towlower_l               1005c926 f   libucrt:towlower.obj
 0001:0005ba21       _towlower                  1005ca21 f   libucrt:towlower.obj
 0001:0005ba40       ___ascii_strnicmp          1005ca40 f   libucrt:_strnicm.obj
 0001:0005bab9       ??$__crt_interlocked_read@H@@YAHPDH@Z 1005cab9 f i libucrt:setmode.obj
 0001:0005bac8       __get_fmode                1005cac8 f   libucrt:setmode.obj
 0001:0005baff       __set_fmode                1005caff f   libucrt:setmode.obj
 0001:0005bb4b       __setmode                  1005cb4b f   libucrt:setmode.obj
 0001:0005bc9c       __setmode_nolock           1005cc9c f   libucrt:setmode.obj
 0001:0005bda1       ??$?RV<lambda_4cfda81533ccf5a03113a1ca40a30445>@@AAV<lambda_1cffa78e445b1da5fba1a2e0e533226f>@@V<lambda_68c952aa1b860373b2109ef12d0bba9d>@@@?$__crt_seh_guarded_call@H@@QAEH$$QAV<lambda_4cfda81533ccf5a03113a1ca40a30445>@@AAV<lambda_1cffa78e445b1da5fba1a2e0e533226f>@@$$QAV<lambda_68c952aa1b860373b2109ef12d0bba9d>@@@Z 1005cda1 f i libucrt:chsize.obj
 0001:0005be4b       ??$__acrt_lowio_lock_fh_and_call@V<lambda_1cffa78e445b1da5fba1a2e0e533226f>@@@@YAHH$$QAV<lambda_1cffa78e445b1da5fba1a2e0e533226f>@@@Z 1005ce4b f i libucrt:chsize.obj
 0001:0005bf2d       __chsize                   1005cf2d f   libucrt:chsize.obj
 0001:0005bf50       __chsize_nolock            1005cf50 f   libucrt:chsize.obj
 0001:0005c145       __chsize_s                 1005d145 f   libucrt:chsize.obj
 0001:0005c206       __umask                    1005d206 f   libucrt:umask.obj
 0001:0005c234       __umask_s                  1005d234 f   libucrt:umask.obj
 0001:0005c27d       ___dcrt_lowio_initialize_console_output 1005d27d f   libucrt:initcon.obj
 0001:0005c2a3       ___dcrt_terminate_console_output 1005d2a3 f   libucrt:initcon.obj
 0001:0005c2bf       _nexttoward                1005d2bf f   libucrt:nexttoward.obj
 0001:0005c470       ___acrt_CompareStringW     1005d470 f   libucrt:comparestringw.obj
 0001:0005c844       ___acrt_CompareStringA     1005d844 f   libucrt:comparestringa.obj
 0001:0005c89e       ___acrt_fenv_get_fp_status_word_from_exception_mask 1005d89e f   libucrt:_fenvutils.obj
 0001:0005cce1       __getfpcontrolword         1005dce1 f   libucrt:_fenvutils.obj
 0001:0005cd34       __getfpstatusword          1005dd34 f   libucrt:_fenvutils.obj
 0001:0005ce06       __setfpcontrolword         1005de06 f   libucrt:_fenvutils.obj
 0001:0005cea6       __setfpstatusword          1005dea6 f   libucrt:_fenvutils.obj
 0001:0005d0dc       ___control87_2             1005e0dc f   libucrt:ieee87.obj
 0001:0005d6b0       ___fpreset_sse2            1005e6b0 f   libucrt:ieee87.obj
 0001:0005d903       __clearfp                  1005e903 f   libucrt:ieee87.obj
 0001:0005da18       __control87                1005ea18 f   libucrt:ieee87.obj
 0001:0005ddda       __controlfp                1005edda f   libucrt:ieee87.obj
 0001:0005ddfa       __fpreset                  1005edfa f   libucrt:ieee87.obj
 0001:0005def7       __set_controlfp            1005eef7 f   libucrt:ieee87.obj
 0001:0005df8d       __statusfp                 1005ef8d f   libucrt:ieee87.obj
 0001:0005e050       __statusfp2                1005f050 f   libucrt:ieee87.obj
 0001:0005e0cd       ___acrt_initialize_sse2    1005f0cd f   libucrt:mathfcns.obj
 0001:0005e0df       __set_SSE2_enable          1005f0df f   libucrt:mathfcns.obj
 0001:0005e110       __CIlog10_pentium4         1005f110 f   libucrt:log10_pentium4.obj
 0001:0005e128       __log10_pentium4           1005f128     libucrt:log10_pentium4.obj
 0001:0005e461       __fFEXP                    1005f461     libucrt:87tran.obj
 0001:0005e4b8       __rtinfpopse               1005f4b8     libucrt:87tran.obj
 0001:0005e4ba       __rtinfnpopse              1005f4ba     libucrt:87tran.obj
 0001:0005e4ca       __fFLN                     1005f4ca     libucrt:87tran.obj
 0001:0005e57f       __rtinfpop                 1005f57f     libucrt:87tran.obj
 0001:0005e581       __rtinfnpop                1005f581     libucrt:87tran.obj
 0001:0005e59e       __ffexpm1                  1005f59e     libucrt:87tran.obj
 0001:0005e6d0       __trandisp1                1005f6d0 f   libucrt:87disp.obj
 0001:0005e737       __trandisp2                1005f737 f   libucrt:87disp.obj
 0001:0005e7c3       __rttospopde               1005f7c3     libucrt:87disp.obj
 0001:0005e7c8       __rttospop                 1005f7c8     libucrt:87disp.obj
 0001:0005e7ca       __rtnospop                 1005f7ca     libucrt:87disp.obj
 0001:0005e7cc       __rttosnpop                1005f7cc     libucrt:87disp.obj
 0001:0005e7cd       __rtnospopde               1005f7cd     libucrt:87disp.obj
 0001:0005e7d4       __rtzeropop                1005f7d4     libucrt:87disp.obj
 0001:0005e7d6       __rtzeronpop               1005f7d6     libucrt:87disp.obj
 0001:0005e7db       __rtzerospop               1005f7db     libucrt:87disp.obj
 0001:0005e7e8       __rtonepop                 1005f7e8     libucrt:87disp.obj
 0001:0005e7ea       __rtonenpop                1005f7ea     libucrt:87disp.obj
 0001:0005e7ef       __tosnan1                  1005f7ef     libucrt:87disp.obj
 0001:0005e81a       __nosnan2                  1005f81a     libucrt:87disp.obj
 0001:0005e81c       __tosnan2                  1005f81c     libucrt:87disp.obj
 0001:0005e844       __nan2                     1005f844     libucrt:87disp.obj
 0001:0005e883       __rtindfpop                1005f883     libucrt:87disp.obj
 0001:0005e885       __rtindfnpop               1005f885     libucrt:87disp.obj
 0001:0005e896       __rttosnpopde              1005f896     libucrt:87disp.obj
 0001:0005e8a0       __rtatan2inf               1005f8a0     libucrt:87disp.obj
 0001:0005e8bd       __rtchsifneg               1005f8bd     libucrt:87disp.obj
 0001:0005e941       ___setfflag                1005f941 f   libucrt:fp_flags.obj
 0001:0005e960       __twoToTOS                 1005f960 f   libucrt:common.obj
 0001:0005e975       __load_CW                  1005f975 f   libucrt:common.obj
 0001:0005e98c       __convertTOStoQNaN         1005f98c f   libucrt:common.obj
 0001:0005e9a5       __fload_withFB             1005f9a5 f   libucrt:common.obj
 0001:0005e9e8       __checkTOS_withFB          1005f9e8 f   libucrt:common.obj
 0001:0005e9fe       __fast_exit                1005f9fe f   libucrt:common.obj
 0001:0005ea0b       __math_exit                1005fa0b f   libucrt:common.obj
 0001:0005ea35       __check_overflow_exit      1005fa35 f   libucrt:common.obj
 0001:0005ea49       __check_range_exit         1005fa49 f   libucrt:common.obj
 0001:0005eb50       __startTwoArgErrorHandling 1005fb50 f   libucrt:genexcep.obj
 0001:0005eb67       __startOneArgErrorHandling 1005fb67 f   libucrt:genexcep.obj
 0001:0005ebb7       ___libm_error_support      1005fbb7 f   libucrt:libm_error.obj
 0001:0005ee55       ___libm_setusermatherr     1005fe55 f   libucrt:libm_error.obj
 0001:0005ee8e       __ceil_default             1005fe8e f   libucrt:ceil.obj
 0001:0005ef75       ___acrt_LCMapStringW       1005ff75 f   libucrt:lcmapstringw.obj
 0001:0005efc2       ___p__fmode                1005ffc2 f   libucrt:txtmode.obj
 0001:0005efc8       __d_int                    1005ffc8 f   libucrt:_test.obj
 0001:0005f110       __dtest                    10060110 f   libucrt:_test.obj
 0001:0005f18d       __fd_int                   1006018d f   libucrt:_test.obj
 0001:0005f28f       __fdtest                   1006028f f   libucrt:_test.obj
 0001:0005f2f0       __fperrraise               100602f0 f   libucrt:_test.obj
 0001:0005f31b       __ld_int                   1006031b f   libucrt:_test.obj
 0001:0005f328       __ldtest                   10060328 f   libucrt:_test.obj
 0001:0005f3cd       __controlfp_s              100603cd f   libucrt:contrlfp.obj
 0001:0005f443       __d_inttype                10060443 f   libucrt:powhlp.obj
 0001:0005f4c7       __powhlp                   100604c7 f   libucrt:powhlp.obj
 0001:0005f63c       __87except                 1006063c f   libucrt:87except.obj
 0001:0005f789       __frnd                     10060789 f   libucrt:frnd.obj
 0001:0005f7a4       _fegetexceptflag           100607a4 f   libucrt:fegetexceptflag.obj
 0001:0005f7e1       _fesetexceptflag           100607e1 f   libucrt:fesetexceptflag.obj
 0001:0005f842       _fetestexcept              10060842 f   libucrt:fetestexcept.obj
 0001:0005f870       __FindPESection            10060870 f   LIBCMT:pesect.obj
 0001:0005f8d0       __IsNonwritableInCurrentImage 100608d0 f   LIBCMT:pesect.obj
 0001:0005f9c0       __ValidateImageBase        100609c0 f   LIBCMT:pesect.obj
 0001:0005fa00       __aulldvrm                 10060a00 f   LIBCMT:ulldvrm.obj
 0001:0005faba       ??1type_info@@UAE@XZ       10060aba f   LIBCMT:std_type_info_static.obj
 0001:0005fac1       ??_Etype_info@@UAEPAXI@Z   10060ac1 f i LIBCMT:std_type_info_static.obj
 0001:0005fac1       ??_Gtype_info@@UAEPAXI@Z   10060ac1 f i LIBCMT:std_type_info_static.obj
 0001:0005faf0       __SEH_prolog4_GS           10060af0 f   LIBCMT:_sehprolg4gs_.obj
 0001:0005fb39       __SEH_epilog4_GS           10060b39 f   LIBCMT:_sehprolg4gs_.obj
 0001:0005fb60       __allmul                   10060b60 f   LIBCMT:llmul.obj
 0001:0005fbb0       __alldvrm                  10060bb0 f   LIBCMT:lldvrm.obj
 0001:0005fcd0       __aullshr                  10060cd0 f   LIBCMT:ullshr.obj
 0001:0005fd00       __alloca_probe             10060d00 f   LIBCMT:chkstk.obj
 0001:0005fd00       __chkstk                   10060d00 f   LIBCMT:chkstk.obj
 0001:0005fd40       __alloca_probe_16          10060d40 f   LIBCMT:alloca16.obj
 0001:0005fd56       __alloca_probe_8           10060d56     LIBCMT:alloca16.obj
 0001:0005fd80       __allshl                   10060d80 f   LIBCMT:llshl.obj
 0001:0005fdb0       __ftol2_sse                10060db0 f   LIBCMT:_ftol2_.obj
 0001:0005fdb9       __ftol2_pentium4           10060db9 f   LIBCMT:_ftol2_.obj
 0001:0005fdcc       __ftol2_sse_excpt          10060dcc f   LIBCMT:_ftol2_.obj
 0001:0005fdf0       __ftol2                    10060df0 f   LIBCMT:_ftol2_.obj
 0001:0005fe92       __initialize_default_precision 10060e92 f   LIBCMT:default_precision.obj
 0001:0005febb       ??3@YAXPAXI@Z              10060ebb f   LIBCMT:delete_scalar_size.obj
 0001:0005fecc       ??3@YAXPAX@Z               10060ecc f   LIBCMT:delete_scalar.obj
 0001:0005fed2       _InterlockedPushEntrySList@8 10060ed2 f   kernel32:KERNEL32.dll
 0001:0005fed8       _InterlockedFlushSList@4   10060ed8 f   kernel32:KERNEL32.dll
 0001:0005fede       _RtlUnwind@16              10060ede f   kernel32:KERNEL32.dll
 0001:0005fee4       _GetLastError@0            10060ee4 f   kernel32:KERNEL32.dll
 0001:0005feea       _SetLastError@4            10060eea f   kernel32:KERNEL32.dll
 0001:0005fef0       _EnterCriticalSection@4    10060ef0 f   kernel32:KERNEL32.dll
 0001:0005fef6       _LeaveCriticalSection@4    10060ef6 f   kernel32:KERNEL32.dll
 0001:0005fefc       _DeleteCriticalSection@4   10060efc f   kernel32:KERNEL32.dll
 0001:0005ff02       _InitializeCriticalSectionAndSpinCount@8 10060f02 f   kernel32:KERNEL32.dll
 0001:0005ff08       _TlsAlloc@0                10060f08 f   kernel32:KERNEL32.dll
 0001:0005ff0e       _TlsGetValue@4             10060f0e f   kernel32:KERNEL32.dll
 0001:0005ff14       _TlsSetValue@8             10060f14 f   kernel32:KERNEL32.dll
 0001:0005ff1a       _TlsFree@4                 10060f1a f   kernel32:KERNEL32.dll
 0001:0005ff20       _FreeLibrary@4             10060f20 f   kernel32:KERNEL32.dll
 0001:0005ff26       _LoadLibraryExW@12         10060f26 f   kernel32:KERNEL32.dll
 0001:0005ff2c       _GetStdHandle@4            10060f2c f   kernel32:KERNEL32.dll
 0001:0005ff32       _GetFileType@4             10060f32 f   kernel32:KERNEL32.dll
 0001:0005ff38       _GetModuleFileNameA@12     10060f38 f   kernel32:KERNEL32.dll
 0001:0005ff3e       _GetModuleFileNameW@12     10060f3e f   kernel32:KERNEL32.dll
 0001:0005ff44       _GetModuleHandleExW@12     10060f44 f   kernel32:KERNEL32.dll
 0001:0005ff4a       _WriteConsoleW@20          10060f4a f   kernel32:KERNEL32.dll
 0001:0005ff50       _ExitProcess@4             10060f50 f   kernel32:KERNEL32.dll
 0001:0005ff56       _RaiseException@16         10060f56 f   kernel32:KERNEL32.dll
 0001:0005ff5c       _MultiByteToWideChar@24    10060f5c f   kernel32:KERNEL32.dll
 0001:0005ff62       _WideCharToMultiByte@32    10060f62 f   kernel32:KERNEL32.dll
 0001:0005ff68       _HeapFree@12               10060f68 f   kernel32:KERNEL32.dll
 0001:0005ff6e       _HeapAlloc@12              10060f6e f   kernel32:KERNEL32.dll
 0001:0005ff74       _GetDateFormatW@24         10060f74 f   kernel32:KERNEL32.dll
 0001:0005ff7a       _GetTimeFormatW@24         10060f7a f   kernel32:KERNEL32.dll
 0001:0005ff80       _CompareStringW@24         10060f80 f   kernel32:KERNEL32.dll
 0001:0005ff86       _LCMapStringW@24           10060f86 f   kernel32:KERNEL32.dll
 0001:0005ff8c       _GetLocaleInfoW@16         10060f8c f   kernel32:KERNEL32.dll
 0001:0005ff92       _IsValidLocale@8           10060f92 f   kernel32:KERNEL32.dll
 0001:0005ff98       _GetUserDefaultLCID@0      10060f98 f   kernel32:KERNEL32.dll
 0001:0005ff9e       _EnumSystemLocalesW@8      10060f9e f   kernel32:KERNEL32.dll
 0001:0005ffa4       _GetCurrentThread@0        10060fa4 f   kernel32:KERNEL32.dll
 0001:0005ffaa       _GetACP@0                  10060faa f   kernel32:KERNEL32.dll
 0001:0005ffb0       _WriteFile@20              10060fb0 f   kernel32:KERNEL32.dll
 0001:0005ffb6       _OutputDebugStringA@4      10060fb6 f   kernel32:KERNEL32.dll
 0001:0005ffbc       _OutputDebugStringW@4      10060fbc f   kernel32:KERNEL32.dll
 0001:0005ffc2       _CloseHandle@4             10060fc2 f   kernel32:KERNEL32.dll
 0001:0005ffc8       _WaitForSingleObjectEx@12  10060fc8 f   kernel32:KERNEL32.dll
 0001:0005ffce       _CreateThread@24           10060fce f   kernel32:KERNEL32.dll
 0001:0005ffd4       _SetConsoleCtrlHandler@8   10060fd4 f   kernel32:KERNEL32.dll
 0001:0005ffda       _HeapReAlloc@16            10060fda f   kernel32:KERNEL32.dll
 0001:0005ffe0       _ReadFile@20               10060fe0 f   kernel32:KERNEL32.dll
 0001:0005ffe6       _GetConsoleMode@8          10060fe6 f   kernel32:KERNEL32.dll
 0001:0005ffec       _ReadConsoleW@20           10060fec f   kernel32:KERNEL32.dll
 0001:0005fff2       _GetConsoleCP@0            10060ff2 f   kernel32:KERNEL32.dll
 0001:0005fff8       _DeleteFileW@4             10060ff8 f   kernel32:KERNEL32.dll
 0001:0005fffe       _SetFilePointerEx@20       10060ffe f   kernel32:KERNEL32.dll
 0001:00060004       _FindClose@4               10061004 f   kernel32:KERNEL32.dll
 0001:0006000a       _FindFirstFileExA@24       1006100a f   kernel32:KERNEL32.dll
 0001:00060010       _FindFirstFileExW@24       10061010 f   kernel32:KERNEL32.dll
 0001:00060016       _FindNextFileA@8           10061016 f   kernel32:KERNEL32.dll
 0001:0006001c       _FindNextFileW@8           1006101c f   kernel32:KERNEL32.dll
 0001:00060022       _IsValidCodePage@4         10061022 f   kernel32:KERNEL32.dll
 0001:00060028       _GetOEMCP@0                10061028 f   kernel32:KERNEL32.dll
 0001:0006002e       _GetCPInfo@8               1006102e f   kernel32:KERNEL32.dll
 0001:00060034       _GetCommandLineA@0         10061034 f   kernel32:KERNEL32.dll
 0001:0006003a       _GetCommandLineW@0         1006103a f   kernel32:KERNEL32.dll
 0001:00060040       _GetEnvironmentStringsW@0  10061040 f   kernel32:KERNEL32.dll
 0001:00060046       _FreeEnvironmentStringsW@4 10061046 f   kernel32:KERNEL32.dll
 0001:0006004c       _SetEnvironmentVariableA@8 1006104c f   kernel32:KERNEL32.dll
 0001:00060052       _SetEnvironmentVariableW@8 10061052 f   kernel32:KERNEL32.dll
 0001:00060058       _GetProcessHeap@0          10061058 f   kernel32:KERNEL32.dll
 0001:0006005e       _GetStringTypeW@16         1006105e f   kernel32:KERNEL32.dll
 0001:00060064       _FlushFileBuffers@4        10061064 f   kernel32:KERNEL32.dll
 0001:0006006a       _SetStdHandle@8            1006106a f   kernel32:KERNEL32.dll
 0001:00060070       _CreateFileW@28            10061070 f   kernel32:KERNEL32.dll
 0001:00060076       _HeapSize@12               10061076 f   kernel32:KERNEL32.dll
 0001:0006007c       _SetEndOfFile@4            1006107c f   kernel32:KERNEL32.dll
 0001:00060082       _EncodePointer@4           10061082 f   kernel32:KERNEL32.dll
 0001:00060088       _DecodePointer@4           10061088 f   kernel32:KERNEL32.dll
 0001:00060090       _strrchr                   10061090 f   libvcruntime:strrchr.obj
 0001:00060377       _memcmp                    10061377 f   libvcruntime:_memcmp_.obj
 0001:00063e5f       _wcschr                    10064e5f f   libvcruntime:wcschr.obj
 0002:00000000       ___xc_a                    10065000     LIBCMT:initializers.obj
 0002:00000104       ___xc_z                    10065104     LIBCMT:initializers.obj
 0002:00000208       ___xi_a                    10065208     LIBCMT:initializers.obj
 0002:0000030c       ___acrt_stdio_initializer  1006530c     libucrt:stdio_initializer.obj
 0002:00000310       ___acrt_multibyte_initializer 10065310     libucrt:multibyte_initializer.obj
 0002:00000314       ___acrt_tran_sse2_initializer 10065314     libucrt:sse2_initializer.obj
 0002:0000041c       ___xi_z                    1006541c     LIBCMT:initializers.obj
 0002:00000520       ___xp_a                    10065520     LIBCMT:initializers.obj
 0002:00000624       ___acrt_locale_terminator  10065624     libucrt:locale_initializer.obj
 0002:00000628       ___dcrt_console_output_terminator 10065628     libucrt:console_output_initializer.obj
 0002:00000730       ___acrt_stdio_terminator   10065730     libucrt:stdio_initializer.obj
 0002:00000834       ___xp_z                    10065834     LIBCMT:initializers.obj
 0002:00000938       ___xt_a                    10065938     LIBCMT:initializers.obj
 0002:00000a3c       ___xt_z                    10065a3c     LIBCMT:initializers.obj
 0002:00000b40       ??_C@_00CNPNBAHC@?$AA@     10065b40     dc_motor_encoder_hardware_simulated.obj
 0002:00000b44       ??_C@_08INHBMDAJ@Setpoint?$AA@ 10065b44     dc_motor_encoder_hardware_simulated.obj
 0002:00000b50       ??_C@_0N@HEKJLKAN@Error?5Signal?$AA@ 10065b50     dc_motor_encoder_hardware_simulated.obj
 0002:00000b60       ??_C@_04MEMAJGDJ@name?$AA@ 10065b60     dc_motor_encoder_hardware_simulated.obj
 0002:00000b68       ??_C@_0DB@PDLLCKGK@dc_motor_encoder_hardware_simula@ 10065b68     dc_motor_encoder_hardware_simulated.obj
 0002:00000ba4       ??_C@_0DE@MGCIIPFO@dc_motor_encoder_hardware_simula@ 10065ba4     dc_motor_encoder_hardware_simulated.obj
 0002:00000be4       ??_C@_0DB@PNLHGEHI@dc_motor_encoder_hardware_simula@ 10065be4     dc_motor_encoder_hardware_simulated.obj
 0002:00000c20       ??_C@_0CO@LLANFGIC@dc_motor_encoder_hardware_simula@ 10065c20     dc_motor_encoder_hardware_simulated.obj
 0002:00000c58       _dc_motor_encoder_hardware_simulated_M 10065c58     dc_motor_encoder_hardware_simulated.obj
 0002:00000cd4       ??_C@_0BI@PEBACBDB@Error?5creating?5scope?53?6?$AA@ 10065cd4     dc_motor_encoder_hardware_simulated.obj
 0002:00000cf0       ??_C@_07PFAGFFFO@Gain?1s1?$AA@ 10065cf0     dc_motor_encoder_hardware_simulated.obj
 0002:00000cfc       ??_C@_07NOCLAGJN@Gain?1s2?$AA@ 10065cfc     dc_motor_encoder_hardware_simulated.obj
 0002:00000d08       ??_C@_07MHDADHNM@Gain?1s3?$AA@ 10065d08     dc_motor_encoder_hardware_simulated.obj
 0002:00000d14       ??_C@_0BG@HCGNMBDA@Setpoint?5?5?5?5?5?5?5?5?$CF3?42f?$AA@ 10065d14     dc_motor_encoder_hardware_simulated.obj
 0002:00000d30       ??_C@_0BG@KBNMBNLJ@Motor?5Position?5?5?$CF3?42f?$AA@ 10065d30     dc_motor_encoder_hardware_simulated.obj
 0002:00000d4c       ??_C@_0BG@OKNLFNOK@Error?5Signal?5?5?5?5?$CF3?42f?$AA@ 10065d4c     dc_motor_encoder_hardware_simulated.obj
 0002:00000d68       ??_C@_0BI@PBFPDHLE@Error?5creating?5scope?54?6?$AA@ 10065d68     dc_motor_encoder_hardware_simulated.obj
 0002:00000d84       ??_C@_0P@GBJHHIJP@Magnet_Control?$AA@ 10065d84     dc_motor_encoder_hardware_simulated.obj
 0002:00000d98       ??_C@_0BI@PFNCELAG@Error?5creating?5scope?52?6?$AA@ 10065d98     dc_motor_encoder_hardware_simulated.obj
 0002:00000db4       ??_C@_04JMNNLCJG@Sum1?$AA@ 10065db4     dc_motor_encoder_hardware_simulated.obj
 0002:00000dbc       ??_C@_0BI@PDBJIJON@Error?5creating?5scope?57?6?$AA@ 10065dbc     dc_motor_encoder_hardware_simulated.obj
 0002:00000dd8       ??_C@_0BF@IJDKOOBM@switching?5logic?1Sum2?$AA@ 10065dd8     dc_motor_encoder_hardware_simulated.obj
 0002:00000df4       ??_C@_0BI@PHJEPFFP@Error?5creating?5scope?51?6?$AA@ 10065df4     dc_motor_encoder_hardware_simulated.obj
 0002:00000e10       ??_C@_04CNCNIFFP@gain?$AA@ 10065e10     dc_motor_encoder_hardware_simulated.obj
 0002:00000e18       ??_C@_0BI@PAJNFNID@Error?5creating?5scope?55?6?$AA@ 10065e18     dc_motor_encoder_hardware_simulated.obj
 0002:00000e34       ??_C@_05JIDBFJIA@Q4?5AD?$AA@ 10065e34     dc_motor_encoder_hardware_simulated.obj
 0002:00000e3c       ??_C@_04CMIMOENB@ode3?$AA@ 10065e3c     dc_motor_encoder_hardware_simulated.obj
 0002:00000e44       ??_C@_04EPKDLPPB@tout?$AA@ 10065e44     dc_motor_encoder_hardware_simulated.obj
 0002:00000e4c       ??_C@_03HBFGMJOD@rt_?$AA@  10065e4c     dc_motor_encoder_hardware_simulated.obj
 0002:00000e50       ??_C@_04LHDDHLEA@yout?$AA@ 10065e50     dc_motor_encoder_hardware_simulated.obj
 0002:00000e58       ??_C@_0BO@FGDALDHL@Channel?50?5of?5?6Encoder?5Inputs?5?$AA@ 10065e58     dc_motor_encoder_hardware_simulated.obj
 0002:00000e80       ??_C@_0EN@IKJJKIPM@dc_motor_encoder_hardware_simula@ 10065e80     dc_motor_encoder_hardware_simulated.obj
 0002:00000edc       ??_C@_0DH@LFMGCAGH@Channel?50?5?9Control?5signal?5to?5?6mo@ 10065edc     dc_motor_encoder_hardware_simulated.obj
 0002:00000f20       ??_C@_0GG@BIKDCAA@dc_motor_encoder_hardware_simula@ 10065f20     dc_motor_encoder_hardware_simulated.obj
 0002:00000f9c       ??_C@_0CK@DMDKFCNC@dc_motor_encoder_hardware_simula@ 10065f9c     dc_motor_encoder_hardware_simulated.obj
 0002:00000fd0       __real@3f50624dd2f1a9fc    10065fd0     dc_motor_encoder_hardware_simulated.obj
 0002:00000fe0       __real@3fcc71c71c71c71c    10065fe0     dc_motor_encoder_hardware_simulated.obj
 0002:00000ff0       __real@3fd5555555555555    10065ff0     dc_motor_encoder_hardware_simulated.obj
 0002:00001000       __real@3fdc71c71c71c71c    10066000     dc_motor_encoder_hardware_simulated.obj
 0002:00001010       __real@3fe0000000000000    10066010     dc_motor_encoder_hardware_simulated.obj
 0002:00001020       __real@3fe8000000000000    10066020     dc_motor_encoder_hardware_simulated.obj
 0002:00001030       __real@3ff0000000000000    10066030     dc_motor_encoder_hardware_simulated.obj
 0002:00001040       __real@4000000000000000    10066040     dc_motor_encoder_hardware_simulated.obj
 0002:00001050       __real@4008000000000000    10066050     dc_motor_encoder_hardware_simulated.obj
 0002:00001060       __real@4024000000000000    10066060     dc_motor_encoder_hardware_simulated.obj
 0002:00001070       __real@4065400000000000    10066070     dc_motor_encoder_hardware_simulated.obj
 0002:00001080       __real@4066800000000000    10066080     dc_motor_encoder_hardware_simulated.obj
 0002:00001090       __real@4069000000000000    10066090     dc_motor_encoder_hardware_simulated.obj
 0002:000010a0       __real@407f400000000000    100660a0     dc_motor_encoder_hardware_simulated.obj
 0002:000010b0       __real@41f0000000000000    100660b0     dc_motor_encoder_hardware_simulated.obj
 0002:000010c0       __real@bff0000000000000    100660c0     dc_motor_encoder_hardware_simulated.obj
 0002:000010d0       __real@c066800000000000    100660d0     dc_motor_encoder_hardware_simulated.obj
 0002:000010e0       __xmm@00000073000000220000003200000002 100660e0     dc_motor_encoder_hardware_simulated.obj
 0002:00001100       __xmm@3f50624dd2f1a9fc0000000000000000 10066100     dc_motor_encoder_hardware_simulated.obj
 0002:00001120       __xmm@41f00000000000000000000000000000 10066120     dc_motor_encoder_hardware_simulated.obj
 0002:00001138       __real@3cb0000000000000    10066138     rt_matrx.obj
 0002:00001bc8       ??_C@_06FHHEOIJI@Estop?5?$AA@ 10066bc8     dc_motor_encoder_hardware_simulated_capi.obj
 0002:00001bd0       ??_C@_0M@BBMKJJKL@Derivative1?$AA@ 10066bd0     dc_motor_encoder_hardware_simulated_capi.obj
 0002:00001be0       ??_C@_04OMOMKKFL@Gain?$AA@ 10066be0     dc_motor_encoder_hardware_simulated_capi.obj
 0002:00001be8       ??_C@_02HNOAOKGP@Kd?$AA@   10066be8     dc_motor_encoder_hardware_simulated_capi.obj
 0002:00001bec       ??_C@_02MIEOJECC@Ki?$AA@   10066bec     dc_motor_encoder_hardware_simulated_capi.obj
 0002:00001bf0       ??_C@_02FDEODNDK@Kp?$AA@   10066bf0     dc_motor_encoder_hardware_simulated_capi.obj
 0002:00001bf4       ??_C@_0M@FOFKEGEP@Integrator1?$AA@ 10066bf4     dc_motor_encoder_hardware_simulated_capi.obj
 0002:00001c04       ??_C@_04OBKKEGND@Sum4?$AA@ 10066c04     dc_motor_encoder_hardware_simulated_capi.obj
 0002:00001c0c       ??_C@_0O@KLKAEEDE@Manual?5Switch?$AA@ 10066c0c     dc_motor_encoder_hardware_simulated_capi.obj
 0002:00001c20       ??_C@_0EN@BAAEGADN@Real?5motor?1angular_position?5?$DN?5?5?$FL@ 10066c20     dc_motor_encoder_hardware_simulated_capi.obj
 0002:00001c7c       ??_C@_0BG@IEJBBPNL@Real?5motor?1Saturation?$AA@ 10066c7c     dc_motor_encoder_hardware_simulated_capi.obj
 0002:00001c98       ??_C@_0CJ@GBFCCONM@Real?5motor?1Channel?50?5of?5?5Encoder@ 10066c98     dc_motor_encoder_hardware_simulated_capi.obj
 0002:00001ccc       ??_C@_0BN@JFKEALAE@Simulated?5motor?1Back?5emf?5Ke1?$AA@ 10066ccc     dc_motor_encoder_hardware_simulated_capi.obj
 0002:00001cf0       ??_C@_0BL@JFAIANOE@Simulated?5motor?1Damping?5b1?$AA@ 10066cf0     dc_motor_encoder_hardware_simulated_capi.obj
 0002:00001d10       ??_C@_0BJ@JADIAMI@Simulated?5motor?1Gain?5Kt2?$AA@ 10066d10     dc_motor_encoder_hardware_simulated_capi.obj
 0002:00001d30       ??_C@_0BJ@BABILBIJ@Simulated?5motor?1Gain?5Kt3?$AA@ 10066d30     dc_motor_encoder_hardware_simulated_capi.obj
 0002:00001d50       ??_C@_0BL@GGHHPFCL@Simulated?5motor?1Inductance?$AA@ 10066d50     dc_motor_encoder_hardware_simulated_capi.obj
 0002:00001d70       ??_C@_0BO@KPGEGBOH@Simulated?5motor?1Resistance?5R1?$AA@ 10066d70     dc_motor_encoder_hardware_simulated_capi.obj
 0002:00001d94       ??_C@_0BM@HPJMPEDA@Simulated?5motor?1Integrator1?$AA@ 10066d94     dc_motor_encoder_hardware_simulated_capi.obj
 0002:00001db8       ??_C@_0BM@BLPADBDE@Simulated?5motor?1Integrator5?$AA@ 10066db8     dc_motor_encoder_hardware_simulated_capi.obj
 0002:00001ddc       ??_C@_0BM@DANNGCPH@Simulated?5motor?1Integrator6?$AA@ 10066ddc     dc_motor_encoder_hardware_simulated_capi.obj
 0002:00001e00       ??_C@_0BF@MILJHLKE@Simulated?5motor?1Sum1?$AA@ 10066e00     dc_motor_encoder_hardware_simulated_capi.obj
 0002:00001e1c       ??_C@_0BF@ODJECIGH@Simulated?5motor?1Sum2?$AA@ 10066e1c     dc_motor_encoder_hardware_simulated_capi.obj
 0002:00001e38       ??_C@_0DA@JPBADGKG@input?5side?5switching?5logic?1compl@ 10066e38     dc_motor_encoder_hardware_simulated_capi.obj
 0002:00001e74       ??_C@_0CD@MBHAIBOH@input?5side?5switching?5logic?1Produ@ 10066e74     dc_motor_encoder_hardware_simulated_capi.obj
 0002:00001ea0       ??_C@_0CE@PIPCAAOI@input?5side?5switching?5logic?1Produ@ 10066ea0     dc_motor_encoder_hardware_simulated_capi.obj
 0002:00001ecc       ??_C@_0CG@LEACHJAL@switching?5logic?1complement?5the?5i@ 10066ecc     dc_motor_encoder_hardware_simulated_capi.obj
 0002:00001efc       ??_C@_0BJ@NAFHJMMA@switching?5logic?1Product2?$AA@ 10066efc     dc_motor_encoder_hardware_simulated_capi.obj
 0002:00001f1c       ??_C@_0BJ@MJEMKNIB@switching?5logic?1Product3?$AA@ 10066f1c     dc_motor_encoder_hardware_simulated_capi.obj
 0002:00001f3c       ??_C@_0CL@DBFIMAMP@1?5?9?5Use?5simulated?5motor?50?5?9?5Use?5@ 10066f3c     dc_motor_encoder_hardware_simulated_capi.obj
 0002:00001f70       ??_C@_05LPIJGKJ@Value?$AA@ 10066f70     dc_motor_encoder_hardware_simulated_capi.obj
 0002:00001f78       ??_C@_0BN@HCLDHBCH@Desired?5position?5?5in?5degrees?$AA@ 10066f78     dc_motor_encoder_hardware_simulated_capi.obj
 0002:00001f9c       ??_C@_0N@EMLFCCGC@Matlab_Input?$AA@ 10066f9c     dc_motor_encoder_hardware_simulated_capi.obj
 0002:00001fac       ??_C@_0BB@CFEOEMDC@InitialCondition?$AA@ 10066fac     dc_motor_encoder_hardware_simulated_capi.obj
 0002:00001fc0       ??_C@_02KKFPAPOP@P1?$AA@   10066fc0     dc_motor_encoder_hardware_simulated_capi.obj
 0002:00001fc4       ??_C@_02IBHCFMCM@P2?$AA@   10066fc4     dc_motor_encoder_hardware_simulated_capi.obj
 0002:00001fc8       ??_C@_02JIGJGNGN@P3?$AA@   10066fc8     dc_motor_encoder_hardware_simulated_capi.obj
 0002:00001fcc       ??_C@_02MODDMKOL@P5?$AA@   10066fcc     dc_motor_encoder_hardware_simulated_capi.obj
 0002:00001fd0       ??_C@_02OFBOJJCI@P6?$AA@   10066fd0     dc_motor_encoder_hardware_simulated_capi.obj
 0002:00001fd4       ??_C@_02PMAFKIGJ@P7?$AA@   10066fd4     dc_motor_encoder_hardware_simulated_capi.obj
 0002:00001fd8       ??_C@_0P@HMEAEHIM@CurrentSetting?$AA@ 10066fd8     dc_motor_encoder_hardware_simulated_capi.obj
 0002:00001fec       ??_C@_0L@FBCGKKEN@UpperLimit?$AA@ 10066fec     dc_motor_encoder_hardware_simulated_capi.obj
 0002:00001ffc       ??_C@_0L@DGFJOHKP@LowerLimit?$AA@ 10066ffc     dc_motor_encoder_hardware_simulated_capi.obj
 0002:00002010       ??_C@_0EC@LJCFPBCG@Real?5motor?1Channel?50?5?9Control?5si@ 10067010     dc_motor_encoder_hardware_simulated_capi.obj
 0002:00002060       ??_C@_02NHCIPLKK@P4?$AA@   10067060     dc_motor_encoder_hardware_simulated_capi.obj
 0002:00002064       ??_C@_02HLJNLEKG@P8?$AA@   10067064     dc_motor_encoder_hardware_simulated_capi.obj
 0002:00002068       ??_C@_02GCIGIFOH@P9?$AA@   10067068     dc_motor_encoder_hardware_simulated_capi.obj
 0002:0000206c       ??_C@_03OPFJJGBF@P10?$AA@  1006706c     dc_motor_encoder_hardware_simulated_capi.obj
 0002:00002070       ??_C@_03PGECKHFE@P11?$AA@  10067070     dc_motor_encoder_hardware_simulated_capi.obj
 0002:00002074       ??_C@_03NNGPPEJH@P12?$AA@  10067074     dc_motor_encoder_hardware_simulated_capi.obj
 0002:00002078       ??_C@_06BNJCAIGJ@double?$AA@ 10067078     dc_motor_encoder_hardware_simulated_capi.obj
 0002:00002080       ??_C@_06CNMIJIPB@real_T?$AA@ 10067080     dc_motor_encoder_hardware_simulated_capi.obj
 0002:00002088       ??_C@_0O@PPAIJIHF@unsigned?5char?$AA@ 10067088     dc_motor_encoder_hardware_simulated_capi.obj
 0002:00002098       ??_C@_09JBMFCIMO@boolean_T?$AA@ 10067098     dc_motor_encoder_hardware_simulated_capi.obj
 0002:000020a4       ??_C@_07NCEHLPOC@uint8_T?$AA@ 100670a4     dc_motor_encoder_hardware_simulated_capi.obj
 0002:000020b0       ??_C@_05KNFBNCOH@float?$AA@ 100670b0     dc_motor_encoder_hardware_simulated_capi.obj
 0002:000020b8       _serialfifoground          100670b8     xpc_datatype_ground.obj
 0002:000020c4       _bcmsg1553ground           100670c4     xpc_datatype_ground.obj
 0002:000020d4       _bcstatground              100670d4     xpc_datatype_ground.obj
 0002:000020ec       _bmmsg1553ground           100670ec     xpc_datatype_ground.obj
 0002:00002128       ??_C@_0BI@INNPNFJN@Memory?5Allocation?5Error?$AA@ 10067128     rtw_modelmap_utils.obj
 0002:00002148       ??_C@_1HC@IFMGIDHA@?$AAC?$AA?3?$AA?2?$AAP?$AAR?$AAO?$AAG?$AAR?$AAA?$AA?$HO?$AA1?$AA?2?$AAM?$AAA?$AAT?$AAL?$AAA?$AAB?$AA?2?$AAR?$AA2?$AA0?$AA1?$AA7?$AAa?$AA?2?$AAr?$AAt?$AAw?$AA?2?$AAc?$AA?2@ 10067148     rtw_modelmap_utils.obj
 0002:000021d0       ??_C@_1CI@OEAJCJND@?$AAj?$AA?5?$AA?$DN?$AA?$DN?$AA?5?$AAe?$AAn?$AAc?$AAo?$AAd?$AAe?$AAd?$AAP?$AAa?$AAt?$AAh?$AAL?$AAe?$AAn?$AA?$AA@ 100671d0     rtw_modelmap_utils.obj
 0002:00002200       ??_C@_1DC@NFAOIFKB@?$AAe?$AAn?$AAc?$AAo?$AAd?$AAe?$AAd?$AAP?$AAa?$AAt?$AAh?$AA?$FL?$AAj?$AA?9?$AA1?$AA?$FN?$AA?5?$AA?$DN?$AA?$DN?$AA?5?$AA?8?$AA?2?$AA0?$AA?8?$AA?$AA@ 10067200     rtw_modelmap_utils.obj
 0002:0000223c       ??_C@_1DI@FLNJGPEE@?$AAs?$AAi?$AAg?$AAC?$AAo?$AAm?$AAp?$AAl?$AAe?$AAx?$AAi?$AAt?$AAy?$AA?$FL?$AA?$CK?$AAs?$AAi?$AAg?$AAI?$AAd?$AAx?$AA?$FN?$AA?5?$AA?$CB?$AA?$DN?$AA?5?$AA1?$AA?$AA@ 1006723c     rtw_modelmap_utils.obj
 0002:00002280       ??_C@_1KI@OFELMGBG@?$AA?$CI?$AA?$CI?$AA?$CI?$AAd?$AAa?$AAt?$AAa?$AAT?$AAy?$AAp?$AAe?$AAM?$AAa?$AAp?$AA?$CJ?$AA?$FL?$AA?$CI?$AA?$CI?$AA?$CI?$AAs?$AAt?$AAa?$AAt?$AAe?$AAs?$AA?$CJ?$AA?$FL?$AA?$CI?$AAi?$AA?$CJ?$AA?$FN?$AA?4@ 10067280     rtw_modelmap_utils.obj
 0002:0000234c       ??_C@_1DA@ILCMPHNE@?$AAf?$AAu?$AAl?$AAl?$AAP?$AAa?$AAt?$AAh?$AA?5?$AA?$CB?$AA?$DN?$AA?5?$AA?$CI?$AA?$CI?$AAv?$AAo?$AAi?$AAd?$AA?5?$AA?$CK?$AA?$CJ?$AA0?$AA?$CJ?$AA?$AA@ 1006734c     rtw_modelmap_utils.obj
 0002:00002388       ??_C@_1CI@OEPPFCCA@?$AAp?$AAa?$AAt?$AAh?$AA?5?$AA?$CB?$AA?$DN?$AA?5?$AA?$CI?$AA?$CI?$AAv?$AAo?$AAi?$AAd?$AA?5?$AA?$CK?$AA?$CJ?$AA0?$AA?$CJ?$AA?$AA@ 10067388     rtw_modelmap_utils.obj
 0002:000023b8       ??_C@_1FK@GLJIMFHB@?$AA?$CI?$AA?$CI?$AAm?$AAm?$AAi?$AA?$CJ?$AA?9?$AA?$DO?$AAI?$AAn?$AAs?$AAt?$AAa?$AAn?$AAc?$AAe?$AAM?$AAa?$AAp?$AA?4?$AAf?$AAu?$AAl?$AAl?$AAP?$AAa?$AAt?$AAh?$AA?$CJ?$AA?5?$AA?$DN?$AA?$DN@ 100673b8     rtw_modelmap_utils.obj
 0002:00002424       ??_C@_1DG@HPCJGNCE@?$AAm?$AAm?$AAi?$AAP?$AAa?$AAt?$AAh?$AA?$FL?$AAp?$AAa?$AAt?$AAh?$AAL?$AAe?$AAn?$AA?9?$AA1?$AA?$FN?$AA?5?$AA?$DN?$AA?$DN?$AA?5?$AA?8?$AA?2?$AA0?$AA?8?$AA?$AA@ 10067424     rtw_modelmap_utils.obj
 0002:00002464       ??_C@_1DM@DBAOGGOO@?$AAm?$AAm?$AAi?$AAP?$AAa?$AAt?$AAh?$AA?$FL?$AAm?$AAm?$AAi?$AAP?$AAa?$AAt?$AAh?$AAL?$AAe?$AAn?$AA?9?$AA1?$AA?$FN?$AA?5?$AA?$DN?$AA?$DN?$AA?5?$AA?8?$AA?2?$AA0?$AA?8?$AA?$AA@ 10067464     rtw_modelmap_utils.obj
 0002:000024ac       ??_C@_1DC@LHIAKAFE@?$AAb?$AAl?$AAo?$AAc?$AAk?$AAP?$AAa?$AAt?$AAh?$AA?5?$AA?$CB?$AA?$DN?$AA?5?$AA?$CI?$AA?$CI?$AAv?$AAo?$AAi?$AAd?$AA?5?$AA?$CK?$AA?$CJ?$AA0?$AA?$CJ?$AA?$AA@ 100674ac     rtw_modelmap_utils.obj
 0002:000024e8       ??_C@_1GI@KIEJKPGC@?$AAf?$AAu?$AAl?$AAl?$AAS?$AAt?$AAa?$AAt?$AAe?$AAB?$AAl?$AAo?$AAc?$AAk?$AAP?$AAa?$AAt?$AAh?$AA?$FL?$AAf?$AAu?$AAl?$AAl?$AAS?$AAt?$AAa?$AAt?$AAe?$AAB?$AAl?$AAo?$AAc@ 100674e8     rtw_modelmap_utils.obj
 0002:00002568       ??_C@_1EE@DNPIBJHC@?$AA?$CI?$AA?$CI?$AAd?$AAi?$AAm?$AAM?$AAa?$AAp?$AA?$CJ?$AA?$FL?$AA?$CI?$AAm?$AAa?$AAp?$AAI?$AAd?$AAx?$AA?$CJ?$AA?$FN?$AA?4?$AAn?$AAu?$AAm?$AAD?$AAi?$AAm?$AAs?$AA?$CJ?$AA?5?$AA?$DN?$AA?$DN?$AA?5@ 10067568     rtw_modelmap_utils.obj
 0002:000025bc       ??_C@_06JFOKFOED@CSTATE?$AA@ 100675bc     rtw_modelmap_utils.obj
 0002:000025c4       ??_C@_06FAENGAMN@DSTATE?$AA@ 100675c4     rtw_modelmap_utils.obj
 0002:000025cc       ??_C@_1BI@LEBJNOGG@?$AAc?$AAs?$AAv?$AAI?$AAd?$AAx?$AA?5?$AA?$DO?$AA?$DN?$AA?5?$AA0?$AA?$AA@ 100675cc     rtw_modelmap_utils.obj
 0002:000025e8       ??_C@_1BA@KDMGHCHP@?$AAT?$AAI?$AAD?$AA?$DN?$AA?$DN?$AA?9?$AA1?$AA?$AA@ 100675e8     rtw_modelmap_utils.obj
 0002:000025fc       ??_C@_1DM@DHGKBPCE@?$AAs?$AAi?$AAg?$AAP?$AAa?$AAt?$AAh?$AA?$FL?$AAs?$AAi?$AAg?$AAP?$AAa?$AAt?$AAh?$AAL?$AAe?$AAn?$AA?9?$AA1?$AA?$FN?$AA?5?$AA?$DN?$AA?$DN?$AA?5?$AA?8?$AA?2?$AA0?$AA?8?$AA?$AA@ 100675fc     rtw_modelmap_utils.obj
 0002:00002ea8       ??_C@_0DJ@FHKINPLE@Unexpected?5itemKind?5?$DN?5DATA_ITEM?5@ 10067ea8     rt_logging.obj
 0002:00002eec       ??_C@_0DA@IEHFPFCJ@Unexpected?5itemKind?$DN?$CFd?5in?5rt_Pro@ 10067eec     rt_logging.obj
 0002:00002f28       ??_C@_0DA@IFLHJPBO@Unexpected?5itemKind?$DN?$CFd?5in?5rt_Pro@ 10067f28     rt_logging.obj
 0002:00002f64       ??_C@_0DA@IAPIIJJL@Unexpected?5itemKind?$DN?$CFd?5in?5rt_Pro@ 10067f64     rt_logging.obj
 0002:00002fa0       ??_C@_0BE@LCIGPJIG@MATLAB?55?40?5MAT?9file?$AA@ 10067fa0     rt_logging.obj
 0002:00002fb8       ??_C@_0FB@PCJEAJIB@?$CK?$CK?$CK?5Log?5variable?5?$CFs?5has?5wrapped?5@ 10067fb8     rt_logging.obj
 0002:00003020       ??_C@_0MG@NKMLMOGF@?$CK?$CK?$CK?5To?5avoid?5wrapping?0?5explicitl@ 10068020     rt_logging.obj
 0002:00003110       ??_C@_0N@IPAEOLLP@_rtw_tmw?4tmw?$AA@ 10068110     rt_logging.obj
 0002:00003120       ??_C@_04HDOCAJNK@?$CFs?$CFs?$AA@ 10068120     rt_logging.obj
 0002:00003128       ??_C@_03ELIABIOC@w?$CLb?$AA@ 10068128     rt_logging.obj
 0002:0000312c       ??_C@_0BF@JPILDDFA@?$CK?$CK?$CK?5Error?5opening?5?$CFs?$AA@ 1006812c     rt_logging.obj
 0002:00003148       ??_C@_0BK@EEMDELA@unable?5to?5open?5data?5file?6?$AA@ 10068148     rt_logging.obj
 0002:00003168       ??_C@_04CGFJFPFD@none?$AA@ 10068168     rt_logging.obj
 0002:00003170       ??_C@_0EE@LCGFPNON@?$CK?$CK?$CK?5Error?5creating?5signals?5struc@ 10068170     rt_logging.obj
 0002:000031c4       ??_C@_0CE@NHECEDMK@?$CK?$CK?$CK?5Error?5creating?5log?5variable?5@ 100681c4     rt_logging.obj
 0002:000031f0       ??_C@_0DB@IOCGKAGH@?$CK?$CK?$CK?5Errors?5occurred?5when?5startin@ 100681f0     rt_logging.obj
 0002:0000322c       ??_C@_0BO@BBLOGEBK@?$CK?$CK?$CK?5Memory?5allocation?5error?4?6?$AA@ 1006822c     rt_logging.obj
 0002:00003250       ??_C@_0N@LGFBAGEL@?5?$CIreal?5part?$CJ?$AA@ 10068250     rt_logging.obj
 0002:00003260       ??_C@_0KH@CGNMHNFE@?5?5?5?5varName?5?5?5?5?5?5?5?5?5?5?$DN?5?$CFs?$CFs?6?5?5?5?5@ 10068260     rt_logging.obj
 0002:00003328       ??_C@_0LE@OALKKEFM@?5?5?5?5varName?5?5?5?5?5?5?5?5?5?5?$DN?5?$CFs?5?$CIcompl@ 10068328     rt_logging.obj
 0002:00003400       ??_C@_0KF@JDDLEOKO@?5?5?5?5varName?5?5?5?5?5?5?5?5?5?5?$DN?5?$CFs?6?5?5?5?5nR@ 10068400     rt_logging.obj
 0002:000034c8       ??_C@_0DP@HPDMIOFM@?$CK?$CK?$CK?5Using?5a?5default?5buffer?5of?5si@ 100684c8     rt_logging.obj
 0002:00003518       ??_C@_0KE@JEFOLKNF@?6?$CK?$CK?$CK?5Memory?5required?5to?5log?5vari@ 10068518     rt_logging.obj
 0002:000035e0       ??_C@_0JP@DKLMHCBI@?$CK?$CK?$CK?5Details?3?6?5?5?5?5?5?5?5varName?5?5?5?5?5@ 100685e0     rt_logging.obj
 0002:000036a0       ??_C@_0CM@CAMILBED@?$CK?$CK?$CK?5Error?5allocating?5memory?5for?5@ 100686a0     rt_logging.obj
 0002:000036d4       ??_C@_0DF@BBCNMOPM@?$CK?$CK?$CK?5Error?5allocating?5memory?5for?5@ 100686d4     rt_logging.obj
 0002:00003718       ??_C@_0JP@DBCLPCCI@?$CK?$CK?$CK?5Details?3?6?5?5?5?5?5?5?5varName?5?5?5?5?5@ 10068718     rt_logging.obj
 0002:000037d8       ??_C@_0FK@DPGAOBGA@?$CK?$CK?$CK?5Error?5allocating?5memory?5for?5@ 100687d8     rt_logging.obj
 0002:00003844       ??_C@_0BI@GGDNPHLJ@?$CK?$CK?$CK?5Error?5writing?5to?5?$CFs?$AA@ 10068844     rt_logging.obj
 0002:00003860       ??_C@_0CB@IBGJGELG@?$CK?$CK?$CK?5Error?5writing?5?$CFs?5due?5to?3?5?$CFs?6@ 10068860     rt_logging.obj
 0002:00003888       ??_C@_0CN@FLMCHCPB@?$CK?$CK?$CK?5Error?5writing?5log?5variable?5?$CF@ 10068888     rt_logging.obj
 0002:000038c0       ??_C@_0DH@GAJCNOJP@?$CK?$CK?$CK?5Error?5writing?5structure?5log?5@ 100688c0     rt_logging.obj
 0002:00003904       ??_C@_0BD@POEALECL@?$CK?$CK?5created?5?$CFs?5?$CK?$CK?6?6?$AA@ 10068904     rt_logging.obj
 0002:00003920       __real@0000000000000000    10068920     rt_logging.obj
 0002:00003930       __real@4020000000000000    10068930     rt_logging.obj
 0002:00003940       __real@41dfffffffc00000    10068940     rt_logging.obj
 0002:00003950       __real@41efffffffe00000    10068950     rt_logging.obj
 0002:00003960       __real@4330000000000000    10068960     rt_logging.obj
 0002:00003970       __real@8000000000000000    10068970     rt_logging.obj
 0002:00003980       __real@bfbf9add3afd2773    10068980     rt_logging.obj
 0002:00003990       __real@c000000000000000    10068990     rt_logging.obj
 0002:000039a0       __xmm@20202020202020202020202020202020 100689a0     rt_logging.obj
 0002:000039b4       ??_C@_0CE@NCNPFGND@dc_motor_encoder_hardware_simula@ 100689b4     xpctarget.obj
 0002:000039e0       _ptsetfilename             100689e0     xpctarget.obj
 0002:000039e4       _xmlfile                   100689e4     xpctarget.obj
 0002:000039ec       ??_C@_0L@CHBJKKFC@xpceSetVar?$AA@ 100689ec     xpctarget.obj
 0002:000039fc       ??_C@_03LADEHNAB@6?46?$AA@ 100689fc     xpctarget.obj
 0002:00003a00       __real@3fb999999999999a    10068a00     xpctarget.obj
 0002:00003a10       __real@408f400000000000    10068a10     xpctarget.obj
 0002:00003a20       _dc_motor_encoder_hardware_simulated_BIOMAP 10068a20     appmappingData.obj
 0002:00003bc4       _dc_motor_encoder_hardware_simulated_dtmap 10068bc4     appmappingData.obj
 0002:00003be8       _dc_motor_encoder_hardware_simulated_LBLMAP 10068be8     appmappingData.obj
 0002:00003d90       _dc_motor_encoder_hardware_simulated_SIDMAP 10068d90     appmappingData.obj
 0002:00003f38       _dc_motor_encoder_hardware_simulated_SBIO 10068f38     appmappingData.obj
 0002:00003fc8       _dc_motor_encoder_hardware_simulated_SLBL 10068fc8     appmappingData.obj
 0002:00004058       _dc_motor_encoder_hardware_simulated_PTIDSMAP 10069058     appmappingData.obj
 0002:000041f8       _dc_motor_encoder_hardware_simulated_PTNAMESMAP 100691f8     appmappingData.obj
 0002:00004398       _dc_motor_encoder_hardware_simulated_SPTMAP 10069398     appmappingData.obj
 0002:00004468       _appInfo                   10069468     appmappingData.obj
 0002:000046d4       ??_C@_0CC@FIFFDAB@?$CFd?5input?5args?5expected?0?5?$CFd?5passe@ 100696d4     adquanserq8.obj
 0002:000046fc       ??_C@_0L@GPCJJFPH@Quanser?5Q8?$AA@ 100696fc     adquanserq8.obj
 0002:0000470c       ??_C@_0L@MDJMNKPL@Quanser?5Q4?$AA@ 1006970c     adquanserq8.obj
 0002:0000471c       ??_C@_0BI@IHCNPKCM@No?5?$CFs?5at?5bus?5?$CFd?5slot?5?$CFd?$AA@ 1006971c     adquanserq8.obj
 0002:00004738       ??_C@_0BN@HPKICLI@?$CFs?5A?1D?5driver?5internal?5error?$AA@ 10069738     adquanserq8.obj
 0002:00004760       __real@3f54000000000000    10069760     adquanserq8.obj
 0002:0000476c       ??_C@_0BK@DJPPGIA@Bad?5channel?5in?5?$CFs?5D?1A?3?5?$CFn?$AA@ 1006976c     daquanserq8.obj
 0002:0000478c       ??_C@_0BI@OLGKMIEO@Bad?5range?5in?5?$CFs?5D?1A?3?5?$CFd?$AA@ 1006978c     daquanserq8.obj
 0002:000047a8       __real@4014000000000000    100697a8     daquanserq8.obj
 0002:000047b8       __real@406999999999999a    100697b8     daquanserq8.obj
 0002:000047c8       __real@407999999999999a    100697c8     daquanserq8.obj
 0002:000047d4       ??_C@_0BL@NBOIGMKP@Q8?1Q4?5encoder?5error?5?$CFx?5?$CFx?6?$AA@ 100697d4     encquanserq8.obj
 0002:000047f4       ??_C@_0CC@DMFKNLL@VendorId?5?$DN?50x?$CFx?0?5DeviceId?5?$DN?50x?$CFx@ 100697f4     xpcruntime:xpcimports.obj
 0002:0000481c       ??_C@_0DH@OHCBLNMG@Subsystem?5Device?5ID?5?$DN?50x?$CFx?6Subsy@ 1006981c     xpcruntime:xpcimports.obj
 0002:00004860       ??_C@_0BD@MMMMEFCM@Class?5Code?5?$DN?50x?$CFx?6?$AA@ 10069860     xpcruntime:xpcimports.obj
 0002:00004878       ??_C@_0BE@OLDDDNHM@InterruptLine?5?$DN?5?$CFd?6?$AA@ 10069878     xpcruntime:xpcimports.obj
 0002:00004890       ??_C@_0BF@OLKLEKBD@bus?5?$DN?5?$CFd?0?5slot?5?$DN?5?$CFd?6?$AA@ 10069890     xpcruntime:xpcimports.obj
 0002:000048ac       ??_C@_0CE@DGLLGDFH@?5?5?5?5Phys?5?5?5Virtual?5?5?5Length?5IO?1M@ 100698ac     xpcruntime:xpcimports.obj
 0002:000048d8       ??_C@_0BI@FEOPLEMG@?$CF08x?5?$CF08x?5?$CF08x?5?5?5?5?5?5?$CFc?6?$AA@ 100698d8     xpcruntime:xpcimports.obj
 0002:000048f4       ??_C@_0BB@BNNCEDPC@rl32eScopeExists?$AA@ 100698f4     xpcruntime:xpcimports.obj
 0002:00004908       ??_C@_0BM@FJBFEGFG@rl32eScopeExists?5not?5found?6?$AA@ 10069908     xpcruntime:xpcimports.obj
 0002:0000492c       ??_C@_0O@BNNGKJEA@rl32eDefScope?$AA@ 1006992c     xpcruntime:xpcimports.obj
 0002:0000493c       ??_C@_0BJ@CDNOENKA@rl32eDefScope?5not?5found?6?$AA@ 1006993c     xpcruntime:xpcimports.obj
 0002:0000495c       ??_C@_0P@CKNKILDP@rl32eAddSignal?$AA@ 1006995c     xpcruntime:xpcimports.obj
 0002:00004970       ??_C@_0BK@GMJAJBAI@rl32eAddSignal?5not?5found?6?$AA@ 10069970     xpcruntime:xpcimports.obj
 0002:00004990       ??_C@_0BB@LDMIHGCE@rl32eGetSignalNo?$AA@ 10069990     xpcruntime:xpcimports.obj
 0002:000049a4       ??_C@_0BM@LGAMBAID@rl32eGetSignalNo?5not?5found?6?$AA@ 100699a4     xpcruntime:xpcimports.obj
 0002:000049c8       ??_C@_0O@CFDGALBP@rl32eSetScope?$AA@ 100699c8     xpcruntime:xpcimports.obj
 0002:000049d8       ??_C@_0BJ@JCLHHIN@rl32eSetScope?5not?5found?6?$AA@ 100699d8     xpcruntime:xpcimports.obj
 0002:000049f8       ??_C@_0P@IKMCBMHH@xpceFSScopeSet?$AA@ 100699f8     xpcruntime:xpcimports.obj
 0002:00004a0c       ??_C@_0BK@JODJPNNH@xpceFSScopeSet?5not?5found?6?$AA@ 10069a0c     xpcruntime:xpcimports.obj
 0002:00004a2c       ??_C@_0BE@DLACEEJM@rl32eSetTargetScope?$AA@ 10069a2c     xpcruntime:xpcimports.obj
 0002:00004a44       ??_C@_0BP@JCHFMKPJ@rl32eSetTargetScope?5not?5found?6?$AA@ 10069a44     xpcruntime:xpcimports.obj
 0002:00004a6c       ??_C@_0BJ@LIDLNDHC@rl32eSetTargetScopeSigFt?$AA@ 10069a6c     xpcruntime:xpcimports.obj
 0002:00004a8c       ??_C@_0CE@JLGHCFHI@rl32eSetTargetScopeSigFt?5not?5fou@ 10069a8c     xpcruntime:xpcimports.obj
 0002:00004ab8       ??_C@_0BI@JAPOIDNG@rl32eRestartAcquisition?$AA@ 10069ab8     xpcruntime:xpcimports.obj
 0002:00004ad4       ??_C@_0CD@LLBEFFBO@rl32eRestartAcquisition?5not?5foun@ 10069ad4     xpcruntime:xpcimports.obj
 0002:00004b00       ??_C@_0P@IEIIADJB@xpceScopeAcqOK?$AA@ 10069b00     xpcruntime:xpcimports.obj
 0002:00004b14       ??_C@_0BK@NJCKNFPN@xpceScopeAcqOK?5not?5found?6?$AA@ 10069b14     xpcruntime:xpcimports.obj
 0002:00004b34       ??_C@_0BA@IJINKAHF@xpceRegisterISR?$AA@ 10069b34     xpcruntime:xpcimports.obj
 0002:00004b48       ??_C@_0BL@NNDLOEJE@xpceRegisterISR?5not?5found?6?$AA@ 10069b48     xpcruntime:xpcimports.obj
 0002:00004b68       ??_C@_0BC@NLBADGKF@xpceDeRegisterISR?$AA@ 10069b68     xpcruntime:xpcimports.obj
 0002:00004b80       ??_C@_0BN@DCAIKFFD@xpceDeRegisterISR?5not?5found?6?$AA@ 10069b80     xpcruntime:xpcimports.obj
 0002:00004ba4       ??_C@_07JPMEPILD@xpcInpB?$AA@ 10069ba4     xpcruntime:xpcimports.obj
 0002:00004bb0       ??_C@_0BD@PGABEJOL@xpcInpB?5not?5found?6?$AA@ 10069bb0     xpcruntime:xpcimports.obj
 0002:00004bc8       ??_C@_07KIHBBOKH@xpcInpW?$AA@ 10069bc8     xpcruntime:xpcimports.obj
 0002:00004bd4       ??_C@_0BD@FPCJFMCC@xpcInpW?5not?5found?6?$AA@ 10069bd4     xpcruntime:xpcimports.obj
 0002:00004bec       ??_C@_08KDIAJBOP@xpcInpDW?$AA@ 10069bec     xpcruntime:xpcimports.obj
 0002:00004bf8       ??_C@_0BE@PIELDNIL@xpcInpDW?5not?5found?6?$AA@ 10069bf8     xpcruntime:xpcimports.obj
 0002:00004c10       ??_C@_08PJFMOIGO@xpcOutpB?$AA@ 10069c10     xpcruntime:xpcimports.obj
 0002:00004c1c       ??_C@_0BE@HCKNCEKF@xpcOutpB?5not?5found?6?$AA@ 10069c1c     xpcruntime:xpcimports.obj
 0002:00004c34       ??_C@_08MOOJAOHK@xpcOutpW?$AA@ 10069c34     xpcruntime:xpcimports.obj
 0002:00004c40       ??_C@_0BE@NLIFDBGM@xpcOutpW?5not?5found?6?$AA@ 10069c40     xpcruntime:xpcimports.obj
 0002:00004c58       ??_C@_09FLIEKHJG@xpcOutpDW?$AA@ 10069c58     xpcruntime:xpcimports.obj
 0002:00004c64       ??_C@_0BF@GJKLPNHB@xpcOutpDW?5not?5found?6?$AA@ 10069c64     xpcruntime:xpcimports.obj
 0002:00004c80       ??_C@_0BH@EHOLELHH@xpcReserveMemoryRegion?$AA@ 10069c80     xpcruntime:xpcimports.obj
 0002:00004c9c       ??_C@_0CC@KAAAGPI@xpcReserveMemoryRegion?5not?5found@ 10069c9c     xpcruntime:xpcimports.obj
 0002:00004cc4       ??_C@_0BA@JGPMHGAF@rl32eShowPCIDev?$AA@ 10069cc4     xpcruntime:xpcimports.obj
 0002:00004cd8       ??_C@_0BL@DDFFLNHI@rl32eShowPCIDev?5not?5found?6?$AA@ 10069cd8     xpcruntime:xpcimports.obj
 0002:00004cf8       ??_C@_0BB@KBCOJPFB@rl32eShowPCIInfo?$AA@ 10069cf8     xpcruntime:xpcimports.obj
 0002:00004d0c       ??_C@_0BM@IFDMAGLO@rl32eShowPCIInfo?5not?5found?6?$AA@ 10069d0c     xpcruntime:xpcimports.obj
 0002:00004d30       ??_C@_0BA@BGPAADB@rl32eGetPCIInfo?$AA@ 10069d30     xpcruntime:xpcimports.obj
 0002:00004d44       ??_C@_0BL@IGOMLDCK@rl32eGetPCIInfo?5not?5found?6?$AA@ 10069d44     xpcruntime:xpcimports.obj
 0002:00004d64       ??_C@_0BG@NJPFKFDP@rl32eGetPCIInfoAtSlot?$AA@ 10069d64     xpcruntime:xpcimports.obj
 0002:00004d80       ??_C@_0CB@BBKIPMLA@rl32eGetPCIInfoAtSlot?5not?5found?6@ 10069d80     xpcruntime:xpcimports.obj
 0002:00004da8       ??_C@_0BH@OKBOPNFG@xpceAssignPCIInterrupt?$AA@ 10069da8     xpcruntime:xpcimports.obj
 0002:00004dc4       ??_C@_0CC@CDNDNJBJ@xpceAssignPCIInterrupt?5not?5found@ 10069dc4     xpcruntime:xpcimports.obj
 0002:00004dec       ??_C@_0BD@PCKOKHO@xpceGetSignalValue?$AA@ 10069dec     xpcruntime:xpcimports.obj
 0002:00004e04       ??_C@_0BO@GCBDJHMB@xpceGetSignalValue?5not?5found?6?$AA@ 10069e04     xpcruntime:xpcimports.obj
 0002:00004e28       ??_C@_0BB@BJONJAGA@xpceSetParameter?$AA@ 10069e28     xpcruntime:xpcimports.obj
 0002:00004e3c       ??_C@_0BM@BJIKDLHA@xpceSetParameter?5not?5found?6?$AA@ 10069e3c     xpcruntime:xpcimports.obj
 0002:00004e60       ??_C@_0BB@GNFDFMCM@xpceGetParameter?$AA@ 10069e60     xpcruntime:xpcimports.obj
 0002:00004e74       ??_C@_0BM@POHNKBC@xpceGetParameter?5not?5found?6?$AA@ 10069e74     xpcruntime:xpcimports.obj
 0002:00004e98       ??_C@_0BB@CEIJLFCD@xpceGetParamDims?$AA@ 10069e98     xpcruntime:xpcimports.obj
 0002:00004eac       ??_C@_0BM@OABDBKAO@xpceGetParamDims?5not?5found?6?$AA@ 10069eac     xpcruntime:xpcimports.obj
 0002:00004ed0       ??_C@_0L@OCBLLHBM@xpceGetTET?$AA@ 10069ed0     xpcruntime:xpcimports.obj
 0002:00004ee0       ??_C@_0BG@HNOFBOB@xpceGetTET?5not?5found?6?$AA@ 10069ee0     xpcruntime:xpcimports.obj
 0002:00004efc       ??_C@_0P@OKGNGAGH@xpcIsModelInit?$AA@ 10069efc     xpcruntime:xpcimports.obj
 0002:00004f10       ??_C@_0BK@DHEMLBIM@xpcIsModelInit?5not?5found?6?$AA@ 10069f10     xpcruntime:xpcimports.obj
 0002:00004f30       ??_C@_0BH@KJJLCAOJ@xpcAllocPhysicalMemory?$AA@ 10069f30     xpcruntime:xpcimports.obj
 0002:00004f4c       ??_C@_0CC@MOJPNHKL@xpcAllocPhysicalMemory?5not?5found@ 10069f4c     xpcruntime:xpcimports.obj
 0002:00004f74       ??_C@_0BG@CBNPGAEL@xpcFreePhysicalMemory?$AA@ 10069f74     xpcruntime:xpcimports.obj
 0002:00004f90       ??_C@_0CB@PKJEBPOG@xpcFreePhysicalMemory?5not?5found?6@ 10069f90     xpcruntime:xpcimports.obj
 0002:00004fb8       ??_C@_0BC@JGKNLICL@xpcGetElapsedTime?$AA@ 10069fb8     xpcruntime:xpcimports.obj
 0002:00004fd0       ??_C@_0BN@OEOAHCIO@xpcGetElapsedTime?5not?5found?6?$AA@ 10069fd0     xpcruntime:xpcimports.obj
 0002:00004ff4       ??_C@_0M@ICBLMODA@xpcBusyWait?$AA@ 10069ff4     xpcruntime:xpcimports.obj
 0002:00005004       ??_C@_0BH@FBOPECBI@xpcBusyWait?5not?5found?6?$AA@ 1006a004     xpcruntime:xpcimports.obj
 0002:00005020       ??_C@_0N@LKKJEKKA@TBCreateSpin?$AA@ 1006a020     xpcruntime:xpcimports.obj
 0002:00005030       ??_C@_0BI@FHKMLKOE@TBCreateSpin?5not?5found?6?$AA@ 1006a030     xpcruntime:xpcimports.obj
 0002:0000504c       ??_C@_0N@HOAJHNBD@TBDeleteSpin?$AA@ 1006a04c     xpcruntime:xpcimports.obj
 0002:0000505c       ??_C@_0BI@BKCPAAG@TBDeleteSpin?5not?5found?6?$AA@ 1006a05c     xpcruntime:xpcimports.obj
 0002:00005078       ??_C@_0P@DAHDDBJG@TBTakeSpinFast?$AA@ 1006a078     xpcruntime:xpcimports.obj
 0002:0000508c       ??_C@_0BK@NKAIBHGB@TBTakeSpinFast?5not?5found?6?$AA@ 1006a08c     xpcruntime:xpcimports.obj
 0002:000050ac       ??_C@_0P@FKNAAELA@TBGiveSpinFast?$AA@ 1006a0ac     xpcruntime:xpcimports.obj
 0002:000050c0       ??_C@_0BK@KGPJBJND@TBGiveSpinFast?5not?5found?6?$AA@ 1006a0c0     xpcruntime:xpcimports.obj
 0002:000050e0       ??_C@_0BE@IIGBFDHK@xpceCreateSemaphore?$AA@ 1006a0e0     xpcruntime:xpcimports.obj
 0002:000050f8       ??_C@_0BP@KFBAFFKJ@xpceCreateSemaphore?5not?5found?6?$AA@ 1006a0f8     xpcruntime:xpcimports.obj
 0002:00005120       ??_C@_0BC@IFNIONKJ@xpceWaitSemaphore?$AA@ 1006a120     xpcruntime:xpcimports.obj
 0002:00005138       ??_C@_0BN@NMFAADIO@xpceWaitSemaphore?5not?5found?6?$AA@ 1006a138     xpcruntime:xpcimports.obj
 0002:0000515c       ??_C@_0BE@NNDIOBKE@xpceSignalSemaphore?$AA@ 1006a15c     xpcruntime:xpcimports.obj
 0002:00005174       ??_C@_0BP@LBANMHJP@xpceSignalSemaphore?5not?5found?6?$AA@ 1006a174     xpcruntime:xpcimports.obj
 0002:0000519c       ??_C@_0BE@MEBEKOIM@xpceDeleteSemaphore?$AA@ 1006a19c     xpcruntime:xpcimports.obj
 0002:000051b4       ??_C@_0BP@OFNCKOJH@xpceDeleteSemaphore?5not?5found?6?$AA@ 1006a1b4     xpcruntime:xpcimports.obj
 0002:000051dc       ??_C@_0BD@MFNDMBOF@FindUsbVideoDevice?$AA@ 1006a1dc     xpcruntime:xpcimports.obj
 0002:000051f4       ??_C@_0BO@POKLDHMI@FindUsbVideoDevice?5not?5found?6?$AA@ 1006a1f4     xpcruntime:xpcimports.obj
 0002:00005218       ??_C@_0BA@PLPAPNAB@GetVideoConfigs?$AA@ 1006a218     xpcruntime:xpcimports.obj
 0002:0000522c       ??_C@_0BL@DALDHKHC@GetVideoConfigs?5not?5found?6?$AA@ 1006a22c     xpcruntime:xpcimports.obj
 0002:0000524c       ??_C@_0L@GBAEMHMH@StartVideo?$AA@ 1006a24c     xpcruntime:xpcimports.obj
 0002:0000525c       ??_C@_0BG@HDCELEBP@StartVideo?5not?5found?6?$AA@ 1006a25c     xpcruntime:xpcimports.obj
 0002:00005278       ??_C@_0BA@FDNPOCLN@ReadFrameBuffer?$AA@ 1006a278     xpcruntime:xpcimports.obj
 0002:0000528c       ??_C@_0BL@JHGHPNBI@ReadFrameBuffer?5not?5found?6?$AA@ 1006a28c     xpcruntime:xpcimports.obj
 0002:000052ac       ??_C@_09FAHCLKAG@StopVideo?$AA@ 1006a2ac     xpcruntime:xpcimports.obj
 0002:000052b8       ??_C@_0BF@NKGKKADL@StopVideo?5not?5found?6?$AA@ 1006a2b8     xpcruntime:xpcimports.obj
 0002:000052d4       ??_C@_0O@MCPKDLLL@ConvertUImage?$AA@ 1006a2d4     xpcruntime:xpcimports.obj
 0002:000052e4       ??_C@_0BJ@PHJKOAFL@ConvertUImage?5not?5found?6?$AA@ 1006a2e4     xpcruntime:xpcimports.obj
 0002:00005304       ??_C@_0BD@NKCBPBJJ@CreateVideoDisplay?$AA@ 1006a304     xpcruntime:xpcimports.obj
 0002:0000531c       ??_C@_0BO@HPPLLNFP@CreateVideoDisplay?5not?5found?6?$AA@ 1006a31c     xpcruntime:xpcimports.obj
 0002:00005340       ??_C@_0BE@KJCKGPHA@DestroyVideoDisplay?$AA@ 1006a340     xpcruntime:xpcimports.obj
 0002:00005358       ??_C@_0BP@FMGLJAIJ@DestroyVideoDisplay?5not?5found?6?$AA@ 1006a358     xpcruntime:xpcimports.obj
 0002:00005380       ??_C@_0BC@HCMIMIDN@StartVideoDisplay?$AA@ 1006a380     xpcruntime:xpcimports.obj
 0002:00005398       ??_C@_0BN@EFIEBGOO@StartVideoDisplay?5not?5found?6?$AA@ 1006a398     xpcruntime:xpcimports.obj
 0002:000053bc       ??_C@_0BB@JBBLMILG@StopVideoDisplay?$AA@ 1006a3bc     xpcruntime:xpcimports.obj
 0002:000053d0       ??_C@_0BM@DBJBPLEL@StopVideoDisplay?5not?5found?6?$AA@ 1006a3d0     xpcruntime:xpcimports.obj
 0002:000053f4       ??_C@_0M@MFJEGMHC@StreamVideo?$AA@ 1006a3f4     xpcruntime:xpcimports.obj
 0002:00005404       ??_C@_0BH@OINCDMLA@StreamVideo?5not?5found?6?$AA@ 1006a404     xpcruntime:xpcimports.obj
 0002:00005420       ??_C@_0N@IGGLCIGE@xpceaddEvent?$AA@ 1006a420     xpcruntime:xpcimports.obj
 0002:00005430       ??_C@_0BI@NHJNFMKH@xpceaddEvent?5not?5found?6?$AA@ 1006a430     xpcruntime:xpcimports.obj
 0002:0000544c       ??_C@_0BB@HDPOIJAB@xpceDAQPostEvent?$AA@ 1006a44c     xpcruntime:xpcimports.obj
 0002:00005460       ??_C@_0BM@IHANBKGN@xpceDAQPostEvent?5not?5found?6?$AA@ 1006a460     xpcruntime:xpcimports.obj
 0002:00005484       ??_C@_0BH@MBACMOD@xpceDAQUpdateTimeStamp?$AA@ 1006a484     xpcruntime:xpcimports.obj
 0002:000054a0       ??_C@_0CC@DAKBBINL@xpceDAQUpdateTimeStamp?5not?5found@ 1006a4a0     xpcruntime:xpcimports.obj
 0002:000054c8       ??_C@_0BN@HJOHIFOM@xpceGetIntTimerGranularityNS?$AA@ 1006a4c8     xpcruntime:xpcimports.obj
 0002:000054ec       ??_C@_0CI@OADDPMKB@xpceGetIntTimerGranularityNS?5not@ 1006a4ec     xpcruntime:xpcimports.obj
 0002:0000551c       ??_C@_0BG@CCHICKPN@slrteSetStepSizeDelta?$AA@ 1006a51c     xpcruntime:xpcimports.obj
 0002:00005538       ??_C@_0CB@MKHINEIJ@slrteSetStepSizeDelta?5not?5found?6@ 1006a538     xpcruntime:xpcimports.obj
 0002:00005560       ??_C@_0BI@CLNBLDKJ@slrteGetCurrentStepSize?$AA@ 1006a560     xpcruntime:xpcimports.obj
 0002:0000557c       ??_C@_0CD@GIOJPGJA@slrteGetCurrentStepSize?5not?5foun@ 1006a57c     xpcruntime:xpcimports.obj
 0002:000055a8       ??_C@_0BE@FCLCBOC@registerPTPTimeRead?$AA@ 1006a5a8     xpcruntime:xpcimports.obj
 0002:000055c0       ??_C@_0BP@LHPKAJIP@registerPTPTimeRead?5not?5found?6?$AA@ 1006a5c0     xpcruntime:xpcimports.obj
 0002:000055e8       ??_C@_0BG@KIGCDDJI@unRegisterPTPTimeRead?$AA@ 1006a5e8     xpcruntime:xpcimports.obj
 0002:00005604       ??_C@_0CB@MLFFBFCM@unRegisterPTPTimeRead?5not?5found?6@ 1006a604     xpcruntime:xpcimports.obj
 0002:0000562c       ??_C@_0BB@IPMDDBHK@slTestInitialize?$AA@ 1006a62c     xpcruntime:xpcimports.obj
 0002:00005640       ??_C@_0BM@LAJFCCJH@slTestInitialize?5not?5found?6?$AA@ 1006a640     xpcruntime:xpcimports.obj
 0002:00005664       ??_C@_0BF@OOMPMEBC@slTestLogAssessments?$AA@ 1006a664     xpcruntime:xpcimports.obj
 0002:00005680       ??_C@_0CA@FGJCEBAG@slTestLogAssessments?5not?5found?6?$AA@ 1006a680     xpcruntime:xpcimports.obj
 0002:000056a8       ??_C@_0BB@HJHKONHO@slTestEvalOnFail?$AA@ 1006a6a8     xpcruntime:xpcimports.obj
 0002:000056bc       ??_C@_0BM@JIKCFFNJ@slTestEvalOnFail?5not?5found?6?$AA@ 1006a6bc     xpcruntime:xpcimports.obj
 0002:000056e0       ??_C@_0BA@LBHLABFP@slTestTerminate?$AA@ 1006a6e0     xpcruntime:xpcimports.obj
 0002:000056f4       ??_C@_0BL@EMFGKAPA@slTestTerminate?5not?5found?6?$AA@ 1006a6f4     xpcruntime:xpcimports.obj
 0002:00005714       ??_C@_0BE@JPNPBBEO@slTestRegAssessment?$AA@ 1006a714     xpcruntime:xpcimports.obj
 0002:0000572c       ??_C@_0BP@FBDEJJJH@slTestRegAssessment?5not?5found?6?$AA@ 1006a72c     xpcruntime:xpcimports.obj
 0002:00005754       ??_C@_0O@NCLGDNIB@slrteSetupMSI?$AA@ 1006a754     xpcruntime:xpcimports.obj
 0002:00005764       ??_C@_0BJ@HEFMECLM@slrteSetupMSI?5not?5found?6?$AA@ 1006a764     xpcruntime:xpcimports.obj
 0002:00005784       ??_C@_0BH@BPOLALHD@slrtGetCRBScratchSpace?$AA@ 1006a784     xpcruntime:xpcimports.obj
 0002:000057a0       ??_C@_0CC@KCKAJKKJ@slrtGetCRBScratchSpace?5not?5found@ 1006a7a0     xpcruntime:xpcimports.obj
 0002:000057c8       ??_C@_0BC@MKFDAKOL@slrtGetSgCRBSpace?$AA@ 1006a7c8     xpcruntime:xpcimports.obj
 0002:000057e0       ??_C@_0BN@JDPHPLHL@slrtGetSgCRBSpace?5not?5found?6?$AA@ 1006a7e0     xpcruntime:xpcimports.obj
 0002:00005804       ??_C@_0P@EPAPKLIF@slrtfsOpenFile?$AA@ 1006a804     xpcruntime:xpcimports.obj
 0002:00005818       ??_C@_0BK@FIHCBOHG@slrtfsOpenFile?5not?5found?6?$AA@ 1006a818     xpcruntime:xpcimports.obj
 0002:00005838       ??_C@_0BA@LILAFDDL@slrtfsCloseFile?$AA@ 1006a838     xpcruntime:xpcimports.obj
 0002:0000584c       ??_C@_0BL@DEGHJFIB@slrtfsCloseFile?5not?5found?6?$AA@ 1006a84c     xpcruntime:xpcimports.obj
 0002:0000586c       ??_C@_0BC@OKMJDIEH@slrtfsWriteToFile?$AA@ 1006a86c     xpcruntime:xpcimports.obj
 0002:00005884       ??_C@_0BN@KCFLCLAH@slrtfsWriteToFile?5not?5found?6?$AA@ 1006a884     xpcruntime:xpcimports.obj
 0002:000058a8       ??_C@_0BK@GIPNFFFF@slrtfsGetFileErrorMessage?$AA@ 1006a8a8     xpcruntime:xpcimports.obj
 0002:000058c8       ??_C@_0CF@BCBLMKLE@slrtfsGetFileErrorMessage?5not?5fo@ 1006a8c8     xpcruntime:xpcimports.obj
 0002:000058f4       ??_C@_0BD@ICBOKMK@slrtfsGetFileError?$AA@ 1006a8f4     xpcruntime:xpcimports.obj
 0002:0000590c       ??_C@_0BO@FNBANAE@slrtfsGetFileError?5not?5found?6?$AA@ 1006a90c     xpcruntime:xpcimports.obj
 0002:00005930       ??_C@_0BE@PPAJMHJP@slrtfsOpenFileAsync?$AA@ 1006a930     xpcruntime:xpcimports.obj
 0002:00005948       ??_C@_0BP@HKBMMJOK@slrtfsOpenFileAsync?5not?5found?6?$AA@ 1006a948     xpcruntime:xpcimports.obj
 0002:00005970       ??_C@_0BF@IGNDIBPF@slrtfsCloseFileAsync?$AA@ 1006a970     xpcruntime:xpcimports.obj
 0002:0000598c       ??_C@_0CA@GJPFDBKN@slrtfsCloseFileAsync?5not?5found?6?$AA@ 1006a98c     xpcruntime:xpcimports.obj
 0002:000059b4       ??_C@_0BE@IOLEBNB@slrtfsGetFileStatus?$AA@ 1006a9b4     xpcruntime:xpcimports.obj
 0002:000059cc       ??_C@_0BP@PEFHDGHL@slrtfsGetFileStatus?5not?5found?6?$AA@ 1006a9cc     xpcruntime:xpcimports.obj
 0002:000059f4       ??_C@_0M@HKIJIMG@slrtfsFread?$AA@ 1006a9f4     xpcruntime:xpcimports.obj
 0002:00005a04       ??_C@_0BH@OOKBGONO@slrtfsFread?5not?5found?6?$AA@ 1006aa04     xpcruntime:xpcimports.obj
 0002:00005a20       ??_C@_0BE@OGCMPLAP@slrtGetDefaultDrive?$AA@ 1006aa20     xpcruntime:xpcimports.obj
 0002:00005a38       ??_C@_0BP@HKFGLHOE@slrtGetDefaultDrive?5not?5found?6?$AA@ 1006aa38     xpcruntime:xpcimports.obj
 0002:00005a60       ??_C@_0N@NAJIKFFI@slrtLogEvent?$AA@ 1006aa60     xpcruntime:xpcimports.obj
 0002:00005a70       ??_C@_0BI@NKCEACND@slrtLogEvent?5not?5found?6?$AA@ 1006aa70     xpcruntime:xpcimports.obj
 0002:00005a8c       ??_C@_0N@IDKFJOHI@getlasterror?$AA@ 1006aa8c     xpcruntime:xpcimports.obj
 0002:00005a9c       ??_C@_0BI@MIHMCHGL@getlasterror?5not?5found?6?$AA@ 1006aa9c     xpcruntime:xpcimports.obj
 0002:00005ab8       ??_C@_0P@OKHGKJKN@geterrorstring?$AA@ 1006aab8     xpcruntime:xpcimports.obj
 0002:00005acc       ??_C@_0BK@NOHFDMLP@geterrorstring?5not?5found?6?$AA@ 1006aacc     xpcruntime:xpcimports.obj
 0002:00005aec       ??_C@_0BD@HNFFKMGJ@slrtGetCPUTCelsius?$AA@ 1006aaec     xpcruntime:xpcimports.obj
 0002:00005b04       ??_C@_0BO@LHBFKLIH@slrtGetCPUTCelsius?5not?5found?6?$AA@ 1006ab04     xpcruntime:xpcimports.obj
 0002:00005b28       ??_C@_0M@OONCNCLM@slrtWarning?$AA@ 1006ab28     xpcruntime:xpcimports.obj
 0002:00005b38       ??_C@_0BH@ICKGIEMB@slrtWarning?5not?5found?6?$AA@ 1006ab38     xpcruntime:xpcimports.obj
 0002:00005b54       ??_C@_0N@EAAOMIIE@isUsedByRTIP?$AA@ 1006ab54     xpcruntime:xpcimports.obj
 0002:00005b64       ??_C@_0BI@GNHHHICK@isUsedByRTIP?5not?5found?6?$AA@ 1006ab64     xpcruntime:xpcimports.obj
 0002:00005b80       ??_C@_0BC@HLDKJAG@SetIPTASKPriority?$AA@ 1006ab80     xpcruntime:xpcimports.obj
 0002:00005b98       ??_C@_0BN@OGKMHHAE@SetIPTASKPriority?5not?5found?6?$AA@ 1006ab98     xpcruntime:xpcimports.obj
 0002:00005bbc       ??_C@_0O@LHENMBDD@OpenInterface?$AA@ 1006abbc     xpcruntime:xpcimports.obj
 0002:00005bcc       ??_C@_0BJ@PFGDBKHB@OpenInterface?5not?5found?6?$AA@ 1006abcc     xpcruntime:xpcimports.obj
 0002:00005bec       ??_C@_0P@IINFELKD@CloseInterface?$AA@ 1006abec     xpcruntime:xpcimports.obj
 0002:00005c00       ??_C@_0BK@PAPDNDBK@CloseInterface?5not?5found?6?$AA@ 1006ac00     xpcruntime:xpcimports.obj
 0002:00005c20       ??_C@_05LEFIAAOI@SetIP?$AA@ 1006ac20     xpcruntime:xpcimports.obj
 0002:00005c28       ??_C@_0BB@CGLIBAMM@SetIP?5not?5found?6?$AA@ 1006ac28     xpcruntime:xpcimports.obj
 0002:00005c3c       ??_C@_0BA@HIJJHHMD@AddGatewayRoute?$AA@ 1006ac3c     xpcruntime:xpcimports.obj
 0002:00005c50       ??_C@_0BL@BFCFMDMN@AddGatewayRoute?5not?5found?6?$AA@ 1006ac50     xpcruntime:xpcimports.obj
 0002:00005c70       ??_C@_0M@PHMABFPI@DeleteRoute?$AA@ 1006ac70     xpcruntime:xpcimports.obj
 0002:00005c80       ??_C@_0BH@JPJGLLID@DeleteRoute?5not?5found?6?$AA@ 1006ac80     xpcruntime:xpcimports.obj
 0002:00005c9c       ??_C@_0BA@FCDIMKIJ@GetHostTarIPAdd?$AA@ 1006ac9c     xpcruntime:xpcimports.obj
 0002:00005cb0       ??_C@_0BL@MBKDGKBO@GetHostTarIPAdd?5not?5found?6?$AA@ 1006acb0     xpcruntime:xpcimports.obj
 0002:00005cd0       ??_C@_0M@HPMIPIBI@GetDCUUsage?$AA@ 1006acd0     xpcruntime:xpcimports.obj
 0002:00005ce0       ??_C@_0BH@EBLJKCJC@GetDCUUsage?5not?5found?6?$AA@ 1006ace0     xpcruntime:xpcimports.obj
 0002:00005cfc       ??_C@_06MPKMECK@accept?$AA@ 1006acfc     xpcruntime:xpcimports.obj
 0002:00005d04       ??_C@_0BC@GBGIEMNO@accept?5not?5found?6?$AA@ 1006ad04     xpcruntime:xpcimports.obj
 0002:00005d1c       ??_C@_04NPNJNMMP@bind?$AA@ 1006ad1c     xpcruntime:xpcimports.obj
 0002:00005d24       ??_C@_0BA@DAJNENLO@bind?5not?5found?6?$AA@ 1006ad24     xpcruntime:xpcimports.obj
 0002:00005d38       ??_C@_0L@CKHNIFCM@setsockopt?$AA@ 1006ad38     xpcruntime:xpcimports.obj
 0002:00005d48       ??_C@_0BG@MFIIOMFE@setsockopt?5not?5found?6?$AA@ 1006ad48     xpcruntime:xpcimports.obj
 0002:00005d64       ??_C@_0M@ODDJDCDK@closesocket?$AA@ 1006ad64     xpcruntime:xpcimports.obj
 0002:00005d74       ??_C@_0BH@JHGHMIL@closesocket?5not?5found?6?$AA@ 1006ad74     xpcruntime:xpcimports.obj
 0002:00005d90       ??_C@_07KAIBNCHO@connect?$AA@ 1006ad90     xpcruntime:xpcimports.obj
 0002:00005d9c       ??_C@_0BD@MKLLMBM@connect?5not?5found?6?$AA@ 1006ad9c     xpcruntime:xpcimports.obj
 0002:00005db4       ??_C@_0M@PBPOCKDG@ioctlsocket?$AA@ 1006adb4     xpcruntime:xpcimports.obj
 0002:00005dc4       ??_C@_0BH@NFCNHHIH@ioctlsocket?5not?5found?6?$AA@ 1006adc4     xpcruntime:xpcimports.obj
 0002:00005de0       ??_C@_06OODDLKLE@listen?$AA@ 1006ade0     xpcruntime:xpcimports.obj
 0002:00005de8       ??_C@_0BC@NHBILEKI@listen?5not?5found?6?$AA@ 1006ade8     xpcruntime:xpcimports.obj
 0002:00005e00       ??_C@_08HMBBGFHE@recvfrom?$AA@ 1006ae00     xpcruntime:xpcimports.obj
 0002:00005e0c       ??_C@_0BE@BJAJFFLF@recvfrom?5not?5found?6?$AA@ 1006ae0c     xpcruntime:xpcimports.obj
 0002:00005e24       ??_C@_06MEPBGKEC@sendto?$AA@ 1006ae24     xpcruntime:xpcimports.obj
 0002:00005e2c       ??_C@_0BC@BHPIMDJO@sendto?5not?5found?6?$AA@ 1006ae2c     xpcruntime:xpcimports.obj
 0002:00005e44       ??_C@_09JKBDEEOB@inet_addr?$AA@ 1006ae44     xpcruntime:xpcimports.obj
 0002:00005e50       ??_C@_0BF@HKJPGECN@inet_addr?5not?5found?6?$AA@ 1006ae50     xpcruntime:xpcimports.obj
 0002:00005e6c       ??_C@_06HBELJPBO@socket?$AA@ 1006ae6c     xpcruntime:xpcimports.obj
 0002:00005e74       ??_C@_0BC@NAGFFJGA@socket?5not?5found?6?$AA@ 1006ae74     xpcruntime:xpcimports.obj
 0002:00005e8c       ??_C@_09ICJIFGNC@GetSocket?$AA@ 1006ae8c     xpcruntime:xpcimports.obj
 0002:00005e98       ??_C@_0BF@KDBCKMOJ@GetSocket?5not?5found?6?$AA@ 1006ae98     xpcruntime:xpcimports.obj
 0002:00005eb4       ??_C@_0P@KJEGJMJI@GetSocketState?$AA@ 1006aeb4     xpcruntime:xpcimports.obj
 0002:00005ec8       ??_C@_0BK@IALBJHEB@GetSocketState?5not?5found?6?$AA@ 1006aec8     xpcruntime:xpcimports.obj
 0002:00005ee8       ??_C@_0L@MEAJHNHB@SocketSend?$AA@ 1006aee8     xpcruntime:xpcimports.obj
 0002:00005ef8       ??_C@_0BG@EOCMBFJA@SocketSend?5not?5found?6?$AA@ 1006aef8     xpcruntime:xpcimports.obj
 0002:00005f14       ??_C@_0O@PFPCLEMF@SocketReceive?$AA@ 1006af14     xpcruntime:xpcimports.obj
 0002:00005f24       ??_C@_0BJ@HIBADDFO@SocketReceive?5not?5found?6?$AA@ 1006af24     xpcruntime:xpcimports.obj
 0002:00005f44       ??_C@_0BD@OOGFNAIK@CreateServerSocket?$AA@ 1006af44     xpcruntime:xpcimports.obj
 0002:00005f5c       ??_C@_0BO@GKIJHIPH@CreateServerSocket?5not?5found?6?$AA@ 1006af5c     xpcruntime:xpcimports.obj
 0002:00005f80       ??_C@_0BB@KGHJGFFO@OpenServerListen?$AA@ 1006af80     xpcruntime:xpcimports.obj
 0002:00005f94       ??_C@_0BM@NFMMLIO@OpenServerListen?5not?5found?6?$AA@ 1006af94     xpcruntime:xpcimports.obj
 0002:00005fb8       ??_C@_0BE@BAJLDJAH@ConnectServerSocket?$AA@ 1006afb8     xpcruntime:xpcimports.obj
 0002:00005fd0       ??_C@_0BP@KJNODIKE@ConnectServerSocket?5not?5found?6?$AA@ 1006afd0     xpcruntime:xpcimports.obj
 0002:00005ff8       ??_C@_0BC@PLKKJDIM@CloseServerSocket?$AA@ 1006aff8     xpcruntime:xpcimports.obj
 0002:00006010       ??_C@_0BN@KEJEPNMB@CloseServerSocket?5not?5found?6?$AA@ 1006b010     xpcruntime:xpcimports.obj
 0002:00006034       ??_C@_0BD@MCLPKCPP@CreateClientSocket?$AA@ 1006b034     xpcruntime:xpcimports.obj
 0002:0000604c       ??_C@_0BO@DILAGPFN@CreateClientSocket?5not?5found?6?$AA@ 1006b04c     xpcruntime:xpcimports.obj
 0002:00006070       ??_C@_0BB@DAPKNNLG@BindClientSocket?$AA@ 1006b070     xpcruntime:xpcimports.obj
 0002:00006084       ??_C@_0BM@LLLMMDFN@BindClientSocket?5not?5found?6?$AA@ 1006b084     xpcruntime:xpcimports.obj
 0002:000060a8       ??_C@_0BE@DMEBELHC@ConnectClientSocket?$AA@ 1006b0a8     xpcruntime:xpcimports.obj
 0002:000060c0       ??_C@_0BP@PLOHCPAO@ConnectClientSocket?5not?5found?6?$AA@ 1006b0c0     xpcruntime:xpcimports.obj
 0002:000060e8       ??_C@_0BC@NHHAOBPJ@CloseClientSocket?$AA@ 1006b0e8     xpcruntime:xpcimports.obj
 0002:00006100       ??_C@_0BN@PGKNOKGL@CloseClientSocket?5not?5found?6?$AA@ 1006b100     xpcruntime:xpcimports.obj
 0002:000061d8       __pDefaultRawDllMain       1006b1d8     LIBCMT:dll_dllmain.obj
 0002:000061d8       __pRawDllMain              1006b1d8     LIBCMT:dll_dllmain.obj
 0002:000061f0       ??_C@_1BC@DNHGCMLG@?$AAa?$AAd?$AAv?$AAa?$AAp?$AAi?$AA3?$AA2?$AA?$AA@ 1006b1f0     libvcruntime:winapi_downlevel.obj
 0002:00006208       ??_C@_1DM@KHCHBNEB@?$AAa?$AAp?$AAi?$AA?9?$AAm?$AAs?$AA?9?$AAw?$AAi?$AAn?$AA?9?$AAc?$AAo?$AAr?$AAe?$AA?9?$AAf?$AAi?$AAb?$AAe?$AAr?$AAs?$AA?9?$AAl?$AA1?$AA?9?$AA1?$AA?9?$AA1?$AA?$AA@ 1006b208     libvcruntime:winapi_downlevel.obj
 0002:00006250       ??_C@_1DK@LPPGFMPP@?$AAa?$AAp?$AAi?$AA?9?$AAm?$AAs?$AA?9?$AAw?$AAi?$AAn?$AA?9?$AAc?$AAo?$AAr?$AAe?$AA?9?$AAs?$AAy?$AAn?$AAc?$AAh?$AA?9?$AAl?$AA1?$AA?9?$AA2?$AA?9?$AA0?$AA?$AA@ 1006b250     libvcruntime:winapi_downlevel.obj
 0002:00006298       ??_C@_1BC@GDMECMAK@?$AAk?$AAe?$AAr?$AAn?$AAe?$AAl?$AA3?$AA2?$AA?$AA@ 1006b298     libvcruntime:winapi_downlevel.obj
 0002:000062b4       ??_C@_0O@BAMBGLIE@EventRegister?$AA@ 1006b2b4     libvcruntime:winapi_downlevel.obj
 0002:000062c8       ??_C@_0BE@BJEEGHGK@EventSetInformation?$AA@ 1006b2c8     libvcruntime:winapi_downlevel.obj
 0002:000062e4       ??_C@_0BA@FAKLIPIC@EventUnregister?$AA@ 1006b2e4     libvcruntime:winapi_downlevel.obj
 0002:000062fc       ??_C@_0BD@PKLHJPHD@EventWriteTransfer?$AA@ 1006b2fc     libvcruntime:winapi_downlevel.obj
 0002:00006320       ??_C@_08KNHFBNJ@FlsAlloc?$AA@ 1006b320     libvcruntime:winapi_downlevel.obj
 0002:00006338       ??_C@_07PEJMOBNF@FlsFree?$AA@ 1006b338     libvcruntime:winapi_downlevel.obj
 0002:00006350       ??_C@_0M@GDNOONDI@FlsGetValue?$AA@ 1006b350     libvcruntime:winapi_downlevel.obj
 0002:0000636c       ??_C@_0M@JCPCPOEF@FlsSetValue?$AA@ 1006b36c     libvcruntime:winapi_downlevel.obj
 0002:00006388       ??_C@_0BM@HCFOFFN@InitializeCriticalSectionEx?$AA@ 1006b388     libvcruntime:winapi_downlevel.obj
 0002:00006590       ??_C@_08EHJDFFNH@__based?$CI?$AA@ 1006b590     libvcruntime:undname.obj
 0002:0000659c       ??_C@_07KOLFKCDI@__cdecl?$AA@ 1006b59c     libvcruntime:undname.obj
 0002:000065a8       ??_C@_08GHMPAG@__pascal?$AA@ 1006b5a8     libvcruntime:undname.obj
 0002:000065b4       ??_C@_09IFJBGAPI@__stdcall?$AA@ 1006b5b4     libvcruntime:undname.obj
 0002:000065c0       ??_C@_0L@NPHFGOKO@__thiscall?$AA@ 1006b5c0     libvcruntime:undname.obj
 0002:000065d0       ??_C@_0L@JMKHOMEK@__fastcall?$AA@ 1006b5d0     libvcruntime:undname.obj
 0002:000065e0       ??_C@_0N@BCKKPABJ@__vectorcall?$AA@ 1006b5e0     libvcruntime:undname.obj
 0002:000065f0       ??_C@_09HIJEGCPM@__clrcall?$AA@ 1006b5f0     libvcruntime:undname.obj
 0002:000065fc       ??_C@_06GHPCKEAG@__eabi?$AA@ 1006b5fc     libvcruntime:undname.obj
 0002:00006604       ??_C@_07JOMMBBKO@__ptr64?$AA@ 1006b604     libvcruntime:undname.obj
 0002:00006610       ??_C@_0L@PILCLIHE@__restrict?$AA@ 1006b610     libvcruntime:undname.obj
 0002:00006620       ??_C@_0M@GFIIJFMG@__unaligned?$AA@ 1006b620     libvcruntime:undname.obj
 0002:00006630       ??_C@_09DHDLOLLB@restrict?$CI?$AA@ 1006b630     libvcruntime:undname.obj
 0002:0000663c       ??_C@_04NIHEBCM@?5new?$AA@ 1006b63c     libvcruntime:undname.obj
 0002:00006644       ??_C@_07FPCDHGMM@?5delete?$AA@ 1006b644     libvcruntime:undname.obj
 0002:00006650       ??_C@_01NEMOKFLO@?$DN?$AA@ 1006b650     libvcruntime:undname.obj
 0002:00006654       ??_C@_02GPIOPFAK@?$DO?$DO?$AA@ 1006b654     libvcruntime:undname.obj
 0002:00006658       ??_C@_02FODMEDOG@?$DM?$DM?$AA@ 1006b658     libvcruntime:undname.obj
 0002:0000665c       ??_C@_01DCLJPIOD@?$CB?$AA@ 1006b65c     libvcruntime:undname.obj
 0002:00006660       ??_C@_02EGOFBIJA@?$DN?$DN?$AA@ 1006b660     libvcruntime:undname.obj
 0002:00006664       ??_C@_02FDNJECIE@?$CB?$DN?$AA@ 1006b664     libvcruntime:undname.obj
 0002:00006668       ??_C@_02GPECMEKF@?$FL?$FN?$AA@ 1006b668     libvcruntime:undname.obj
 0002:0000666c       ??_C@_08LHJFAFGD@operator?$AA@ 1006b66c     libvcruntime:undname.obj
 0002:00006678       ??_C@_02HBOOOICD@?9?$DO?$AA@ 1006b678     libvcruntime:undname.obj
 0002:0000667c       ??_C@_01NBENCBCI@?$CK?$AA@ 1006b67c     libvcruntime:undname.obj
 0002:00006680       ??_C@_02ECNGHCIF@?$CL?$CL?$AA@ 1006b680     libvcruntime:undname.obj
 0002:00006684       ??_C@_02BAABKJLB@?9?9?$AA@ 1006b684     libvcruntime:undname.obj
 0002:00006688       ??_C@_01JOAMLHOP@?9?$AA@   1006b688     libvcruntime:undname.obj
 0002:0000668c       ??_C@_01MIFGBAGJ@?$CL?$AA@ 1006b68c     libvcruntime:undname.obj
 0002:00006690       ??_C@_01HNPIGOCE@?$CG?$AA@ 1006b690     libvcruntime:undname.obj
 0002:00006694       ??_C@_03MNHNFDLC@?9?$DO?$CK?$AA@ 1006b694     libvcruntime:undname.obj
 0002:00006698       ??_C@_01KMDKNFGN@?1?$AA@   1006b698     libvcruntime:undname.obj
 0002:0000669c       ??_C@_01FGNFDNOH@?$CF?$AA@ 1006b69c     libvcruntime:undname.obj
 0002:000066a0       ??_C@_01MNNFJEPP@?$DM?$AA@ 1006b6a0     libvcruntime:undname.obj
 0002:000066a4       ??_C@_02EHCHHCKH@?$DM?$DN?$AA@ 1006b6a4     libvcruntime:undname.obj
 0002:000066a8       ??_C@_01PPODPGHN@?$DO?$AA@ 1006b6a8     libvcruntime:undname.obj
 0002:000066ac       ??_C@_02EEKDKGMJ@?$DO?$DN?$AA@ 1006b6ac     libvcruntime:undname.obj
 0002:000066b0       ??_C@_01IHBHIGKO@?0?$AA@   1006b6b0     libvcruntime:undname.obj
 0002:000066b4       ??_C@_02HCKGKOFO@?$CI?$CJ?$AA@ 1006b6b4     libvcruntime:undname.obj
 0002:000066b8       ??_C@_01PJKLJHI@?$HO?$AA@  1006b6b8     libvcruntime:undname.obj
 0002:000066bc       ??_C@_01JKBOJNNK@?$FO?$AA@ 1006b6bc     libvcruntime:undname.obj
 0002:000066c0       ??_C@_01DNKMNLPK@?$HM?$AA@ 1006b6c0     libvcruntime:undname.obj
 0002:000066c4       ??_C@_02PPKAJPJL@?$CG?$CG?$AA@ 1006b6c4     libvcruntime:undname.obj
 0002:000066c8       ??_C@_02NONPIBCD@?$HM?$HM?$AA@ 1006b6c8     libvcruntime:undname.obj
 0002:000066cc       ??_C@_02FPIMKNGF@?$CK?$DN?$AA@ 1006b6cc     libvcruntime:undname.obj
 0002:000066d0       ??_C@_02FOEOMHFC@?$CL?$DN?$AA@ 1006b6d0     libvcruntime:undname.obj
 0002:000066d4       ??_C@_02FKMDLLOA@?9?$DN?$AA@ 1006b6d4     libvcruntime:undname.obj
 0002:000066d8       ??_C@_02FJEHGPIO@?1?$DN?$AA@ 1006b6d8     libvcruntime:undname.obj
 0002:000066dc       ??_C@_02FENAOKFI@?$CF?$DN?$AA@ 1006b6dc     libvcruntime:undname.obj
 0002:000066e0       ??_C@_03IKFCCPFF@?$DO?$DO?$DN?$AA@ 1006b6e0     libvcruntime:undname.obj
 0002:000066e4       ??_C@_03CDNPDDLA@?$DM?$DM?$DN?$AA@ 1006b6e4     libvcruntime:undname.obj
 0002:000066e8       ??_C@_02FGJGFEAB@?$CG?$DN?$AA@ 1006b6e8     libvcruntime:undname.obj
 0002:000066ec       ??_C@_02DHLNPPGH@?$HM?$DN?$AA@ 1006b6ec     libvcruntime:undname.obj
 0002:000066f0       ??_C@_02MHEGNOJ@?$FO?$DN?$AA@ 1006b6f0     libvcruntime:undname.obj
 0002:000066f4       ??_C@_09IFPLHPGF@?$GAvftable?8?$AA@ 1006b6f4     libvcruntime:undname.obj
 0002:00006700       ??_C@_09BLBHBJP@?$GAvbtable?8?$AA@ 1006b700     libvcruntime:undname.obj
 0002:0000670c       ??_C@_07FEEIOKP@?$GAvcall?8?$AA@ 1006b70c     libvcruntime:undname.obj
 0002:00006718       ??_C@_08LLFFHHDJ@?$GAtypeof?8?$AA@ 1006b718     libvcruntime:undname.obj
 0002:00006724       ??_C@_0BF@KDPPACIK@?$GAlocal?5static?5guard?8?$AA@ 1006b724     libvcruntime:undname.obj
 0002:00006740       ??_C@_08OBABFOLI@?$GAstring?8?$AA@ 1006b740     libvcruntime:undname.obj
 0002:0000674c       ??_C@_0BD@JDLKDPAB@?$GAvbase?5destructor?8?$AA@ 1006b74c     libvcruntime:undname.obj
 0002:00006764       ??_C@_0BN@DEGPLNFK@?$GAvector?5deleting?5destructor?8?$AA@ 1006b764     libvcruntime:undname.obj
 0002:00006788       ??_C@_0BO@OBMKPJIG@?$GAdefault?5constructor?5closure?8?$AA@ 1006b788     libvcruntime:undname.obj
 0002:000067ac       ??_C@_0BN@IMDCHIKM@?$GAscalar?5deleting?5destructor?8?$AA@ 1006b7ac     libvcruntime:undname.obj
 0002:000067d0       ??_C@_0BO@PFGOCPJJ@?$GAvector?5constructor?5iterator?8?$AA@ 1006b7d0     libvcruntime:undname.obj
 0002:000067f4       ??_C@_0BN@LFPFMEDL@?$GAvector?5destructor?5iterator?8?$AA@ 1006b7f4     libvcruntime:undname.obj
 0002:00006818       ??_C@_0CE@IKBNEHA@?$GAvector?5vbase?5constructor?5iterat@ 1006b818     libvcruntime:undname.obj
 0002:00006844       ??_C@_0BL@NILFHHPC@?$GAvirtual?5displacement?5map?8?$AA@ 1006b844     libvcruntime:undname.obj
 0002:00006864       ??_C@_0CB@JONCMFFK@?$GAeh?5vector?5constructor?5iterator?8@ 1006b864     libvcruntime:undname.obj
 0002:0000688c       ??_C@_0CA@GCEOPDGL@?$GAeh?5vector?5destructor?5iterator?8?$AA@ 1006b88c     libvcruntime:undname.obj
 0002:000068b4       ??_C@_0CH@OOJPLCPH@?$GAeh?5vector?5vbase?5constructor?5ite@ 1006b8b4     libvcruntime:undname.obj
 0002:000068e4       ??_C@_0BL@LLKPOHJI@?$GAcopy?5constructor?5closure?8?$AA@ 1006b8e4     libvcruntime:undname.obj
 0002:00006904       ??_C@_0BA@KBCDOMBN@?$GAudt?5returning?8?$AA@ 1006b904     libvcruntime:undname.obj
 0002:00006918       ??_C@_03KLGMFNMG@?$GAEH?$AA@ 1006b918     libvcruntime:undname.obj
 0002:0000691c       ??_C@_05KHLCHHI@?$GARTTI?$AA@ 1006b91c     libvcruntime:undname.obj
 0002:00006924       ??_C@_0BA@KKLDJDLB@?$GAlocal?5vftable?8?$AA@ 1006b924     libvcruntime:undname.obj
 0002:00006938       ??_C@_0CE@IIHCMGGL@?$GAlocal?5vftable?5constructor?5closu@ 1006b938     libvcruntime:undname.obj
 0002:00006964       ??_C@_06FHBGPFGH@?5new?$FL?$FN?$AA@ 1006b964     libvcruntime:undname.obj
 0002:0000696c       ??_C@_09LBNFPBCA@?5delete?$FL?$FN?$AA@ 1006b96c     libvcruntime:undname.obj
 0002:00006978       ??_C@_0P@HJKNJFNN@?$GAomni?5callsig?8?$AA@ 1006b978     libvcruntime:undname.obj
 0002:0000698c       ??_C@_0BL@CNOONJFP@?$GAplacement?5delete?5closure?8?$AA@ 1006b98c     libvcruntime:undname.obj
 0002:000069ac       ??_C@_0BN@CKNJLHMB@?$GAplacement?5delete?$FL?$FN?5closure?8?$AA@ 1006b9ac     libvcruntime:undname.obj
 0002:000069d0       ??_C@_0CG@CFDHKGGD@?$GAmanaged?5vector?5constructor?5iter@ 1006b9d0     libvcruntime:undname.obj
 0002:00006a00       ??_C@_0CF@IMGKMJNO@?$GAmanaged?5vector?5destructor?5itera@ 1006ba00     libvcruntime:undname.obj
 0002:00006a2c       ??_C@_0CG@HLDDJMAG@?$GAeh?5vector?5copy?5constructor?5iter@ 1006ba2c     libvcruntime:undname.obj
 0002:00006a5c       ??_C@_0CM@FCBBDIGB@?$GAeh?5vector?5vbase?5copy?5constructo@ 1006ba5c     libvcruntime:undname.obj
 0002:00006a90       ??_C@_0BL@CLIPGLGB@?$GAdynamic?5initializer?5for?5?8?$AA@ 1006ba90     libvcruntime:undname.obj
 0002:00006ab0       ??_C@_0CB@PDBIFEP@?$GAdynamic?5atexit?5destructor?5for?5?8@ 1006bab0     libvcruntime:undname.obj
 0002:00006ad8       ??_C@_0CD@CGAJBKEJ@?$GAvector?5copy?5constructor?5iterato@ 1006bad8     libvcruntime:undname.obj
 0002:00006b04       ??_C@_0CJ@GJELGAMM@?$GAvector?5vbase?5copy?5constructor?5i@ 1006bb04     libvcruntime:undname.obj
 0002:00006b38       ??_C@_0CL@FGIJHLCE@?$GAmanaged?5vector?5copy?5constructor@ 1006bb38     libvcruntime:undname.obj
 0002:00006b6c       ??_C@_0BM@PMGGMLDN@?$GAlocal?5static?5thread?5guard?8?$AA@ 1006bb6c     libvcruntime:undname.obj
 0002:00006b90       ??_C@_0N@BDNMDMOL@operator?5?$CC?$CC?5?$AA@ 1006bb90     libvcruntime:undname.obj
 0002:00006ba0       ??_C@_0BC@DAFEJGAK@?5Type?5Descriptor?8?$AA@ 1006bba0     libvcruntime:undname.obj
 0002:00006bb8       ??_C@_0BM@LDKODKLH@?5Base?5Class?5Descriptor?5at?5?$CI?$AA@ 1006bbb8     libvcruntime:undname.obj
 0002:00006bdc       ??_C@_0BD@LGICGFMM@?5Base?5Class?5Array?8?$AA@ 1006bbdc     libvcruntime:undname.obj
 0002:00006bf4       ??_C@_0BN@MECKDCOJ@?5Class?5Hierarchy?5Descriptor?8?$AA@ 1006bbf4     libvcruntime:undname.obj
 0002:00006c18       ??_C@_0BK@CFCOFLF@?5Complete?5Object?5Locator?8?$AA@ 1006bc18     libvcruntime:undname.obj
 0002:00006c38       ??_C@_04HEJADOOB@CV?3?5?$AA@ 1006bc38     libvcruntime:undname.obj
 0002:00006c40       ??_C@_02MOLJINC@?3?3?$AA@  1006bc40     libvcruntime:undname.obj
 0002:00006c44       ??_C@_0BE@JAEOCHPE@template?9parameter?9?$AA@ 1006bc44     libvcruntime:undname.obj
 0002:00006c5c       ??_C@_0O@KHGCOMHP@generic?9type?9?$AA@ 1006bc5c     libvcruntime:undname.obj
 0002:00006c6c       ??_C@_01NLNLIGKH@?$GA?$AA@ 1006bc6c     libvcruntime:undname.obj
 0002:00006c70       ??_C@_01GEODFPGF@?8?$AA@   1006bc70     libvcruntime:undname.obj
 0002:00006c74       ??_C@_0BG@JNJLAMPM@?$GAanonymous?5namespace?8?$AA@ 1006bc74     libvcruntime:undname.obj
 0002:00006c90       ??_C@_02OHHJMEON@?8?8?$AA@ 1006bc90     libvcruntime:undname.obj
 0002:00006c94       ??_C@_0BN@IBLMMFAP@?$GAnon?9type?9template?9parameter?$AA@ 1006bc94     libvcruntime:undname.obj
 0002:00006cb8       ??_C@_04GKJNKENE@void?$AA@ 1006bcb8     libvcruntime:undname.obj
 0002:00006cc0       ??_C@_0BE@EODMJLIF@?$GAtemplate?9parameter?$AA@ 1006bcc0     libvcruntime:undname.obj
 0002:00006cd8       ??_C@_03KHICJKCI@?4?4?4?$AA@ 1006bcd8     libvcruntime:undname.obj
 0002:00006cdc       ??_C@_04HIBGFPH@NULL?$AA@  1006bcdc     libvcruntime:undname.obj
 0002:00006ce4       ??_C@_02DPKJAMEF@?$CFd?$AA@ 1006bce4     libvcruntime:undname.obj
 0002:00006ce8       ??_C@_0BK@IHCCFNEL@?$GAtemplate?9type?9parameter?9?$AA@ 1006bce8     libvcruntime:undname.obj
 0002:00006d08       ??_C@_0BK@OFCNNNKO@?$GAgeneric?9class?9parameter?9?$AA@ 1006bd08     libvcruntime:undname.obj
 0002:00006d28       ??_C@_0BL@NGJBLFIL@?$GAgeneric?9method?9parameter?9?$AA@ 1006bd28     libvcruntime:undname.obj
 0002:00006d48       ??_C@_03OPGICMGF@?$HN?8?5?$AA@ 1006bd48     libvcruntime:undname.obj
 0002:00006d4c       ??_C@_02IGFCGPIL@?$HN?8?$AA@ 1006bd4c     libvcruntime:undname.obj
 0002:00006d50       ??_C@_01CLKCMJKC@?5?$AA@   1006bd50     libvcruntime:undname.obj
 0002:00006d54       ??_C@_0N@CBHHHENL@?$GAvtordispex?$HL?$AA@ 1006bd54     libvcruntime:undname.obj
 0002:00006d64       ??_C@_0L@GHPFDFH@?$GAvtordisp?$HL?$AA@ 1006bd64     libvcruntime:undname.obj
 0002:00006d74       ??_C@_0L@HNGCOGAE@?$GAadjustor?$HL?$AA@ 1006bd74     libvcruntime:undname.obj
 0002:00006d84       ??_C@_0CB@KJDOOODE@?$GAlocal?5static?5destructor?5helper?8@ 1006bd84     libvcruntime:undname.obj
 0002:00006dac       ??_C@_0DB@ILEFOCIJ@?$GAtemplate?5static?5data?5member?5con@ 1006bdac     libvcruntime:undname.obj
 0002:00006de8       ??_C@_0DA@HGFJFBBE@?$GAtemplate?5static?5data?5member?5des@ 1006bde8     libvcruntime:undname.obj
 0002:00006e24       ??_C@_07PGOEDBHP@static?5?$AA@ 1006be24     libvcruntime:undname.obj
 0002:00006e30       ??_C@_08NIEOINHE@virtual?5?$AA@ 1006be30     libvcruntime:undname.obj
 0002:00006e3c       ??_C@_09LAPHOOG@private?3?5?$AA@ 1006be3c     libvcruntime:undname.obj
 0002:00006e48       ??_C@_0M@GAIFPFIP@protected?3?5?$AA@ 1006be48     libvcruntime:undname.obj
 0002:00006e58       ??_C@_08GPDDCMKI@public?3?5?$AA@ 1006be58     libvcruntime:undname.obj
 0002:00006e64       ??_C@_08KJLFOPNE@?$FLthunk?$FN?3?$AA@ 1006be64     libvcruntime:undname.obj
 0002:00006e70       ??_C@_0M@DHNBOJMP@extern?5?$CCC?$CC?5?$AA@ 1006be70     libvcruntime:undname.obj
 0002:00006e80       ??_C@_02KCKGHPCA@?$CJ?5?$AA@ 1006be80     libvcruntime:undname.obj
 0002:00006e84       ??_C@_05CIHEBHNO@char?5?$AA@ 1006be84     libvcruntime:undname.obj
 0002:00006e8c       ??_C@_06EHJMALKF@short?5?$AA@ 1006be8c     libvcruntime:undname.obj
 0002:00006e94       ??_C@_04LAHKHJMA@int?5?$AA@ 1006be94     libvcruntime:undname.obj
 0002:00006e9c       ??_C@_05CJIMAING@long?5?$AA@ 1006be9c     libvcruntime:undname.obj
 0002:00006ea4       ??_C@_09EBBEKKIH@unsigned?5?$AA@ 1006bea4     libvcruntime:undname.obj
 0002:00006eb0       ??_C@_05BEFAKPML@void?5?$AA@ 1006beb0     libvcruntime:undname.obj
 0002:00006eb8       ??_C@_08PABEKFH@volatile?$AA@ 1006beb8     libvcruntime:undname.obj
 0002:00006ec4       ??_C@_0BA@LKIJLKPP@std?3?3nullptr_t?5?$AA@ 1006bec4     libvcruntime:undname.obj
 0002:00006ed8       ??_C@_0P@GCOCNKDM@std?3?3nullptr_t?$AA@ 1006bed8     libvcruntime:undname.obj
 0002:00006eec       ??_C@_0L@EGPHHEKN@?$DMellipsis?$DO?$AA@ 1006beec     libvcruntime:undname.obj
 0002:00006efc       ??_C@_04EENFHACM@?0?4?4?4?$AA@ 1006befc     libvcruntime:undname.obj
 0002:00006f04       ??_C@_0M@ELJOJFFH@?0?$DMellipsis?$DO?$AA@ 1006bf04     libvcruntime:undname.obj
 0002:00006f14       ??_C@_07HDJPLPEK@?5throw?$CI?$AA@ 1006bf14     libvcruntime:undname.obj
 0002:00006f20       ??_C@_03PBJBJNON@cpu?$AA@  1006bf20     libvcruntime:undname.obj
 0002:00006f24       ??_C@_03DCBBJBAA@amp?$AA@  1006bf24     libvcruntime:undname.obj
 0002:00006f28       ??_C@_02KEGNLNML@?0?5?$AA@ 1006bf28     libvcruntime:undname.obj
 0002:00006f2c       ??_C@_04ENMBGAPA@char?$AA@ 1006bf2c     libvcruntime:undname.obj
 0002:00006f34       ??_C@_05BFKKPKCG@short?$AA@ 1006bf34     libvcruntime:undname.obj
 0002:00006f3c       ??_C@_03JBIPMCLC@int?$AA@  1006bf3c     libvcruntime:undname.obj
 0002:00006f40       ??_C@_04GOKPGOLB@long?$AA@ 1006bf40     libvcruntime:undname.obj
 0002:00006f48       ??_C@_04DDKJGDCM@bool?$AA@ 1006bf48     libvcruntime:undname.obj
 0002:00006f50       ??_C@_06EBGKOKIG@__int8?$AA@ 1006bf50     libvcruntime:undname.obj
 0002:00006f58       ??_C@_07ICFHOGAF@__int16?$AA@ 1006bf58     libvcruntime:undname.obj
 0002:00006f64       ??_C@_07OFLPPHGP@__int32?$AA@ 1006bf64     libvcruntime:undname.obj
 0002:00006f70       ??_C@_07LFCOJCAC@__int64?$AA@ 1006bf70     libvcruntime:undname.obj
 0002:00006f7c       ??_C@_08GAHOLHEO@__int128?$AA@ 1006bf7c     libvcruntime:undname.obj
 0002:00006f88       ??_C@_09EEKGDCPH@?$DMunknown?$DO?$AA@ 1006bf88     libvcruntime:undname.obj
 0002:00006f94       ??_C@_08HBIPOFJB@char16_t?$AA@ 1006bf94     libvcruntime:undname.obj
 0002:00006fa0       ??_C@_08IECNCBKG@char32_t?$AA@ 1006bfa0     libvcruntime:undname.obj
 0002:00006fac       ??_C@_07CLGGIAMF@wchar_t?$AA@ 1006bfac     libvcruntime:undname.obj
 0002:00006fb8       ??_C@_06GCICPBLB@__w64?5?$AA@ 1006bfb8     libvcruntime:undname.obj
 0002:00006fc0       ??_C@_07NFANNNEC@UNKNOWN?$AA@ 1006bfc0     libvcruntime:undname.obj
 0002:00006fcc       ??_C@_07EDHNAJHC@signed?5?$AA@ 1006bfcc     libvcruntime:undname.obj
 0002:00006fd8       ??_C@_05BNCCCJPP@const?$AA@ 1006bfd8     libvcruntime:undname.obj
 0002:00006fe0       ??_C@_09EFNPDFFP@?5volatile?$AA@ 1006bfe0     libvcruntime:undname.obj
 0002:00006fec       ??_C@_0P@GCIFDJCJ@?$GAunknown?5ecsu?8?$AA@ 1006bfec     libvcruntime:undname.obj
 0002:00007000       ??_C@_06MOJHIBMG@union?5?$AA@ 1006c000     libvcruntime:undname.obj
 0002:00007008       ??_C@_07DIBCDNGL@struct?5?$AA@ 1006c008     libvcruntime:undname.obj
 0002:00007014       ??_C@_06LJBABKPM@class?5?$AA@ 1006c014     libvcruntime:undname.obj
 0002:0000701c       ??_C@_08KOFANOFK@coclass?5?$AA@ 1006c01c     libvcruntime:undname.obj
 0002:00007028       ??_C@_0N@DLIEFKNA@cointerface?5?$AA@ 1006c028     libvcruntime:undname.obj
 0002:00007038       ??_C@_05LJGMCFOG@enum?5?$AA@ 1006c038     libvcruntime:undname.obj
 0002:00007040       ??_C@_09GAIEOBLP@volatile?5?$AA@ 1006c040     libvcruntime:undname.obj
 0002:0000704c       ??_C@_06LIJLOJAG@const?5?$AA@ 1006c04c     libvcruntime:undname.obj
 0002:00007054       ??_C@_02KJPKDIBN@?$CG?5?$AA@ 1006c054     libvcruntime:undname.obj
 0002:00007058       ??_C@_03PCKGMOPB@?$CG?$CG?5?$AA@ 1006c058     libvcruntime:undname.obj
 0002:0000705c       ??_C@_0M@EALIELKG@cli?3?3array?$DM?$AA@ 1006c05c     libvcruntime:undname.obj
 0002:0000706c       ??_C@_0O@GKABPPIF@cli?3?3pin_ptr?$DM?$AA@ 1006c06c     libvcruntime:undname.obj
 0002:0000707c       ??_C@_02GOGNNPBN@?$CJ?$FL?$AA@ 1006c07c     libvcruntime:undname.obj
 0002:00007080       ??_C@_06EEGAIFAK@?$HLflat?$HN?$AA@ 1006c080     libvcruntime:undname.obj
 0002:00007088       ??_C@_05JIBOFOHK@?$HLfor?5?$AA@ 1006c088     libvcruntime:undname.obj
 0002:00007090       ??_C@_02MDINNEEG@s?5?$AA@  1006c090     libvcruntime:undname.obj
 0002:00007098       ??_7DNameNode@@6B@         1006c098     libvcruntime:undname.obj
 0002:000070ac       ??_7charNode@@6B@          1006c0ac     libvcruntime:undname.obj
 0002:000070c0       ??_7pcharNode@@6B@         1006c0c0     libvcruntime:undname.obj
 0002:000070d4       ??_7pDNameNode@@6B@        1006c0d4     libvcruntime:undname.obj
 0002:000070e8       ??_7DNameStatusNode@@6B@   1006c0e8     libvcruntime:undname.obj
 0002:000070fc       ??_7pairNode@@6B@          1006c0fc     libvcruntime:undname.obj
 0002:0000710c       ??_C@_04OKOHEJBO@?5?$DP?$DP?5?$AA@ 1006c10c     libvcruntime:undname.obj
 0002:00007118       _standard_lookup_table     1006c118     libucrt:output.obj
 0002:00007188       _format_validation_lookup_table 1006c188     libucrt:output.obj
 0002:000071f8       ??_C@_06OJHGLDPL@?$CInull?$CJ?$AA@ 1006c1f8     libucrt:output.obj
 0002:00007200       ??_C@_1O@CEDCILHN@?$AA?$CI?$AAn?$AAu?$AAl?$AAl?$AA?$CJ?$AA?$AA@ 1006c200     libucrt:output.obj
 0002:00007210       ??_C@_0CF@GOGNBNAK@Microsoft?5Visual?5C?$CL?$CL?5Runtime?5Lib@ 1006c210     libucrt:assert.obj
 0002:00007240       ??_C@_1EK@MBDPDCGA@?$AAM?$AAi?$AAc?$AAr?$AAo?$AAs?$AAo?$AAf?$AAt?$AA?5?$AAV?$AAi?$AAs?$AAu?$AAa?$AAl?$AA?5?$AAC?$AA?$CL?$AA?$CL?$AA?5?$AAR?$AAu?$AAn?$AAt?$AAi?$AAm?$AAe?$AA?5?$AAL?$AAi?$AAb@ 1006c240     libucrt:assert.obj
 0002:00007298       ??_C@_0CK@CFPGFGGO@Assertion?5failed?3?5?$CFTs?0?5file?5?$CFTs?0@ 1006c298     libucrt:assert.obj
 0002:000072d0       ??_C@_1FE@LHBLIKM@?$AAA?$AAs?$AAs?$AAe?$AAr?$AAt?$AAi?$AAo?$AAn?$AA?5?$AAf?$AAa?$AAi?$AAl?$AAe?$AAd?$AA?3?$AA?5?$AA?$CF?$AAT?$AAs?$AA?0?$AA?5?$AAf?$AAi?$AAl?$AAe?$AA?5?$AA?$CF?$AAT?$AAs?$AA?0@ 1006c2d0     libucrt:assert.obj
 0002:00007334       ??_C@_0BC@LAIDCHCH@Assertion?5failed?$CB?$AA@ 1006c334     libucrt:assert.obj
 0002:0000734c       ??_C@_1CE@OJBNHDMO@?$AAA?$AAs?$AAs?$AAe?$AAr?$AAt?$AAi?$AAo?$AAn?$AA?5?$AAf?$AAa?$AAi?$AAl?$AAe?$AAd?$AA?$CB?$AA?$AA@ 1006c34c     libucrt:assert.obj
 0002:00007378       ??_C@_09KLGCKDOD@Program?3?5?$AA@ 1006c378     libucrt:assert.obj
 0002:00007384       ??_C@_1BE@PHKBBGE@?$AAP?$AAr?$AAo?$AAg?$AAr?$AAa?$AAm?$AA?3?$AA?5?$AA?$AA@ 1006c384     libucrt:assert.obj
 0002:0000739c       ??_C@_06IGPBOHMJ@File?3?5?$AA@ 1006c39c     libucrt:assert.obj
 0002:000073a4       ??_C@_1O@HEMHKNDC@?$AAF?$AAi?$AAl?$AAe?$AA?3?$AA?5?$AA?$AA@ 1006c3a4     libucrt:assert.obj
 0002:000073b4       ??_C@_06FIEBOLOH@Line?3?5?$AA@ 1006c3b4     libucrt:assert.obj
 0002:000073bc       ??_C@_1O@KCAFKHJE@?$AAL?$AAi?$AAn?$AAe?$AA?3?$AA?5?$AA?$AA@ 1006c3bc     libucrt:assert.obj
 0002:000073cc       ??_C@_0N@MEECIJGN@Expression?3?5?$AA@ 1006c3cc     libucrt:assert.obj
 0002:000073dc       ??_C@_1BK@PEDCIPMA@?$AAE?$AAx?$AAp?$AAr?$AAe?$AAs?$AAs?$AAi?$AAo?$AAn?$AA?3?$AA?5?$AA?$AA@ 1006c3dc     libucrt:assert.obj
 0002:00007400       ??_C@_0HA@OJHAGA@For?5information?5on?5how?5your?5prog@ 1006c400     libucrt:assert.obj
 0002:00007488       ??_C@_1OA@EGMLFBHJ@?$AAF?$AAo?$AAr?$AA?5?$AAi?$AAn?$AAf?$AAo?$AAr?$AAm?$AAa?$AAt?$AAi?$AAo?$AAn?$AA?5?$AAo?$AAn?$AA?5?$AAh?$AAo?$AAw?$AA?5?$AAy?$AAo?$AAu?$AAr?$AA?5?$AAp?$AAr?$AAo?$AAg@ 1006c488     libucrt:assert.obj
 0002:00007594       ??_C@_0DN@EBBNMLME@?$CIPress?5Retry?5to?5debug?5the?5applic@ 1006c594     libucrt:assert.obj
 0002:000075e0       ??_C@_1HK@POCJMFGK@?$AA?$CI?$AAP?$AAr?$AAe?$AAs?$AAs?$AA?5?$AAR?$AAe?$AAt?$AAr?$AAy?$AA?5?$AAt?$AAo?$AA?5?$AAd?$AAe?$AAb?$AAu?$AAg?$AA?5?$AAt?$AAh?$AAe?$AA?5?$AAa?$AAp?$AAp?$AAl?$AAi?$AAc@ 1006c5e0     libucrt:assert.obj
 0002:00007674       ??_C@_17LGKOMLJ@?$AA?4?$AA?4?$AA?4?$AA?$AA@ 1006c674     libucrt:assert.obj
 0002:00007680       ??_C@_01EEMJAFIK@?6?$AA@   1006c680     libucrt:assert.obj
 0002:00007684       ??_C@_13LBAGMAIH@?$AA?6?$AA?$AA@ 1006c684     libucrt:assert.obj
 0002:00007688       ??_C@_02PHMGELLB@?6?6?$AA@ 1006c688     libucrt:assert.obj
 0002:0000768c       ??_C@_15IABLJNFO@?$AA?6?$AA?6?$AA?$AA@ 1006c68c     libucrt:assert.obj
 0002:00007694       ??_C@_0BH@DNAGHKFM@?$DMprogram?5name?5unknown?$DO?$AA@ 1006c694     libucrt:assert.obj
 0002:000076b0       ??_C@_1CO@EAEJAADC@?$AA?$DM?$AAp?$AAr?$AAo?$AAg?$AAr?$AAa?$AAm?$AA?5?$AAn?$AAa?$AAm?$AAe?$AA?5?$AAu?$AAn?$AAk?$AAn?$AAo?$AAw?$AAn?$AA?$DO?$AA?$AA@ 1006c6b0     libucrt:assert.obj
 0002:000076e8       _RtlNtPathSeperatorString  1006c6e8     libucrt:exit.obj
 0002:000076f4       ??_C@_13FPGAJAPJ@?$AA?2?$AA?$AA@ 1006c6f4     libucrt:exit.obj
 0002:000076f8       _RtlDosPathSeperatorsString 1006c6f8     libucrt:exit.obj
 0002:00007704       ??_C@_15MNCACJLI@?$AA?2?$AA?1?$AA?$AA@ 1006c704     libucrt:exit.obj
 0002:0000770c       _RtlAlternateDosPathSeperatorString 1006c70c     libucrt:exit.obj
 0002:00007718       ??_C@_13CGOKJPIL@?$AA?1?$AA?$AA@ 1006c718     libucrt:exit.obj
 0002:0000771c       ??_C@_1BI@BGOHAHKC@?$AAm?$AAs?$AAc?$AAo?$AAr?$AAe?$AAe?$AA?4?$AAd?$AAl?$AAl?$AA?$AA@ 1006c71c     libucrt:exit.obj
 0002:00007738       ??_C@_0P@MIGLKIOC@CorExitProcess?$AA@ 1006c738     libucrt:exit.obj
 0002:0000774c       ??_C@_04FJHINJAO@tanh?$AA@ 1006c74c     libucrt:fpexcept.obj
 0002:00007754       ??_C@_04FIHNOPOL@asin?$AA@ 1006c754     libucrt:fpexcept.obj
 0002:0000775c       ??_C@_04PDIFKINK@acos?$AA@ 1006c75c     libucrt:fpexcept.obj
 0002:00007764       ??_C@_04MLLJIGOK@atan?$AA@ 1006c764     libucrt:fpexcept.obj
 0002:0000776c       ??_C@_05KNGEOGJB@atan2?$AA@ 1006c76c     libucrt:fpexcept.obj
 0002:00007774       ??_C@_04EIAKFFMI@sqrt?$AA@ 1006c774     libucrt:fpexcept.obj
 0002:0000777c       ??_C@_03BLEJJJBH@sin?$AA@  1006c77c     libucrt:fpexcept.obj
 0002:00007780       ??_C@_03LALBNOCG@cos?$AA@  1006c780     libucrt:fpexcept.obj
 0002:00007784       ??_C@_03IIINPABG@tan?$AA@  1006c784     libucrt:fpexcept.obj
 0002:00007788       ??_C@_04GFPJNGEK@ceil?$AA@ 1006c788     libucrt:fpexcept.obj
 0002:00007790       ??_C@_05PBJFFIGL@floor?$AA@ 1006c790     libucrt:fpexcept.obj
 0002:00007798       ??_C@_04ODHECPBC@fabs?$AA@ 1006c798     libucrt:fpexcept.obj
 0002:000077a0       ??_C@_04EHEDPDJG@modf?$AA@ 1006c7a0     libucrt:fpexcept.obj
 0002:000077a8       ??_C@_05CEJMAHNP@ldexp?$AA@ 1006c7a8     libucrt:fpexcept.obj
 0002:000077b0       ??_C@_05KBKMEMPO@_cabs?$AA@ 1006c7b0     libucrt:fpexcept.obj
 0002:000077b8       ??_C@_06MEIMCGCF@_hypot?$AA@ 1006c7b8     libucrt:fpexcept.obj
 0002:000077c0       ??_C@_04KEPJIHGP@fmod?$AA@ 1006c7c0     libucrt:fpexcept.obj
 0002:000077c8       ??_C@_05GKKHEGJL@frexp?$AA@ 1006c7c8     libucrt:fpexcept.obj
 0002:000077d0       ??_C@_03MJLDFKDL@_y0?$AA@  1006c7d0     libucrt:fpexcept.obj
 0002:000077d4       ??_C@_03NAKIGLHK@_y1?$AA@  1006c7d4     libucrt:fpexcept.obj
 0002:000077d8       ??_C@_03ONILCKOB@_yn?$AA@  1006c7d8     libucrt:fpexcept.obj
 0002:000077dc       ??_C@_05JGDBENOH@_logb?$AA@ 1006c7dc     libucrt:fpexcept.obj
 0002:000077e4       ??_C@_0L@KDOEJCKC@_nextafter?$AA@ 1006c7e4     libucrt:fpexcept.obj
 0002:00007910       ??_C@_03KHJOGHMM@exp?$AA@  1006c910     libucrt:fpexcept.obj
 0002:00007914       ??_C@_03JGHBODFD@pow?$AA@  1006c914     libucrt:fpexcept.obj
 0002:00007918       ??_C@_03MGHMBJCF@log?$AA@  1006c918     libucrt:fpexcept.obj
 0002:0000791c       ??_C@_05HGHHAHAP@log10?$AA@ 1006c91c     libucrt:fpexcept.obj
 0002:00007924       ??_C@_04COOMCNPB@sinh?$AA@ 1006c924     libucrt:fpexcept.obj
 0002:0000792c       ??_C@_04HPJJNFIM@cosh?$AA@ 1006c92c     libucrt:fpexcept.obj
 0002:00007938       ___acrt_exception_action_table 1006c938     libucrt:exception_filter.obj
 0002:000079e4       ___acrt_signal_action_table_count 1006c9e4     libucrt:exception_filter.obj
 0002:000079e8       ___acrt_signal_action_table_size 1006c9e8     libucrt:exception_filter.obj
 0002:000079ec       ___acrt_signal_action_first_fpe_index 1006c9ec     libucrt:exception_filter.obj
 0002:000079f0       ___acrt_signal_action_fpe_count 1006c9f0     libucrt:exception_filter.obj
 0002:00007a88       ??_C@_1BG@HHIFPOEK@?$AAm?$AAs?$AAv?$AAc?$AAr?$AAt?$AA?4?$AAd?$AAl?$AAl?$AA?$AA@ 1006ca88     libucrt:free_base.obj
 0002:00007aa4       __Fenv0                    1006caa4     libucrt:atox.obj
 0002:00007cc0       ??_C@_1EG@CNNIPFIM@?$AAa?$AAp?$AAi?$AA?9?$AAm?$AAs?$AA?9?$AAw?$AAi?$AAn?$AA?9?$AAa?$AAp?$AAp?$AAm?$AAo?$AAd?$AAe?$AAl?$AA?9?$AAr?$AAu?$AAn?$AAt?$AAi?$AAm?$AAe?$AA?9?$AAl?$AA1?$AA?9?$AA1@ 1006ccc0     libucrt:winapi_thunks.obj
 0002:00007d18       ??_C@_1EA@JGEFHKEI@?$AAa?$AAp?$AAi?$AA?9?$AAm?$AAs?$AA?9?$AAw?$AAi?$AAn?$AA?9?$AAc?$AAo?$AAr?$AAe?$AA?9?$AAd?$AAa?$AAt?$AAe?$AAt?$AAi?$AAm?$AAe?$AA?9?$AAl?$AA1?$AA?9?$AA1?$AA?9?$AA1?$AA?$AA@ 1006cd18     libucrt:winapi_thunks.obj
 0002:00007d64       ??_C@_1DI@GCIAAENM@?$AAa?$AAp?$AAi?$AA?9?$AAm?$AAs?$AA?9?$AAw?$AAi?$AAn?$AA?9?$AAc?$AAo?$AAr?$AAe?$AA?9?$AAf?$AAi?$AAl?$AAe?$AA?9?$AAl?$AA2?$AA?9?$AA1?$AA?9?$AA1?$AA?$AA@ 1006cd64     libucrt:winapi_thunks.obj
 0002:00007da8       ??_C@_1EI@MPIAOHOC@?$AAa?$AAp?$AAi?$AA?9?$AAm?$AAs?$AA?9?$AAw?$AAi?$AAn?$AA?9?$AAc?$AAo?$AAr?$AAe?$AA?9?$AAl?$AAo?$AAc?$AAa?$AAl?$AAi?$AAz?$AAa?$AAt?$AAi?$AAo?$AAn?$AA?9?$AAl?$AA1?$AA?9@ 1006cda8     libucrt:winapi_thunks.obj
 0002:00007e00       ??_C@_1FK@FPHCKFIE@?$AAa?$AAp?$AAi?$AA?9?$AAm?$AAs?$AA?9?$AAw?$AAi?$AAn?$AA?9?$AAc?$AAo?$AAr?$AAe?$AA?9?$AAl?$AAo?$AAc?$AAa?$AAl?$AAi?$AAz?$AAa?$AAt?$AAi?$AAo?$AAn?$AA?9?$AAo?$AAb?$AAs@ 1006ce00     libucrt:winapi_thunks.obj
 0002:00007e70       ??_C@_1EM@DILCGIIO@?$AAa?$AAp?$AAi?$AA?9?$AAm?$AAs?$AA?9?$AAw?$AAi?$AAn?$AA?9?$AAc?$AAo?$AAr?$AAe?$AA?9?$AAp?$AAr?$AAo?$AAc?$AAe?$AAs?$AAs?$AAt?$AAh?$AAr?$AAe?$AAa?$AAd?$AAs?$AA?9?$AAl@ 1006ce70     libucrt:winapi_thunks.obj
 0002:00007ecc       ??_C@_1DM@LNCGDDPN@?$AAa?$AAp?$AAi?$AA?9?$AAm?$AAs?$AA?9?$AAw?$AAi?$AAn?$AA?9?$AAc?$AAo?$AAr?$AAe?$AA?9?$AAs?$AAt?$AAr?$AAi?$AAn?$AAg?$AA?9?$AAl?$AA1?$AA?9?$AA1?$AA?9?$AA0?$AA?$AA@ 1006cecc     libucrt:winapi_thunks.obj
 0002:00007f14       ??_C@_1DO@FPAPJEMD@?$AAa?$AAp?$AAi?$AA?9?$AAm?$AAs?$AA?9?$AAw?$AAi?$AAn?$AA?9?$AAc?$AAo?$AAr?$AAe?$AA?9?$AAs?$AAy?$AAs?$AAi?$AAn?$AAf?$AAo?$AA?9?$AAl?$AA1?$AA?9?$AA2?$AA?9?$AA1?$AA?$AA@ 1006cf14     libucrt:winapi_thunks.obj
 0002:00007f60       ??_C@_1DK@NDHNAHIO@?$AAa?$AAp?$AAi?$AA?9?$AAm?$AAs?$AA?9?$AAw?$AAi?$AAn?$AA?9?$AAc?$AAo?$AAr?$AAe?$AA?9?$AAw?$AAi?$AAn?$AAr?$AAt?$AA?9?$AAl?$AA1?$AA?9?$AA1?$AA?9?$AA0?$AA?$AA@ 1006cf60     libucrt:winapi_thunks.obj
 0002:00007fa8       ??_C@_1DM@KGHDGBCM@?$AAa?$AAp?$AAi?$AA?9?$AAm?$AAs?$AA?9?$AAw?$AAi?$AAn?$AA?9?$AAc?$AAo?$AAr?$AAe?$AA?9?$AAx?$AAs?$AAt?$AAa?$AAt?$AAe?$AA?9?$AAl?$AA2?$AA?9?$AA1?$AA?9?$AA0?$AA?$AA@ 1006cfa8     libucrt:winapi_thunks.obj
 0002:00007ff0       ??_C@_1EO@IJIOEFOH@?$AAa?$AAp?$AAi?$AA?9?$AAm?$AAs?$AA?9?$AAw?$AAi?$AAn?$AA?9?$AAr?$AAt?$AAc?$AAo?$AAr?$AAe?$AA?9?$AAn?$AAt?$AAu?$AAs?$AAe?$AAr?$AA?9?$AAw?$AAi?$AAn?$AAd?$AAo?$AAw?$AA?9@ 1006cff0     libucrt:winapi_thunks.obj
 0002:00008050       ??_C@_1FG@HHGEKANL@?$AAa?$AAp?$AAi?$AA?9?$AAm?$AAs?$AA?9?$AAw?$AAi?$AAn?$AA?9?$AAs?$AAe?$AAc?$AAu?$AAr?$AAi?$AAt?$AAy?$AA?9?$AAs?$AAy?$AAs?$AAt?$AAe?$AAm?$AAf?$AAu?$AAn?$AAc?$AAt?$AAi@ 1006d050     libucrt:winapi_thunks.obj
 0002:000080b8       ??_C@_1FG@NCKKOLKO@?$AAe?$AAx?$AAt?$AA?9?$AAm?$AAs?$AA?9?$AAw?$AAi?$AAn?$AA?9?$AAk?$AAe?$AAr?$AAn?$AAe?$AAl?$AA3?$AA2?$AA?9?$AAp?$AAa?$AAc?$AAk?$AAa?$AAg?$AAe?$AA?9?$AAc?$AAu?$AAr?$AAr@ 1006d0b8     libucrt:winapi_thunks.obj
 0002:00008120       ??_C@_1EG@DBIOJECG@?$AAe?$AAx?$AAt?$AA?9?$AAm?$AAs?$AA?9?$AAw?$AAi?$AAn?$AA?9?$AAn?$AAt?$AAu?$AAs?$AAe?$AAr?$AA?9?$AAd?$AAi?$AAa?$AAl?$AAo?$AAg?$AAb?$AAo?$AAx?$AA?9?$AAl?$AA1?$AA?9?$AA1@ 1006d120     libucrt:winapi_thunks.obj
 0002:00008178       ??_C@_1EO@FIHMJCLF@?$AAe?$AAx?$AAt?$AA?9?$AAm?$AAs?$AA?9?$AAw?$AAi?$AAn?$AA?9?$AAn?$AAt?$AAu?$AAs?$AAe?$AAr?$AA?9?$AAw?$AAi?$AAn?$AAd?$AAo?$AAw?$AAs?$AAt?$AAa?$AAt?$AAi?$AAo?$AAn?$AA?9@ 1006d178     libucrt:winapi_thunks.obj
 0002:000081d8       ??_C@_1O@BCCLBEOE@?$AAu?$AAs?$AAe?$AAr?$AA3?$AA2?$AA?$AA@ 1006d1d8     libucrt:winapi_thunks.obj
 0002:000081ec       ??_C@_0BA@FHFNEAED@AreFileApisANSI?$AA@ 1006d1ec     libucrt:winapi_thunks.obj
 0002:0000820c       ??_C@_0BA@IHGNDAEB@CompareStringEx?$AA@ 1006d20c     libucrt:winapi_thunks.obj
 0002:0000822c       ??_C@_0BE@LJANKFHF@EnumSystemLocalesEx?$AA@ 1006d22c     libucrt:winapi_thunks.obj
 0002:00008280       ??_C@_0BA@HNOPNCHB@GetActiveWindow?$AA@ 1006d280     libucrt:winapi_thunks.obj
 0002:000082a0       ??_C@_0BE@JOGNEJCI@GetCurrentPackageId?$AA@ 1006d2a0     libucrt:winapi_thunks.obj
 0002:000082c4       ??_C@_0BA@EPCJIIPD@GetDateFormatEx?$AA@ 1006d2c4     libucrt:winapi_thunks.obj
 0002:000082e4       ??_C@_0BJ@DIBIJBHA@GetEnabledXStateFeatures?$AA@ 1006d2e4     libucrt:winapi_thunks.obj
 0002:00008310       ??_C@_0BN@NEEHBBPO@GetFileInformationByHandleEx?$AA@ 1006d310     libucrt:winapi_thunks.obj
 0002:00008340       ??_C@_0BD@HHGDFDBJ@GetLastActivePopup?$AA@ 1006d340     libucrt:winapi_thunks.obj
 0002:00008364       ??_C@_0BA@ONOKGCMP@GetLocaleInfoEx?$AA@ 1006d364     libucrt:winapi_thunks.obj
 0002:00008384       ??_C@_0BI@DFKBFLJE@GetProcessWindowStation?$AA@ 1006d384     libucrt:winapi_thunks.obj
 0002:000083a4       ??_C@_0BP@FPNJPEJC@GetSystemTimePreciseAsFileTime?$AA@ 1006d3a4     libucrt:winapi_thunks.obj
 0002:000083d8       ??_C@_0BA@CIJJKCJJ@GetTimeFormatEx?$AA@ 1006d3d8     libucrt:winapi_thunks.obj
 0002:000083f8       ??_C@_0BJ@PBCCBIPI@GetUserDefaultLocaleName?$AA@ 1006d3f8     libucrt:winapi_thunks.obj
 0002:00008424       ??_C@_0BK@DEKFELLI@GetUserObjectInformationW?$AA@ 1006d424     libucrt:winapi_thunks.obj
 0002:00008450       ??_C@_0BG@IKLDMBLM@GetXStateFeaturesMask?$AA@ 1006d450     libucrt:winapi_thunks.obj
 0002:00008484       ??_C@_0BC@CELBKLLA@IsValidLocaleName?$AA@ 1006d484     libucrt:winapi_thunks.obj
 0002:000084a8       ??_C@_0O@KKBNKAPF@LCMapStringEx?$AA@ 1006d4a8     libucrt:winapi_thunks.obj
 0002:000084c4       ??_C@_0BB@CDHDDLLP@LCIDToLocaleName?$AA@ 1006d4c4     libucrt:winapi_thunks.obj
 0002:000084e4       ??_C@_0BB@HBDEELFH@LocaleNameToLCID?$AA@ 1006d4e4     libucrt:winapi_thunks.obj
 0002:00008504       ??_C@_0BE@KINNKFDA@LocateXStateFeature?$AA@ 1006d504     libucrt:winapi_thunks.obj
 0002:00008528       ??_C@_0M@CHKKJDAI@MessageBoxA?$AA@ 1006d528     libucrt:winapi_thunks.obj
 0002:00008544       ??_C@_0M@DLDCCGNP@MessageBoxW?$AA@ 1006d544     libucrt:winapi_thunks.obj
 0002:00008558       ??_C@_0N@PPOMPGGK@RoInitialize?$AA@ 1006d558     libucrt:winapi_thunks.obj
 0002:0000856c       ??_C@_0P@LLFHBIJD@RoUninitialize?$AA@ 1006d56c     libucrt:winapi_thunks.obj
 0002:0000858c       ??_C@_0BI@BKLFFAPO@SetThreadStackGuarantee?$AA@ 1006d58c     libucrt:winapi_thunks.obj
 0002:000085b4       ??_C@_0BC@JEAENNKH@SystemFunction036?$AA@ 1006d5b4     libucrt:winapi_thunks.obj
 0002:000085cc       ??_C@_03OEIAHPBN@INF?$AA@  1006d5cc     libucrt:cvt.obj
 0002:000085d0       ??_C@_03OJHLLCGB@inf?$AA@  1006d5d0     libucrt:cvt.obj
 0002:000085d4       ??_C@_03LKNCIKJB@NAN?$AA@  1006d5d4     libucrt:cvt.obj
 0002:000085d8       ??_C@_03LHCJEHON@nan?$AA@  1006d5d8     libucrt:cvt.obj
 0002:000085dc       ??_C@_09OFJJIMPC@NAN?$CISNAN?$CJ?$AA@ 1006d5dc     libucrt:cvt.obj
 0002:000085e8       ??_C@_09IPFBKMDL@nan?$CIsnan?$CJ?$AA@ 1006d5e8     libucrt:cvt.obj
 0002:000085f4       ??_C@_08IKHNHAJ@NAN?$CIIND?$CJ?$AA@ 1006d5f4     libucrt:cvt.obj
 0002:00008600       ??_C@_08OFCDMILK@nan?$CIind?$CJ?$AA@ 1006d600     libucrt:cvt.obj
 0002:0000860c       ??_C@_05KLBDPFGC@e?$CL000?$AA@ 1006d60c     libucrt:cvt.obj
 0002:00008618       ___lc_category             1006d618     libucrt:wsetlocale.obj
 0002:00008670       ??_C@_1O@GIFLHMA@?$AAL?$AAC?$AA_?$AAA?$AAL?$AAL?$AA?$AA@ 1006d670     libucrt:wsetlocale.obj
 0002:00008680       ??_C@_1BG@PPOMIBNJ@?$AAL?$AAC?$AA_?$AAC?$AAO?$AAL?$AAL?$AAA?$AAT?$AAE?$AA?$AA@ 1006d680     libucrt:wsetlocale.obj
 0002:0000869c       ??_C@_1BC@FFJGAPJM@?$AAL?$AAC?$AA_?$AAC?$AAT?$AAY?$AAP?$AAE?$AA?$AA@ 1006d69c     libucrt:wsetlocale.obj
 0002:000086b4       ??_C@_1BI@PCKFNJFB@?$AAL?$AAC?$AA_?$AAM?$AAO?$AAN?$AAE?$AAT?$AAA?$AAR?$AAY?$AA?$AA@ 1006d6b4     libucrt:wsetlocale.obj
 0002:000086d0       ??_C@_1BG@ENIEDKID@?$AAL?$AAC?$AA_?$AAN?$AAU?$AAM?$AAE?$AAR?$AAI?$AAC?$AA?$AA@ 1006d6d0     libucrt:wsetlocale.obj
 0002:000086ec       ??_C@_1BA@HAAOMIIG@?$AAL?$AAC?$AA_?$AAT?$AAI?$AAM?$AAE?$AA?$AA@ 1006d6ec     libucrt:wsetlocale.obj
 0002:00008798       ??_C@_15NBPDDFIP@?$AA?$DN?$AA?$DL?$AA?$AA@ 1006d798     libucrt:wsetlocale.obj
 0002:000087a0       ??_C@_13PJJBFPED@?$AA?$DL?$AA?$AA@ 1006d7a0     libucrt:wsetlocale.obj
 0002:000087a4       ??_C@_13NMPKAAJP@?$AA?$DN?$AA?$AA@ 1006d7a4     libucrt:wsetlocale.obj
 0002:000087a8       ??_C@_13FHBKNHDA@?$AAC?$AA?$AA@ 1006d7a8     libucrt:wsetlocale.obj
 0002:000087ac       ??_C@_17MBJJLFDM@?$AA_?$AA?4?$AA?0?$AA?$AA@ 1006d7ac     libucrt:wsetlocale.obj
 0002:000087b8       ??_C@_13ENNFDPBH@?$AA_?$AA?$AA@ 1006d7b8     libucrt:wsetlocale.obj
 0002:000087bc       ??_C@_13JOFGPIOO@?$AA?4?$AA?$AA@ 1006d7bc     libucrt:wsetlocale.obj
 0002:000087c0       ??_C@_03KOEHGMDN@Sun?$AA@  1006d7c0     libucrt:nlsdata.obj
 0002:000087c4       ??_C@_03PDAGKDH@Mon?$AA@   1006d7c4     libucrt:nlsdata.obj
 0002:000087c8       ??_C@_03NAGEINEP@Tue?$AA@  1006d7c8     libucrt:nlsdata.obj
 0002:000087cc       ??_C@_03MHOMLAJA@Wed?$AA@  1006d7cc     libucrt:nlsdata.obj
 0002:000087d0       ??_C@_03IOFIKPDN@Thu?$AA@  1006d7d0     libucrt:nlsdata.obj
 0002:000087d4       ??_C@_03IDIOELNC@Fri?$AA@  1006d7d4     libucrt:nlsdata.obj
 0002:000087d8       ??_C@_03FEFJNEK@Sat?$AA@   1006d7d8     libucrt:nlsdata.obj
 0002:000087dc       ??_C@_06OOPIFAJ@Sunday?$AA@ 1006d7dc     libucrt:nlsdata.obj
 0002:000087e4       ??_C@_06JLEDEDGH@Monday?$AA@ 1006d7e4     libucrt:nlsdata.obj
 0002:000087ec       ??_C@_07BAAGCFCM@Tuesday?$AA@ 1006d7ec     libucrt:nlsdata.obj
 0002:000087f8       ??_C@_09DLIGFAKA@Wednesday?$AA@ 1006d7f8     libucrt:nlsdata.obj
 0002:00008804       ??_C@_08HACCIKIA@Thursday?$AA@ 1006d804     libucrt:nlsdata.obj
 0002:00008810       ??_C@_06JECMNKMI@Friday?$AA@ 1006d810     libucrt:nlsdata.obj
 0002:00008818       ??_C@_08INBOOONO@Saturday?$AA@ 1006d818     libucrt:nlsdata.obj
 0002:00008824       ??_C@_03JIHJHPIE@Jan?$AA@  1006d824     libucrt:nlsdata.obj
 0002:00008828       ??_C@_03HJBDCHOM@Feb?$AA@  1006d828     libucrt:nlsdata.obj
 0002:0000882c       ??_C@_03ODNJBKGA@Mar?$AA@  1006d82c     libucrt:nlsdata.obj
 0002:00008830       ??_C@_03LEOLGMJP@Apr?$AA@  1006d830     libucrt:nlsdata.obj
 0002:00008834       ??_C@_03CNMDKL@May?$AA@    1006d834     libucrt:nlsdata.obj
 0002:00008838       ??_C@_03IDFGHECI@Jun?$AA@  1006d838     libucrt:nlsdata.obj
 0002:0000883c       ??_C@_03LBGABGKK@Jul?$AA@  1006d83c     libucrt:nlsdata.obj
 0002:00008840       ??_C@_03IFJFEIGA@Aug?$AA@  1006d840     libucrt:nlsdata.obj
 0002:00008844       ??_C@_03GGCAPAJC@Sep?$AA@  1006d844     libucrt:nlsdata.obj
 0002:00008848       ??_C@_03BMAOKBAD@Oct?$AA@  1006d848     libucrt:nlsdata.obj
 0002:0000884c       ??_C@_03JPJOFNIA@Nov?$AA@  1006d84c     libucrt:nlsdata.obj
 0002:00008850       ??_C@_03MKABNOCG@Dec?$AA@  1006d850     libucrt:nlsdata.obj
 0002:00008854       ??_C@_07CGJPFGJA@January?$AA@ 1006d854     libucrt:nlsdata.obj
 0002:00008860       ??_C@_08GNJGEPFN@February?$AA@ 1006d860     libucrt:nlsdata.obj
 0002:0000886c       ??_C@_05HPCKOFNC@March?$AA@ 1006d86c     libucrt:nlsdata.obj
 0002:00008874       ??_C@_05DMJDNLEJ@April?$AA@ 1006d874     libucrt:nlsdata.obj
 0002:0000887c       ??_C@_04CNLMGBGM@June?$AA@ 1006d87c     libucrt:nlsdata.obj
 0002:00008884       ??_C@_04MIEPOIFP@July?$AA@ 1006d884     libucrt:nlsdata.obj
 0002:0000888c       ??_C@_06LBBHFDDG@August?$AA@ 1006d88c     libucrt:nlsdata.obj
 0002:00008894       ??_C@_09BHHEALKD@September?$AA@ 1006d894     libucrt:nlsdata.obj
 0002:000088a0       ??_C@_07JJNFCEND@October?$AA@ 1006d8a0     libucrt:nlsdata.obj
 0002:000088ac       ??_C@_08HCHEGEOA@November?$AA@ 1006d8ac     libucrt:nlsdata.obj
 0002:000088b8       ??_C@_08EDHMEBNP@December?$AA@ 1006d8b8     libucrt:nlsdata.obj
 0002:000088c4       ??_C@_02DEDBPAFC@AM?$AA@   1006d8c4     libucrt:nlsdata.obj
 0002:000088c8       ??_C@_02CJNFDJBF@PM?$AA@   1006d8c8     libucrt:nlsdata.obj
 0002:000088cc       ??_C@_08BPBNCDIB@MM?1dd?1yy?$AA@ 1006d8cc     libucrt:nlsdata.obj
 0002:000088d8       ??_C@_0BE@CKGJFCPC@dddd?0?5MMMM?5dd?0?5yyyy?$AA@ 1006d8d8     libucrt:nlsdata.obj
 0002:000088f0       ??_C@_08JCCMCCIL@HH?3mm?3ss?$AA@ 1006d8f0     libucrt:nlsdata.obj
 0002:000088fc       ??_C@_17MBGCMIPB@?$AAS?$AAu?$AAn?$AA?$AA@ 1006d8fc     libucrt:nlsdata.obj
 0002:00008908       ??_C@_17KBOMKBF@?$AAM?$AAo?$AAn?$AA?$AA@ 1006d908     libucrt:nlsdata.obj
 0002:00008914       ??_C@_17BMKGEGOJ@?$AAT?$AAu?$AAe?$AA?$AA@ 1006d914     libucrt:nlsdata.obj
 0002:00008920       ??_C@_17CJEDCEPE@?$AAW?$AAe?$AAd?$AA?$AA@ 1006d920     libucrt:nlsdata.obj
 0002:0000892c       ??_C@_17PDPHAADD@?$AAT?$AAh?$AAu?$AA?$AA@ 1006d92c     libucrt:nlsdata.obj
 0002:00008938       ??_C@_17HFOLPPLP@?$AAF?$AAr?$AAi?$AA?$AA@ 1006d938     libucrt:nlsdata.obj
 0002:00008944       ??_C@_17GGIBDPIH@?$AAS?$AAa?$AAt?$AA?$AA@ 1006d944     libucrt:nlsdata.obj
 0002:00008950       ??_C@_1O@IHNHDHPB@?$AAS?$AAu?$AAn?$AAd?$AAa?$AAy?$AA?$AA@ 1006d950     libucrt:nlsdata.obj
 0002:00008960       ??_C@_1O@MMNBFLIA@?$AAM?$AAo?$AAn?$AAd?$AAa?$AAy?$AA?$AA@ 1006d960     libucrt:nlsdata.obj
 0002:00008970       ??_C@_1BA@ENFBFFEK@?$AAT?$AAu?$AAe?$AAs?$AAd?$AAa?$AAy?$AA?$AA@ 1006d970     libucrt:nlsdata.obj
 0002:00008984       ??_C@_1BE@EBOGMDOH@?$AAW?$AAe?$AAd?$AAn?$AAe?$AAs?$AAd?$AAa?$AAy?$AA?$AA@ 1006d984     libucrt:nlsdata.obj
 0002:0000899c       ??_C@_1BC@HHMNLIHE@?$AAT?$AAh?$AAu?$AAr?$AAs?$AAd?$AAa?$AAy?$AA?$AA@ 1006d99c     libucrt:nlsdata.obj
 0002:000089b4       ??_C@_1O@PDICJHAG@?$AAF?$AAr?$AAi?$AAd?$AAa?$AAy?$AA?$AA@ 1006d9b4     libucrt:nlsdata.obj
 0002:000089c4       ??_C@_1BC@ENMNNPAJ@?$AAS?$AAa?$AAt?$AAu?$AAr?$AAd?$AAa?$AAy?$AA?$AA@ 1006d9c4     libucrt:nlsdata.obj
 0002:000089dc       ??_C@_17DKNBKCHM@?$AAJ?$AAa?$AAn?$AA?$AA@ 1006d9dc     libucrt:nlsdata.obj
 0002:000089e8       ??_C@_17LMDJEKJN@?$AAF?$AAe?$AAb?$AA?$AA@ 1006d9e8     libucrt:nlsdata.obj
 0002:000089f4       ??_C@_17CKNLEDEC@?$AAM?$AAa?$AAr?$AA?$AA@ 1006d9f4     libucrt:nlsdata.obj
 0002:00008a00       ??_C@_17LFPOIHDD@?$AAA?$AAp?$AAr?$AA?$AA@ 1006da00     libucrt:nlsdata.obj
 0002:00008a0c       ??_C@_17PNNKMEED@?$AAM?$AAa?$AAy?$AA?$AA@ 1006da0c     libucrt:nlsdata.obj
 0002:00008a18       ??_C@_17KCJGOCPB@?$AAJ?$AAu?$AAn?$AA?$AA@ 1006da18     libucrt:nlsdata.obj
 0002:00008a24       ??_C@_17IJPCKHK@?$AAJ?$AAu?$AAl?$AA?$AA@ 1006da24     libucrt:nlsdata.obj
 0002:00008a30       ??_C@_17ICPELBCN@?$AAA?$AAu?$AAg?$AA?$AA@ 1006da30     libucrt:nlsdata.obj
 0002:00008a3c       ??_C@_17HCHCOKMG@?$AAS?$AAe?$AAp?$AA?$AA@ 1006da3c     libucrt:nlsdata.obj
 0002:00008a48       ??_C@_17FNLKOI@?$AAO?$AAc?$AAt?$AA?$AA@ 1006da48     libucrt:nlsdata.obj
 0002:00008a54       ??_C@_17BBDMLCIG@?$AAN?$AAo?$AAv?$AA?$AA@ 1006da54     libucrt:nlsdata.obj
 0002:00008a60       ??_C@_17EGKACKIF@?$AAD?$AAe?$AAc?$AA?$AA@ 1006da60     libucrt:nlsdata.obj
 0002:00008a6c       ??_C@_1BA@EFMEIEBA@?$AAJ?$AAa?$AAn?$AAu?$AAa?$AAr?$AAy?$AA?$AA@ 1006da6c     libucrt:nlsdata.obj
 0002:00008a80       ??_C@_1BC@JGDDFFAM@?$AAF?$AAe?$AAb?$AAr?$AAu?$AAa?$AAr?$AAy?$AA?$AA@ 1006da80     libucrt:nlsdata.obj
 0002:00008a98       ??_C@_1M@IKEENEDF@?$AAM?$AAa?$AAr?$AAc?$AAh?$AA?$AA@ 1006da98     libucrt:nlsdata.obj
 0002:00008aa8       ??_C@_1M@GJNLMHFD@?$AAA?$AAp?$AAr?$AAi?$AAl?$AA?$AA@ 1006daa8     libucrt:nlsdata.obj
 0002:00008ab8       ??_C@_19EPFLPGAP@?$AAJ?$AAu?$AAn?$AAe?$AA?$AA@ 1006dab8     libucrt:nlsdata.obj
 0002:00008ac4       ??_C@_19BIFMLPCD@?$AAJ?$AAu?$AAl?$AAy?$AA?$AA@ 1006dac4     libucrt:nlsdata.obj
 0002:00008ad0       ??_C@_1O@PAHLKOAC@?$AAA?$AAu?$AAg?$AAu?$AAs?$AAt?$AA?$AA@ 1006dad0     libucrt:nlsdata.obj
 0002:00008ae0       ??_C@_1BE@DKAAMBJL@?$AAS?$AAe?$AAp?$AAt?$AAe?$AAm?$AAb?$AAe?$AAr?$AA?$AA@ 1006dae0     libucrt:nlsdata.obj
 0002:00008af8       ??_C@_1BA@EPANDLNG@?$AAO?$AAc?$AAt?$AAo?$AAb?$AAe?$AAr?$AA?$AA@ 1006daf8     libucrt:nlsdata.obj
 0002:00008b0c       ??_C@_1BC@BGLIFPF@?$AAN?$AAo?$AAv?$AAe?$AAm?$AAb?$AAe?$AAr?$AA?$AA@ 1006db0c     libucrt:nlsdata.obj
 0002:00008b24       ??_C@_1BC@FEMKIFH@?$AAD?$AAe?$AAc?$AAe?$AAm?$AAb?$AAe?$AAr?$AA?$AA@ 1006db24     libucrt:nlsdata.obj
 0002:00008b3c       ??_C@_15ODEHAHHF@?$AAA?$AAM?$AA?$AA@ 1006db3c     libucrt:nlsdata.obj
 0002:00008b44       ??_C@_15CLMNNGEL@?$AAP?$AAM?$AA?$AA@ 1006db44     libucrt:nlsdata.obj
 0002:00008b4c       ??_C@_1BC@IEBCMHCM@?$AAM?$AAM?$AA?1?$AAd?$AAd?$AA?1?$AAy?$AAy?$AA?$AA@ 1006db4c     libucrt:nlsdata.obj
 0002:00008b64       ??_C@_1CI@KNAKOEBC@?$AAd?$AAd?$AAd?$AAd?$AA?0?$AA?5?$AAM?$AAM?$AAM?$AAM?$AA?5?$AAd?$AAd?$AA?0?$AA?5?$AAy?$AAy?$AAy?$AAy?$AA?$AA@ 1006db64     libucrt:nlsdata.obj
 0002:00008b94       ??_C@_1BC@GDGBMEMK@?$AAH?$AAH?$AA?3?$AAm?$AAm?$AA?3?$AAs?$AAs?$AA?$AA@ 1006db94     libucrt:nlsdata.obj
 0002:00008bac       ??_C@_1M@BMHNFIME@?$AAe?$AAn?$AA?9?$AAU?$AAS?$AA?$AA@ 1006dbac     libucrt:nlsdata.obj
 0002:00008bc0       ___lc_time_c               1006dbc0     libucrt:nlsdata.obj
 0002:00008d6c       ??_C@_1DE@JNGNBFGO@?$AAR?$AAu?$AAn?$AAt?$AAi?$AAm?$AAe?$AA?5?$AAE?$AAr?$AAr?$AAo?$AAr?$AA?$CB?$AA?6?$AA?6?$AAP?$AAr?$AAo?$AAg?$AAr?$AAa?$AAm?$AA?3?$AA?5?$AA?$AA@ 1006dd6c     libucrt:report_runtime_error.obj
 0002:00008dac       ?ccs@?BL@???$__acrt_stdio_parse_mode@D@@YA?AU__acrt_stdio_stream_mode@@QBD@Z@4QBDB 1006ddac     libucrt:openfile.obj
 0002:00008db0       ?utf8_encoding@?BL@???$__acrt_stdio_parse_mode@D@@YA?AU__acrt_stdio_stream_mode@@QBD@Z@4QBDB 1006ddb0     libucrt:openfile.obj
 0002:00008db8       ?utf16_encoding@?BL@???$__acrt_stdio_parse_mode@D@@YA?AU__acrt_stdio_stream_mode@@QBD@Z@4QBDB 1006ddb8     libucrt:openfile.obj
 0002:00008dc4       ?unicode_encoding@?BL@???$__acrt_stdio_parse_mode@D@@YA?AU__acrt_stdio_stream_mode@@QBD@Z@4QBDB 1006ddc4     libucrt:openfile.obj
 0002:00008dcc       ?ccs@?BL@???$__acrt_stdio_parse_mode@_W@@YA?AU__acrt_stdio_stream_mode@@QB_W@Z@4QB_WB 1006ddcc     libucrt:openfile.obj
 0002:00008dd4       ?utf8_encoding@?BL@???$__acrt_stdio_parse_mode@_W@@YA?AU__acrt_stdio_stream_mode@@QB_W@Z@4QB_WB 1006ddd4     libucrt:openfile.obj
 0002:00008de0       ?utf16_encoding@?BL@???$__acrt_stdio_parse_mode@_W@@YA?AU__acrt_stdio_stream_mode@@QB_W@Z@4QB_WB 1006dde0     libucrt:openfile.obj
 0002:00008df4       ?unicode_encoding@?BL@???$__acrt_stdio_parse_mode@_W@@YA?AU__acrt_stdio_stream_mode@@QB_W@Z@4QB_WB 1006ddf4     libucrt:openfile.obj
 0002:00008e08       __d_inf                    1006de08     libucrt:util.obj
 0002:00008e18       __d_ind                    1006de18     libucrt:util.obj
 0002:00008e28       __d_max                    1006de28     libucrt:util.obj
 0002:00008e38       __d_min                    1006de38     libucrt:util.obj
 0002:00008e48       __d_mzero                  1006de48     libucrt:util.obj
 0002:00008e88       ??_C@_1M@HPNHIDJI@?$AAj?$AAa?$AA?9?$AAJ?$AAP?$AA?$AA@ 1006de88     libucrt:mbctype.obj
 0002:00008e98       ??_C@_1M@BIBDDEMK@?$AAz?$AAh?$AA?9?$AAC?$AAN?$AA?$AA@ 1006de98     libucrt:mbctype.obj
 0002:00008ea8       ??_C@_1M@JLOOOEGK@?$AAk?$AAo?$AA?9?$AAK?$AAR?$AA?$AA@ 1006dea8     libucrt:mbctype.obj
 0002:00008eb8       ??_C@_1M@CLNBBOPM@?$AAz?$AAh?$AA?9?$AAT?$AAW?$AA?$AA@ 1006deb8     libucrt:mbctype.obj
 0002:00008ec8       __wctype                   1006dec8     libucrt:ctype.obj
 0002:00009138       ___newctype                1006e138     libucrt:ctype.obj
 0002:000094d8       ___newclmap                1006e4d8     libucrt:ctype.obj
 0002:000096a8       ___newcumap                1006e6a8     libucrt:ctype.obj
 0002:0000a104       ??_C@_15EMKDOKLE@?$AAa?$AAr?$AA?$AA@ 1006f104     libucrt:lcidtoname_downlevel.obj
 0002:0000a10c       ??_C@_15KNPADPLH@?$AAb?$AAg?$AA?$AA@ 1006f10c     libucrt:lcidtoname_downlevel.obj
 0002:0000a114       ??_C@_15EDMHLDMO@?$AAc?$AAa?$AA?$AA@ 1006f114     libucrt:lcidtoname_downlevel.obj
 0002:0000a11c       ??_C@_1O@BPEAJADD@?$AAz?$AAh?$AA?9?$AAC?$AAH?$AAS?$AA?$AA@ 1006f11c     libucrt:lcidtoname_downlevel.obj
 0002:0000a12c       ??_C@_15LJNHCMNK@?$AAc?$AAs?$AA?$AA@ 1006f12c     libucrt:lcidtoname_downlevel.obj
 0002:0000a134       ??_C@_15FOMCIDHG@?$AAd?$AAa?$AA?$AA@ 1006f134     libucrt:lcidtoname_downlevel.obj
 0002:0000a13c       ??_C@_15NBKABECB@?$AAd?$AAe?$AA?$AA@ 1006f13c     libucrt:lcidtoname_downlevel.obj
 0002:0000a144       ??_C@_15GHPEIIAO@?$AAe?$AAl?$AA?$AA@ 1006f144     libucrt:lcidtoname_downlevel.obj
 0002:0000a14c       ??_C@_15MNPNEAIF@?$AAe?$AAn?$AA?$AA@ 1006f14c     libucrt:lcidtoname_downlevel.obj
 0002:0000a154       ??_C@_15GPIOMPMH@?$AAe?$AAs?$AA?$AA@ 1006f154     libucrt:lcidtoname_downlevel.obj
 0002:0000a15c       ??_C@_15NGLOAKJC@?$AAf?$AAi?$AA?$AA@ 1006f15c     libucrt:lcidtoname_downlevel.obj
 0002:0000a164       ??_C@_15FBKGNKAM@?$AAf?$AAr?$AA?$AA@ 1006f164     libucrt:lcidtoname_downlevel.obj
 0002:0000a16c       ??_C@_15KGGCNEFK@?$AAh?$AAe?$AA?$AA@ 1006f16c     libucrt:lcidtoname_downlevel.obj
 0002:0000a174       ??_C@_15PGHLIDMF@?$AAh?$AAu?$AA?$AA@ 1006f174     libucrt:lcidtoname_downlevel.obj
 0002:0000a17c       ??_C@_15BIEMAPLM@?$AAi?$AAs?$AA?$AA@ 1006f17c     libucrt:lcidtoname_downlevel.obj
 0002:0000a184       ??_C@_15IFJLDHAF@?$AAi?$AAt?$AA?$AA@ 1006f184     libucrt:lcidtoname_downlevel.obj
 0002:0000a18c       ??_C@_15GEMIOCAG@?$AAj?$AAa?$AA?$AA@ 1006f18c     libucrt:lcidtoname_downlevel.obj
 0002:0000a194       ??_C@_15EPELEGJA@?$AAk?$AAo?$AA?$AA@ 1006f194     libucrt:lcidtoname_downlevel.obj
 0002:0000a19c       ??_C@_15NDDHIMN@?$AAn?$AAl?$AA?$AA@ 1006f19c     libucrt:lcidtoname_downlevel.obj
 0002:0000a1a4       ??_C@_15BPIGNHCD@?$AAn?$AAo?$AA?$AA@ 1006f1a4     libucrt:lcidtoname_downlevel.obj
 0002:0000a1ac       ??_C@_15DEOPBLCG@?$AAp?$AAl?$AA?$AA@ 1006f1ac     libucrt:lcidtoname_downlevel.obj
 0002:0000a1b4       ??_C@_15KBECGEFG@?$AAp?$AAt?$AA?$AA@ 1006f1b4     libucrt:lcidtoname_downlevel.obj
 0002:0000a1bc       ??_C@_15GLJCBFMD@?$AAr?$AAo?$AA?$AA@ 1006f1bc     libucrt:lcidtoname_downlevel.obj
 0002:0000a1c4       ??_C@_15FEDGKCDI@?$AAr?$AAu?$AA?$AA@ 1006f1c4     libucrt:lcidtoname_downlevel.obj
 0002:0000a1cc       ??_C@_15GLKMLLHM@?$AAh?$AAr?$AA?$AA@ 1006f1cc     libucrt:lcidtoname_downlevel.obj
 0002:0000a1d4       ??_C@_15CPKMFBDB@?$AAs?$AAk?$AA?$AA@ 1006f1d4     libucrt:lcidtoname_downlevel.obj
 0002:0000a1dc       ??_C@_15BAAIOGMK@?$AAs?$AAq?$AA?$AA@ 1006f1dc     libucrt:lcidtoname_downlevel.obj
 0002:0000a1e4       ??_C@_15INNPNOHD@?$AAs?$AAv?$AA?$AA@ 1006f1e4     libucrt:lcidtoname_downlevel.obj
 0002:0000a1ec       ??_C@_15CABMMOGH@?$AAt?$AAh?$AA?$AA@ 1006f1ec     libucrt:lcidtoname_downlevel.obj
 0002:0000a1f4       ??_C@_15BPLIHJJM@?$AAt?$AAr?$AA?$AA@ 1006f1f4     libucrt:lcidtoname_downlevel.obj
 0002:0000a1fc       ??_C@_15NEOEKKDJ@?$AAu?$AAr?$AA?$AA@ 1006f1fc     libucrt:lcidtoname_downlevel.obj
 0002:0000a204       ??_C@_15NFICGAJK@?$AAi?$AAd?$AA?$AA@ 1006f204     libucrt:lcidtoname_downlevel.obj
 0002:0000a20c       ??_C@_15PJPFLCCM@?$AAu?$AAk?$AA?$AA@ 1006f20c     libucrt:lcidtoname_downlevel.obj
 0002:0000a214       ??_C@_15HPJPHDM@?$AAb?$AAe?$AA?$AA@ 1006f214     libucrt:lcidtoname_downlevel.obj
 0002:0000a21c       ??_C@_15LCHLGJII@?$AAs?$AAl?$AA?$AA@ 1006f21c     libucrt:lcidtoname_downlevel.obj
 0002:0000a224       ??_C@_15PCFJPHHO@?$AAe?$AAt?$AA?$AA@ 1006f224     libucrt:lcidtoname_downlevel.obj
 0002:0000a22c       ??_C@_15HPFPGODN@?$AAl?$AAv?$AA?$AA@ 1006f22c     libucrt:lcidtoname_downlevel.obj
 0002:0000a234       ??_C@_15NFFGKGLG@?$AAl?$AAt?$AA?$AA@ 1006f234     libucrt:lcidtoname_downlevel.obj
 0002:0000a23c       ??_C@_15BDAKCCHN@?$AAf?$AAa?$AA?$AA@ 1006f23c     libucrt:lcidtoname_downlevel.obj
 0002:0000a244       ??_C@_15NFGIAIAJ@?$AAv?$AAi?$AA?$AA@ 1006f244     libucrt:lcidtoname_downlevel.obj
 0002:0000a24c       ??_C@_15LMKNDMHN@?$AAh?$AAy?$AA?$AA@ 1006f24c     libucrt:lcidtoname_downlevel.obj
 0002:0000a254       ??_C@_15IJBHMCFL@?$AAa?$AAz?$AA?$AA@ 1006f254     libucrt:lcidtoname_downlevel.obj
 0002:0000a25c       ??_C@_15EKOFJABL@?$AAe?$AAu?$AA?$AA@ 1006f25c     libucrt:lcidtoname_downlevel.obj
 0002:0000a264       ??_C@_15BGHADCNK@?$AAm?$AAk?$AA?$AA@ 1006f264     libucrt:lcidtoname_downlevel.obj
 0002:0000a26c       ??_C@_15JDNICKHM@?$AAa?$AAf?$AA?$AA@ 1006f26c     libucrt:lcidtoname_downlevel.obj
 0002:0000a274       ??_C@_15KPJEDBKD@?$AAk?$AAa?$AA?$AA@ 1006f274     libucrt:lcidtoname_downlevel.obj
 0002:0000a27c       ??_C@_15PDNFFFEO@?$AAf?$AAo?$AA?$AA@ 1006f27c     libucrt:lcidtoname_downlevel.obj
 0002:0000a284       ??_C@_15OMLEGLOC@?$AAh?$AAi?$AA?$AA@ 1006f284     libucrt:lcidtoname_downlevel.obj
 0002:0000a28c       ??_C@_15IDNNENKK@?$AAm?$AAs?$AA?$AA@ 1006f28c     libucrt:lcidtoname_downlevel.obj
 0002:0000a294       ??_C@_15MACJNBMH@?$AAk?$AAk?$AA?$AA@ 1006f294     libucrt:lcidtoname_downlevel.obj
 0002:0000a29c       ??_C@_15DKDJEOND@?$AAk?$AAy?$AA?$AA@ 1006f29c     libucrt:lcidtoname_downlevel.obj
 0002:0000a2a4       ??_C@_15DFGDLJBG@?$AAs?$AAw?$AA?$AA@ 1006f2a4     libucrt:lcidtoname_downlevel.obj
 0002:0000a2ac       ??_C@_15BBFAICNG@?$AAu?$AAz?$AA?$AA@ 1006f2ac     libucrt:lcidtoname_downlevel.obj
 0002:0000a2b4       ??_C@_15DKNDCGEA@?$AAt?$AAt?$AA?$AA@ 1006f2b4     libucrt:lcidtoname_downlevel.obj
 0002:0000a2bc       ??_C@_15MGIFMDPL@?$AAp?$AAa?$AA?$AA@ 1006f2bc     libucrt:lcidtoname_downlevel.obj
 0002:0000a2c4       ??_C@_15HCNDBBA@?$AAg?$AAu?$AA?$AA@ 1006f2c4     libucrt:lcidtoname_downlevel.obj
 0002:0000a2cc       ??_C@_15FNBEIBON@?$AAt?$AAa?$AA?$AA@ 1006f2cc     libucrt:lcidtoname_downlevel.obj
 0002:0000a2d4       ??_C@_15NCHGBGLK@?$AAt?$AAe?$AA?$AA@ 1006f2d4     libucrt:lcidtoname_downlevel.obj
 0002:0000a2dc       ??_C@_15PHPHCBPF@?$AAk?$AAn?$AA?$AA@ 1006f2dc     libucrt:lcidtoname_downlevel.obj
 0002:0000a2e4       ??_C@_15DLGBCKMP@?$AAm?$AAr?$AA?$AA@ 1006f2e4     libucrt:lcidtoname_downlevel.obj
 0002:0000a2ec       ??_C@_15EABBLBFF@?$AAs?$AAa?$AA?$AA@ 1006f2ec     libucrt:lcidtoname_downlevel.obj
 0002:0000a2f4       ??_C@_15CBKOMCOI@?$AAm?$AAn?$AA?$AA@ 1006f2f4     libucrt:lcidtoname_downlevel.obj
 0002:0000a2fc       ??_C@_15CKDMCJAF@?$AAg?$AAl?$AA?$AA@ 1006f2fc     libucrt:lcidtoname_downlevel.obj
 0002:0000a304       ??_C@_17CNJFBPG@?$AAk?$AAo?$AAk?$AA?$AA@ 1006f304     libucrt:lcidtoname_downlevel.obj
 0002:0000a310       ??_C@_17FFBJICPL@?$AAs?$AAy?$AAr?$AA?$AA@ 1006f310     libucrt:lcidtoname_downlevel.obj
 0002:0000a31c       ??_C@_17KPNDCPAF@?$AAd?$AAi?$AAv?$AA?$AA@ 1006f31c     libucrt:lcidtoname_downlevel.obj
 0002:0000a328       ??_C@_11LOCGONAA@?$AA?$AA@ 1006f328     libucrt:lcidtoname_downlevel.obj
 0002:0000a32c       ??_C@_1M@OKAHONE@?$AAa?$AAr?$AA?9?$AAS?$AAA?$AA?$AA@ 1006f32c     libucrt:lcidtoname_downlevel.obj
 0002:0000a33c       ??_C@_1M@FFFIGIGK@?$AAb?$AAg?$AA?9?$AAB?$AAG?$AA?$AA@ 1006f33c     libucrt:lcidtoname_downlevel.obj
 0002:0000a34c       ??_C@_1M@BJNKEDC@?$AAc?$AAa?$AA?9?$AAE?$AAS?$AA?$AA@ 1006f34c     libucrt:lcidtoname_downlevel.obj
 0002:0000a35c       ??_C@_1M@IJJHFJHA@?$AAc?$AAs?$AA?9?$AAC?$AAZ?$AA?$AA@ 1006f35c     libucrt:lcidtoname_downlevel.obj
 0002:0000a36c       ??_C@_1M@CLPEOBGI@?$AAd?$AAa?$AA?9?$AAD?$AAK?$AA?$AA@ 1006f36c     libucrt:lcidtoname_downlevel.obj
 0002:0000a37c       ??_C@_1M@MCMADGCB@?$AAd?$AAe?$AA?9?$AAD?$AAE?$AA?$AA@ 1006f37c     libucrt:lcidtoname_downlevel.obj
 0002:0000a38c       ??_C@_1M@OOCKEMAM@?$AAe?$AAl?$AA?9?$AAG?$AAR?$AA?$AA@ 1006f38c     libucrt:lcidtoname_downlevel.obj
 0002:0000a39c       ??_C@_1M@DDNJFGID@?$AAf?$AAi?$AA?9?$AAF?$AAI?$AA?$AA@ 1006f39c     libucrt:lcidtoname_downlevel.obj
 0002:0000a3ac       ??_C@_1M@GLIPPMAC@?$AAf?$AAr?$AA?9?$AAF?$AAR?$AA?$AA@ 1006f3ac     libucrt:lcidtoname_downlevel.obj
 0002:0000a3bc       ??_C@_1M@GFMCHPE@?$AAh?$AAe?$AA?9?$AAI?$AAL?$AA?$AA@ 1006f3bc     libucrt:lcidtoname_downlevel.obj
 0002:0000a3cc       ??_C@_1M@MHLPGNKM@?$AAh?$AAu?$AA?9?$AAH?$AAU?$AA?$AA@ 1006f3cc     libucrt:lcidtoname_downlevel.obj
 0002:0000a3dc       ??_C@_1M@LPDDNNPN@?$AAi?$AAs?$AA?9?$AAI?$AAS?$AA?$AA@ 1006f3dc     libucrt:lcidtoname_downlevel.obj
 0002:0000a3ec       ??_C@_1M@MADIPODN@?$AAi?$AAt?$AA?9?$AAI?$AAT?$AA?$AA@ 1006f3ec     libucrt:lcidtoname_downlevel.obj
 0002:0000a3fc       ??_C@_1M@IHBJJGG@?$AAn?$AAl?$AA?9?$AAN?$AAL?$AA?$AA@ 1006f3fc     libucrt:lcidtoname_downlevel.obj
 0002:0000a40c       ??_C@_1M@EANAGDL@?$AAn?$AAb?$AA?9?$AAN?$AAO?$AA?$AA@ 1006f40c     libucrt:lcidtoname_downlevel.obj
 0002:0000a41c       ??_C@_1M@NEIEMEGP@?$AAp?$AAl?$AA?9?$AAP?$AAL?$AA?$AA@ 1006f41c     libucrt:lcidtoname_downlevel.obj
 0002:0000a42c       ??_C@_1M@BOCFIGEP@?$AAp?$AAt?$AA?9?$AAB?$AAR?$AA?$AA@ 1006f42c     libucrt:lcidtoname_downlevel.obj
 0002:0000a43c       ??_C@_1M@IMPFOPBG@?$AAr?$AAo?$AA?9?$AAR?$AAO?$AA?$AA@ 1006f43c     libucrt:lcidtoname_downlevel.obj
 0002:0000a44c       ??_C@_1M@IDNNEJMM@?$AAr?$AAu?$AA?9?$AAR?$AAU?$AA?$AA@ 1006f44c     libucrt:lcidtoname_downlevel.obj
 0002:0000a45c       ??_C@_1M@LILEEOGM@?$AAh?$AAr?$AA?9?$AAH?$AAR?$AA?$AA@ 1006f45c     libucrt:lcidtoname_downlevel.obj
 0002:0000a46c       ??_C@_1M@FKIFEHPB@?$AAs?$AAk?$AA?9?$AAS?$AAK?$AA?$AA@ 1006f46c     libucrt:lcidtoname_downlevel.obj
 0002:0000a47c       ??_C@_1M@LJMAMNPJ@?$AAs?$AAq?$AA?9?$AAA?$AAL?$AA?$AA@ 1006f47c     libucrt:lcidtoname_downlevel.obj
 0002:0000a48c       ??_C@_1M@GIAKDKJK@?$AAs?$AAv?$AA?9?$AAS?$AAE?$AA?$AA@ 1006f48c     libucrt:lcidtoname_downlevel.obj
 0002:0000a49c       ??_C@_1M@MKJKIKCL@?$AAt?$AAh?$AA?9?$AAT?$AAH?$AA?$AA@ 1006f49c     libucrt:lcidtoname_downlevel.obj
 0002:0000a4ac       ??_C@_1M@MFLCCMPB@?$AAt?$AAr?$AA?9?$AAT?$AAR?$AA?$AA@ 1006f4ac     libucrt:lcidtoname_downlevel.obj
 0002:0000a4bc       ??_C@_1M@OIJHDKJN@?$AAu?$AAr?$AA?9?$AAP?$AAK?$AA?$AA@ 1006f4bc     libucrt:lcidtoname_downlevel.obj
 0002:0000a4cc       ??_C@_1M@LHIPCIEK@?$AAi?$AAd?$AA?9?$AAI?$AAD?$AA?$AA@ 1006f4cc     libucrt:lcidtoname_downlevel.obj
 0002:0000a4dc       ??_C@_1M@MFMOBGI@?$AAu?$AAk?$AA?9?$AAU?$AAA?$AA?$AA@ 1006f4dc     libucrt:lcidtoname_downlevel.obj
 0002:0000a4ec       ??_C@_1M@OBGLJIPL@?$AAb?$AAe?$AA?9?$AAB?$AAY?$AA?$AA@ 1006f4ec     libucrt:lcidtoname_downlevel.obj
 0002:0000a4fc       ??_C@_1M@BCFAJEAD@?$AAs?$AAl?$AA?9?$AAS?$AAI?$AA?$AA@ 1006f4fc     libucrt:lcidtoname_downlevel.obj
 0002:0000a50c       ??_C@_1M@FKFFEDDN@?$AAe?$AAt?$AA?9?$AAE?$AAE?$AA?$AA@ 1006f50c     libucrt:lcidtoname_downlevel.obj
 0002:0000a51c       ??_C@_1M@KGKKAACI@?$AAl?$AAv?$AA?9?$AAL?$AAV?$AA?$AA@ 1006f51c     libucrt:lcidtoname_downlevel.obj
 0002:0000a52c       ??_C@_1M@IFGBIJO@?$AAl?$AAt?$AA?9?$AAL?$AAT?$AA?$AA@ 1006f52c     libucrt:lcidtoname_downlevel.obj
 0002:0000a53c       ??_C@_1M@FGEAHEDM@?$AAf?$AAa?$AA?9?$AAI?$AAR?$AA?$AA@ 1006f53c     libucrt:lcidtoname_downlevel.obj
 0002:0000a54c       ??_C@_1M@KBMAIBFN@?$AAv?$AAi?$AA?9?$AAV?$AAN?$AA?$AA@ 1006f54c     libucrt:lcidtoname_downlevel.obj
 0002:0000a55c       ??_C@_1M@GPCBKDJK@?$AAh?$AAy?$AA?9?$AAA?$AAM?$AA?$AA@ 1006f55c     libucrt:lcidtoname_downlevel.obj
 0002:0000a56c       ??_C@_1BG@BECMDDJB@?$AAa?$AAz?$AA?9?$AAA?$AAZ?$AA?9?$AAL?$AAa?$AAt?$AAn?$AA?$AA@ 1006f56c     libucrt:lcidtoname_downlevel.obj
 0002:0000a588       ??_C@_1M@MAOFCAEA@?$AAe?$AAu?$AA?9?$AAE?$AAS?$AA?$AA@ 1006f588     libucrt:lcidtoname_downlevel.obj
 0002:0000a598       ??_C@_1M@IGHABKPI@?$AAm?$AAk?$AA?9?$AAM?$AAK?$AA?$AA@ 1006f598     libucrt:lcidtoname_downlevel.obj
 0002:0000a5a8       ??_C@_1M@IAIGNEJG@?$AAt?$AAn?$AA?9?$AAZ?$AAA?$AA?$AA@ 1006f5a8     libucrt:lcidtoname_downlevel.obj
 0002:0000a5b8       ??_C@_1M@IIJCOJFA@?$AAx?$AAh?$AA?9?$AAZ?$AAA?$AA?$AA@ 1006f5b8     libucrt:lcidtoname_downlevel.obj
 0002:0000a5c8       ??_C@_1M@LGPJHNJH@?$AAz?$AAu?$AA?9?$AAZ?$AAA?$AA?$AA@ 1006f5c8     libucrt:lcidtoname_downlevel.obj
 0002:0000a5d8       ??_C@_1M@HOKAOIO@?$AAa?$AAf?$AA?9?$AAZ?$AAA?$AA?$AA@ 1006f5d8     libucrt:lcidtoname_downlevel.obj
 0002:0000a5e8       ??_C@_1M@DPCLHLIE@?$AAk?$AAa?$AA?9?$AAG?$AAE?$AA?$AA@ 1006f5e8     libucrt:lcidtoname_downlevel.obj
 0002:0000a5f8       ??_C@_1M@BLKMHJBI@?$AAf?$AAo?$AA?9?$AAF?$AAO?$AA?$AA@ 1006f5f8     libucrt:lcidtoname_downlevel.obj
 0002:0000a608       ??_C@_1M@LGGJAPPB@?$AAh?$AAi?$AA?9?$AAI?$AAN?$AA?$AA@ 1006f608     libucrt:lcidtoname_downlevel.obj
 0002:0000a618       ??_C@_1M@FIKPIHFE@?$AAm?$AAt?$AA?9?$AAM?$AAT?$AA?$AA@ 1006f618     libucrt:lcidtoname_downlevel.obj
 0002:0000a628       ??_C@_1M@HEGGPBFA@?$AAs?$AAe?$AA?9?$AAN?$AAO?$AA?$AA@ 1006f628     libucrt:lcidtoname_downlevel.obj
 0002:0000a638       ??_C@_1M@EIBJEEPA@?$AAm?$AAs?$AA?9?$AAM?$AAY?$AA?$AA@ 1006f638     libucrt:lcidtoname_downlevel.obj
 0002:0000a648       ??_C@_1M@FHLBGMPP@?$AAk?$AAk?$AA?9?$AAK?$AAZ?$AA?$AA@ 1006f648     libucrt:lcidtoname_downlevel.obj
 0002:0000a658       ??_C@_1M@NGJJLCGI@?$AAk?$AAy?$AA?9?$AAK?$AAG?$AA?$AA@ 1006f658     libucrt:lcidtoname_downlevel.obj
 0002:0000a668       ??_C@_1M@GIENNBFC@?$AAs?$AAw?$AA?9?$AAK?$AAE?$AA?$AA@ 1006f668     libucrt:lcidtoname_downlevel.obj
 0002:0000a678       ??_C@_1BG@NDGMJIMJ@?$AAu?$AAz?$AA?9?$AAU?$AAZ?$AA?9?$AAL?$AAa?$AAt?$AAn?$AA?$AA@ 1006f678     libucrt:lcidtoname_downlevel.obj
 0002:0000a694       ??_C@_1M@IDCCIHBC@?$AAt?$AAt?$AA?9?$AAR?$AAU?$AA?$AA@ 1006f694     libucrt:lcidtoname_downlevel.obj
 0002:0000a6a4       ??_C@_1M@LOICPMOJ@?$AAb?$AAn?$AA?9?$AAI?$AAN?$AA?$AA@ 1006f6a4     libucrt:lcidtoname_downlevel.obj
 0002:0000a6b4       ??_C@_1M@KPKKNEAH@?$AAp?$AAa?$AA?9?$AAI?$AAN?$AA?$AA@ 1006f6b4     libucrt:lcidtoname_downlevel.obj
 0002:0000a6c4       ??_C@_1M@PJGPPBOG@?$AAg?$AAu?$AA?9?$AAI?$AAN?$AA?$AA@ 1006f6c4     libucrt:lcidtoname_downlevel.obj
 0002:0000a6d4       ??_C@_1M@KMKMOPHI@?$AAt?$AAa?$AA?9?$AAI?$AAN?$AA?$AA@ 1006f6d4     libucrt:lcidtoname_downlevel.obj
 0002:0000a6e4       ??_C@_1M@KFEHEPAC@?$AAt?$AAe?$AA?9?$AAI?$AAN?$AA?$AA@ 1006f6e4     libucrt:lcidtoname_downlevel.obj
 0002:0000a6f4       ??_C@_1M@CDCLMGHI@?$AAk?$AAn?$AA?9?$AAI?$AAN?$AA?$AA@ 1006f6f4     libucrt:lcidtoname_downlevel.obj
 0002:0000a704       ??_C@_1M@MIODLDKF@?$AAm?$AAl?$AA?9?$AAI?$AAN?$AA?$AA@ 1006f704     libucrt:lcidtoname_downlevel.obj
 0002:0000a714       ??_C@_1M@PBIEACPO@?$AAm?$AAr?$AA?9?$AAI?$AAN?$AA?$AA@ 1006f714     libucrt:lcidtoname_downlevel.obj
 0002:0000a724       ??_C@_1M@NIDEAGPH@?$AAs?$AAa?$AA?9?$AAI?$AAN?$AA?$AA@ 1006f724     libucrt:lcidtoname_downlevel.obj
 0002:0000a734       ??_C@_1M@FHIHCBIO@?$AAm?$AAn?$AA?9?$AAM?$AAN?$AA?$AA@ 1006f734     libucrt:lcidtoname_downlevel.obj
 0002:0000a744       ??_C@_1M@JAIJPENP@?$AAc?$AAy?$AA?9?$AAG?$AAB?$AA?$AA@ 1006f744     libucrt:lcidtoname_downlevel.obj
 0002:0000a754       ??_C@_1M@PHGFBEPN@?$AAg?$AAl?$AA?9?$AAE?$AAS?$AA?$AA@ 1006f754     libucrt:lcidtoname_downlevel.obj
 0002:0000a764       ??_C@_1O@KPIPDNCP@?$AAk?$AAo?$AAk?$AA?9?$AAI?$AAN?$AA?$AA@ 1006f764     libucrt:lcidtoname_downlevel.obj
 0002:0000a774       ??_C@_1O@KNHJLDJA@?$AAs?$AAy?$AAr?$AA?9?$AAS?$AAY?$AA?$AA@ 1006f774     libucrt:lcidtoname_downlevel.obj
 0002:0000a784       ??_C@_1O@MKEKBLAH@?$AAd?$AAi?$AAv?$AA?9?$AAM?$AAV?$AA?$AA@ 1006f784     libucrt:lcidtoname_downlevel.obj
 0002:0000a794       ??_C@_1O@OHDCKDDF@?$AAq?$AAu?$AAz?$AA?9?$AAB?$AAO?$AA?$AA@ 1006f794     libucrt:lcidtoname_downlevel.obj
 0002:0000a7a4       ??_C@_1M@LEPJNLFD@?$AAn?$AAs?$AA?9?$AAZ?$AAA?$AA?$AA@ 1006f7a4     libucrt:lcidtoname_downlevel.obj
 0002:0000a7b4       ??_C@_1M@OMLEIIJB@?$AAm?$AAi?$AA?9?$AAN?$AAZ?$AA?$AA@ 1006f7b4     libucrt:lcidtoname_downlevel.obj
 0002:0000a7c4       ??_C@_1M@PMPEAILG@?$AAa?$AAr?$AA?9?$AAI?$AAQ?$AA?$AA@ 1006f7c4     libucrt:lcidtoname_downlevel.obj
 0002:0000a7d4       ??_C@_1M@CNKPNOEE@?$AAd?$AAe?$AA?9?$AAC?$AAH?$AA?$AA@ 1006f7d4     libucrt:lcidtoname_downlevel.obj
 0002:0000a7e4       ??_C@_1M@LKMGMLKO@?$AAe?$AAn?$AA?9?$AAG?$AAB?$AA?$AA@ 1006f7e4     libucrt:lcidtoname_downlevel.obj
 0002:0000a7f4       ??_C@_1M@PGKJFFGL@?$AAe?$AAs?$AA?9?$AAM?$AAX?$AA?$AA@ 1006f7f4     libucrt:lcidtoname_downlevel.obj
 0002:0000a804       ??_C@_1M@DNNANBDC@?$AAf?$AAr?$AA?9?$AAB?$AAE?$AA?$AA@ 1006f804     libucrt:lcidtoname_downlevel.obj
 0002:0000a814       ??_C@_1M@HLGMDFHM@?$AAi?$AAt?$AA?9?$AAC?$AAH?$AA?$AA@ 1006f814     libucrt:lcidtoname_downlevel.obj
 0002:0000a824       ??_C@_1M@CLLBGJH@?$AAn?$AAl?$AA?9?$AAB?$AAE?$AA?$AA@ 1006f824     libucrt:lcidtoname_downlevel.obj
 0002:0000a834       ??_C@_1M@BODBOGLF@?$AAn?$AAn?$AA?9?$AAN?$AAO?$AA?$AA@ 1006f834     libucrt:lcidtoname_downlevel.obj
 0002:0000a844       ??_C@_1M@HFFAHKAD@?$AAp?$AAt?$AA?9?$AAP?$AAT?$AA?$AA@ 1006f844     libucrt:lcidtoname_downlevel.obj
 0002:0000a854       ??_C@_1BG@LNOAKHIE@?$AAs?$AAr?$AA?9?$AAS?$AAP?$AA?9?$AAL?$AAa?$AAt?$AAn?$AA?$AA@ 1006f854     libucrt:lcidtoname_downlevel.obj
 0002:0000a870       ??_C@_1M@HBMHBGAK@?$AAs?$AAv?$AA?9?$AAF?$AAI?$AA?$AA@ 1006f870     libucrt:lcidtoname_downlevel.obj
 0002:0000a880       ??_C@_1BG@DGCJGJBE@?$AAa?$AAz?$AA?9?$AAA?$AAZ?$AA?9?$AAC?$AAy?$AAr?$AAl?$AA?$AA@ 1006f880     libucrt:lcidtoname_downlevel.obj
 0002:0000a89c       ??_C@_1M@KEJDAAHB@?$AAs?$AAe?$AA?9?$AAS?$AAE?$AA?$AA@ 1006f89c     libucrt:lcidtoname_downlevel.obj
 0002:0000a8ac       ??_C@_1M@HEIBJJAD@?$AAm?$AAs?$AA?9?$AAB?$AAN?$AA?$AA@ 1006f8ac     libucrt:lcidtoname_downlevel.obj
 0002:0000a8bc       ??_C@_1BG@PBGJMCEM@?$AAu?$AAz?$AA?9?$AAU?$AAZ?$AA?9?$AAC?$AAy?$AAr?$AAl?$AA?$AA@ 1006f8bc     libucrt:lcidtoname_downlevel.obj
 0002:0000a8d8       ??_C@_1O@LAOBCMDF@?$AAq?$AAu?$AAz?$AA?9?$AAE?$AAC?$AA?$AA@ 1006f8d8     libucrt:lcidtoname_downlevel.obj
 0002:0000a8e8       ??_C@_1M@POEEMAIO@?$AAa?$AAr?$AA?9?$AAE?$AAG?$AA?$AA@ 1006f8e8     libucrt:lcidtoname_downlevel.obj
 0002:0000a8f8       ??_C@_1M@EFAKDEDL@?$AAz?$AAh?$AA?9?$AAH?$AAK?$AA?$AA@ 1006f8f8     libucrt:lcidtoname_downlevel.obj
 0002:0000a908       ??_C@_1M@HKKIJHGI@?$AAd?$AAe?$AA?9?$AAA?$AAT?$AA?$AA@ 1006f908     libucrt:lcidtoname_downlevel.obj
 0002:0000a918       ??_C@_1M@KBFBEHJF@?$AAe?$AAn?$AA?9?$AAA?$AAU?$AA?$AA@ 1006f918     libucrt:lcidtoname_downlevel.obj
 0002:0000a928       ??_C@_1M@MNPLFAAH@?$AAe?$AAs?$AA?9?$AAE?$AAS?$AA?$AA@ 1006f928     libucrt:lcidtoname_downlevel.obj
 0002:0000a938       ??_C@_1M@HJOOJFMA@?$AAf?$AAr?$AA?9?$AAC?$AAA?$AA?$AA@ 1006f938     libucrt:lcidtoname_downlevel.obj
 0002:0000a948       ??_C@_1BG@JPOFPNAB@?$AAs?$AAr?$AA?9?$AAS?$AAP?$AA?9?$AAC?$AAy?$AAr?$AAl?$AA?$AA@ 1006f948     libucrt:lcidtoname_downlevel.obj
 0002:0000a964       ??_C@_1M@LNFOCMOB@?$AAs?$AAe?$AA?9?$AAF?$AAI?$AA?$AA@ 1006f964     libucrt:lcidtoname_downlevel.obj
 0002:0000a974       ??_C@_1O@MGJBOAMB@?$AAq?$AAu?$AAz?$AA?9?$AAP?$AAE?$AA?$AA@ 1006f974     libucrt:lcidtoname_downlevel.obj
 0002:0000a984       ??_C@_1M@GJINLBOK@?$AAa?$AAr?$AA?9?$AAL?$AAY?$AA?$AA@ 1006f984     libucrt:lcidtoname_downlevel.obj
 0002:0000a994       ??_C@_1M@GGMNHJNL@?$AAz?$AAh?$AA?9?$AAS?$AAG?$AA?$AA@ 1006f994     libucrt:lcidtoname_downlevel.obj
 0002:0000a9a4       ??_C@_1M@HOIKODND@?$AAd?$AAe?$AA?9?$AAL?$AAU?$AA?$AA@ 1006f9a4     libucrt:lcidtoname_downlevel.obj
 0002:0000a9b4       ??_C@_1M@DDOCCGFG@?$AAe?$AAn?$AA?9?$AAC?$AAA?$AA?$AA@ 1006f9b4     libucrt:lcidtoname_downlevel.obj
 0002:0000a9c4       ??_C@_1M@BNOEMJLF@?$AAe?$AAs?$AA?9?$AAG?$AAT?$AA?$AA@ 1006f9c4     libucrt:lcidtoname_downlevel.obj
 0002:0000a9d4       ??_C@_1M@EOGNKEK@?$AAf?$AAr?$AA?9?$AAC?$AAH?$AA?$AA@ 1006f9d4     libucrt:lcidtoname_downlevel.obj
 0002:0000a9e4       ??_C@_1M@FLIDJFHL@?$AAh?$AAr?$AA?9?$AAB?$AAA?$AA?$AA@ 1006f9e4     libucrt:lcidtoname_downlevel.obj
 0002:0000a9f4       ??_C@_1O@FMCELNAJ@?$AAs?$AAm?$AAj?$AA?9?$AAN?$AAO?$AA?$AA@ 1006f9f4     libucrt:lcidtoname_downlevel.obj
 0002:0000aa04       ??_C@_1M@JHGLJMGJ@?$AAa?$AAr?$AA?9?$AAD?$AAZ?$AA?$AA@ 1006fa04     libucrt:lcidtoname_downlevel.obj
 0002:0000aa14       ??_C@_1M@JKKFDCNP@?$AAz?$AAh?$AA?9?$AAM?$AAO?$AA?$AA@ 1006fa14     libucrt:lcidtoname_downlevel.obj
 0002:0000aa24       ??_C@_1M@GEEFALPE@?$AAd?$AAe?$AA?9?$AAL?$AAI?$AA?$AA@ 1006fa24     libucrt:lcidtoname_downlevel.obj
 0002:0000aa34       ??_C@_1M@IGEOFBG@?$AAe?$AAn?$AA?9?$AAN?$AAZ?$AA?$AA@ 1006fa34     libucrt:lcidtoname_downlevel.obj
 0002:0000aa44       ??_C@_1M@KDBONEHP@?$AAe?$AAs?$AA?9?$AAC?$AAR?$AA?$AA@ 1006fa44     libucrt:lcidtoname_downlevel.obj
 0002:0000aa54       ??_C@_1M@FHMDOHNN@?$AAf?$AAr?$AA?9?$AAL?$AAU?$AA?$AA@ 1006fa54     libucrt:lcidtoname_downlevel.obj
 0002:0000aa64       ??_C@_1BG@NFKKMAFG@?$AAb?$AAs?$AA?9?$AAB?$AAA?$AA?9?$AAL?$AAa?$AAt?$AAn?$AA?$AA@ 1006fa64     libucrt:lcidtoname_downlevel.obj
 0002:0000aa80       ??_C@_1O@IMNBEMCI@?$AAs?$AAm?$AAj?$AA?9?$AAS?$AAE?$AA?$AA@ 1006fa80     libucrt:lcidtoname_downlevel.obj
 0002:0000aa90       ??_C@_1M@DHHMBNDP@?$AAa?$AAr?$AA?9?$AAM?$AAA?$AA?$AA@ 1006fa90     libucrt:lcidtoname_downlevel.obj
 0002:0000aaa0       ??_C@_1M@BNBLJCGH@?$AAe?$AAn?$AA?9?$AAI?$AAE?$AA?$AA@ 1006faa0     libucrt:lcidtoname_downlevel.obj
 0002:0000aab0       ??_C@_1M@GEPAFMDL@?$AAe?$AAs?$AA?9?$AAP?$AAA?$AA?$AA@ 1006fab0     libucrt:lcidtoname_downlevel.obj
 0002:0000aac0       ??_C@_1M@OJONDMDL@?$AAf?$AAr?$AA?9?$AAM?$AAC?$AA?$AA@ 1006fac0     libucrt:lcidtoname_downlevel.obj
 0002:0000aad0       ??_C@_1BG@OBCNFJB@?$AAs?$AAr?$AA?9?$AAB?$AAA?$AA?9?$AAL?$AAa?$AAt?$AAn?$AA?$AA@ 1006fad0     libucrt:lcidtoname_downlevel.obj
 0002:0000aaec       ??_C@_1O@KEMEEGPO@?$AAs?$AAm?$AAa?$AA?9?$AAN?$AAO?$AA?$AA@ 1006faec     libucrt:lcidtoname_downlevel.obj
 0002:0000aafc       ??_C@_1M@ELMGFODK@?$AAa?$AAr?$AA?9?$AAT?$AAN?$AA?$AA@ 1006fafc     libucrt:lcidtoname_downlevel.obj
 0002:0000ab0c       ??_C@_1M@BHDLHFAF@?$AAe?$AAn?$AA?9?$AAZ?$AAA?$AA?$AA@ 1006fb0c     libucrt:lcidtoname_downlevel.obj
 0002:0000ab1c       ??_C@_1M@BMGIGLIF@?$AAe?$AAs?$AA?9?$AAD?$AAO?$AA?$AA@ 1006fb1c     libucrt:lcidtoname_downlevel.obj
 0002:0000ab2c       ??_C@_1BG@CMBHIPBE@?$AAs?$AAr?$AA?9?$AAB?$AAA?$AA?9?$AAC?$AAy?$AAr?$AAl?$AA?$AA@ 1006fb2c     libucrt:lcidtoname_downlevel.obj
 0002:0000ab48       ??_C@_1O@HEDBLHNP@?$AAs?$AAm?$AAa?$AA?9?$AAS?$AAE?$AA?$AA@ 1006fb48     libucrt:lcidtoname_downlevel.obj
 0002:0000ab58       ??_C@_1M@DAGCADIM@?$AAa?$AAr?$AA?9?$AAO?$AAM?$AA?$AA@ 1006fb58     libucrt:lcidtoname_downlevel.obj
 0002:0000ab68       ??_C@_1M@FODLMICG@?$AAe?$AAn?$AA?9?$AAJ?$AAM?$AA?$AA@ 1006fb68     libucrt:lcidtoname_downlevel.obj
 0002:0000ab78       ??_C@_1M@DNMLCIHB@?$AAe?$AAs?$AA?9?$AAV?$AAE?$AA?$AA@ 1006fb78     libucrt:lcidtoname_downlevel.obj
 0002:0000ab88       ??_C@_1O@EOKHMKJK@?$AAs?$AAm?$AAs?$AA?9?$AAF?$AAI?$AA?$AA@ 1006fb88     libucrt:lcidtoname_downlevel.obj
 0002:0000ab98       ??_C@_1M@CAFJMKOF@?$AAa?$AAr?$AA?9?$AAY?$AAE?$AA?$AA@ 1006fb98     libucrt:lcidtoname_downlevel.obj
 0002:0000aba8       ??_C@_1M@CBFHIJLI@?$AAe?$AAn?$AA?9?$AAC?$AAB?$AA?$AA@ 1006fba8     libucrt:lcidtoname_downlevel.obj
 0002:0000abb8       ??_C@_1M@BGNFLDN@?$AAe?$AAs?$AA?9?$AAC?$AAO?$AA?$AA@ 1006fbb8     libucrt:lcidtoname_downlevel.obj
 0002:0000abc8       ??_C@_1O@JMPHMAMC@?$AAs?$AAm?$AAn?$AA?9?$AAF?$AAI?$AA?$AA@ 1006fbc8     libucrt:lcidtoname_downlevel.obj
 0002:0000abd8       ??_C@_1M@JLANABKE@?$AAa?$AAr?$AA?9?$AAS?$AAY?$AA?$AA@ 1006fbd8     libucrt:lcidtoname_downlevel.obj
 0002:0000abe8       ??_C@_1M@HPKGCFGN@?$AAe?$AAn?$AA?9?$AAB?$AAZ?$AA?$AA@ 1006fbe8     libucrt:lcidtoname_downlevel.obj
 0002:0000abf8       ??_C@_1M@OLJCMLGM@?$AAe?$AAs?$AA?9?$AAP?$AAE?$AA?$AA@ 1006fbf8     libucrt:lcidtoname_downlevel.obj
 0002:0000ac08       ??_C@_1M@MKKGFKLE@?$AAa?$AAr?$AA?9?$AAJ?$AAO?$AA?$AA@ 1006fc08     libucrt:lcidtoname_downlevel.obj
 0002:0000ac18       ??_C@_1M@EKPGLDNI@?$AAe?$AAn?$AA?9?$AAT?$AAT?$AA?$AA@ 1006fc18     libucrt:lcidtoname_downlevel.obj
 0002:0000ac28       ??_C@_1M@OONGHFHE@?$AAe?$AAs?$AA?9?$AAA?$AAR?$AA?$AA@ 1006fc28     libucrt:lcidtoname_downlevel.obj
 0002:0000ac38       ??_C@_1M@OOJFGBHE@?$AAa?$AAr?$AA?9?$AAL?$AAB?$AA?$AA@ 1006fc38     libucrt:lcidtoname_downlevel.obj
 0002:0000ac48       ??_C@_1M@GCEJHNEG@?$AAe?$AAn?$AA?9?$AAZ?$AAW?$AA?$AA@ 1006fc48     libucrt:lcidtoname_downlevel.obj
 0002:0000ac58       ??_C@_1M@JNOCAHJI@?$AAe?$AAs?$AA?9?$AAE?$AAC?$AA?$AA@ 1006fc58     libucrt:lcidtoname_downlevel.obj
 0002:0000ac68       ??_C@_1M@JEFHPGGB@?$AAa?$AAr?$AA?9?$AAK?$AAW?$AA?$AA@ 1006fc68     libucrt:lcidtoname_downlevel.obj
 0002:0000ac78       ??_C@_1M@MLKIBJOJ@?$AAe?$AAn?$AA?9?$AAP?$AAH?$AA?$AA@ 1006fc78     libucrt:lcidtoname_downlevel.obj
 0002:0000ac88       ??_C@_1M@BDNIPEND@?$AAe?$AAs?$AA?9?$AAC?$AAL?$AA?$AA@ 1006fc88     libucrt:lcidtoname_downlevel.obj
