 System_slrt

 Timestamp is 5acff4e2 (Thu Apr 12 20:08:02 2018)

 Preferred load address is 10000000

 Start         Length     Name                   Class
 0001:00000000 00061b68H .text$mn                CODE
 0002:00000000 00000104H .CRT$XCA                DATA
 0002:00000104 00000104H .CRT$XCZ                DATA
 0002:00000208 00000104H .CRT$XIA                DATA
 0002:0000030c 00000110H .CRT$XIC                DATA
 0002:0000041c 00000104H .CRT$XIZ                DATA
 0002:00000520 00000104H .CRT$XPA                DATA
 0002:00000624 0000010cH .CRT$XPX                DATA
 0002:00000730 00000104H .CRT$XPXA               DATA
 0002:00000834 00000104H .CRT$XPZ                DATA
 0002:00000938 00000104H .CRT$XTA                DATA
 0002:00000a3c 00000104H .CRT$XTZ                DATA
 0002:00000b40 0000c9a8H .rdata                  DATA
 0002:0000d4e8 00000398H .rdata$r                DATA
 0002:0000d880 00000110H .rdata$sxdata           DATA
 0002:0000d990 00000194H .rdata$zzzdbg           DATA
 0002:0000db24 00000104H .rtc$IAA                DATA
 0002:0000dc28 00000104H .rtc$IZZ                DATA
 0002:0000dd2c 00000104H .rtc$TAA                DATA
 0002:0000de30 00000108H .rtc$TZZ                DATA
 0002:0000df38 00000ac8H .xdata$x                DATA
 0002:0000ea00 000001dfH .edata                  DATA
 0003:00000000 00001040H .data                   DATA
 0003:00001040 000001e0H .data$r                 DATA
 0003:00001220 00013f40H .bss                    DATA
 0004:00000000 000001d4H .idata$5                DATA
 0004:000001d4 00000014H .idata$2                DATA
 0004:000001e8 00000014H .idata$3                DATA
 0004:000001fc 000001d4H .idata$4                DATA
 0004:000003d0 00000843H .idata$6                DATA
 0005:00000000 00000224H .gfids$x                DATA
 0005:00000224 000001a5H .gfids$y                DATA
 0006:00000000 00000104H .00cfg                  DATA

  Address         Publics by Value              Rva+Base       Lib:Object

 0000:00000000       ___guard_fids_table        00000000     <absolute>
 0000:00000000       ___guard_iat_count         00000000     <absolute>
 0000:00000000       ___guard_iat_table         00000000     <absolute>
 0000:00000000       ___guard_longjmp_table     00000000     <absolute>
 0000:00000000       ___guard_fids_count        00000000     <absolute>
 0000:00000000       __except_list              00000000     <absolute>
 0000:00000000       ___dynamic_value_reloc_table 00000000     <absolute>
 0000:00000000       ___guard_longjmp_count     00000000     <absolute>
 0000:00000003       ___safe_se_handler_count   00000003     <absolute>
 0000:00000100       ___guard_flags             00000100     <absolute>
 0000:00000000       ___ImageBase               10000000     <linker-defined>
 0001:00005ec0       _MdlInitialize             10006ec0 f   System.obj
 0001:00005ed0       _MdlInitializeSampleTimes  10006ed0 f   System.obj
 0001:00005ee0       _MdlInitializeSizes        10006ee0 f   System.obj
 0001:00005ef0       _MdlOutputs                10006ef0 f   System.obj
 0001:00005f70       _MdlStart                  10006f70 f   System.obj
 0001:00005f80       _MdlTerminate              10006f80 f   System.obj
 0001:00005fb0       _MdlUpdate                 10006fb0 f   System.obj
 0001:00006040       _System                    10007040 f   System.obj
 0001:00006e30       ___local_stdio_printf_options 10007e30 f i System.obj
 0001:00006e40       __vfprintf_l               10007e40 f i System.obj
 0001:00006e70       _printf                    10007e70 f i System.obj
 0001:00006eb0       _rt_mxCreateCharMatrixFromStrings 10007eb0 f   rt_matrx.obj
 0001:00007010       _rt_mxCreateDoubleMatrix   10008010 f   rt_matrx.obj
 0001:00007070       _rt_mxCreateNumericArray   10008070 f   rt_matrx.obj
 0001:000070f0       _rt_mxCreateString         100080f0 f   rt_matrx.obj
 0001:00007180       _rt_mxDuplicateArray       10008180 f   rt_matrx.obj
 0001:000071e0       _rt_mxGetDimensions        100081e0 f   rt_matrx.obj
 0001:00007220       _rt_mxGetEps               10008220 f   rt_matrx.obj
 0001:00007230       _rt_mxGetString            10008230 f   rt_matrx.obj
 0001:000072b0       _rtPrintfNoOp              100082b0 f   rt_printf.obj
 0001:000072c0       _System_GetCAPIStaticMap   100082c0 f   System_capi.obj
 0001:000072d0       _System_InitializeDataMapInfo 100082d0 f   System_capi.obj
 0001:00007360       _rtGetInf                  10008360 f   rtGetInf.obj
 0001:00007390       _rtGetInfF                 10008390 f   rtGetInf.obj
 0001:000073b0       _rtGetMinusInf             100083b0 f   rtGetInf.obj
 0001:000073e0       _rtGetMinusInfF            100083e0 f   rtGetInf.obj
 0001:00007400       _rtGetNaN                  10008400 f   rtGetNaN.obj
 0001:00007430       _rtGetNaNF                 10008430 f   rtGetNaN.obj
 0001:00007450       _rtIsInf                   10008450 f   rt_nonfinite.obj
 0001:00007490       _rtIsInfF                  10008490 f   rt_nonfinite.obj
 0001:000074d0       _rtIsNaN                   100084d0 f   rt_nonfinite.obj
 0001:000074f0       _rtIsNaNF                  100084f0 f   rt_nonfinite.obj
 0001:00007510       _rt_InitInfAndNaN          10008510 f   rt_nonfinite.obj
 0001:00007570       _rt_CleanUpForStateLogWithMMI 10008570 f   rt_logging_mmi.obj
 0001:00007680       _rt_FillStateSigInfoFromMMI 10008680 f   rt_logging_mmi.obj
 0001:00007a20       _rtwCAPI_CountSysRan       10008a20 f   rtw_modelmap_utils.obj
 0001:00007ac0       _rtwCAPI_EncodePath        10008ac0 f   rtw_modelmap_utils.obj
 0001:00007bc0       _rtwCAPI_FillSysRan        10008bc0 f   rtw_modelmap_utils.obj
 0001:00007cb0       _rtwCAPI_FreeFullPaths     10008cb0 f   rtw_modelmap_utils.obj
 0001:00007d40       _rtwCAPI_GetFullStateBlockPath 10008d40 f   rtw_modelmap_utils.obj
 0001:00007ef0       _rtwCAPI_GetNumContStateRecords 10008ef0 f   rtw_modelmap_utils.obj
 0001:00007fb0       _rtwCAPI_GetNumSigLogRecords 10008fb0 f   rtw_modelmap_utils.obj
 0001:00008000       _rtwCAPI_GetNumSigLogRecordsForRTWLogging 10009000 f   rtw_modelmap_utils.obj
 0001:000080a0       _rtwCAPI_GetNumStateRecords 100090a0 f   rtw_modelmap_utils.obj
 0001:000080f0       _rtwCAPI_GetNumStateRecordsForRTWLogging 100090f0 f   rtw_modelmap_utils.obj
 0001:00008190       _rtwCAPI_GetSigAddrFromMap 10009190 f   rtw_modelmap_utils.obj
 0001:00008250       _rtwCAPI_GetSigLogRecordInfo 10009250 f   rtw_modelmap_utils.obj
 0001:00008680       _rtwCAPI_GetStateRecordInfo 10009680 f   rtw_modelmap_utils.obj
 0001:00008b30       _rtwCAPI_GetStateWidth     10009b30 f   rtw_modelmap_utils.obj
 0001:00008b90       _rtwCAPI_HasStates         10009b90 f   rtw_modelmap_utils.obj
 0001:00008c00       _rtwCAPI_UpdateFullPaths   10009c00 f   rtw_modelmap_utils.obj
 0001:00008de0       __vsnprintf_l              10009de0 f i rt_logging.obj
 0001:00008e20       __vsprintf_l               10009e20 f i rt_logging.obj
 0001:00008e60       _fprintf                   10009e60 f i rt_logging.obj
 0001:00009770       _rt_CreateLogVar           1000a770 f   rt_logging.obj
 0001:00009800       _rt_CreateLogVarWithConvert 1000a800 f   rt_logging.obj
 0001:0000a180       _rt_CreateStructLogVar     1000b180 f   rt_logging.obj
 0001:0000aee0       _rt_GetMxIdFromDTypeId     1000bee0 f   rt_logging.obj
 0001:0000af10       _rt_GetMxIdFromDTypeIdForRSim 1000bf10 f   rt_logging.obj
 0001:0000d7e0       _rt_StartDataLogging       1000e7e0 f   rt_logging.obj
 0001:0000dca0       _rt_StartDataLoggingWithStartTime 1000eca0 f   rt_logging.obj
 0001:0000e600       _rt_StopDataLogging        1000f600 f   rt_logging.obj
 0001:0000e620       _rt_StopDataLoggingImpl    1000f620 f   rt_logging.obj
 0001:0000e950       _rt_UpdateLogVar           1000f950 f   rt_logging.obj
 0001:0000fa70       _rt_UpdateStructLogVar     10010a70 f   rt_logging.obj
 0001:0000fb00       _rt_UpdateTXXFYLogVars     10010b00 f   rt_logging.obj
 0001:0000fe30       _rt_UpdateTXYLogVars       10010e30 f   rt_logging.obj
 0001:00010080       _sprintf                   10011080 f i rt_logging.obj
 0001:000100c0       _DllMain@12                100110c0 f   xpctarget.obj
 0001:000100d0       _SLRTSetErrorStatus        100110d0 f   xpctarget.obj
 0001:000100f0       _System_ChangeStepSize     100110f0 f   xpctarget.obj
 0001:00010140       _changeStepSize            10011140 f   xpctarget.obj
 0001:00010190       _getDLMVersion             10011190 f   xpctarget.obj
 0001:000101a0       _getRefMdlPath             100111a0 f   xpctarget.obj
 0001:00010220       _getRefMdlSignalNumber     10011220 f   xpctarget.obj
 0001:000102d0       _getrlmdlinfo              100112d0 f   xpctarget.obj
 0001:000104b0       _updateDiscreteEvents      100114b0 f   xpctarget.obj
 0001:000104c0       _getNumRef                 100114c0 f   appmappingData.obj
 0001:000104d0       _vprintf                   100114d0 f i legacy_stdio.obj
 0001:00010510       _adquanserq8               10011510 f   adquanserq8.obj
 0001:00010c30       _daquanserq8               10011c30 f   daquanserq8.obj
 0001:000115a0       _GetPCIDeviceFull          100125a0 f   xpcruntime:xpcimports.obj
 0001:000115e0       _ShowPCIDevice             100125e0 f   xpcruntime:xpcimports.obj
 0001:00011da0       _xpcGetPciConfigAtSlot     10012da0 f   xpcruntime:xpcimports.obj
 0001:000120b0       _xpcInitProcs              100130b0 f   xpcruntime:xpcimports.obj
 0001:00013410       _xpceuploadevent           10014410 f   xpcruntime:xpcimports.obj
 0001:00013420       __ftoui3                   10014420 f   LIBCMT:_ftol3_.obj
 0001:0001342f       __ftoul3                   1001442f f   LIBCMT:_ftol3_.obj
 0001:0001343e       __ftol3                    1001443e f   LIBCMT:_ftol3_.obj
 0001:0001344b       __ftol3_NaN                1001444b f   LIBCMT:_ftol3_.obj
 0001:00013463       __ftol3_work               10014463 f   LIBCMT:_ftol3_.obj
 0001:000134e9       __ftol3_common             100144e9 f   LIBCMT:_ftol3_.obj
 0001:000135ab       __ftol3_arg_error          100145ab f   LIBCMT:_ftol3_.obj
 0001:000135bd       __ftol3_except             100145bd f   LIBCMT:_ftol3_.obj
 0001:00013601       __dtoui3                   10014601 f   LIBCMT:_ftol3_.obj
 0001:00013610       __dtoul3                   10014610 f   LIBCMT:_ftol3_.obj
 0001:0001361f       __dtol3                    1001461f f   LIBCMT:_ftol3_.obj
 0001:0001362c       __dtol3_NaN                1001462c f   LIBCMT:_ftol3_.obj
 0001:00013649       __dtol3_work               10014649 f   LIBCMT:_ftol3_.obj
 0001:00013730       __ultod3                   10014730 f   LIBCMT:_ftol3_.obj
 0001:00013770       __ltod3                    10014770 f   LIBCMT:_ftol3_.obj
 0001:00013874       ___raise_securityfailure   10014874 f   LIBCMT:gs_report.obj
 0001:000138a6       ___report_gsfailure        100148a6 f   LIBCMT:gs_report.obj
 0001:000139df       ___report_rangecheckfailure 100149df f   LIBCMT:gs_report.obj
 0001:000139ee       ___report_securityfailure  100149ee f   LIBCMT:gs_report.obj
 0001:00013af2       ___report_securityfailureEx 10014af2 f   LIBCMT:gs_report.obj
 0001:00013c4d       @__security_check_cookie@4 10014c4d f   LIBCMT:_secchk_.obj
 0001:00013c62       ___isa_available_init      10014c62 f   LIBCMT:_cpu_disp_.obj
 0001:0001422a       __CRT_INIT@12              1001522a f   LIBCMT:dll_dllmain.obj
 0001:00014235       __DllMainCRTStartup@12     10015235 f   LIBCMT:dll_dllmain.obj
 0001:00014260       ??$__crt_fast_decode_pointer@PAP6AXXZ@@YAPAP6AXXZQAP6AXXZ@Z 10015260 f i LIBCMT:utility.obj
 0001:00014279       ??$__crt_fast_encode_pointer@PAP6AXXZ@@YAPAP6AXXZQAP6AXXZ@Z 10015279 f i LIBCMT:utility.obj
 0001:0001429d       ?__crt_rotate_pointer_value@@YAIIH@Z 1001529d f i LIBCMT:utility.obj
 0001:000142ad       ?configure_argv@__scrt_narrow_argv_policy@@SAHXZ 100152ad f i LIBCMT:utility.obj
 0001:00014351       _NtCurrentTeb              10015351 f i LIBCMT:utility.obj
 0001:00014358       ___scrt_acquire_startup_lock 10015358 f   LIBCMT:utility.obj
 0001:0001439a       ___scrt_dllmain_after_initialize_c 1001539a f   LIBCMT:utility.obj
 0001:000143cf       ___scrt_dllmain_before_initialize_c 100153cf f   LIBCMT:utility.obj
 0001:000143e0       ___scrt_dllmain_crt_thread_attach 100153e0 f   LIBCMT:utility.obj
 0001:00014406       ___scrt_dllmain_crt_thread_detach 10015406 f   LIBCMT:utility.obj
 0001:00014416       ___scrt_dllmain_exception_filter 10015416 f   LIBCMT:utility.obj
 0001:00014455       ___scrt_dllmain_uninitialize_c 10015455 f   LIBCMT:utility.obj
 0001:00014480       ___scrt_dllmain_uninitialize_critical 10015480 f   LIBCMT:utility.obj
 0001:00014490       ___scrt_initialize_crt     10015490 f   LIBCMT:utility.obj
 0001:000144d7       ___scrt_initialize_onexit_tables 100154d7 f   LIBCMT:utility.obj
 0001:00014593       ___scrt_is_nonwritable_in_current_image 10015593 f   LIBCMT:utility.obj
 0001:0001463f       ___scrt_release_startup_lock 1001563f f   LIBCMT:utility.obj
 0001:00014663       ___scrt_uninitialize_crt   10015663 f   LIBCMT:utility.obj
 0001:00014695       __onexit                   10015695 f   LIBCMT:utility.obj
 0001:000146de       _at_quick_exit             100156de f   LIBCMT:utility.obj
 0001:0001471b       _atexit                    1001571b f   LIBCMT:utility.obj
 0001:00014735       ___security_init_cookie    10015735 f   LIBCMT:gs_support.obj
 0001:000147f8       ?__scrt_initialize_type_info@@YAXXZ 100157f8 f   LIBCMT:tncleanup.obj
 0001:00014807       ?__scrt_uninitialize_type_info@@YAXXZ 10015807 f   LIBCMT:tncleanup.obj
 0001:00014816       ___local_stdio_scanf_options 10015816 f i LIBCMT:default_local_stdio_options.obj
 0001:0001481c       ___scrt_initialize_default_local_stdio_options 1001581c f   LIBCMT:default_local_stdio_options.obj
 0001:00014840       ___scrt_get_dyn_tls_init_callback 10015840 f   LIBCMT:dyn_tls_init.obj
 0001:00014846       ___scrt_fastfail           10015846 f   LIBCMT:utility_desktop.obj
 0001:000149a7       ___scrt_get_show_window_mode 100159a7 f   LIBCMT:utility_desktop.obj
 0001:000149e6       ___scrt_initialize_winrt   100159e6 f   LIBCMT:utility_desktop.obj
 0001:000149e9       ___scrt_is_managed_app     100159e9 f   LIBCMT:utility_desktop.obj
 0001:00014a3e       ___scrt_set_unhandled_exception_filter 10015a3e f   LIBCMT:utility_desktop.obj
 0001:00014a4d       ___scrt_unhandled_exception_filter@4 10015a4d f   LIBCMT:utility_desktop.obj
 0001:00014a9e       __crt_debugger_hook        10015a9e f   LIBCMT:utility_desktop.obj
 0001:00014aa8       __RTC_Initialize           10015aa8 f   LIBCMT:_initsect_.obj
 0001:00014add       __RTC_Terminate            10015add f   LIBCMT:_initsect_.obj
 0001:00014b12       @_guard_check_icall@4      10015b12 f i LIBCMT:checkcfg.obj
 0001:00014b20       __SEH_prolog4              10015b20 f   LIBCMT:_sehprolg4_.obj
 0001:00014b66       __SEH_epilog4              10015b66 f   LIBCMT:_sehprolg4_.obj
 0001:00014b91       __get_startup_argv_mode    10015b91 f   LIBCMT:argv_mode.obj
 0001:00014b95       ___scrt_is_ucrt_dll_in_use 10015b95 f   LIBCMT:ucrt_detection.obj
 0001:00014ba4       @_guard_check_icall_nop@4  10015ba4 f i LIBCMT:guard_support.obj
 0001:00014ba5       __guard_icall_checks_enforced 10015ba5 f i LIBCMT:guard_support.obj
 0001:00014bbc       _GetModuleHandleA@4        10015bbc f   kernel32:KERNEL32.dll
 0001:00014bc2       _GetProcAddress@8          10015bc2 f   kernel32:KERNEL32.dll
 0001:00014bc8       _UnhandledExceptionFilter@4 10015bc8 f   kernel32:KERNEL32.dll
 0001:00014bce       _SetUnhandledExceptionFilter@4 10015bce f   kernel32:KERNEL32.dll
 0001:00014bd4       _GetCurrentProcess@0       10015bd4 f   kernel32:KERNEL32.dll
 0001:00014bda       _TerminateProcess@8        10015bda f   kernel32:KERNEL32.dll
 0001:00014be0       _IsProcessorFeaturePresent@4 10015be0 f   kernel32:KERNEL32.dll
 0001:00014be6       _QueryPerformanceCounter@4 10015be6 f   kernel32:KERNEL32.dll
 0001:00014bec       _GetCurrentProcessId@0     10015bec f   kernel32:KERNEL32.dll
 0001:00014bf2       _GetCurrentThreadId@0      10015bf2 f   kernel32:KERNEL32.dll
 0001:00014bf8       _GetSystemTimeAsFileTime@4 10015bf8 f   kernel32:KERNEL32.dll
 0001:00014bfe       _InitializeSListHead@4     10015bfe f   kernel32:KERNEL32.dll
 0001:00014c04       _IsDebuggerPresent@0       10015c04 f   kernel32:KERNEL32.dll
 0001:00014c0a       _GetStartupInfoW@4         10015c0a f   kernel32:KERNEL32.dll
 0001:00014c10       _GetModuleHandleW@4        10015c10 f   kernel32:KERNEL32.dll
 0001:00014c20       _memset                    10015c20 f   libvcruntime:memset.obj
 0001:00014dd0       _memcpy                    10015dd0 f   libvcruntime:memcpy.obj
 0001:000154b0       _memmove                   100164b0 f   libvcruntime:memmove.obj
 0001:00015b90       _strchr                    10016b90 f   libvcruntime:strchr.obj
 0001:00015bfe       ___from_strstr_to_strchr   10016bfe     libvcruntime:strchr.obj
 0001:00015d50       __except_handler4          10016d50 f   libvcruntime:_chandler4_.obj
 0001:00015f0f       ___vcrt_initialize         10016f0f f   libvcruntime:initialization.obj
 0001:00015f42       ___vcrt_thread_attach      10016f42 f   libvcruntime:initialization.obj
 0001:00015f4f       ___vcrt_thread_detach      10016f4f f   libvcruntime:initialization.obj
 0001:00015f5c       ___vcrt_uninitialize       10016f5c f   libvcruntime:initialization.obj
 0001:00015f82       ___vcrt_uninitialize_critical 10016f82 f   libvcruntime:initialization.obj
 0001:00015f9d       ??$?RD@__crt_internal_free_policy@@QBEXQBD@Z 10016f9d f i libvcruntime:std_type_info.obj
 0001:00015fb1       ??$?RX@__crt_internal_free_policy@@QBEXQBX@Z 10016fb1 f i libvcruntime:std_type_info.obj
 0001:00015fc5       ??$__crt_interlocked_compare_exchange_pointer@$$CBD$$T$$T@@YAPBDPDSBD$$T1@Z 10016fc5 f i libvcruntime:std_type_info.obj
 0001:00015fdb       ??$__crt_interlocked_compare_exchange_pointer@$$CBDPAD$$T@@YAPBDPDSBDQAD$$T@Z 10016fdb f i libvcruntime:std_type_info.obj
 0001:00015ff1       ??$__crt_interlocked_read_pointer@$$CBD@@YAPBDPDSBD@Z 10016ff1 f i libvcruntime:std_type_info.obj
 0001:00016005       ??0?$__crt_unique_heap_ptr@DU__crt_internal_free_policy@@@@QAE@QAD@Z 10017005 f i libvcruntime:std_type_info.obj
 0001:00016016       ??0?$__crt_unique_heap_ptr@XU__crt_internal_free_policy@@@@QAE@QAX@Z 10017016 f i libvcruntime:std_type_info.obj
 0001:00016027       ??1?$__crt_unique_heap_ptr@DU__crt_internal_free_policy@@@@QAE@XZ 10017027 f i libvcruntime:std_type_info.obj
 0001:0001603b       ??1?$__crt_unique_heap_ptr@XU__crt_internal_free_policy@@@@QAE@XZ 1001703b f i libvcruntime:std_type_info.obj
 0001:0001605b       ??B?$__crt_unique_heap_ptr@DU__crt_internal_free_policy@@@@QBE_NXZ 1001705b f i libvcruntime:std_type_info.obj
 0001:00016062       ??B?$__crt_unique_heap_ptr@XU__crt_internal_free_policy@@@@QBE_NXZ 10017062 f i libvcruntime:std_type_info.obj
 0001:00016091       ?detach@?$__crt_unique_heap_ptr@XU__crt_internal_free_policy@@@@QAEPAXXZ 10017091 f i libvcruntime:std_type_info.obj
 0001:00016097       ?get@?$__crt_unique_heap_ptr@DU__crt_internal_free_policy@@@@QBEPADXZ 10017097 f i libvcruntime:std_type_info.obj
 0001:0001609a       ?get@?$__crt_unique_heap_ptr@XU__crt_internal_free_policy@@@@QBEPAXXZ 1001709a f i libvcruntime:std_type_info.obj
 0001:0001609d       ?is_valid@?$__crt_unique_heap_ptr@DU__crt_internal_free_policy@@@@QBE_NXZ 1001709d f i libvcruntime:std_type_info.obj
 0001:000160a4       ?is_valid@?$__crt_unique_heap_ptr@XU__crt_internal_free_policy@@@@QBE_NXZ 100170a4 f i libvcruntime:std_type_info.obj
 0001:000160ab       ?release@?$__crt_unique_heap_ptr@DU__crt_internal_free_policy@@@@QAEXXZ 100170ab f i libvcruntime:std_type_info.obj
 0001:000160bf       ?release@?$__crt_unique_heap_ptr@XU__crt_internal_free_policy@@@@QAEXXZ 100170bf f i libvcruntime:std_type_info.obj
 0001:000160d3       ___std_type_info_compare   100170d3 f   libvcruntime:std_type_info.obj
 0001:0001611e       ___std_type_info_destroy_list 1001711e f   libvcruntime:std_type_info.obj
 0001:00016149       ___std_type_info_hash      10017149 f   libvcruntime:std_type_info.obj
 0001:00016178       ___std_type_info_name      10017178 f   libvcruntime:std_type_info.obj
 0001:00016280       __local_unwind4            10017280 f   libvcruntime:_exsup4_.obj
 0001:00016356       __seh_longjmp_unwind4@4    10017356 f   libvcruntime:_exsup4_.obj
 0001:0001637e       @_EH4_CallFilterFunc@8     1001737e f   libvcruntime:_exsup4_.obj
 0001:00016395       @_EH4_TransferToHandler@8  10017395 f   libvcruntime:_exsup4_.obj
 0001:000163ae       @_EH4_GlobalUnwind2@8      100173ae f   libvcruntime:_exsup4_.obj
 0001:000163c7       @_EH4_LocalUnwind@16       100173c7 f   libvcruntime:_exsup4_.obj
 0001:00016435       ___except_validate_context_record 10017435 f   libvcruntime:jbcxrval.obj
 0001:00016436       ___except_validate_jump_buffer 10017436 f   libvcruntime:jbcxrval.obj
 0001:00016437       ??$?RU__vcrt_ptd@@@__crt_internal_free_policy@@QBEXQBU__vcrt_ptd@@@Z 10017437 f i libvcruntime:per_thread_data.obj
 0001:0001644b       ??0?$__crt_unique_heap_ptr@U__vcrt_ptd@@U__crt_internal_free_policy@@@@QAE@QAU__vcrt_ptd@@@Z 1001744b f i libvcruntime:per_thread_data.obj
 0001:0001646e       ??1?$__crt_unique_heap_ptr@U__vcrt_ptd@@U__crt_internal_free_policy@@@@QAE@XZ 1001746e f i libvcruntime:per_thread_data.obj
 0001:0001648d       ??B?$__crt_unique_heap_ptr@U__vcrt_ptd@@U__crt_internal_free_policy@@@@QBE_NXZ 1001748d f i libvcruntime:per_thread_data.obj
 0001:00016494       ?detach@?$__crt_unique_heap_ptr@U__vcrt_ptd@@U__crt_internal_free_policy@@@@QAEPAU__vcrt_ptd@@XZ 10017494 f i libvcruntime:per_thread_data.obj
 0001:0001649a       ?get@?$__crt_unique_heap_ptr@U__vcrt_ptd@@U__crt_internal_free_policy@@@@QBEPAU__vcrt_ptd@@XZ 1001749a f i libvcruntime:per_thread_data.obj
 0001:0001649d       ?is_valid@?$__crt_unique_heap_ptr@U__vcrt_ptd@@U__crt_internal_free_policy@@@@QBE_NXZ 1001749d f i libvcruntime:per_thread_data.obj
 0001:000164a4       ?release@?$__crt_unique_heap_ptr@U__vcrt_ptd@@U__crt_internal_free_policy@@@@QAEXXZ 100174a4 f i libvcruntime:per_thread_data.obj
 0001:000164d8       ___vcrt_freefls@4          100174d8 f   libvcruntime:per_thread_data.obj
 0001:000164fb       ___vcrt_freeptd            100174fb f   libvcruntime:per_thread_data.obj
 0001:0001653e       ___vcrt_getptd             1001753e f   libvcruntime:per_thread_data.obj
 0001:0001654f       ___vcrt_getptd_noexit      1001754f f   libvcruntime:per_thread_data.obj
 0001:00016605       ___vcrt_initialize_ptd     10017605 f   libvcruntime:per_thread_data.obj
 0001:00016644       ___vcrt_uninitialize_ptd   10017644 f   libvcruntime:per_thread_data.obj
 0001:00016665       ___vcrt_initialize_locks   10017665 f   libvcruntime:locks.obj
 0001:000166b0       ___vcrt_lock               100176b0 f   libvcruntime:locks.obj
 0001:000166ca       ___vcrt_uninitialize_locks 100176ca f   libvcruntime:locks.obj
 0001:00016704       ___vcrt_unlock             10017704 f   libvcruntime:locks.obj
 0001:0001671e       ??$?BX@__crt_fast_encoded_nullptr_t@@QBEPAXXZ 1001771e f i libvcruntime:winapi_downlevel.obj
 0001:0001673c       ??$__crt_fast_decode_pointer@PAX@@YAPAXQAX@Z 1001773c f i libvcruntime:winapi_downlevel.obj
 0001:00016755       ??$__crt_fast_encode_pointer@PAX@@YAPAXQAX@Z 10017755 f i libvcruntime:winapi_downlevel.obj
 0001:00016779       ??$__crt_interlocked_compare_exchange_pointer@UHINSTANCE__@@$$T$$T@@YAPAUHINSTANCE__@@PDSAU0@$$T1@Z 10017779 f i libvcruntime:winapi_downlevel.obj
 0001:0001678f       ??$__crt_interlocked_compare_exchange_pointer@X$$T$$T@@YAPAXPDSAX$$T1@Z 1001778f f i libvcruntime:winapi_downlevel.obj
 0001:000167a5       ??$__crt_interlocked_exchange_pointer@UHINSTANCE__@@PAU1@@@YAPAUHINSTANCE__@@PDSAU0@QAU0@@Z 100177a5 f i libvcruntime:winapi_downlevel.obj
 0001:000167b5       ??$__crt_interlocked_exchange_pointer@UHINSTANCE__@@PAX@@YAPAUHINSTANCE__@@PDSAU0@QAX@Z 100177b5 f i libvcruntime:winapi_downlevel.obj
 0001:000167c5       ??$__crt_interlocked_exchange_pointer@XPAX@@YAPAXPDSAXQAX@Z 100177c5 f i libvcruntime:winapi_downlevel.obj
 0001:000167d5       ??$__crt_interlocked_read_pointer@UHINSTANCE__@@@@YAPAUHINSTANCE__@@PDSAU0@@Z 100177d5 f i libvcruntime:winapi_downlevel.obj
 0001:000167e9       ??$__crt_interlocked_read_pointer@X@@YAPAXPDSAX@Z 100177e9 f i libvcruntime:winapi_downlevel.obj
 0001:000167fd       ?__crt_fast_encode_pointer@@YA?AU__crt_fast_encoded_nullptr_t@@$$T@Z 100177fd f i libvcruntime:winapi_downlevel.obj
 0001:00016b41       ___vcrt_EventRegister      10017b41 f   libvcruntime:winapi_downlevel.obj
 0001:00016b91       ___vcrt_EventSetInformation 10017b91 f   libvcruntime:winapi_downlevel.obj
 0001:00016be4       ___vcrt_EventUnregister    10017be4 f   libvcruntime:winapi_downlevel.obj
 0001:00016c2c       ___vcrt_EventWriteTransfer 10017c2c f   libvcruntime:winapi_downlevel.obj
 0001:00016c87       ___vcrt_FlsAlloc           10017c87 f   libvcruntime:winapi_downlevel.obj
 0001:00016ccf       ___vcrt_FlsFree            10017ccf f   libvcruntime:winapi_downlevel.obj
 0001:00016d17       ___vcrt_FlsGetValue        10017d17 f   libvcruntime:winapi_downlevel.obj
 0001:00016d5f       ___vcrt_FlsSetValue        10017d5f f   libvcruntime:winapi_downlevel.obj
 0001:00016dab       ___vcrt_InitializeCriticalSectionEx 10017dab f   libvcruntime:winapi_downlevel.obj
 0001:00016e02       ___vcrt_initialize_winapi_thunks 10017e02 f   libvcruntime:winapi_downlevel.obj
 0001:00016e4a       ___vcrt_uninitialize_winapi_thunks 10017e4a f   libvcruntime:winapi_downlevel.obj
 0001:00016e88       ??$?B$$A6AXXZ@__crt_fast_encoded_nullptr_t@@QBEP6AXXZXZ 10017e88 f i libvcruntime:purevirt_data.obj
 0001:00016ea6       ??$__crt_fast_encode_pointer@P6AXXZ@@YAP6AXXZQ6AXXZ@Z 10017ea6 f i libvcruntime:purevirt_data.obj
 0001:00016eca       ___vcrt_initialize_pure_virtual_call_handler 10017eca f   libvcruntime:purevirt_data.obj
 0001:00016eee       ??$__vcrt_va_start_verify_argument_type@QBD@@YAXXZ 10017eee f i libvcruntime:undname.obj
 0001:00016eef       ??0Block@_HeapManager@@QAE@XZ 10017eef f i libvcruntime:undname.obj
 0001:00016ef5       ??0DName@@QAE@AAPBDD@Z     10017ef5 f   libvcruntime:undname.obj
 0001:00016fdc       ??0DName@@QAE@ABV0@@Z      10017fdc f i libvcruntime:undname.obj
 0001:00016ff7       ??0DName@@QAE@D@Z          10017ff7 f   libvcruntime:undname.obj
 0001:0001702e       ??0DName@@QAE@PAV0@@Z      1001802e f   libvcruntime:undname.obj
 0001:0001708e       ??0DName@@QAE@PBD@Z        1001808e f   libvcruntime:undname.obj
 0001:000170d6       ??0DName@@QAE@W4DNameStatus@@@Z 100180d6 f   libvcruntime:undname.obj
 0001:00017129       ??0DName@@QAE@XZ           10018129 f i libvcruntime:undname.obj
 0001:0001713e       ??0DName@@QAE@_J@Z         1001813e f   libvcruntime:undname.obj
 0001:000171f8       ??0DName@@QAE@_K@Z         100181f8 f   libvcruntime:undname.obj
 0001:00017282       ??0DNameNode@@IAE@XZ       10018282 f   libvcruntime:undname.obj
 0001:0001728d       ??0DNameStatusNode@@AAE@W4DNameStatus@@@Z 1001828d f   libvcruntime:undname.obj
 0001:000172b8       ??0Replicator@@QAE@XZ      100182b8 f i libvcruntime:undname.obj
 0001:000172be       ??0UnDecorator@@QAE@PADPBDHP6APADJ@ZK@Z 100182be f i libvcruntime:undname.obj
 0001:00017341       ??0charNode@@QAE@D@Z       10018341 f   libvcruntime:undname.obj
 0001:0001735b       ??0pDNameNode@@QAE@PAVDName@@@Z 1001835b f   libvcruntime:undname.obj
 0001:0001738d       ??0pairNode@@QAE@PAVDNameNode@@0@Z 1001838d f   libvcruntime:undname.obj
 0001:000173b3       ??0pcharNode@@QAE@PBDH@Z   100183b3 f   libvcruntime:undname.obj
 0001:00017422       ??2@YAPAXIAAV_HeapManager@@H@Z 10018422 f i libvcruntime:undname.obj
 0001:0001743c       ??4DName@@QAEAAV0@ABV0@@Z  1001843c f   libvcruntime:undname.obj
 0001:00017457       ??4DName@@QAEAAV0@D@Z      10018457 f i libvcruntime:undname.obj
 0001:0001748e       ??4DName@@QAEAAV0@PAV0@@Z  1001848e f   libvcruntime:undname.obj
 0001:000174e9       ??4DName@@QAEAAV0@PBD@Z    100184e9 f   libvcruntime:undname.obj
 0001:00017527       ??4DName@@QAEAAV0@W4DNameStatus@@@Z 10018527 f   libvcruntime:undname.obj
 0001:00017569       ??AReplicator@@QBE?AVDName@@H@Z 10018569 f   libvcruntime:undname.obj
 0001:000175b4       ??BUnDecorator@@QAEPADXZ   100185b4 f i libvcruntime:undname.obj
 0001:0001778b       ??H@YA?AVDName@@DABV0@@Z   1001878b f i libvcruntime:undname.obj
 0001:000177b8       ??H@YA?AVDName@@PBDABV0@@Z 100187b8 f i libvcruntime:undname.obj
 0001:000177e5       ??H@YA?AVDName@@W4DNameStatus@@ABV0@@Z 100187e5 f i libvcruntime:undname.obj
 0001:00017812       ??HDName@@QBE?AV0@ABV0@@Z  10018812 f   libvcruntime:undname.obj
 0001:0001783c       ??HDName@@QBE?AV0@D@Z      1001883c f   libvcruntime:undname.obj
 0001:00017866       ??HDName@@QBE?AV0@PAV0@@Z  10018866 f   libvcruntime:undname.obj
 0001:00017890       ??HDName@@QBE?AV0@PBD@Z    10018890 f   libvcruntime:undname.obj
 0001:000178ba       ??HDName@@QBE?AV0@W4DNameStatus@@@Z 100188ba f   libvcruntime:undname.obj
 0001:000178e4       ??YDName@@QAEAAV0@ABV0@@Z  100188e4 f   libvcruntime:undname.obj
 0001:00017937       ??YDName@@QAEAAV0@D@Z      10018937 f   libvcruntime:undname.obj
 0001:0001799b       ??YDName@@QAEAAV0@PAV0@@Z  1001899b f   libvcruntime:undname.obj
 0001:00017a19       ??YDName@@QAEAAV0@PBD@Z    10018a19 f   libvcruntime:undname.obj
 0001:00017a92       ??YDName@@QAEAAV0@W4DNameStatus@@@Z 10018a92 f   libvcruntime:undname.obj
 0001:00017ae2       ??YReplicator@@QAEAAV0@ABVDName@@@Z 10018ae2 f   libvcruntime:undname.obj
 0001:00017b3e       ??_5DName@@QAEAAV0@ABV0@@Z 10018b3e f   libvcruntime:undname.obj
 0001:00017b61       ?Constructor@_HeapManager@@QAEXP6APAXI@ZP6AXPAX@Z@Z 10018b61 f i libvcruntime:undname.obj
 0001:00017b85       ?Destructor@_HeapManager@@QAEXXZ 10018b85 f i libvcruntime:undname.obj
 0001:00017bcc       ?UScore@UnDecorator@@SAPBDW4Tokens@@@Z 10018bcc f   libvcruntime:undname.obj
 0001:00017bf0       ?append@DName@@AAEXPAVDNameNode@@@Z 10018bf0 f   libvcruntime:undname.obj
 0001:00017c47       ?composeDeclaration@UnDecorator@@CA?AVDName@@ABV2@@Z 10018c47 f i libvcruntime:undname.obj
 0001:00018c82       ?doAccessSpecifiers@UnDecorator@@SAHXZ 10019c82 f i libvcruntime:undname.obj
 0001:00018c93       ?doAllocationLanguage@UnDecorator@@SAHXZ 10019c93 f i libvcruntime:undname.obj
 0001:00018ca4       ?doAllocationModel@UnDecorator@@SAHXZ 10019ca4 f i libvcruntime:undname.obj
 0001:00018cb5       ?doEcsu@UnDecorator@@SAHXZ 10019cb5 f i libvcruntime:undname.obj
 0001:00018cc6       ?doEllipsis@UnDecorator@@SAHXZ 10019cc6 f i libvcruntime:undname.obj
 0001:00018cd7       ?doFunctionReturns@UnDecorator@@SAHXZ 10019cd7 f i libvcruntime:undname.obj
 0001:00018ce8       ?doMSKeywords@UnDecorator@@SAHXZ 10019ce8 f i libvcruntime:undname.obj
 0001:00018cf8       ?doMemberTypes@UnDecorator@@SAHXZ 10019cf8 f i libvcruntime:undname.obj
 0001:00018d09       ?doNameOnly@UnDecorator@@SAHXZ 10019d09 f i libvcruntime:undname.obj
 0001:00018d16       ?doNoIdentCharCheck@UnDecorator@@SAHXZ 10019d16 f i libvcruntime:undname.obj
 0001:00018d23       ?doPchar@DName@@AAEXPBDH@Z 10019d23 f   libvcruntime:undname.obj
 0001:00018dcf       ?doPtr64@UnDecorator@@SAHXZ 10019dcf f i libvcruntime:undname.obj
 0001:00018de0       ?doRestrictionSpec@UnDecorator@@SAHXZ 10019de0 f i libvcruntime:undname.obj
 0001:00018df1       ?doThisTypes@UnDecorator@@SAHXZ 10019df1 f i libvcruntime:undname.obj
 0001:00018e07       ?doThrowTypes@UnDecorator@@SAHXZ 10019e07 f i libvcruntime:undname.obj
 0001:00018e18       ?doTypeOnly@UnDecorator@@SAHXZ 10019e18 f i libvcruntime:undname.obj
 0001:00018e25       ?doUnderScore@UnDecorator@@SAHXZ 10019e25 f i libvcruntime:undname.obj
 0001:00018e32       ?getArgumentList@UnDecorator@@CA?AVDName@@XZ 10019e32 f   libvcruntime:undname.obj
 0001:00018f81       ?getArgumentTypes@UnDecorator@@CA?AVDName@@XZ 10019f81 f   libvcruntime:undname.obj
 0001:00019099       ?getArrayType@UnDecorator@@CA?AVDName@@ABV2@@Z 1001a099 f i libvcruntime:undname.obj
 0001:0001931b       ?getBasedType@UnDecorator@@CA?AVDName@@XZ 1001a31b f   libvcruntime:undname.obj
 0001:000193da       ?getBasicDataType@UnDecorator@@CA?AVDName@@ABV2@@Z 1001a3da f   libvcruntime:undname.obj
 0001:000198c4       ?getCallIndex@UnDecorator@@CA?AVDName@@XZ 1001a8c4 f i libvcruntime:undname.obj
 0001:000198dd       ?getCallingConvention@UnDecorator@@CA?AVDName@@XZ 1001a8dd f   libvcruntime:undname.obj
 0001:000199cb       ?getDataIndirectType@UnDecorator@@CA?AVDName@@ABV2@PBD0H@Z 1001a9cb f   libvcruntime:undname.obj
 0001:0001a176       ?getDataIndirectType@UnDecorator@@CA?AVDName@@XZ 1001b176 f i libvcruntime:undname.obj
 0001:0001a1bd       ?getDataType@UnDecorator@@CA?AVDName@@PAV2@@Z 1001b1bd f   libvcruntime:undname.obj
 0001:0001a2c3       ?getDecoratedName@UnDecorator@@CA?AVDName@@XZ 1001b2c3 f   libvcruntime:undname.obj
 0001:0001a5a2       ?getDimension@UnDecorator@@CA?AVDName@@_N@Z 1001b5a2 f   libvcruntime:undname.obj
 0001:0001a726       ?getDispatchTarget@UnDecorator@@CA?AVDName@@XZ 1001b726 f   libvcruntime:undname.obj
 0001:0001a797       ?getDisplacement@UnDecorator@@CA?AVDName@@XZ 1001b797 f i libvcruntime:undname.obj
 0001:0001a7b0       ?getECSUDataType@UnDecorator@@CA?AVDName@@XZ 1001b7b0 f   libvcruntime:undname.obj
 0001:0001a914       ?getECSUName@UnDecorator@@CA?AVDName@@XZ 1001b914 f i libvcruntime:undname.obj
 0001:0001a929       ?getEnumType@UnDecorator@@CA?AVDName@@XZ 1001b929 f i libvcruntime:undname.obj
 0001:0001aa50       ?getExtendedDataIndirectType@UnDecorator@@CA?AVDName@@AAPBDAA_NH@Z 1001ba50 f   libvcruntime:undname.obj
 0001:0001ac63       ?getExternalDataType@UnDecorator@@CA?AVDName@@ABV2@@Z 1001bc63 f i libvcruntime:undname.obj
 0001:0001acfa       ?getFunctionIndirectType@UnDecorator@@CA?AVDName@@ABV2@@Z 1001bcfa f   libvcruntime:undname.obj
 0001:0001b205       ?getGuardNumber@UnDecorator@@CA?AVDName@@XZ 1001c205 f i libvcruntime:undname.obj
 0001:0001b21e       ?getLastChar@DName@@QBEDXZ 1001c21e f i libvcruntime:undname.obj
 0001:0001b244       ?getLastChar@DNameStatusNode@@UBEDXZ 1001c244 f i libvcruntime:undname.obj
 0001:0001b253       ?getLastChar@charNode@@UBEDXZ 1001c253 f i libvcruntime:undname.obj
 0001:0001b257       ?getLastChar@pDNameNode@@UBEDXZ 1001c257 f i libvcruntime:undname.obj
 0001:0001b268       ?getLastChar@pairNode@@UBEDXZ 1001c268 f i libvcruntime:undname.obj
 0001:0001b2a7       ?getLastChar@pcharNode@@UBEDXZ 1001c2a7 f i libvcruntime:undname.obj
 0001:0001b2bd       ?getLexicalFrame@UnDecorator@@CA?AVDName@@XZ 1001c2bd f i libvcruntime:undname.obj
 0001:0001b309       ?getMemory@_HeapManager@@QAEPAXIH@Z 1001c309 f   libvcruntime:undname.obj
 0001:0001b3ba       ?getNumberOfDimensions@UnDecorator@@CAHXZ 1001c3ba f   libvcruntime:undname.obj
 0001:0001b433       ?getOperatorName@UnDecorator@@CA?AVDName@@_NPA_N@Z 1001c433 f i libvcruntime:undname.obj
 0001:0001bbe3       ?getPointerType@UnDecorator@@CA?AVDName@@ABV2@0@Z 1001cbe3 f i libvcruntime:undname.obj
 0001:0001bc08       ?getPointerTypeArray@UnDecorator@@CA?AVDName@@ABV2@0@Z 1001cc08 f i libvcruntime:undname.obj
 0001:0001bc2d       ?getPrimaryDataType@UnDecorator@@CA?AVDName@@ABV2@@Z 1001cc2d f   libvcruntime:undname.obj
 0001:0001be9e       ?getPtrRefDataType@UnDecorator@@CA?AVDName@@ABV2@H@Z 1001ce9e f   libvcruntime:undname.obj
 0001:0001bfe0       ?getPtrRefType@UnDecorator@@CA?AVDName@@ABV2@0PBD@Z 1001cfe0 f   libvcruntime:undname.obj
 0001:0001c11b       ?getReferenceType@UnDecorator@@CA?AVDName@@ABV2@0PBD@Z 1001d11b f i libvcruntime:undname.obj
 0001:0001c13e       ?getRestrictionSpec@UnDecorator@@CA?AVDName@@XZ 1001d13e f   libvcruntime:undname.obj
 0001:0001c26c       ?getReturnType@UnDecorator@@CA?AVDName@@PAV2@@Z 1001d26c f   libvcruntime:undname.obj
 0001:0001c2a6       ?getScope@UnDecorator@@CA?AVDName@@XZ 1001d2a6 f   libvcruntime:undname.obj
 0001:0001c77b       ?getScopedName@UnDecorator@@CA?AVDName@@XZ 1001d77b f   libvcruntime:undname.obj
 0001:0001c8b4       ?getSignedDimension@UnDecorator@@CA?AVDName@@XZ 1001d8b4 f   libvcruntime:undname.obj
 0001:0001c91b       ?getStorageConvention@UnDecorator@@CA?AVDName@@XZ 1001d91b f i libvcruntime:undname.obj
 0001:0001c930       ?getString@DName@@QBEPADPAD0@Z 1001d930 f i libvcruntime:undname.obj
 0001:0001c967       ?getString@DName@@QBEPADPADH@Z 1001d967 f i libvcruntime:undname.obj
 0001:0001c9d2       ?getString@DNameStatusNode@@UBEPADPAD0@Z 1001d9d2 f i libvcruntime:undname.obj
 0001:0001ca02       ?getString@charNode@@UBEPADPAD0@Z 1001da02 f i libvcruntime:undname.obj
 0001:0001ca1c       ?getString@pDNameNode@@UBEPADPAD0@Z 1001da1c f i libvcruntime:undname.obj
 0001:0001ca38       ?getString@pairNode@@UBEPADPAD0@Z 1001da38 f i libvcruntime:undname.obj
 0001:0001ca8d       ?getString@pcharNode@@UBEPADPAD0@Z 1001da8d f i libvcruntime:undname.obj
 0001:0001caae       ?getStringEncoding@UnDecorator@@CA?AVDName@@PADH@Z 1001daae f   libvcruntime:undname.obj
 0001:0001cb79       ?getStringHelper@@YAPADPAD00H@Z 1001db79 f i libvcruntime:undname.obj
 0001:0001cbbd       ?getSymbolName@UnDecorator@@CA?AVDName@@XZ 1001dbbd f i libvcruntime:undname.obj
 0001:0001cc17       ?getTemplateArgumentList@UnDecorator@@CA?AVDName@@XZ 1001dc17 f   libvcruntime:undname.obj
 0001:0001cf64       ?getTemplateConstant@UnDecorator@@CA?AVDName@@XZ 1001df64 f   libvcruntime:undname.obj
 0001:0001d379       ?getTemplateName@UnDecorator@@CA?AVDName@@_N@Z 1001e379 f   libvcruntime:undname.obj
 0001:0001d524       ?getThisType@UnDecorator@@CA?AVDName@@XZ 1001e524 f i libvcruntime:undname.obj
 0001:0001d56c       ?getThrowTypes@UnDecorator@@CA?AVDName@@XZ 1001e56c f   libvcruntime:undname.obj
 0001:0001d618       ?getTypeEncoding@UnDecorator@@CAHXZ 1001e618 f i libvcruntime:undname.obj
 0001:0001da14       ?getVCallThunkType@UnDecorator@@CA?AVDName@@XZ 1001ea14 f i libvcruntime:undname.obj
 0001:0001da5d       ?getVbTableType@UnDecorator@@CA?AVDName@@ABV2@@Z 1001ea5d f i libvcruntime:undname.obj
 0001:0001da77       ?getVdispMapType@UnDecorator@@CA?AVDName@@ABV2@@Z 1001ea77 f i libvcruntime:undname.obj
 0001:0001dae2       ?getVfTableType@UnDecorator@@CA?AVDName@@ABV2@@Z 1001eae2 f i libvcruntime:undname.obj
 0001:0001dca0       ?getZName@UnDecorator@@CA?AVDName@@_N0@Z 1001eca0 f   libvcruntime:undname.obj
 0001:0001df70       ?haveTemplateParameters@UnDecorator@@SAHXZ 1001ef70 f i libvcruntime:undname.obj
 0001:0001df7d       ?isArray@DName@@QBEHXZ     1001ef7d f i libvcruntime:undname.obj
 0001:0001df89       ?isComArray@DName@@QBEHXZ  1001ef89 f i libvcruntime:undname.obj
 0001:0001df95       ?isEmpty@DName@@QBEHXZ     1001ef95 f i libvcruntime:undname.obj
 0001:0001df9f       ?isFull@Replicator@@QBEHXZ 1001ef9f f i libvcruntime:undname.obj
 0001:0001dfaa       ?isNoTE@DName@@QBEHXZ      1001efaa f i libvcruntime:undname.obj
 0001:0001dfb6       ?isPinPtr@DName@@QBEHXZ    1001efb6 f i libvcruntime:undname.obj
 0001:0001dfc2       ?isPtrRef@DName@@QBEHXZ    1001efc2 f i libvcruntime:undname.obj
 0001:0001dfce       ?isUDC@DName@@QBEHXZ       1001efce f i libvcruntime:undname.obj
 0001:0001dfe3       ?isUDTThunk@DName@@QBEHXZ  1001efe3 f i libvcruntime:undname.obj
 0001:0001dff8       ?isVCallThunk@DName@@QBEHXZ 1001eff8 f i libvcruntime:undname.obj
 0001:0001e004       ?isValid@DName@@QBEHXZ     1001f004 f i libvcruntime:undname.obj
 0001:0001e010       ?length@DName@@QBEHXZ      1001f010 f i libvcruntime:undname.obj
 0001:0001e035       ?length@DNameStatusNode@@UBEHXZ 1001f035 f i libvcruntime:undname.obj
 0001:0001e039       ?length@charNode@@UBEHXZ   1001f039 f i libvcruntime:undname.obj
 0001:0001e03d       ?length@pDNameNode@@UBEHXZ 1001f03d f i libvcruntime:undname.obj
 0001:0001e04e       ?length@pairNode@@UBEHXZ   1001f04e f i libvcruntime:undname.obj
 0001:0001e0aa       ?length@pcharNode@@UBEHXZ  1001f0aa f i libvcruntime:undname.obj
 0001:0001e0ae       ?make@DNameStatusNode@@SAPAV1@W4DNameStatus@@@Z 1001f0ae f i libvcruntime:undname.obj
 0001:0001e155       ?setIsArray@DName@@QAEXXZ  1001f155 f i libvcruntime:undname.obj
 0001:0001e15f       ?setIsComArray@DName@@QAEXXZ 1001f15f f i libvcruntime:undname.obj
 0001:0001e169       ?setIsNoTE@DName@@QAEXXZ   1001f169 f i libvcruntime:undname.obj
 0001:0001e173       ?setIsPinPtr@DName@@QAEXXZ 1001f173 f i libvcruntime:undname.obj
 0001:0001e17d       ?setIsUDC@DName@@QAEXXZ    1001f17d f i libvcruntime:undname.obj
 0001:0001e18d       ?setIsVCallThunk@DName@@QAEXXZ 1001f18d f i libvcruntime:undname.obj
 0001:0001e197       ?setPtrRef@DName@@QAEAAV1@XZ 1001f197 f i libvcruntime:undname.obj
 0001:0001e1a3       ?status@DName@@QBE?AW4DNameStatus@@XZ 1001f1a3 f i libvcruntime:undname.obj
 0001:0001e228       ___unDName                 1001f228 f   libvcruntime:undname.obj
 0001:0001e2e2       ___unDNameEx               1001f2e2 f   libvcruntime:undname.obj
 0001:0001e39c       __vsprintf_s_l             1001f39c f i libvcruntime:undname.obj
 0001:0001e3d4       _sprintf_s                 1001f3d4 f i libvcruntime:undname.obj
 0001:0001e400       __global_unwind2           1001f400 f   libvcruntime:_exsup_.obj
 0001:0001e465       __local_unwind2            1001f465 f   libvcruntime:_exsup_.obj
 0001:0001e4e9       __abnormal_termination     1001f4e9 f   libvcruntime:_exsup_.obj
 0001:0001e50c       __NLG_Notify1              1001f50c f   libvcruntime:_exsup_.obj
 0001:0001e515       __NLG_Notify               1001f515 f   libvcruntime:_exsup_.obj
 0001:0001e52c       __NLG_Dispatch             1001f52c     libvcruntime:_exsup_.obj
 0001:0001e52c       __NLG_Dispatch2            1001f52c     libvcruntime:_exsup_.obj
 0001:0001e534       __NLG_Call                 1001f534 f   libvcruntime:_exsup_.obj
 0001:0001e536       __NLG_Return2              1001f536     libvcruntime:_exsup_.obj
 0001:0001e584       ??$__crt_fast_decode_pointer@P6AXXZ@@YAP6AXXZQ6AXXZ@Z 1001f584 f i libvcruntime:purevirt.obj
 0001:0001e59d       ??$__crt_interlocked_compare_exchange_pointer@$$A6AXXZ$$T$$T@@YAP6AXXZPDS6AXXZ$$T1@Z 1001f59d f i libvcruntime:purevirt.obj
 0001:0001e5b3       ??$__crt_interlocked_exchange_pointer@$$A6AXXZP6AXXZ@@YAP6AXXZPDS6AXXZQ6AXXZ@Z 1001f5b3 f i libvcruntime:purevirt.obj
 0001:0001e5c3       ??$__crt_interlocked_read_pointer@$$A6AXXZ@@YAP6AXXZPDS6AXXZ@Z 1001f5c3 f i libvcruntime:purevirt.obj
 0001:0001e5d7       __get_purecall_handler     1001f5d7 f   libvcruntime:purevirt.obj
 0001:0001e5fd       __purecall                 1001f5fd f   libvcruntime:purevirt.obj
 0001:0001e61e       __set_purecall_handler     1001f61e f   libvcruntime:purevirt.obj
 0001:0001e64c       _malloc                    1001f64c f   libucrt:malloc.obj
 0001:0001e659       ??$?RPAU__crt_stdio_stream_data@@@__crt_internal_free_policy@@QBEXQBQAU__crt_stdio_stream_data@@@Z 1001f659 f i libucrt:_file.obj
 0001:0001e66f       ??0?$__crt_unique_heap_ptr@PAU__crt_stdio_stream_data@@U__crt_internal_free_policy@@@@QAE@QAPAU__crt_stdio_stream_data@@@Z 1001f66f f i libucrt:_file.obj
 0001:0001e683       ??0__crt_stdio_stream@@QAE@QAU_iobuf@@@Z 1001f683 f i libucrt:_file.obj
 0001:0001e697       ??1?$__crt_unique_heap_ptr@PAU__crt_stdio_stream_data@@U__crt_internal_free_policy@@@@QAE@XZ 1001f697 f i libucrt:_file.obj
 0001:0001e6ad       ??C__crt_stdio_stream@@QBEPAU__crt_stdio_stream_data@@XZ 1001f6ad f i libucrt:_file.obj
 0001:0001e6b0       ?detach@?$__crt_unique_heap_ptr@PAU__crt_stdio_stream_data@@U__crt_internal_free_policy@@@@QAEPAPAU__crt_stdio_stream_data@@XZ 1001f6b0 f i libucrt:_file.obj
 0001:0001e6b6       ?release@?$__crt_unique_heap_ptr@PAU__crt_stdio_stream_data@@U__crt_internal_free_policy@@@@QAEXXZ 1001f6b6 f i libucrt:_file.obj
 0001:0001e6cc       ___acrt_initialize_stdio   1001f6cc f   libucrt:_file.obj
 0001:0001e7c6       ___acrt_iob_func           1001f7c6 f   libucrt:_file.obj
 0001:0001e7da       ___acrt_uninitialize_stdio 1001f7da f   libucrt:_file.obj
 0001:0001e839       __get_stream_buffer_pointers 1001f839 f   libucrt:_file.obj
 0001:0001e890       __lock_file                1001f890 f   libucrt:_file.obj
 0001:0001e8a9       __unlock_file              1001f8a9 f   libucrt:_file.obj
 0001:0001e8c2       ??$?0ABV?$stream_output_adapter@D@__crt_stdio_output@@AB_KABQBDABQAU__crt_locale_pointers@@ABQAD@?$format_validation_base@DV?$stream_output_adapter@D@__crt_stdio_output@@@__crt_stdio_output@@IAE@ABV?$stream_output_adapter@D@1@AB_KABQBDABQAU__crt_locale_pointers@@ABQAD@Z 1001f8c2 f i libucrt:output.obj
 0001:0001e8ed       ??$?0ABV?$stream_output_adapter@D@__crt_stdio_output@@AB_KABQBDABQAU__crt_locale_pointers@@ABQAD@?$positional_parameter_base@DV?$stream_output_adapter@D@__crt_stdio_output@@@__crt_stdio_output@@IAE@ABV?$stream_output_adapter@D@1@AB_KABQBDABQAU__crt_locale_pointers@@ABQAD@Z 1001f8ed f i libucrt:output.obj
 0001:0001e947       ??$?0ABV?$stream_output_adapter@D@__crt_stdio_output@@AB_KABQBDABQAU__crt_locale_pointers@@ABQAD@?$standard_base@DV?$stream_output_adapter@D@__crt_stdio_output@@@__crt_stdio_output@@IAE@ABV?$stream_output_adapter@D@1@AB_KABQBDABQAU__crt_locale_pointers@@ABQAD@Z 1001f947 f i libucrt:output.obj
 0001:0001e989       ??$?0ABV?$stream_output_adapter@_W@__crt_stdio_output@@AB_KABQB_WABQAU__crt_locale_pointers@@ABQAD@?$format_validation_base@_WV?$stream_output_adapter@_W@__crt_stdio_output@@@__crt_stdio_output@@IAE@ABV?$stream_output_adapter@_W@1@AB_KABQB_WABQAU__crt_locale_pointers@@ABQAD@Z 1001f989 f i libucrt:output.obj
 0001:0001e9b4       ??$?0ABV?$stream_output_adapter@_W@__crt_stdio_output@@AB_KABQB_WABQAU__crt_locale_pointers@@ABQAD@?$positional_parameter_base@_WV?$stream_output_adapter@_W@__crt_stdio_output@@@__crt_stdio_output@@IAE@ABV?$stream_output_adapter@_W@1@AB_KABQB_WABQAU__crt_locale_pointers@@ABQAD@Z 1001f9b4 f i libucrt:output.obj
 0001:0001ea0e       ??$?0ABV?$stream_output_adapter@_W@__crt_stdio_output@@AB_KABQB_WABQAU__crt_locale_pointers@@ABQAD@?$standard_base@_WV?$stream_output_adapter@_W@__crt_stdio_output@@@__crt_stdio_output@@IAE@ABV?$stream_output_adapter@_W@1@AB_KABQB_WABQAU__crt_locale_pointers@@ABQAD@Z 1001fa0e f i libucrt:output.obj
 0001:0001ea50       ??$?0ABV?$string_output_adapter@D@__crt_stdio_output@@AB_KABQBDABQAU__crt_locale_pointers@@ABQAD@?$format_validation_base@DV?$string_output_adapter@D@__crt_stdio_output@@@__crt_stdio_output@@IAE@ABV?$string_output_adapter@D@1@AB_KABQBDABQAU__crt_locale_pointers@@ABQAD@Z 1001fa50 f i libucrt:output.obj
 0001:0001ea7b       ??$?0ABV?$string_output_adapter@D@__crt_stdio_output@@AB_KABQBDABQAU__crt_locale_pointers@@ABQAD@?$positional_parameter_base@DV?$string_output_adapter@D@__crt_stdio_output@@@__crt_stdio_output@@IAE@ABV?$string_output_adapter@D@1@AB_KABQBDABQAU__crt_locale_pointers@@ABQAD@Z 1001fa7b f i libucrt:output.obj
 0001:0001ead5       ??$?0ABV?$string_output_adapter@D@__crt_stdio_output@@AB_KABQBDABQAU__crt_locale_pointers@@ABQAD@?$standard_base@DV?$string_output_adapter@D@__crt_stdio_output@@@__crt_stdio_output@@IAE@ABV?$string_output_adapter@D@1@AB_KABQBDABQAU__crt_locale_pointers@@ABQAD@Z 1001fad5 f i libucrt:output.obj
 0001:0001eb17       ??$?0ABV?$string_output_adapter@_W@__crt_stdio_output@@AB_KABQB_WABQAU__crt_locale_pointers@@ABQAD@?$format_validation_base@_WV?$string_output_adapter@_W@__crt_stdio_output@@@__crt_stdio_output@@IAE@ABV?$string_output_adapter@_W@1@AB_KABQB_WABQAU__crt_locale_pointers@@ABQAD@Z 1001fb17 f i libucrt:output.obj
 0001:0001eb42       ??$?0ABV?$string_output_adapter@_W@__crt_stdio_output@@AB_KABQB_WABQAU__crt_locale_pointers@@ABQAD@?$positional_parameter_base@_WV?$string_output_adapter@_W@__crt_stdio_output@@@__crt_stdio_output@@IAE@ABV?$string_output_adapter@_W@1@AB_KABQB_WABQAU__crt_locale_pointers@@ABQAD@Z 1001fb42 f i libucrt:output.obj
 0001:0001eb9c       ??$?0ABV?$string_output_adapter@_W@__crt_stdio_output@@AB_KABQB_WABQAU__crt_locale_pointers@@ABQAD@?$standard_base@_WV?$string_output_adapter@_W@__crt_stdio_output@@@__crt_stdio_output@@IAE@ABV?$string_output_adapter@_W@1@AB_KABQB_WABQAU__crt_locale_pointers@@ABQAD@Z 1001fb9c f i libucrt:output.obj
 0001:0001ebde       ??$?RV<lambda_2293f24e3ce1ad6fe22ccfb9dec07671>@@AAV<lambda_2565fc715a641e539f44ad02d6823606>@@V<lambda_d3217f279b832965d9ca670dc2993570>@@@?$__crt_seh_guarded_call@H@@QAEH$$QAV<lambda_2293f24e3ce1ad6fe22ccfb9dec07671>@@AAV<lambda_2565fc715a641e539f44ad02d6823606>@@$$QAV<lambda_d3217f279b832965d9ca670dc2993570>@@@Z 1001fbde f i libucrt:output.obj
 0001:0001ec43       ??$?RV<lambda_4d4ac866be0fa3c441830420fabdd2cb>@@AAV<lambda_63a10c2dc8dbb9e4dd1890be52af7c93>@@V<lambda_002af9fa0f8fe472b648c51882d4fc32>@@@?$__crt_seh_guarded_call@H@@QAEH$$QAV<lambda_4d4ac866be0fa3c441830420fabdd2cb>@@AAV<lambda_63a10c2dc8dbb9e4dd1890be52af7c93>@@$$QAV<lambda_002af9fa0f8fe472b648c51882d4fc32>@@@Z 1001fc43 f i libucrt:output.obj
 0001:0001eca8       ??$?RV<lambda_5be909dfbae0a631386585770cd7b676>@@AAV<lambda_e516058a9c289d98c8ca9fea99247804>@@V<lambda_afe2e0cdc5e0ecf6f0d6f5e2f8985e38>@@@?$__crt_seh_guarded_call@H@@QAEH$$QAV<lambda_5be909dfbae0a631386585770cd7b676>@@AAV<lambda_e516058a9c289d98c8ca9fea99247804>@@$$QAV<lambda_afe2e0cdc5e0ecf6f0d6f5e2f8985e38>@@@Z 1001fca8 f i libucrt:output.obj
 0001:0001ed0d       ??$?RV<lambda_823d65812123d985753d53e2a8c25d20>@@AAV<lambda_0a97c9e57da7be065955385c79108ff2>@@V<lambda_4d2973f3ad2d226f00468307185dca1b>@@@?$__crt_seh_guarded_call@H@@QAEH$$QAV<lambda_823d65812123d985753d53e2a8c25d20>@@AAV<lambda_0a97c9e57da7be065955385c79108ff2>@@$$QAV<lambda_4d2973f3ad2d226f00468307185dca1b>@@@Z 1001fd0d f i libucrt:output.obj
 0001:0001ed72       ??$?RV<lambda_ab9923ffb5d694ec0d78876dd103e44f>@@AAV<lambda_481dd5778c961fbcd3b60b650e9b9dc4>@@V<lambda_7923d86c9e3f319b415918ec4b39749c>@@@?$__crt_seh_guarded_call@H@@QAEH$$QAV<lambda_ab9923ffb5d694ec0d78876dd103e44f>@@AAV<lambda_481dd5778c961fbcd3b60b650e9b9dc4>@@$$QAV<lambda_7923d86c9e3f319b415918ec4b39749c>@@@Z 1001fd72 f i libucrt:output.obj
 0001:0001edd7       ??$?RV<lambda_db08b09ef7aa9d4f8620ce68402612bc>@@AAV<lambda_4f2c1eaeead2a5fc776db5b62ea0fb9b>@@V<lambda_3ae262bc35d4ba6a3825c4f6bcaaf95c>@@@?$__crt_seh_guarded_call@H@@QAEH$$QAV<lambda_db08b09ef7aa9d4f8620ce68402612bc>@@AAV<lambda_4f2c1eaeead2a5fc776db5b62ea0fb9b>@@$$QAV<lambda_3ae262bc35d4ba6a3825c4f6bcaaf95c>@@@Z 1001fdd7 f i libucrt:output.obj
 0001:0001ee3c       ??$__acrt_lock_stream_and_call@V<lambda_0a97c9e57da7be065955385c79108ff2>@@@@YAHQAU_iobuf@@$$QAV<lambda_0a97c9e57da7be065955385c79108ff2>@@@Z 1001fe3c f i libucrt:output.obj
 0001:0001ee6e       ??$__acrt_lock_stream_and_call@V<lambda_2565fc715a641e539f44ad02d6823606>@@@@YAHQAU_iobuf@@$$QAV<lambda_2565fc715a641e539f44ad02d6823606>@@@Z 1001fe6e f i libucrt:output.obj
 0001:0001eea0       ??$__acrt_lock_stream_and_call@V<lambda_481dd5778c961fbcd3b60b650e9b9dc4>@@@@YAHQAU_iobuf@@$$QAV<lambda_481dd5778c961fbcd3b60b650e9b9dc4>@@@Z 1001fea0 f i libucrt:output.obj
 0001:0001eed2       ??$__acrt_lock_stream_and_call@V<lambda_4f2c1eaeead2a5fc776db5b62ea0fb9b>@@@@YAHQAU_iobuf@@$$QAV<lambda_4f2c1eaeead2a5fc776db5b62ea0fb9b>@@@Z 1001fed2 f i libucrt:output.obj
 0001:0001ef04       ??$__acrt_lock_stream_and_call@V<lambda_63a10c2dc8dbb9e4dd1890be52af7c93>@@@@YAHQAU_iobuf@@$$QAV<lambda_63a10c2dc8dbb9e4dd1890be52af7c93>@@@Z 1001ff04 f i libucrt:output.obj
 0001:0001ef36       ??$__acrt_lock_stream_and_call@V<lambda_e516058a9c289d98c8ca9fea99247804>@@@@YAHQAU_iobuf@@$$QAV<lambda_e516058a9c289d98c8ca9fea99247804>@@@Z 1001ff36 f i libucrt:output.obj
 0001:0001ef68       ??$__crt_interlocked_read@J@@YAJPDJ@Z 1001ff68 f i libucrt:output.obj
 0001:000201b3       ??$count@D@formatting_buffer@__crt_stdio_output@@QBEIXZ 100211b3 f i libucrt:output.obj
 0001:000201d1       ??$data@D@formatting_buffer@__crt_stdio_output@@QAEPADXZ 100211d1 f i libucrt:output.obj
 0001:000201e1       ??$data@_W@formatting_buffer@__crt_stdio_output@@QAEPA_WXZ 100211e1 f i libucrt:output.obj
 0001:000201f1       ??$ensure_buffer_is_big_enough@D@formatting_buffer@__crt_stdio_output@@QAE_NI@Z 100211f1 f i libucrt:output.obj
 0001:00020298       ??$extract_argument_from_va_list@C_J@?$positional_parameter_base@DV?$stream_output_adapter@D@__crt_stdio_output@@@__crt_stdio_output@@IAE_NAA_J@Z 10021298 f i libucrt:output.obj
 0001:00020336       ??$extract_argument_from_va_list@C_J@?$positional_parameter_base@DV?$string_output_adapter@D@__crt_stdio_output@@@__crt_stdio_output@@IAE_NAA_J@Z 10021336 f i libucrt:output.obj
 0001:000203d4       ??$extract_argument_from_va_list@C_J@?$positional_parameter_base@_WV?$stream_output_adapter@_W@__crt_stdio_output@@@__crt_stdio_output@@IAE_NAA_J@Z 100213d4 f i libucrt:output.obj
 0001:00020472       ??$extract_argument_from_va_list@C_J@?$positional_parameter_base@_WV?$string_output_adapter@_W@__crt_stdio_output@@@__crt_stdio_output@@IAE_NAA_J@Z 10021472 f i libucrt:output.obj
 0001:00020510       ??$extract_argument_from_va_list@C_J@?$standard_base@DV?$stream_output_adapter@D@__crt_stdio_output@@@__crt_stdio_output@@IAE_NAA_J@Z 10021510 f i libucrt:output.obj
 0001:00020536       ??$extract_argument_from_va_list@C_J@?$standard_base@DV?$string_output_adapter@D@__crt_stdio_output@@@__crt_stdio_output@@IAE_NAA_J@Z 10021536 f i libucrt:output.obj
 0001:0002055c       ??$extract_argument_from_va_list@C_J@?$standard_base@_WV?$stream_output_adapter@_W@__crt_stdio_output@@@__crt_stdio_output@@IAE_NAA_J@Z 1002155c f i libucrt:output.obj
 0001:00020582       ??$extract_argument_from_va_list@C_J@?$standard_base@_WV?$string_output_adapter@_W@__crt_stdio_output@@@__crt_stdio_output@@IAE_NAA_J@Z 10021582 f i libucrt:output.obj
 0001:000205a8       ??$extract_argument_from_va_list@E_J@?$positional_parameter_base@DV?$stream_output_adapter@D@__crt_stdio_output@@@__crt_stdio_output@@IAE_NAA_J@Z 100215a8 f i libucrt:output.obj
 0001:00020646       ??$extract_argument_from_va_list@E_J@?$positional_parameter_base@DV?$string_output_adapter@D@__crt_stdio_output@@@__crt_stdio_output@@IAE_NAA_J@Z 10021646 f i libucrt:output.obj
 0001:000206e4       ??$extract_argument_from_va_list@E_J@?$positional_parameter_base@_WV?$stream_output_adapter@_W@__crt_stdio_output@@@__crt_stdio_output@@IAE_NAA_J@Z 100216e4 f i libucrt:output.obj
 0001:00020782       ??$extract_argument_from_va_list@E_J@?$positional_parameter_base@_WV?$string_output_adapter@_W@__crt_stdio_output@@@__crt_stdio_output@@IAE_NAA_J@Z 10021782 f i libucrt:output.obj
 0001:00020820       ??$extract_argument_from_va_list@E_J@?$standard_base@DV?$stream_output_adapter@D@__crt_stdio_output@@@__crt_stdio_output@@IAE_NAA_J@Z 10021820 f i libucrt:output.obj
 0001:00020846       ??$extract_argument_from_va_list@E_J@?$standard_base@DV?$string_output_adapter@D@__crt_stdio_output@@@__crt_stdio_output@@IAE_NAA_J@Z 10021846 f i libucrt:output.obj
 0001:0002086c       ??$extract_argument_from_va_list@E_J@?$standard_base@_WV?$stream_output_adapter@_W@__crt_stdio_output@@@__crt_stdio_output@@IAE_NAA_J@Z 1002186c f i libucrt:output.obj
 0001:00020892       ??$extract_argument_from_va_list@E_J@?$standard_base@_WV?$string_output_adapter@_W@__crt_stdio_output@@@__crt_stdio_output@@IAE_NAA_J@Z 10021892 f i libucrt:output.obj
 0001:000208b8       ??$extract_argument_from_va_list@F_J@?$positional_parameter_base@DV?$stream_output_adapter@D@__crt_stdio_output@@@__crt_stdio_output@@IAE_NAA_J@Z 100218b8 f i libucrt:output.obj
 0001:00020956       ??$extract_argument_from_va_list@F_J@?$positional_parameter_base@DV?$string_output_adapter@D@__crt_stdio_output@@@__crt_stdio_output@@IAE_NAA_J@Z 10021956 f i libucrt:output.obj
 0001:000209f4       ??$extract_argument_from_va_list@F_J@?$positional_parameter_base@_WV?$stream_output_adapter@_W@__crt_stdio_output@@@__crt_stdio_output@@IAE_NAA_J@Z 100219f4 f i libucrt:output.obj
 0001:00020a92       ??$extract_argument_from_va_list@F_J@?$positional_parameter_base@_WV?$string_output_adapter@_W@__crt_stdio_output@@@__crt_stdio_output@@IAE_NAA_J@Z 10021a92 f i libucrt:output.obj
 0001:00020b30       ??$extract_argument_from_va_list@F_J@?$standard_base@DV?$stream_output_adapter@D@__crt_stdio_output@@@__crt_stdio_output@@IAE_NAA_J@Z 10021b30 f i libucrt:output.obj
 0001:00020b56       ??$extract_argument_from_va_list@F_J@?$standard_base@DV?$string_output_adapter@D@__crt_stdio_output@@@__crt_stdio_output@@IAE_NAA_J@Z 10021b56 f i libucrt:output.obj
 0001:00020b7c       ??$extract_argument_from_va_list@F_J@?$standard_base@_WV?$stream_output_adapter@_W@__crt_stdio_output@@@__crt_stdio_output@@IAE_NAA_J@Z 10021b7c f i libucrt:output.obj
 0001:00020ba2       ??$extract_argument_from_va_list@F_J@?$standard_base@_WV?$string_output_adapter@_W@__crt_stdio_output@@@__crt_stdio_output@@IAE_NAA_J@Z 10021ba2 f i libucrt:output.obj
 0001:00020bc8       ??$extract_argument_from_va_list@GD@?$positional_parameter_base@DV?$stream_output_adapter@D@__crt_stdio_output@@@__crt_stdio_output@@IAE_NAAD@Z 10021bc8 f i libucrt:output.obj
 0001:00020c65       ??$extract_argument_from_va_list@GD@?$positional_parameter_base@DV?$string_output_adapter@D@__crt_stdio_output@@@__crt_stdio_output@@IAE_NAAD@Z 10021c65 f i libucrt:output.obj
 0001:00020d02       ??$extract_argument_from_va_list@GD@?$standard_base@DV?$stream_output_adapter@D@__crt_stdio_output@@@__crt_stdio_output@@IAE_NAAD@Z 10021d02 f i libucrt:output.obj
 0001:00020d22       ??$extract_argument_from_va_list@GD@?$standard_base@DV?$string_output_adapter@D@__crt_stdio_output@@@__crt_stdio_output@@IAE_NAAD@Z 10021d22 f i libucrt:output.obj
 0001:00020d42       ??$extract_argument_from_va_list@G_J@?$positional_parameter_base@DV?$stream_output_adapter@D@__crt_stdio_output@@@__crt_stdio_output@@IAE_NAA_J@Z 10021d42 f i libucrt:output.obj
 0001:00020de0       ??$extract_argument_from_va_list@G_J@?$positional_parameter_base@DV?$string_output_adapter@D@__crt_stdio_output@@@__crt_stdio_output@@IAE_NAA_J@Z 10021de0 f i libucrt:output.obj
 0001:00020e7e       ??$extract_argument_from_va_list@G_J@?$positional_parameter_base@_WV?$stream_output_adapter@_W@__crt_stdio_output@@@__crt_stdio_output@@IAE_NAA_J@Z 10021e7e f i libucrt:output.obj
 0001:00020f1c       ??$extract_argument_from_va_list@G_J@?$positional_parameter_base@_WV?$string_output_adapter@_W@__crt_stdio_output@@@__crt_stdio_output@@IAE_NAA_J@Z 10021f1c f i libucrt:output.obj
 0001:00020fba       ??$extract_argument_from_va_list@G_J@?$standard_base@DV?$stream_output_adapter@D@__crt_stdio_output@@@__crt_stdio_output@@IAE_NAA_J@Z 10021fba f i libucrt:output.obj
 0001:00020fe0       ??$extract_argument_from_va_list@G_J@?$standard_base@DV?$string_output_adapter@D@__crt_stdio_output@@@__crt_stdio_output@@IAE_NAA_J@Z 10021fe0 f i libucrt:output.obj
 0001:00021006       ??$extract_argument_from_va_list@G_J@?$standard_base@_WV?$stream_output_adapter@_W@__crt_stdio_output@@@__crt_stdio_output@@IAE_NAA_J@Z 10022006 f i libucrt:output.obj
 0001:0002102c       ??$extract_argument_from_va_list@G_J@?$standard_base@_WV?$string_output_adapter@_W@__crt_stdio_output@@@__crt_stdio_output@@IAE_NAA_J@Z 1002202c f i libucrt:output.obj
 0001:00021052       ??$extract_argument_from_va_list@H_J@?$positional_parameter_base@DV?$stream_output_adapter@D@__crt_stdio_output@@@__crt_stdio_output@@IAE_NAA_J@Z 10022052 f i libucrt:output.obj
 0001:000210ee       ??$extract_argument_from_va_list@H_J@?$positional_parameter_base@DV?$string_output_adapter@D@__crt_stdio_output@@@__crt_stdio_output@@IAE_NAA_J@Z 100220ee f i libucrt:output.obj
 0001:0002118a       ??$extract_argument_from_va_list@H_J@?$positional_parameter_base@_WV?$stream_output_adapter@_W@__crt_stdio_output@@@__crt_stdio_output@@IAE_NAA_J@Z 1002218a f i libucrt:output.obj
 0001:00021226       ??$extract_argument_from_va_list@H_J@?$positional_parameter_base@_WV?$string_output_adapter@_W@__crt_stdio_output@@@__crt_stdio_output@@IAE_NAA_J@Z 10022226 f i libucrt:output.obj
 0001:000212c2       ??$extract_argument_from_va_list@H_J@?$standard_base@DV?$stream_output_adapter@D@__crt_stdio_output@@@__crt_stdio_output@@IAE_NAA_J@Z 100222c2 f i libucrt:output.obj
 0001:000212e7       ??$extract_argument_from_va_list@H_J@?$standard_base@DV?$string_output_adapter@D@__crt_stdio_output@@@__crt_stdio_output@@IAE_NAA_J@Z 100222e7 f i libucrt:output.obj
 0001:0002130c       ??$extract_argument_from_va_list@H_J@?$standard_base@_WV?$stream_output_adapter@_W@__crt_stdio_output@@@__crt_stdio_output@@IAE_NAA_J@Z 1002230c f i libucrt:output.obj
 0001:00021331       ??$extract_argument_from_va_list@H_J@?$standard_base@_WV?$string_output_adapter@_W@__crt_stdio_output@@@__crt_stdio_output@@IAE_NAA_J@Z 10022331 f i libucrt:output.obj
 0001:00021356       ??$extract_argument_from_va_list@I_J@?$positional_parameter_base@DV?$stream_output_adapter@D@__crt_stdio_output@@@__crt_stdio_output@@IAE_NAA_J@Z 10022356 f i libucrt:output.obj
 0001:000213fd       ??$extract_argument_from_va_list@I_J@?$positional_parameter_base@DV?$string_output_adapter@D@__crt_stdio_output@@@__crt_stdio_output@@IAE_NAA_J@Z 100223fd f i libucrt:output.obj
 0001:000214a4       ??$extract_argument_from_va_list@I_J@?$positional_parameter_base@_WV?$stream_output_adapter@_W@__crt_stdio_output@@@__crt_stdio_output@@IAE_NAA_J@Z 100224a4 f i libucrt:output.obj
 0001:0002154b       ??$extract_argument_from_va_list@I_J@?$positional_parameter_base@_WV?$string_output_adapter@_W@__crt_stdio_output@@@__crt_stdio_output@@IAE_NAA_J@Z 1002254b f i libucrt:output.obj
 0001:000215f2       ??$extract_argument_from_va_list@I_J@?$standard_base@DV?$stream_output_adapter@D@__crt_stdio_output@@@__crt_stdio_output@@IAE_NAA_J@Z 100225f2 f i libucrt:output.obj
 0001:00021617       ??$extract_argument_from_va_list@I_J@?$standard_base@DV?$string_output_adapter@D@__crt_stdio_output@@@__crt_stdio_output@@IAE_NAA_J@Z 10022617 f i libucrt:output.obj
 0001:0002163c       ??$extract_argument_from_va_list@I_J@?$standard_base@_WV?$stream_output_adapter@_W@__crt_stdio_output@@@__crt_stdio_output@@IAE_NAA_J@Z 1002263c f i libucrt:output.obj
 0001:00021661       ??$extract_argument_from_va_list@I_J@?$standard_base@_WV?$string_output_adapter@_W@__crt_stdio_output@@@__crt_stdio_output@@IAE_NAA_J@Z 10022661 f i libucrt:output.obj
 0001:00021686       ??$extract_argument_from_va_list@PADPAD@?$positional_parameter_base@DV?$stream_output_adapter@D@__crt_stdio_output@@@__crt_stdio_output@@IAE_NAAPAD@Z 10022686 f i libucrt:output.obj
 0001:00021723       ??$extract_argument_from_va_list@PADPAD@?$positional_parameter_base@DV?$string_output_adapter@D@__crt_stdio_output@@@__crt_stdio_output@@IAE_NAAPAD@Z 10022723 f i libucrt:output.obj
 0001:000217c0       ??$extract_argument_from_va_list@PADPAD@?$positional_parameter_base@_WV?$stream_output_adapter@_W@__crt_stdio_output@@@__crt_stdio_output@@IAE_NAAPAD@Z 100227c0 f i libucrt:output.obj
 0001:0002185d       ??$extract_argument_from_va_list@PADPAD@?$positional_parameter_base@_WV?$string_output_adapter@_W@__crt_stdio_output@@@__crt_stdio_output@@IAE_NAAPAD@Z 1002285d f i libucrt:output.obj
 0001:000218fa       ??$extract_argument_from_va_list@PADPAD@?$standard_base@DV?$stream_output_adapter@D@__crt_stdio_output@@@__crt_stdio_output@@IAE_NAAPAD@Z 100228fa f i libucrt:output.obj
 0001:0002191a       ??$extract_argument_from_va_list@PADPAD@?$standard_base@DV?$string_output_adapter@D@__crt_stdio_output@@@__crt_stdio_output@@IAE_NAAPAD@Z 1002291a f i libucrt:output.obj
 0001:0002193a       ??$extract_argument_from_va_list@PADPAD@?$standard_base@_WV?$stream_output_adapter@_W@__crt_stdio_output@@@__crt_stdio_output@@IAE_NAAPAD@Z 1002293a f i libucrt:output.obj
 0001:0002195a       ??$extract_argument_from_va_list@PADPAD@?$standard_base@_WV?$string_output_adapter@_W@__crt_stdio_output@@@__crt_stdio_output@@IAE_NAAPAD@Z 1002295a f i libucrt:output.obj
 0001:0002197a       ??$extract_argument_from_va_list@PAUansi_string@?1??type_case_Z@?$output_processor@DV?$stream_output_adapter@D@__crt_stdio_output@@V?$format_validation_base@DV?$stream_output_adapter@D@__crt_stdio_output@@@2@@__crt_stdio_output@@AAE_NXZ@PAU1?1??234@AAE_NXZ@@?$standard_base@DV?$stream_output_adapter@D@__crt_stdio_output@@@__crt_stdio_output@@IAE_NAAPAUansi_string@?1??type_case_Z@?$output_processor@DV?$stream_output_adapter@D@__crt_stdio_output@@V?$format_validation_base@DV?$stream_output_adapter@D@__crt_stdio_output@@@2@@1@AAE_NXZ@@Z 1002297a f i libucrt:output.obj
 0001:0002199a       ??$extract_argument_from_va_list@PAUansi_string@?1??type_case_Z@?$output_processor@DV?$stream_output_adapter@D@__crt_stdio_output@@V?$positional_parameter_base@DV?$stream_output_adapter@D@__crt_stdio_output@@@2@@__crt_stdio_output@@AAE_NXZ@PAU1?1??234@AAE_NXZ@@?$positional_parameter_base@DV?$stream_output_adapter@D@__crt_stdio_output@@@__crt_stdio_output@@IAE_NAAPAUansi_string@?1??type_case_Z@?$output_processor@DV?$stream_output_adapter@D@__crt_stdio_output@@V?$positional_parameter_base@DV?$stream_output_adapter@D@__crt_stdio_output@@@2@@1@AAE_NXZ@@Z 1002299a f i libucrt:output.obj
 0001:00021a37       ??$extract_argument_from_va_list@PAUansi_string@?1??type_case_Z@?$output_processor@DV?$stream_output_adapter@D@__crt_stdio_output@@V?$positional_parameter_base@DV?$stream_output_adapter@D@__crt_stdio_output@@@2@@__crt_stdio_output@@AAE_NXZ@PAU1?1??234@AAE_NXZ@@?$standard_base@DV?$stream_output_adapter@D@__crt_stdio_output@@@__crt_stdio_output@@IAE_NAAPAUansi_string@?1??type_case_Z@?$output_processor@DV?$stream_output_adapter@D@__crt_stdio_output@@V?$positional_parameter_base@DV?$stream_output_adapter@D@__crt_stdio_output@@@2@@1@AAE_NXZ@@Z 10022a37 f i libucrt:output.obj
 0001:00021a57       ??$extract_argument_from_va_list@PAUansi_string@?1??type_case_Z@?$output_processor@DV?$stream_output_adapter@D@__crt_stdio_output@@V?$standard_base@DV?$stream_output_adapter@D@__crt_stdio_output@@@2@@__crt_stdio_output@@AAE_NXZ@PAU1?1??234@AAE_NXZ@@?$standard_base@DV?$stream_output_adapter@D@__crt_stdio_output@@@__crt_stdio_output@@IAE_NAAPAUansi_string@?1??type_case_Z@?$output_processor@DV?$stream_output_adapter@D@__crt_stdio_output@@V?$standard_base@DV?$stream_output_adapter@D@__crt_stdio_output@@@2@@1@AAE_NXZ@@Z 10022a57 f i libucrt:output.obj
 0001:00021a77       ??$extract_argument_from_va_list@PAUansi_string@?1??type_case_Z@?$output_processor@DV?$string_output_adapter@D@__crt_stdio_output@@V?$format_validation_base@DV?$string_output_adapter@D@__crt_stdio_output@@@2@@__crt_stdio_output@@AAE_NXZ@PAU1?1??234@AAE_NXZ@@?$standard_base@DV?$string_output_adapter@D@__crt_stdio_output@@@__crt_stdio_output@@IAE_NAAPAUansi_string@?1??type_case_Z@?$output_processor@DV?$string_output_adapter@D@__crt_stdio_output@@V?$format_validation_base@DV?$string_output_adapter@D@__crt_stdio_output@@@2@@1@AAE_NXZ@@Z 10022a77 f i libucrt:output.obj
 0001:00021a97       ??$extract_argument_from_va_list@PAUansi_string@?1??type_case_Z@?$output_processor@DV?$string_output_adapter@D@__crt_stdio_output@@V?$positional_parameter_base@DV?$string_output_adapter@D@__crt_stdio_output@@@2@@__crt_stdio_output@@AAE_NXZ@PAU1?1??234@AAE_NXZ@@?$positional_parameter_base@DV?$string_output_adapter@D@__crt_stdio_output@@@__crt_stdio_output@@IAE_NAAPAUansi_string@?1??type_case_Z@?$output_processor@DV?$string_output_adapter@D@__crt_stdio_output@@V?$positional_parameter_base@DV?$string_output_adapter@D@__crt_stdio_output@@@2@@1@AAE_NXZ@@Z 10022a97 f i libucrt:output.obj
 0001:00021b34       ??$extract_argument_from_va_list@PAUansi_string@?1??type_case_Z@?$output_processor@DV?$string_output_adapter@D@__crt_stdio_output@@V?$positional_parameter_base@DV?$string_output_adapter@D@__crt_stdio_output@@@2@@__crt_stdio_output@@AAE_NXZ@PAU1?1??234@AAE_NXZ@@?$standard_base@DV?$string_output_adapter@D@__crt_stdio_output@@@__crt_stdio_output@@IAE_NAAPAUansi_string@?1??type_case_Z@?$output_processor@DV?$string_output_adapter@D@__crt_stdio_output@@V?$positional_parameter_base@DV?$string_output_adapter@D@__crt_stdio_output@@@2@@1@AAE_NXZ@@Z 10022b34 f i libucrt:output.obj
 0001:00021b54       ??$extract_argument_from_va_list@PAUansi_string@?1??type_case_Z@?$output_processor@DV?$string_output_adapter@D@__crt_stdio_output@@V?$standard_base@DV?$string_output_adapter@D@__crt_stdio_output@@@2@@__crt_stdio_output@@AAE_NXZ@PAU1?1??234@AAE_NXZ@@?$standard_base@DV?$string_output_adapter@D@__crt_stdio_output@@@__crt_stdio_output@@IAE_NAAPAUansi_string@?1??type_case_Z@?$output_processor@DV?$string_output_adapter@D@__crt_stdio_output@@V?$standard_base@DV?$string_output_adapter@D@__crt_stdio_output@@@2@@1@AAE_NXZ@@Z 10022b54 f i libucrt:output.obj
 0001:00021b74       ??$extract_argument_from_va_list@PAUansi_string@?1??type_case_Z@?$output_processor@_WV?$stream_output_adapter@_W@__crt_stdio_output@@V?$format_validation_base@_WV?$stream_output_adapter@_W@__crt_stdio_output@@@2@@__crt_stdio_output@@AAE_NXZ@PAU1?1??234@AAE_NXZ@@?$standard_base@_WV?$stream_output_adapter@_W@__crt_stdio_output@@@__crt_stdio_output@@IAE_NAAPAUansi_string@?1??type_case_Z@?$output_processor@_WV?$stream_output_adapter@_W@__crt_stdio_output@@V?$format_validation_base@_WV?$stream_output_adapter@_W@__crt_stdio_output@@@2@@1@AAE_NXZ@@Z 10022b74 f i libucrt:output.obj
 0001:00021b94       ??$extract_argument_from_va_list@PAUansi_string@?1??type_case_Z@?$output_processor@_WV?$stream_output_adapter@_W@__crt_stdio_output@@V?$positional_parameter_base@_WV?$stream_output_adapter@_W@__crt_stdio_output@@@2@@__crt_stdio_output@@AAE_NXZ@PAU1?1??234@AAE_NXZ@@?$positional_parameter_base@_WV?$stream_output_adapter@_W@__crt_stdio_output@@@__crt_stdio_output@@IAE_NAAPAUansi_string@?1??type_case_Z@?$output_processor@_WV?$stream_output_adapter@_W@__crt_stdio_output@@V?$positional_parameter_base@_WV?$stream_output_adapter@_W@__crt_stdio_output@@@2@@1@AAE_NXZ@@Z 10022b94 f i libucrt:output.obj
 0001:00021c31       ??$extract_argument_from_va_list@PAUansi_string@?1??type_case_Z@?$output_processor@_WV?$stream_output_adapter@_W@__crt_stdio_output@@V?$positional_parameter_base@_WV?$stream_output_adapter@_W@__crt_stdio_output@@@2@@__crt_stdio_output@@AAE_NXZ@PAU1?1??234@AAE_NXZ@@?$standard_base@_WV?$stream_output_adapter@_W@__crt_stdio_output@@@__crt_stdio_output@@IAE_NAAPAUansi_string@?1??type_case_Z@?$output_processor@_WV?$stream_output_adapter@_W@__crt_stdio_output@@V?$positional_parameter_base@_WV?$stream_output_adapter@_W@__crt_stdio_output@@@2@@1@AAE_NXZ@@Z 10022c31 f i libucrt:output.obj
 0001:00021c51       ??$extract_argument_from_va_list@PAUansi_string@?1??type_case_Z@?$output_processor@_WV?$stream_output_adapter@_W@__crt_stdio_output@@V?$standard_base@_WV?$stream_output_adapter@_W@__crt_stdio_output@@@2@@__crt_stdio_output@@AAE_NXZ@PAU1?1??234@AAE_NXZ@@?$standard_base@_WV?$stream_output_adapter@_W@__crt_stdio_output@@@__crt_stdio_output@@IAE_NAAPAUansi_string@?1??type_case_Z@?$output_processor@_WV?$stream_output_adapter@_W@__crt_stdio_output@@V?$standard_base@_WV?$stream_output_adapter@_W@__crt_stdio_output@@@2@@1@AAE_NXZ@@Z 10022c51 f i libucrt:output.obj
 0001:00021c71       ??$extract_argument_from_va_list@PAUansi_string@?1??type_case_Z@?$output_processor@_WV?$string_output_adapter@_W@__crt_stdio_output@@V?$format_validation_base@_WV?$string_output_adapter@_W@__crt_stdio_output@@@2@@__crt_stdio_output@@AAE_NXZ@PAU1?1??234@AAE_NXZ@@?$standard_base@_WV?$string_output_adapter@_W@__crt_stdio_output@@@__crt_stdio_output@@IAE_NAAPAUansi_string@?1??type_case_Z@?$output_processor@_WV?$string_output_adapter@_W@__crt_stdio_output@@V?$format_validation_base@_WV?$string_output_adapter@_W@__crt_stdio_output@@@2@@1@AAE_NXZ@@Z 10022c71 f i libucrt:output.obj
 0001:00021c91       ??$extract_argument_from_va_list@PAUansi_string@?1??type_case_Z@?$output_processor@_WV?$string_output_adapter@_W@__crt_stdio_output@@V?$positional_parameter_base@_WV?$string_output_adapter@_W@__crt_stdio_output@@@2@@__crt_stdio_output@@AAE_NXZ@PAU1?1??234@AAE_NXZ@@?$positional_parameter_base@_WV?$string_output_adapter@_W@__crt_stdio_output@@@__crt_stdio_output@@IAE_NAAPAUansi_string@?1??type_case_Z@?$output_processor@_WV?$string_output_adapter@_W@__crt_stdio_output@@V?$positional_parameter_base@_WV?$string_output_adapter@_W@__crt_stdio_output@@@2@@1@AAE_NXZ@@Z 10022c91 f i libucrt:output.obj
 0001:00021d2e       ??$extract_argument_from_va_list@PAUansi_string@?1??type_case_Z@?$output_processor@_WV?$string_output_adapter@_W@__crt_stdio_output@@V?$positional_parameter_base@_WV?$string_output_adapter@_W@__crt_stdio_output@@@2@@__crt_stdio_output@@AAE_NXZ@PAU1?1??234@AAE_NXZ@@?$standard_base@_WV?$string_output_adapter@_W@__crt_stdio_output@@@__crt_stdio_output@@IAE_NAAPAUansi_string@?1??type_case_Z@?$output_processor@_WV?$string_output_adapter@_W@__crt_stdio_output@@V?$positional_parameter_base@_WV?$string_output_adapter@_W@__crt_stdio_output@@@2@@1@AAE_NXZ@@Z 10022d2e f i libucrt:output.obj
 0001:00021d4e       ??$extract_argument_from_va_list@PAUansi_string@?1??type_case_Z@?$output_processor@_WV?$string_output_adapter@_W@__crt_stdio_output@@V?$standard_base@_WV?$string_output_adapter@_W@__crt_stdio_output@@@2@@__crt_stdio_output@@AAE_NXZ@PAU1?1??234@AAE_NXZ@@?$standard_base@_WV?$string_output_adapter@_W@__crt_stdio_output@@@__crt_stdio_output@@IAE_NAAPAUansi_string@?1??type_case_Z@?$output_processor@_WV?$string_output_adapter@_W@__crt_stdio_output@@V?$standard_base@_WV?$string_output_adapter@_W@__crt_stdio_output@@@2@@1@AAE_NXZ@@Z 10022d4e f i libucrt:output.obj
 0001:00021d6e       ??$extract_argument_from_va_list@PAXPAX@?$positional_parameter_base@DV?$stream_output_adapter@D@__crt_stdio_output@@@__crt_stdio_output@@IAE_NAAPAX@Z 10022d6e f i libucrt:output.obj
 0001:00021e0b       ??$extract_argument_from_va_list@PAXPAX@?$positional_parameter_base@DV?$string_output_adapter@D@__crt_stdio_output@@@__crt_stdio_output@@IAE_NAAPAX@Z 10022e0b f i libucrt:output.obj
 0001:00021ea8       ??$extract_argument_from_va_list@PAXPAX@?$positional_parameter_base@_WV?$stream_output_adapter@_W@__crt_stdio_output@@@__crt_stdio_output@@IAE_NAAPAX@Z 10022ea8 f i libucrt:output.obj
 0001:00021f45       ??$extract_argument_from_va_list@PAXPAX@?$positional_parameter_base@_WV?$string_output_adapter@_W@__crt_stdio_output@@@__crt_stdio_output@@IAE_NAAPAX@Z 10022f45 f i libucrt:output.obj
 0001:00021fe2       ??$extract_argument_from_va_list@PAXPAX@?$standard_base@DV?$stream_output_adapter@D@__crt_stdio_output@@@__crt_stdio_output@@IAE_NAAPAX@Z 10022fe2 f i libucrt:output.obj
 0001:00022002       ??$extract_argument_from_va_list@PAXPAX@?$standard_base@DV?$string_output_adapter@D@__crt_stdio_output@@@__crt_stdio_output@@IAE_NAAPAX@Z 10023002 f i libucrt:output.obj
 0001:00022022       ??$extract_argument_from_va_list@PAXPAX@?$standard_base@_WV?$stream_output_adapter@_W@__crt_stdio_output@@@__crt_stdio_output@@IAE_NAAPAX@Z 10023022 f i libucrt:output.obj
 0001:00022042       ??$extract_argument_from_va_list@PAXPAX@?$standard_base@_WV?$string_output_adapter@_W@__crt_stdio_output@@@__crt_stdio_output@@IAE_NAAPAX@Z 10023042 f i libucrt:output.obj
 0001:00022062       ??$extract_argument_from_va_list@U_CRT_DOUBLE@@U1@@?$positional_parameter_base@DV?$stream_output_adapter@D@__crt_stdio_output@@@__crt_stdio_output@@IAE_NAAU_CRT_DOUBLE@@@Z 10023062 f i libucrt:output.obj
 0001:00022113       ??$extract_argument_from_va_list@U_CRT_DOUBLE@@U1@@?$positional_parameter_base@DV?$string_output_adapter@D@__crt_stdio_output@@@__crt_stdio_output@@IAE_NAAU_CRT_DOUBLE@@@Z 10023113 f i libucrt:output.obj
 0001:000221c4       ??$extract_argument_from_va_list@U_CRT_DOUBLE@@U1@@?$positional_parameter_base@_WV?$stream_output_adapter@_W@__crt_stdio_output@@@__crt_stdio_output@@IAE_NAAU_CRT_DOUBLE@@@Z 100231c4 f i libucrt:output.obj
 0001:00022275       ??$extract_argument_from_va_list@U_CRT_DOUBLE@@U1@@?$positional_parameter_base@_WV?$string_output_adapter@_W@__crt_stdio_output@@@__crt_stdio_output@@IAE_NAAU_CRT_DOUBLE@@@Z 10023275 f i libucrt:output.obj
 0001:00022326       ??$extract_argument_from_va_list@U_CRT_DOUBLE@@U1@@?$standard_base@DV?$stream_output_adapter@D@__crt_stdio_output@@@__crt_stdio_output@@IAE_NAAU_CRT_DOUBLE@@@Z 10023326 f i libucrt:output.obj
 0001:0002234e       ??$extract_argument_from_va_list@U_CRT_DOUBLE@@U1@@?$standard_base@DV?$string_output_adapter@D@__crt_stdio_output@@@__crt_stdio_output@@IAE_NAAU_CRT_DOUBLE@@@Z 1002334e f i libucrt:output.obj
 0001:00022376       ??$extract_argument_from_va_list@U_CRT_DOUBLE@@U1@@?$standard_base@_WV?$stream_output_adapter@_W@__crt_stdio_output@@@__crt_stdio_output@@IAE_NAAU_CRT_DOUBLE@@@Z 10023376 f i libucrt:output.obj
 0001:0002239e       ??$extract_argument_from_va_list@U_CRT_DOUBLE@@U1@@?$standard_base@_WV?$string_output_adapter@_W@__crt_stdio_output@@@__crt_stdio_output@@IAE_NAAU_CRT_DOUBLE@@@Z 1002339e f i libucrt:output.obj
 0001:000223c6       ??$extract_argument_from_va_list@_J_J@?$positional_parameter_base@DV?$stream_output_adapter@D@__crt_stdio_output@@@__crt_stdio_output@@IAE_NAA_J@Z 100233c6 f i libucrt:output.obj
 0001:00022477       ??$extract_argument_from_va_list@_J_J@?$positional_parameter_base@DV?$string_output_adapter@D@__crt_stdio_output@@@__crt_stdio_output@@IAE_NAA_J@Z 10023477 f i libucrt:output.obj
 0001:00022528       ??$extract_argument_from_va_list@_J_J@?$positional_parameter_base@_WV?$stream_output_adapter@_W@__crt_stdio_output@@@__crt_stdio_output@@IAE_NAA_J@Z 10023528 f i libucrt:output.obj
 0001:000225d9       ??$extract_argument_from_va_list@_J_J@?$positional_parameter_base@_WV?$string_output_adapter@_W@__crt_stdio_output@@@__crt_stdio_output@@IAE_NAA_J@Z 100235d9 f i libucrt:output.obj
 0001:0002268a       ??$extract_argument_from_va_list@_J_J@?$standard_base@DV?$stream_output_adapter@D@__crt_stdio_output@@@__crt_stdio_output@@IAE_NAA_J@Z 1002368a f i libucrt:output.obj
 0001:000226b2       ??$extract_argument_from_va_list@_J_J@?$standard_base@DV?$string_output_adapter@D@__crt_stdio_output@@@__crt_stdio_output@@IAE_NAA_J@Z 100236b2 f i libucrt:output.obj
 0001:000226da       ??$extract_argument_from_va_list@_J_J@?$standard_base@_WV?$stream_output_adapter@_W@__crt_stdio_output@@@__crt_stdio_output@@IAE_NAA_J@Z 100236da f i libucrt:output.obj
 0001:00022702       ??$extract_argument_from_va_list@_J_J@?$standard_base@_WV?$string_output_adapter@_W@__crt_stdio_output@@@__crt_stdio_output@@IAE_NAA_J@Z 10023702 f i libucrt:output.obj
 0001:0002272a       ??$extract_argument_from_va_list@_K_J@?$positional_parameter_base@DV?$stream_output_adapter@D@__crt_stdio_output@@@__crt_stdio_output@@IAE_NAA_J@Z 1002372a f i libucrt:output.obj
 0001:000227db       ??$extract_argument_from_va_list@_K_J@?$positional_parameter_base@DV?$string_output_adapter@D@__crt_stdio_output@@@__crt_stdio_output@@IAE_NAA_J@Z 100237db f i libucrt:output.obj
 0001:0002288c       ??$extract_argument_from_va_list@_K_J@?$positional_parameter_base@_WV?$stream_output_adapter@_W@__crt_stdio_output@@@__crt_stdio_output@@IAE_NAA_J@Z 1002388c f i libucrt:output.obj
 0001:0002293d       ??$extract_argument_from_va_list@_K_J@?$positional_parameter_base@_WV?$string_output_adapter@_W@__crt_stdio_output@@@__crt_stdio_output@@IAE_NAA_J@Z 1002393d f i libucrt:output.obj
 0001:000229ee       ??$extract_argument_from_va_list@_K_J@?$standard_base@DV?$stream_output_adapter@D@__crt_stdio_output@@@__crt_stdio_output@@IAE_NAA_J@Z 100239ee f i libucrt:output.obj
 0001:00022a16       ??$extract_argument_from_va_list@_K_J@?$standard_base@DV?$string_output_adapter@D@__crt_stdio_output@@@__crt_stdio_output@@IAE_NAA_J@Z 10023a16 f i libucrt:output.obj
 0001:00022a3e       ??$extract_argument_from_va_list@_K_J@?$standard_base@_WV?$stream_output_adapter@_W@__crt_stdio_output@@@__crt_stdio_output@@IAE_NAA_J@Z 10023a3e f i libucrt:output.obj
 0001:00022a66       ??$extract_argument_from_va_list@_K_J@?$standard_base@_WV?$string_output_adapter@_W@__crt_stdio_output@@@__crt_stdio_output@@IAE_NAA_J@Z 10023a66 f i libucrt:output.obj
 0001:00022a8e       ??$extract_argument_from_va_list@_W_W@?$positional_parameter_base@DV?$stream_output_adapter@D@__crt_stdio_output@@@__crt_stdio_output@@IAE_NAA_W@Z 10023a8e f i libucrt:output.obj
 0001:00022b30       ??$extract_argument_from_va_list@_W_W@?$positional_parameter_base@DV?$string_output_adapter@D@__crt_stdio_output@@@__crt_stdio_output@@IAE_NAA_W@Z 10023b30 f i libucrt:output.obj
 0001:00022bd2       ??$extract_argument_from_va_list@_W_W@?$positional_parameter_base@_WV?$stream_output_adapter@_W@__crt_stdio_output@@@__crt_stdio_output@@IAE_NAA_W@Z 10023bd2 f i libucrt:output.obj
 0001:00022c74       ??$extract_argument_from_va_list@_W_W@?$positional_parameter_base@_WV?$string_output_adapter@_W@__crt_stdio_output@@@__crt_stdio_output@@IAE_NAA_W@Z 10023c74 f i libucrt:output.obj
 0001:00022d16       ??$extract_argument_from_va_list@_W_W@?$standard_base@DV?$stream_output_adapter@D@__crt_stdio_output@@@__crt_stdio_output@@IAE_NAA_W@Z 10023d16 f i libucrt:output.obj
 0001:00022d39       ??$extract_argument_from_va_list@_W_W@?$standard_base@DV?$string_output_adapter@D@__crt_stdio_output@@@__crt_stdio_output@@IAE_NAA_W@Z 10023d39 f i libucrt:output.obj
 0001:00022d5c       ??$extract_argument_from_va_list@_W_W@?$standard_base@_WV?$stream_output_adapter@_W@__crt_stdio_output@@@__crt_stdio_output@@IAE_NAA_W@Z 10023d5c f i libucrt:output.obj
 0001:00022d7f       ??$extract_argument_from_va_list@_W_W@?$standard_base@_WV?$string_output_adapter@_W@__crt_stdio_output@@@__crt_stdio_output@@IAE_NAA_W@Z 10023d7f f i libucrt:output.obj
 0001:00022da2       ??$get_parameter_type@D@?$positional_parameter_base@DV?$stream_output_adapter@D@__crt_stdio_output@@@__crt_stdio_output@@CA?AW4parameter_type@01@PAD@Z 10023da2 f i libucrt:output.obj
 0001:00022da6       ??$get_parameter_type@D@?$positional_parameter_base@DV?$string_output_adapter@D@__crt_stdio_output@@@__crt_stdio_output@@CA?AW4parameter_type@01@PAD@Z 10023da6 f i libucrt:output.obj
 0001:00022daa       ??$get_parameter_type@D@?$positional_parameter_base@_WV?$stream_output_adapter@_W@__crt_stdio_output@@@__crt_stdio_output@@CA?AW4parameter_type@01@PAD@Z 10023daa f i libucrt:output.obj
 0001:00022dae       ??$get_parameter_type@D@?$positional_parameter_base@_WV?$string_output_adapter@_W@__crt_stdio_output@@@__crt_stdio_output@@CA?AW4parameter_type@01@PAD@Z 10023dae f i libucrt:output.obj
 0001:00022db2       ??$get_parameter_type@Uansi_string@?1??type_case_Z@?$output_processor@DV?$stream_output_adapter@D@__crt_stdio_output@@V?$positional_parameter_base@DV?$stream_output_adapter@D@__crt_stdio_output@@@2@@__crt_stdio_output@@AAE_NXZ@@?$positional_parameter_base@DV?$stream_output_adapter@D@__crt_stdio_output@@@__crt_stdio_output@@CA?AW4parameter_type@01@PAUansi_string@?1??type_case_Z@?$output_processor@DV?$stream_output_adapter@D@__crt_stdio_output@@V?$positional_parameter_base@DV?$stream_output_adapter@D@__crt_stdio_output@@@2@@1@AAE_NXZ@@Z 10023db2 f i libucrt:output.obj
 0001:00022db6       ??$get_parameter_type@Uansi_string@?1??type_case_Z@?$output_processor@DV?$string_output_adapter@D@__crt_stdio_output@@V?$positional_parameter_base@DV?$string_output_adapter@D@__crt_stdio_output@@@2@@__crt_stdio_output@@AAE_NXZ@@?$positional_parameter_base@DV?$string_output_adapter@D@__crt_stdio_output@@@__crt_stdio_output@@CA?AW4parameter_type@01@PAUansi_string@?1??type_case_Z@?$output_processor@DV?$string_output_adapter@D@__crt_stdio_output@@V?$positional_parameter_base@DV?$string_output_adapter@D@__crt_stdio_output@@@2@@1@AAE_NXZ@@Z 10023db6 f i libucrt:output.obj
 0001:00022dba       ??$get_parameter_type@Uansi_string@?1??type_case_Z@?$output_processor@_WV?$stream_output_adapter@_W@__crt_stdio_output@@V?$positional_parameter_base@_WV?$stream_output_adapter@_W@__crt_stdio_output@@@2@@__crt_stdio_output@@AAE_NXZ@@?$positional_parameter_base@_WV?$stream_output_adapter@_W@__crt_stdio_output@@@__crt_stdio_output@@CA?AW4parameter_type@01@PAUansi_string@?1??type_case_Z@?$output_processor@_WV?$stream_output_adapter@_W@__crt_stdio_output@@V?$positional_parameter_base@_WV?$stream_output_adapter@_W@__crt_stdio_output@@@2@@1@AAE_NXZ@@Z 10023dba f i libucrt:output.obj
 0001:00022dbe       ??$get_parameter_type@Uansi_string@?1??type_case_Z@?$output_processor@_WV?$string_output_adapter@_W@__crt_stdio_output@@V?$positional_parameter_base@_WV?$string_output_adapter@_W@__crt_stdio_output@@@2@@__crt_stdio_output@@AAE_NXZ@@?$positional_parameter_base@_WV?$string_output_adapter@_W@__crt_stdio_output@@@__crt_stdio_output@@CA?AW4parameter_type@01@PAUansi_string@?1??type_case_Z@?$output_processor@_WV?$string_output_adapter@_W@__crt_stdio_output@@V?$positional_parameter_base@_WV?$string_output_adapter@_W@__crt_stdio_output@@@2@@1@AAE_NXZ@@Z 10023dbe f i libucrt:output.obj
 0001:00022dc2       ??$get_parameter_type@X@?$positional_parameter_base@DV?$stream_output_adapter@D@__crt_stdio_output@@@__crt_stdio_output@@CA?AW4parameter_type@01@PAX@Z 10023dc2 f i libucrt:output.obj
 0001:00022dc6       ??$get_parameter_type@X@?$positional_parameter_base@DV?$string_output_adapter@D@__crt_stdio_output@@@__crt_stdio_output@@CA?AW4parameter_type@01@PAX@Z 10023dc6 f i libucrt:output.obj
 0001:00022dca       ??$get_parameter_type@X@?$positional_parameter_base@_WV?$stream_output_adapter@_W@__crt_stdio_output@@@__crt_stdio_output@@CA?AW4parameter_type@01@PAX@Z 10023dca f i libucrt:output.obj
 0001:00022dce       ??$get_parameter_type@X@?$positional_parameter_base@_WV?$string_output_adapter@_W@__crt_stdio_output@@@__crt_stdio_output@@CA?AW4parameter_type@01@PAX@Z 10023dce f i libucrt:output.obj
 0001:00022dd2       ??$is_character_specifier@D@?$positional_parameter_base@DV?$stream_output_adapter@D@__crt_stdio_output@@@__crt_stdio_output@@CA_ND@Z 10023dd2 f i libucrt:output.obj
 0001:00022df1       ??$is_character_specifier@D@?$positional_parameter_base@DV?$string_output_adapter@D@__crt_stdio_output@@@__crt_stdio_output@@CA_ND@Z 10023df1 f i libucrt:output.obj
 0001:00022e10       ??$is_character_specifier@_W@?$positional_parameter_base@_WV?$stream_output_adapter@_W@__crt_stdio_output@@@__crt_stdio_output@@CA_N_W@Z 10023e10 f i libucrt:output.obj
 0001:00022e33       ??$is_character_specifier@_W@?$positional_parameter_base@_WV?$string_output_adapter@_W@__crt_stdio_output@@@__crt_stdio_output@@CA_N_W@Z 10023e33 f i libucrt:output.obj
 0001:00022e56       ??$is_integral_specifier@D@?$positional_parameter_base@DV?$stream_output_adapter@D@__crt_stdio_output@@@__crt_stdio_output@@CA_ND@Z 10023e56 f i libucrt:output.obj
 0001:00022e8e       ??$is_integral_specifier@D@?$positional_parameter_base@DV?$string_output_adapter@D@__crt_stdio_output@@@__crt_stdio_output@@CA_ND@Z 10023e8e f i libucrt:output.obj
 0001:00022ec6       ??$is_integral_specifier@_W@?$positional_parameter_base@_WV?$stream_output_adapter@_W@__crt_stdio_output@@@__crt_stdio_output@@CA_N_W@Z 10023ec6 f i libucrt:output.obj
 0001:00022f11       ??$is_integral_specifier@_W@?$positional_parameter_base@_WV?$string_output_adapter@_W@__crt_stdio_output@@@__crt_stdio_output@@CA_N_W@Z 10023f11 f i libucrt:output.obj
 0001:00022f5c       ??$is_pointer_specifier@D@?$positional_parameter_base@DV?$stream_output_adapter@D@__crt_stdio_output@@@__crt_stdio_output@@CA_ND@Z 10023f5c f i libucrt:output.obj
 0001:00022f70       ??$is_pointer_specifier@D@?$positional_parameter_base@DV?$string_output_adapter@D@__crt_stdio_output@@@__crt_stdio_output@@CA_ND@Z 10023f70 f i libucrt:output.obj
 0001:00022f84       ??$is_pointer_specifier@_W@?$positional_parameter_base@_WV?$stream_output_adapter@_W@__crt_stdio_output@@@__crt_stdio_output@@CA_N_W@Z 10023f84 f i libucrt:output.obj
 0001:00022f99       ??$is_pointer_specifier@_W@?$positional_parameter_base@_WV?$string_output_adapter@_W@__crt_stdio_output@@@__crt_stdio_output@@CA_N_W@Z 10023f99 f i libucrt:output.obj
 0001:00022fae       ??$is_string_specifier@D@?$positional_parameter_base@DV?$stream_output_adapter@D@__crt_stdio_output@@@__crt_stdio_output@@CA_ND@Z 10023fae f i libucrt:output.obj
 0001:00022fcd       ??$is_string_specifier@D@?$positional_parameter_base@DV?$string_output_adapter@D@__crt_stdio_output@@@__crt_stdio_output@@CA_ND@Z 10023fcd f i libucrt:output.obj
 0001:00022fec       ??$is_string_specifier@_W@?$positional_parameter_base@_WV?$stream_output_adapter@_W@__crt_stdio_output@@@__crt_stdio_output@@CA_N_W@Z 10023fec f i libucrt:output.obj
 0001:0002300f       ??$is_string_specifier@_W@?$positional_parameter_base@_WV?$string_output_adapter@_W@__crt_stdio_output@@@__crt_stdio_output@@CA_N_W@Z 1002400f f i libucrt:output.obj
 0001:00023032       ??$is_wide_character_specifier@D@__crt_stdio_output@@YA_N_KDW4length_modifier@0@@Z 10024032 f i libucrt:output.obj
 0001:00023082       ??$is_wide_character_specifier@_W@__crt_stdio_output@@YA_N_K_WW4length_modifier@0@@Z 10024082 f i libucrt:output.obj
 0001:000230e4       ??$peek_va_arg@C@__crt_stdio_output@@YACPAD@Z 100240e4 f i libucrt:output.obj
 0001:000230f3       ??$peek_va_arg@E@__crt_stdio_output@@YAEPAD@Z 100240f3 f i libucrt:output.obj
 0001:00023102       ??$peek_va_arg@F@__crt_stdio_output@@YAFPAD@Z 10024102 f i libucrt:output.obj
 0001:00023112       ??$peek_va_arg@G@__crt_stdio_output@@YAGPAD@Z 10024112 f i libucrt:output.obj
 0001:00023122       ??$peek_va_arg@H@__crt_stdio_output@@YAHPAD@Z 10024122 f i libucrt:output.obj
 0001:00023131       ??$peek_va_arg@I@__crt_stdio_output@@YAIPAD@Z 10024131 f i libucrt:output.obj
 0001:00023140       ??$peek_va_arg@PAD@__crt_stdio_output@@YAPADPAD@Z 10024140 f i libucrt:output.obj
 0001:0002314f       ??$peek_va_arg@PAUansi_string@?1??type_case_Z@?$output_processor@DV?$stream_output_adapter@D@__crt_stdio_output@@V?$positional_parameter_base@DV?$stream_output_adapter@D@__crt_stdio_output@@@2@@__crt_stdio_output@@AAE_NXZ@@__crt_stdio_output@@YAPAUansi_string@?1??type_case_Z@?$output_processor@DV?$stream_output_adapter@D@__crt_stdio_output@@V?$positional_parameter_base@DV?$stream_output_adapter@D@__crt_stdio_output@@@2@@0@AAE_NXZ@PAD@Z 1002414f f i libucrt:output.obj
 0001:0002315e       ??$peek_va_arg@PAUansi_string@?1??type_case_Z@?$output_processor@DV?$string_output_adapter@D@__crt_stdio_output@@V?$positional_parameter_base@DV?$string_output_adapter@D@__crt_stdio_output@@@2@@__crt_stdio_output@@AAE_NXZ@@__crt_stdio_output@@YAPAUansi_string@?1??type_case_Z@?$output_processor@DV?$string_output_adapter@D@__crt_stdio_output@@V?$positional_parameter_base@DV?$string_output_adapter@D@__crt_stdio_output@@@2@@0@AAE_NXZ@PAD@Z 1002415e f i libucrt:output.obj
 0001:0002316d       ??$peek_va_arg@PAUansi_string@?1??type_case_Z@?$output_processor@_WV?$stream_output_adapter@_W@__crt_stdio_output@@V?$positional_parameter_base@_WV?$stream_output_adapter@_W@__crt_stdio_output@@@2@@__crt_stdio_output@@AAE_NXZ@@__crt_stdio_output@@YAPAUansi_string@?1??type_case_Z@?$output_processor@_WV?$stream_output_adapter@_W@__crt_stdio_output@@V?$positional_parameter_base@_WV?$stream_output_adapter@_W@__crt_stdio_output@@@2@@0@AAE_NXZ@PAD@Z 1002416d f i libucrt:output.obj
 0001:0002317c       ??$peek_va_arg@PAUansi_string@?1??type_case_Z@?$output_processor@_WV?$string_output_adapter@_W@__crt_stdio_output@@V?$positional_parameter_base@_WV?$string_output_adapter@_W@__crt_stdio_output@@@2@@__crt_stdio_output@@AAE_NXZ@@__crt_stdio_output@@YAPAUansi_string@?1??type_case_Z@?$output_processor@_WV?$string_output_adapter@_W@__crt_stdio_output@@V?$positional_parameter_base@_WV?$string_output_adapter@_W@__crt_stdio_output@@@2@@0@AAE_NXZ@PAD@Z 1002417c f i libucrt:output.obj
 0001:0002318b       ??$peek_va_arg@PAX@__crt_stdio_output@@YAPAXPAD@Z 1002418b f i libucrt:output.obj
 0001:0002319a       ??$peek_va_arg@U_CRT_DOUBLE@@@__crt_stdio_output@@YA?AU_CRT_DOUBLE@@PAD@Z 1002419a f i libucrt:output.obj
 0001:000231ac       ??$peek_va_arg@_J@__crt_stdio_output@@YA_JPAD@Z 100241ac f i libucrt:output.obj
 0001:000231be       ??$peek_va_arg@_K@__crt_stdio_output@@YA_KPAD@Z 100241be f i libucrt:output.obj
 0001:000231d0       ??$peek_va_arg@_W@__crt_stdio_output@@YA_WPAD@Z 100241d0 f i libucrt:output.obj
 0001:000231e0       ??$puttc_nolock@ABDPAU_iobuf@@@?$__crt_char_traits@D@@SAHABD$$QAPAU_iobuf@@@Z 100241e0 f i libucrt:output.obj
 0001:00023200       ??$puttc_nolock@AB_WPAU_iobuf@@@?$__crt_char_traits@_W@@SAGAB_W$$QAPAU_iobuf@@@Z 10024200 f i libucrt:output.obj
 0001:00023220       ??$read_va_arg@C@__crt_stdio_output@@YACAAPAD@Z 10024220 f i libucrt:output.obj
 0001:00023236       ??$read_va_arg@E@__crt_stdio_output@@YAEAAPAD@Z 10024236 f i libucrt:output.obj
 0001:0002324c       ??$read_va_arg@F@__crt_stdio_output@@YAFAAPAD@Z 1002424c f i libucrt:output.obj
 0001:00023263       ??$read_va_arg@G@__crt_stdio_output@@YAGAAPAD@Z 10024263 f i libucrt:output.obj
 0001:0002327a       ??$read_va_arg@H@__crt_stdio_output@@YAHAAPAD@Z 1002427a f i libucrt:output.obj
 0001:00023290       ??$read_va_arg@I@__crt_stdio_output@@YAIAAPAD@Z 10024290 f i libucrt:output.obj
 0001:000232a6       ??$read_va_arg@PAD@__crt_stdio_output@@YAPADAAPAD@Z 100242a6 f i libucrt:output.obj
 0001:000232bc       ??$read_va_arg@PAUansi_string@?1??type_case_Z@?$output_processor@DV?$stream_output_adapter@D@__crt_stdio_output@@V?$format_validation_base@DV?$stream_output_adapter@D@__crt_stdio_output@@@2@@__crt_stdio_output@@AAE_NXZ@@__crt_stdio_output@@YAPAUansi_string@?1??type_case_Z@?$output_processor@DV?$stream_output_adapter@D@__crt_stdio_output@@V?$format_validation_base@DV?$stream_output_adapter@D@__crt_stdio_output@@@2@@0@AAE_NXZ@AAPAD@Z 100242bc f i libucrt:output.obj
 0001:000232d2       ??$read_va_arg@PAUansi_string@?1??type_case_Z@?$output_processor@DV?$stream_output_adapter@D@__crt_stdio_output@@V?$positional_parameter_base@DV?$stream_output_adapter@D@__crt_stdio_output@@@2@@__crt_stdio_output@@AAE_NXZ@@__crt_stdio_output@@YAPAUansi_string@?1??type_case_Z@?$output_processor@DV?$stream_output_adapter@D@__crt_stdio_output@@V?$positional_parameter_base@DV?$stream_output_adapter@D@__crt_stdio_output@@@2@@0@AAE_NXZ@AAPAD@Z 100242d2 f i libucrt:output.obj
 0001:000232e8       ??$read_va_arg@PAUansi_string@?1??type_case_Z@?$output_processor@DV?$stream_output_adapter@D@__crt_stdio_output@@V?$standard_base@DV?$stream_output_adapter@D@__crt_stdio_output@@@2@@__crt_stdio_output@@AAE_NXZ@@__crt_stdio_output@@YAPAUansi_string@?1??type_case_Z@?$output_processor@DV?$stream_output_adapter@D@__crt_stdio_output@@V?$standard_base@DV?$stream_output_adapter@D@__crt_stdio_output@@@2@@0@AAE_NXZ@AAPAD@Z 100242e8 f i libucrt:output.obj
 0001:000232fe       ??$read_va_arg@PAUansi_string@?1??type_case_Z@?$output_processor@DV?$string_output_adapter@D@__crt_stdio_output@@V?$format_validation_base@DV?$string_output_adapter@D@__crt_stdio_output@@@2@@__crt_stdio_output@@AAE_NXZ@@__crt_stdio_output@@YAPAUansi_string@?1??type_case_Z@?$output_processor@DV?$string_output_adapter@D@__crt_stdio_output@@V?$format_validation_base@DV?$string_output_adapter@D@__crt_stdio_output@@@2@@0@AAE_NXZ@AAPAD@Z 100242fe f i libucrt:output.obj
 0001:00023314       ??$read_va_arg@PAUansi_string@?1??type_case_Z@?$output_processor@DV?$string_output_adapter@D@__crt_stdio_output@@V?$positional_parameter_base@DV?$string_output_adapter@D@__crt_stdio_output@@@2@@__crt_stdio_output@@AAE_NXZ@@__crt_stdio_output@@YAPAUansi_string@?1??type_case_Z@?$output_processor@DV?$string_output_adapter@D@__crt_stdio_output@@V?$positional_parameter_base@DV?$string_output_adapter@D@__crt_stdio_output@@@2@@0@AAE_NXZ@AAPAD@Z 10024314 f i libucrt:output.obj
 0001:0002332a       ??$read_va_arg@PAUansi_string@?1??type_case_Z@?$output_processor@DV?$string_output_adapter@D@__crt_stdio_output@@V?$standard_base@DV?$string_output_adapter@D@__crt_stdio_output@@@2@@__crt_stdio_output@@AAE_NXZ@@__crt_stdio_output@@YAPAUansi_string@?1??type_case_Z@?$output_processor@DV?$string_output_adapter@D@__crt_stdio_output@@V?$standard_base@DV?$string_output_adapter@D@__crt_stdio_output@@@2@@0@AAE_NXZ@AAPAD@Z 1002432a f i libucrt:output.obj
 0001:00023340       ??$read_va_arg@PAUansi_string@?1??type_case_Z@?$output_processor@_WV?$stream_output_adapter@_W@__crt_stdio_output@@V?$format_validation_base@_WV?$stream_output_adapter@_W@__crt_stdio_output@@@2@@__crt_stdio_output@@AAE_NXZ@@__crt_stdio_output@@YAPAUansi_string@?1??type_case_Z@?$output_processor@_WV?$stream_output_adapter@_W@__crt_stdio_output@@V?$format_validation_base@_WV?$stream_output_adapter@_W@__crt_stdio_output@@@2@@0@AAE_NXZ@AAPAD@Z 10024340 f i libucrt:output.obj
 0001:00023356       ??$read_va_arg@PAUansi_string@?1??type_case_Z@?$output_processor@_WV?$stream_output_adapter@_W@__crt_stdio_output@@V?$positional_parameter_base@_WV?$stream_output_adapter@_W@__crt_stdio_output@@@2@@__crt_stdio_output@@AAE_NXZ@@__crt_stdio_output@@YAPAUansi_string@?1??type_case_Z@?$output_processor@_WV?$stream_output_adapter@_W@__crt_stdio_output@@V?$positional_parameter_base@_WV?$stream_output_adapter@_W@__crt_stdio_output@@@2@@0@AAE_NXZ@AAPAD@Z 10024356 f i libucrt:output.obj
 0001:0002336c       ??$read_va_arg@PAUansi_string@?1??type_case_Z@?$output_processor@_WV?$stream_output_adapter@_W@__crt_stdio_output@@V?$standard_base@_WV?$stream_output_adapter@_W@__crt_stdio_output@@@2@@__crt_stdio_output@@AAE_NXZ@@__crt_stdio_output@@YAPAUansi_string@?1??type_case_Z@?$output_processor@_WV?$stream_output_adapter@_W@__crt_stdio_output@@V?$standard_base@_WV?$stream_output_adapter@_W@__crt_stdio_output@@@2@@0@AAE_NXZ@AAPAD@Z 1002436c f i libucrt:output.obj
 0001:00023382       ??$read_va_arg@PAUansi_string@?1??type_case_Z@?$output_processor@_WV?$string_output_adapter@_W@__crt_stdio_output@@V?$format_validation_base@_WV?$string_output_adapter@_W@__crt_stdio_output@@@2@@__crt_stdio_output@@AAE_NXZ@@__crt_stdio_output@@YAPAUansi_string@?1??type_case_Z@?$output_processor@_WV?$string_output_adapter@_W@__crt_stdio_output@@V?$format_validation_base@_WV?$string_output_adapter@_W@__crt_stdio_output@@@2@@0@AAE_NXZ@AAPAD@Z 10024382 f i libucrt:output.obj
 0001:00023398       ??$read_va_arg@PAUansi_string@?1??type_case_Z@?$output_processor@_WV?$string_output_adapter@_W@__crt_stdio_output@@V?$positional_parameter_base@_WV?$string_output_adapter@_W@__crt_stdio_output@@@2@@__crt_stdio_output@@AAE_NXZ@@__crt_stdio_output@@YAPAUansi_string@?1??type_case_Z@?$output_processor@_WV?$string_output_adapter@_W@__crt_stdio_output@@V?$positional_parameter_base@_WV?$string_output_adapter@_W@__crt_stdio_output@@@2@@0@AAE_NXZ@AAPAD@Z 10024398 f i libucrt:output.obj
 0001:000233ae       ??$read_va_arg@PAUansi_string@?1??type_case_Z@?$output_processor@_WV?$string_output_adapter@_W@__crt_stdio_output@@V?$standard_base@_WV?$string_output_adapter@_W@__crt_stdio_output@@@2@@__crt_stdio_output@@AAE_NXZ@@__crt_stdio_output@@YAPAUansi_string@?1??type_case_Z@?$output_processor@_WV?$string_output_adapter@_W@__crt_stdio_output@@V?$standard_base@_WV?$string_output_adapter@_W@__crt_stdio_output@@@2@@0@AAE_NXZ@AAPAD@Z 100243ae f i libucrt:output.obj
 0001:000233c4       ??$read_va_arg@PAX@__crt_stdio_output@@YAPAXAAPAD@Z 100243c4 f i libucrt:output.obj
 0001:000233da       ??$read_va_arg@U_CRT_DOUBLE@@@__crt_stdio_output@@YA?AU_CRT_DOUBLE@@AAPAD@Z 100243da f i libucrt:output.obj
 0001:000233f4       ??$read_va_arg@_J@__crt_stdio_output@@YA_JAAPAD@Z 100243f4 f i libucrt:output.obj
 0001:0002340e       ??$read_va_arg@_K@__crt_stdio_output@@YA_KAAPAD@Z 1002440e f i libucrt:output.obj
 0001:00023428       ??$read_va_arg@_W@__crt_stdio_output@@YA_WAAPAD@Z 10024428 f i libucrt:output.obj
 0001:0002343f       ??$scratch_count@D@formatting_buffer@__crt_stdio_output@@QBEIXZ 1002443f f i libucrt:output.obj
 0001:00023444       ??$scratch_data@D@formatting_buffer@__crt_stdio_output@@QAEPADXZ 10024444 f i libucrt:output.obj
 0001:00023469       ??$tcstol@AAPBDPAPADH@?$__crt_char_traits@D@@SAJAAPBD$$QAPAPAD$$QAH@Z 10024469 f i libucrt:output.obj
 0001:0002348e       ??$tcstol@AAPB_WPAPA_WH@?$__crt_char_traits@_W@@SAJAAPB_W$$QAPAPA_W$$QAH@Z 1002448e f i libucrt:output.obj
 0001:000234b3       ??$tcstol@PBDPAPADH@?$__crt_char_traits@D@@SAJ$$QAPBD$$QAPAPAD$$QAH@Z 100244b3 f i libucrt:output.obj
 0001:000234d8       ??$tcstol@PB_WPAPA_WH@?$__crt_char_traits@_W@@SAJ$$QAPB_W$$QAPAPA_W$$QAH@Z 100244d8 f i libucrt:output.obj
 0001:000234fd       ??$type_case_integer_parse_into_buffer@I@?$output_processor@DV?$stream_output_adapter@D@__crt_stdio_output@@V?$format_validation_base@DV?$stream_output_adapter@D@__crt_stdio_output@@@2@@__crt_stdio_output@@AAEXII_N@Z 100244fd f i libucrt:output.obj
 0001:0002358f       ??$type_case_integer_parse_into_buffer@I@?$output_processor@DV?$stream_output_adapter@D@__crt_stdio_output@@V?$positional_parameter_base@DV?$stream_output_adapter@D@__crt_stdio_output@@@2@@__crt_stdio_output@@AAEXII_N@Z 1002458f f i libucrt:output.obj
 0001:00023621       ??$type_case_integer_parse_into_buffer@I@?$output_processor@DV?$stream_output_adapter@D@__crt_stdio_output@@V?$standard_base@DV?$stream_output_adapter@D@__crt_stdio_output@@@2@@__crt_stdio_output@@AAEXII_N@Z 10024621 f i libucrt:output.obj
 0001:000236b3       ??$type_case_integer_parse_into_buffer@I@?$output_processor@DV?$string_output_adapter@D@__crt_stdio_output@@V?$format_validation_base@DV?$string_output_adapter@D@__crt_stdio_output@@@2@@__crt_stdio_output@@AAEXII_N@Z 100246b3 f i libucrt:output.obj
 0001:00023745       ??$type_case_integer_parse_into_buffer@I@?$output_processor@DV?$string_output_adapter@D@__crt_stdio_output@@V?$positional_parameter_base@DV?$string_output_adapter@D@__crt_stdio_output@@@2@@__crt_stdio_output@@AAEXII_N@Z 10024745 f i libucrt:output.obj
 0001:000237d7       ??$type_case_integer_parse_into_buffer@I@?$output_processor@DV?$string_output_adapter@D@__crt_stdio_output@@V?$standard_base@DV?$string_output_adapter@D@__crt_stdio_output@@@2@@__crt_stdio_output@@AAEXII_N@Z 100247d7 f i libucrt:output.obj
 0001:00023869       ??$type_case_integer_parse_into_buffer@I@?$output_processor@_WV?$stream_output_adapter@_W@__crt_stdio_output@@V?$format_validation_base@_WV?$stream_output_adapter@_W@__crt_stdio_output@@@2@@__crt_stdio_output@@AAEXII_N@Z 10024869 f i libucrt:output.obj
 0001:000238fb       ??$type_case_integer_parse_into_buffer@I@?$output_processor@_WV?$stream_output_adapter@_W@__crt_stdio_output@@V?$positional_parameter_base@_WV?$stream_output_adapter@_W@__crt_stdio_output@@@2@@__crt_stdio_output@@AAEXII_N@Z 100248fb f i libucrt:output.obj
 0001:0002398d       ??$type_case_integer_parse_into_buffer@I@?$output_processor@_WV?$stream_output_adapter@_W@__crt_stdio_output@@V?$standard_base@_WV?$stream_output_adapter@_W@__crt_stdio_output@@@2@@__crt_stdio_output@@AAEXII_N@Z 1002498d f i libucrt:output.obj
 0001:00023a1f       ??$type_case_integer_parse_into_buffer@I@?$output_processor@_WV?$string_output_adapter@_W@__crt_stdio_output@@V?$format_validation_base@_WV?$string_output_adapter@_W@__crt_stdio_output@@@2@@__crt_stdio_output@@AAEXII_N@Z 10024a1f f i libucrt:output.obj
 0001:00023ab1       ??$type_case_integer_parse_into_buffer@I@?$output_processor@_WV?$string_output_adapter@_W@__crt_stdio_output@@V?$positional_parameter_base@_WV?$string_output_adapter@_W@__crt_stdio_output@@@2@@__crt_stdio_output@@AAEXII_N@Z 10024ab1 f i libucrt:output.obj
 0001:00023b43       ??$type_case_integer_parse_into_buffer@I@?$output_processor@_WV?$string_output_adapter@_W@__crt_stdio_output@@V?$standard_base@_WV?$string_output_adapter@_W@__crt_stdio_output@@@2@@__crt_stdio_output@@AAEXII_N@Z 10024b43 f i libucrt:output.obj
 0001:00023bd5       ??$type_case_integer_parse_into_buffer@_K@?$output_processor@DV?$stream_output_adapter@D@__crt_stdio_output@@V?$format_validation_base@DV?$stream_output_adapter@D@__crt_stdio_output@@@2@@__crt_stdio_output@@AAEX_KI_N@Z 10024bd5 f i libucrt:output.obj
 0001:00023c7f       ??$type_case_integer_parse_into_buffer@_K@?$output_processor@DV?$stream_output_adapter@D@__crt_stdio_output@@V?$positional_parameter_base@DV?$stream_output_adapter@D@__crt_stdio_output@@@2@@__crt_stdio_output@@AAEX_KI_N@Z 10024c7f f i libucrt:output.obj
 0001:00023d29       ??$type_case_integer_parse_into_buffer@_K@?$output_processor@DV?$stream_output_adapter@D@__crt_stdio_output@@V?$standard_base@DV?$stream_output_adapter@D@__crt_stdio_output@@@2@@__crt_stdio_output@@AAEX_KI_N@Z 10024d29 f i libucrt:output.obj
 0001:00023dd3       ??$type_case_integer_parse_into_buffer@_K@?$output_processor@DV?$string_output_adapter@D@__crt_stdio_output@@V?$format_validation_base@DV?$string_output_adapter@D@__crt_stdio_output@@@2@@__crt_stdio_output@@AAEX_KI_N@Z 10024dd3 f i libucrt:output.obj
 0001:00023e7d       ??$type_case_integer_parse_into_buffer@_K@?$output_processor@DV?$string_output_adapter@D@__crt_stdio_output@@V?$positional_parameter_base@DV?$string_output_adapter@D@__crt_stdio_output@@@2@@__crt_stdio_output@@AAEX_KI_N@Z 10024e7d f i libucrt:output.obj
 0001:00023f27       ??$type_case_integer_parse_into_buffer@_K@?$output_processor@DV?$string_output_adapter@D@__crt_stdio_output@@V?$standard_base@DV?$string_output_adapter@D@__crt_stdio_output@@@2@@__crt_stdio_output@@AAEX_KI_N@Z 10024f27 f i libucrt:output.obj
 0001:00023fd1       ??$type_case_integer_parse_into_buffer@_K@?$output_processor@_WV?$stream_output_adapter@_W@__crt_stdio_output@@V?$format_validation_base@_WV?$stream_output_adapter@_W@__crt_stdio_output@@@2@@__crt_stdio_output@@AAEX_KI_N@Z 10024fd1 f i libucrt:output.obj
 0001:0002407b       ??$type_case_integer_parse_into_buffer@_K@?$output_processor@_WV?$stream_output_adapter@_W@__crt_stdio_output@@V?$positional_parameter_base@_WV?$stream_output_adapter@_W@__crt_stdio_output@@@2@@__crt_stdio_output@@AAEX_KI_N@Z 1002507b f i libucrt:output.obj
 0001:00024125       ??$type_case_integer_parse_into_buffer@_K@?$output_processor@_WV?$stream_output_adapter@_W@__crt_stdio_output@@V?$standard_base@_WV?$stream_output_adapter@_W@__crt_stdio_output@@@2@@__crt_stdio_output@@AAEX_KI_N@Z 10025125 f i libucrt:output.obj
 0001:000241cf       ??$type_case_integer_parse_into_buffer@_K@?$output_processor@_WV?$string_output_adapter@_W@__crt_stdio_output@@V?$format_validation_base@_WV?$string_output_adapter@_W@__crt_stdio_output@@@2@@__crt_stdio_output@@AAEX_KI_N@Z 100251cf f i libucrt:output.obj
 0001:00024279       ??$type_case_integer_parse_into_buffer@_K@?$output_processor@_WV?$string_output_adapter@_W@__crt_stdio_output@@V?$positional_parameter_base@_WV?$string_output_adapter@_W@__crt_stdio_output@@@2@@__crt_stdio_output@@AAEX_KI_N@Z 10025279 f i libucrt:output.obj
 0001:00024323       ??$type_case_integer_parse_into_buffer@_K@?$output_processor@_WV?$string_output_adapter@_W@__crt_stdio_output@@V?$standard_base@_WV?$string_output_adapter@_W@__crt_stdio_output@@@2@@__crt_stdio_output@@AAEX_KI_N@Z 10025323 f i libucrt:output.obj
 0001:000243cd       ??$write_multiple_characters@V?$stream_output_adapter@D@__crt_stdio_output@@D@__crt_stdio_output@@YAXABV?$stream_output_adapter@D@0@DHQAH@Z 100253cd f i libucrt:output.obj
 0001:00024404       ??$write_multiple_characters@V?$stream_output_adapter@_W@__crt_stdio_output@@D@__crt_stdio_output@@YAXABV?$stream_output_adapter@_W@0@DHQAH@Z 10025404 f i libucrt:output.obj
 0001:00024441       ??$write_multiple_characters@V?$string_output_adapter@D@__crt_stdio_output@@D@__crt_stdio_output@@YAXABV?$string_output_adapter@D@0@DHQAH@Z 10025441 f i libucrt:output.obj
 0001:00024478       ??$write_multiple_characters@V?$string_output_adapter@_W@__crt_stdio_output@@D@__crt_stdio_output@@YAXABV?$string_output_adapter@_W@0@DHQAH@Z 10025478 f i libucrt:output.obj
 0001:000246e9       ??0?$common_data@D@__crt_stdio_output@@IAE@XZ 100256e9 f i libucrt:output.obj
 0001:00024741       ??0?$common_data@_W@__crt_stdio_output@@IAE@XZ 10025741 f i libucrt:output.obj
 0001:000247a0       ??0?$output_adapter_data@DV?$stream_output_adapter@D@__crt_stdio_output@@@__crt_stdio_output@@IAE@ABV?$stream_output_adapter@D@1@_KQBDQAU__crt_locale_pointers@@QAD@Z 100257a0 f i libucrt:output.obj
 0001:000247eb       ??0?$output_adapter_data@DV?$string_output_adapter@D@__crt_stdio_output@@@__crt_stdio_output@@IAE@ABV?$string_output_adapter@D@1@_KQBDQAU__crt_locale_pointers@@QAD@Z 100257eb f i libucrt:output.obj
 0001:00024836       ??0?$output_adapter_data@_WV?$stream_output_adapter@_W@__crt_stdio_output@@@__crt_stdio_output@@IAE@ABV?$stream_output_adapter@_W@1@_KQB_WQAU__crt_locale_pointers@@QAD@Z 10025836 f i libucrt:output.obj
 0001:00024881       ??0?$output_adapter_data@_WV?$string_output_adapter@_W@__crt_stdio_output@@@__crt_stdio_output@@IAE@ABV?$string_output_adapter@_W@1@_KQB_WQAU__crt_locale_pointers@@QAD@Z 10025881 f i libucrt:output.obj
 0001:000248cc       ??0?$output_processor@DV?$stream_output_adapter@D@__crt_stdio_output@@V?$format_validation_base@DV?$stream_output_adapter@D@__crt_stdio_output@@@2@@__crt_stdio_output@@QAE@ABV?$stream_output_adapter@D@1@_KQBDQAU__crt_locale_pointers@@QAD@Z 100258cc f i libucrt:output.obj
 0001:0002490e       ??0?$output_processor@DV?$stream_output_adapter@D@__crt_stdio_output@@V?$positional_parameter_base@DV?$stream_output_adapter@D@__crt_stdio_output@@@2@@__crt_stdio_output@@QAE@ABV?$stream_output_adapter@D@1@_KQBDQAU__crt_locale_pointers@@QAD@Z 1002590e f i libucrt:output.obj
 0001:00024948       ??0?$output_processor@DV?$stream_output_adapter@D@__crt_stdio_output@@V?$standard_base@DV?$stream_output_adapter@D@__crt_stdio_output@@@2@@__crt_stdio_output@@QAE@ABV?$stream_output_adapter@D@1@_KQBDQAU__crt_locale_pointers@@QAD@Z 10025948 f i libucrt:output.obj
 0001:0002498a       ??0?$output_processor@DV?$string_output_adapter@D@__crt_stdio_output@@V?$format_validation_base@DV?$string_output_adapter@D@__crt_stdio_output@@@2@@__crt_stdio_output@@QAE@ABV?$string_output_adapter@D@1@_KQBDQAU__crt_locale_pointers@@QAD@Z 1002598a f i libucrt:output.obj
 0001:000249cc       ??0?$output_processor@DV?$string_output_adapter@D@__crt_stdio_output@@V?$positional_parameter_base@DV?$string_output_adapter@D@__crt_stdio_output@@@2@@__crt_stdio_output@@QAE@ABV?$string_output_adapter@D@1@_KQBDQAU__crt_locale_pointers@@QAD@Z 100259cc f i libucrt:output.obj
 0001:00024a06       ??0?$output_processor@DV?$string_output_adapter@D@__crt_stdio_output@@V?$standard_base@DV?$string_output_adapter@D@__crt_stdio_output@@@2@@__crt_stdio_output@@QAE@ABV?$string_output_adapter@D@1@_KQBDQAU__crt_locale_pointers@@QAD@Z 10025a06 f i libucrt:output.obj
 0001:00024a48       ??0?$output_processor@_WV?$stream_output_adapter@_W@__crt_stdio_output@@V?$format_validation_base@_WV?$stream_output_adapter@_W@__crt_stdio_output@@@2@@__crt_stdio_output@@QAE@ABV?$stream_output_adapter@_W@1@_KQB_WQAU__crt_locale_pointers@@QAD@Z 10025a48 f i libucrt:output.obj
 0001:00024a8a       ??0?$output_processor@_WV?$stream_output_adapter@_W@__crt_stdio_output@@V?$positional_parameter_base@_WV?$stream_output_adapter@_W@__crt_stdio_output@@@2@@__crt_stdio_output@@QAE@ABV?$stream_output_adapter@_W@1@_KQB_WQAU__crt_locale_pointers@@QAD@Z 10025a8a f i libucrt:output.obj
 0001:00024ac4       ??0?$output_processor@_WV?$stream_output_adapter@_W@__crt_stdio_output@@V?$standard_base@_WV?$stream_output_adapter@_W@__crt_stdio_output@@@2@@__crt_stdio_output@@QAE@ABV?$stream_output_adapter@_W@1@_KQB_WQAU__crt_locale_pointers@@QAD@Z 10025ac4 f i libucrt:output.obj
 0001:00024b06       ??0?$output_processor@_WV?$string_output_adapter@_W@__crt_stdio_output@@V?$format_validation_base@_WV?$string_output_adapter@_W@__crt_stdio_output@@@2@@__crt_stdio_output@@QAE@ABV?$string_output_adapter@_W@1@_KQB_WQAU__crt_locale_pointers@@QAD@Z 10025b06 f i libucrt:output.obj
 0001:00024b48       ??0?$output_processor@_WV?$string_output_adapter@_W@__crt_stdio_output@@V?$positional_parameter_base@_WV?$string_output_adapter@_W@__crt_stdio_output@@@2@@__crt_stdio_output@@QAE@ABV?$string_output_adapter@_W@1@_KQB_WQAU__crt_locale_pointers@@QAD@Z 10025b48 f i libucrt:output.obj
 0001:00024b82       ??0?$output_processor@_WV?$string_output_adapter@_W@__crt_stdio_output@@V?$standard_base@_WV?$string_output_adapter@_W@__crt_stdio_output@@@2@@__crt_stdio_output@@QAE@ABV?$string_output_adapter@_W@1@_KQB_WQAU__crt_locale_pointers@@QAD@Z 10025b82 f i libucrt:output.obj
 0001:00024bc4       ??0?$stream_output_adapter@D@__crt_stdio_output@@QAE@QAU_iobuf@@@Z 10025bc4 f i libucrt:output.obj
 0001:00024bd8       ??0?$stream_output_adapter@_W@__crt_stdio_output@@QAE@QAU_iobuf@@@Z 10025bd8 f i libucrt:output.obj
 0001:00024bec       ??0?$string_output_adapter@D@__crt_stdio_output@@QAE@QAU?$string_output_adapter_context@D@1@@Z 10025bec f i libucrt:output.obj
 0001:00024c00       ??0?$string_output_adapter@_W@__crt_stdio_output@@QAE@QAU?$string_output_adapter_context@_W@1@@Z 10025c00 f i libucrt:output.obj
 0001:00024c14       ??0_LocaleUpdate@@QAE@QAU__crt_locale_pointers@@@Z 10025c14 f i libucrt:output.obj
 0001:00024cb7       ??0__acrt_stdio_temporary_buffering_guard@@QAE@QAU_iobuf@@@Z 10025cb7 f i libucrt:output.obj
 0001:00024cdc       ??0__crt_errno_guard@@QAE@QAH@Z 10025cdc f i libucrt:output.obj
 0001:00024cfa       ??0formatting_buffer@__crt_stdio_output@@QAE@XZ 10025cfa f i libucrt:output.obj
 0001:00024d0f       ??1?$common_data@D@__crt_stdio_output@@QAE@XZ 10025d0f f i libucrt:output.obj
 0001:00024d19       ??1?$common_data@_W@__crt_stdio_output@@QAE@XZ 10025d19 f i libucrt:output.obj
 0001:00024d23       ??1?$format_validation_base@DV?$stream_output_adapter@D@__crt_stdio_output@@@__crt_stdio_output@@QAE@XZ 10025d23 f i libucrt:output.obj
 0001:00024d2d       ??1?$format_validation_base@DV?$string_output_adapter@D@__crt_stdio_output@@@__crt_stdio_output@@QAE@XZ 10025d2d f i libucrt:output.obj
 0001:00024d37       ??1?$format_validation_base@_WV?$stream_output_adapter@_W@__crt_stdio_output@@@__crt_stdio_output@@QAE@XZ 10025d37 f i libucrt:output.obj
 0001:00024d41       ??1?$format_validation_base@_WV?$string_output_adapter@_W@__crt_stdio_output@@@__crt_stdio_output@@QAE@XZ 10025d41 f i libucrt:output.obj
 0001:00024d4b       ??1?$output_adapter_data@DV?$stream_output_adapter@D@__crt_stdio_output@@@__crt_stdio_output@@QAE@XZ 10025d4b f i libucrt:output.obj
 0001:00024d55       ??1?$output_adapter_data@DV?$string_output_adapter@D@__crt_stdio_output@@@__crt_stdio_output@@QAE@XZ 10025d55 f i libucrt:output.obj
 0001:00024d5f       ??1?$output_adapter_data@_WV?$stream_output_adapter@_W@__crt_stdio_output@@@__crt_stdio_output@@QAE@XZ 10025d5f f i libucrt:output.obj
 0001:00024d69       ??1?$output_adapter_data@_WV?$string_output_adapter@_W@__crt_stdio_output@@@__crt_stdio_output@@QAE@XZ 10025d69 f i libucrt:output.obj
 0001:00024d73       ??1?$output_processor@DV?$stream_output_adapter@D@__crt_stdio_output@@V?$format_validation_base@DV?$stream_output_adapter@D@__crt_stdio_output@@@2@@__crt_stdio_output@@QAE@XZ 10025d73 f i libucrt:output.obj
 0001:00024d7d       ??1?$output_processor@DV?$stream_output_adapter@D@__crt_stdio_output@@V?$positional_parameter_base@DV?$stream_output_adapter@D@__crt_stdio_output@@@2@@__crt_stdio_output@@QAE@XZ 10025d7d f i libucrt:output.obj
 0001:00024d87       ??1?$output_processor@DV?$stream_output_adapter@D@__crt_stdio_output@@V?$standard_base@DV?$stream_output_adapter@D@__crt_stdio_output@@@2@@__crt_stdio_output@@QAE@XZ 10025d87 f i libucrt:output.obj
 0001:00024d91       ??1?$output_processor@DV?$string_output_adapter@D@__crt_stdio_output@@V?$format_validation_base@DV?$string_output_adapter@D@__crt_stdio_output@@@2@@__crt_stdio_output@@QAE@XZ 10025d91 f i libucrt:output.obj
 0001:00024d9b       ??1?$output_processor@DV?$string_output_adapter@D@__crt_stdio_output@@V?$positional_parameter_base@DV?$string_output_adapter@D@__crt_stdio_output@@@2@@__crt_stdio_output@@QAE@XZ 10025d9b f i libucrt:output.obj
 0001:00024da5       ??1?$output_processor@DV?$string_output_adapter@D@__crt_stdio_output@@V?$standard_base@DV?$string_output_adapter@D@__crt_stdio_output@@@2@@__crt_stdio_output@@QAE@XZ 10025da5 f i libucrt:output.obj
 0001:00024daf       ??1?$output_processor@_WV?$stream_output_adapter@_W@__crt_stdio_output@@V?$format_validation_base@_WV?$stream_output_adapter@_W@__crt_stdio_output@@@2@@__crt_stdio_output@@QAE@XZ 10025daf f i libucrt:output.obj
 0001:00024db9       ??1?$output_processor@_WV?$stream_output_adapter@_W@__crt_stdio_output@@V?$positional_parameter_base@_WV?$stream_output_adapter@_W@__crt_stdio_output@@@2@@__crt_stdio_output@@QAE@XZ 10025db9 f i libucrt:output.obj
 0001:00024dc3       ??1?$output_processor@_WV?$stream_output_adapter@_W@__crt_stdio_output@@V?$standard_base@_WV?$stream_output_adapter@_W@__crt_stdio_output@@@2@@__crt_stdio_output@@QAE@XZ 10025dc3 f i libucrt:output.obj
 0001:00024dcd       ??1?$output_processor@_WV?$string_output_adapter@_W@__crt_stdio_output@@V?$format_validation_base@_WV?$string_output_adapter@_W@__crt_stdio_output@@@2@@__crt_stdio_output@@QAE@XZ 10025dcd f i libucrt:output.obj
 0001:00024dd7       ??1?$output_processor@_WV?$string_output_adapter@_W@__crt_stdio_output@@V?$positional_parameter_base@_WV?$string_output_adapter@_W@__crt_stdio_output@@@2@@__crt_stdio_output@@QAE@XZ 10025dd7 f i libucrt:output.obj
 0001:00024de1       ??1?$output_processor@_WV?$string_output_adapter@_W@__crt_stdio_output@@V?$standard_base@_WV?$string_output_adapter@_W@__crt_stdio_output@@@2@@__crt_stdio_output@@QAE@XZ 10025de1 f i libucrt:output.obj
 0001:00024deb       ??1?$positional_parameter_base@DV?$stream_output_adapter@D@__crt_stdio_output@@@__crt_stdio_output@@QAE@XZ 10025deb f i libucrt:output.obj
 0001:00024df5       ??1?$positional_parameter_base@DV?$string_output_adapter@D@__crt_stdio_output@@@__crt_stdio_output@@QAE@XZ 10025df5 f i libucrt:output.obj
 0001:00024dff       ??1?$positional_parameter_base@_WV?$stream_output_adapter@_W@__crt_stdio_output@@@__crt_stdio_output@@QAE@XZ 10025dff f i libucrt:output.obj
 0001:00024e09       ??1?$positional_parameter_base@_WV?$string_output_adapter@_W@__crt_stdio_output@@@__crt_stdio_output@@QAE@XZ 10025e09 f i libucrt:output.obj
 0001:00024e13       ??1?$standard_base@DV?$stream_output_adapter@D@__crt_stdio_output@@@__crt_stdio_output@@QAE@XZ 10025e13 f i libucrt:output.obj
 0001:00024e1d       ??1?$standard_base@DV?$string_output_adapter@D@__crt_stdio_output@@@__crt_stdio_output@@QAE@XZ 10025e1d f i libucrt:output.obj
 0001:00024e27       ??1?$standard_base@_WV?$stream_output_adapter@_W@__crt_stdio_output@@@__crt_stdio_output@@QAE@XZ 10025e27 f i libucrt:output.obj
 0001:00024e31       ??1?$standard_base@_WV?$string_output_adapter@_W@__crt_stdio_output@@@__crt_stdio_output@@QAE@XZ 10025e31 f i libucrt:output.obj
 0001:00024e3b       ??1_LocaleUpdate@@QAE@XZ   10025e3b f i libucrt:output.obj
 0001:00024e4f       ??1__acrt_stdio_temporary_buffering_guard@@QAE@XZ 10025e4f f i libucrt:output.obj
 0001:00024e61       ??1__crt_errno_guard@@QAE@XZ 10025e61 f i libucrt:output.obj
 0001:00024e76       ??1formatting_buffer@__crt_stdio_output@@QAE@XZ 10025e76 f i libucrt:output.obj
 0001:00024e96       ??4?$__crt_unique_heap_ptr@DU__crt_internal_free_policy@@@@QAEAAV0@$$QAV0@@Z 10025e96 f i libucrt:output.obj
 0001:00025579       ?GetLocaleT@_LocaleUpdate@@QAEPAU__crt_locale_pointers@@XZ 10026579 f i libucrt:output.obj
 0001:0002557d       ?__crt_interlocked_read_32@@YAHPDH@Z 1002657d f i libucrt:output.obj
 0001:0002558c       ?adjust_hexit@?$output_processor@DV?$stream_output_adapter@D@__crt_stdio_output@@V?$format_validation_base@DV?$stream_output_adapter@D@__crt_stdio_output@@@2@@__crt_stdio_output@@CADH_N@Z 1002658c f i libucrt:output.obj
 0001:000255b1       ?adjust_hexit@?$output_processor@DV?$stream_output_adapter@D@__crt_stdio_output@@V?$positional_parameter_base@DV?$stream_output_adapter@D@__crt_stdio_output@@@2@@__crt_stdio_output@@CADH_N@Z 100265b1 f i libucrt:output.obj
 0001:000255d6       ?adjust_hexit@?$output_processor@DV?$stream_output_adapter@D@__crt_stdio_output@@V?$standard_base@DV?$stream_output_adapter@D@__crt_stdio_output@@@2@@__crt_stdio_output@@CADH_N@Z 100265d6 f i libucrt:output.obj
 0001:000255fb       ?adjust_hexit@?$output_processor@DV?$string_output_adapter@D@__crt_stdio_output@@V?$format_validation_base@DV?$string_output_adapter@D@__crt_stdio_output@@@2@@__crt_stdio_output@@CADH_N@Z 100265fb f i libucrt:output.obj
 0001:00025620       ?adjust_hexit@?$output_processor@DV?$string_output_adapter@D@__crt_stdio_output@@V?$positional_parameter_base@DV?$string_output_adapter@D@__crt_stdio_output@@@2@@__crt_stdio_output@@CADH_N@Z 10026620 f i libucrt:output.obj
 0001:00025645       ?adjust_hexit@?$output_processor@DV?$string_output_adapter@D@__crt_stdio_output@@V?$standard_base@DV?$string_output_adapter@D@__crt_stdio_output@@@2@@__crt_stdio_output@@CADH_N@Z 10026645 f i libucrt:output.obj
 0001:0002566a       ?adjust_hexit@?$output_processor@_WV?$stream_output_adapter@_W@__crt_stdio_output@@V?$format_validation_base@_WV?$stream_output_adapter@_W@__crt_stdio_output@@@2@@__crt_stdio_output@@CADH_N@Z 1002666a f i libucrt:output.obj
 0001:0002568f       ?adjust_hexit@?$output_processor@_WV?$stream_output_adapter@_W@__crt_stdio_output@@V?$positional_parameter_base@_WV?$stream_output_adapter@_W@__crt_stdio_output@@@2@@__crt_stdio_output@@CADH_N@Z 1002668f f i libucrt:output.obj
 0001:000256b4       ?adjust_hexit@?$output_processor@_WV?$stream_output_adapter@_W@__crt_stdio_output@@V?$standard_base@_WV?$stream_output_adapter@_W@__crt_stdio_output@@@2@@__crt_stdio_output@@CADH_N@Z 100266b4 f i libucrt:output.obj
 0001:000256d9       ?adjust_hexit@?$output_processor@_WV?$string_output_adapter@_W@__crt_stdio_output@@V?$format_validation_base@_WV?$string_output_adapter@_W@__crt_stdio_output@@@2@@__crt_stdio_output@@CADH_N@Z 100266d9 f i libucrt:output.obj
 0001:000256fe       ?adjust_hexit@?$output_processor@_WV?$string_output_adapter@_W@__crt_stdio_output@@V?$positional_parameter_base@_WV?$string_output_adapter@_W@__crt_stdio_output@@@2@@__crt_stdio_output@@CADH_N@Z 100266fe f i libucrt:output.obj
 0001:00025723       ?adjust_hexit@?$output_processor@_WV?$string_output_adapter@_W@__crt_stdio_output@@V?$standard_base@_WV?$string_output_adapter@_W@__crt_stdio_output@@@2@@__crt_stdio_output@@CADH_N@Z 10026723 f i libucrt:output.obj
 0001:00025748       ?advance_to_next_pass@?$positional_parameter_base@DV?$stream_output_adapter@D@__crt_stdio_output@@@__crt_stdio_output@@IAE_NXZ 10026748 f i libucrt:output.obj
 0001:000257a7       ?advance_to_next_pass@?$positional_parameter_base@DV?$string_output_adapter@D@__crt_stdio_output@@@__crt_stdio_output@@IAE_NXZ 100267a7 f i libucrt:output.obj
 0001:00025806       ?advance_to_next_pass@?$positional_parameter_base@_WV?$stream_output_adapter@_W@__crt_stdio_output@@@__crt_stdio_output@@IAE_NXZ 10026806 f i libucrt:output.obj
 0001:00025865       ?advance_to_next_pass@?$positional_parameter_base@_WV?$string_output_adapter@_W@__crt_stdio_output@@@__crt_stdio_output@@IAE_NXZ 10026865 f i libucrt:output.obj
 0001:000258c4       ?advance_to_next_pass@?$standard_base@DV?$stream_output_adapter@D@__crt_stdio_output@@@__crt_stdio_output@@IAE_NXZ 100268c4 f i libucrt:output.obj
 0001:000258db       ?advance_to_next_pass@?$standard_base@DV?$string_output_adapter@D@__crt_stdio_output@@@__crt_stdio_output@@IAE_NXZ 100268db f i libucrt:output.obj
 0001:000258f2       ?advance_to_next_pass@?$standard_base@_WV?$stream_output_adapter@_W@__crt_stdio_output@@@__crt_stdio_output@@IAE_NXZ 100268f2 f i libucrt:output.obj
 0001:00025909       ?advance_to_next_pass@?$standard_base@_WV?$string_output_adapter@_W@__crt_stdio_output@@@__crt_stdio_output@@IAE_NXZ 10026909 f i libucrt:output.obj
 0001:00025920       ?crop_zeroes@__crt_stdio_output@@YAXPADQAU__crt_locale_pointers@@@Z 10026920 f i libucrt:output.obj
 0001:0002598c       ?find_next_state@?$output_processor@DV?$stream_output_adapter@D@__crt_stdio_output@@V?$format_validation_base@DV?$stream_output_adapter@D@__crt_stdio_output@@@2@@__crt_stdio_output@@ABE?AW4state@2@DW432@@Z 1002698c f i libucrt:output.obj
 0001:000259ce       ?find_next_state@?$output_processor@DV?$stream_output_adapter@D@__crt_stdio_output@@V?$positional_parameter_base@DV?$stream_output_adapter@D@__crt_stdio_output@@@2@@__crt_stdio_output@@ABE?AW4state@2@DW432@@Z 100269ce f i libucrt:output.obj
 0001:00025a10       ?find_next_state@?$output_processor@DV?$stream_output_adapter@D@__crt_stdio_output@@V?$standard_base@DV?$stream_output_adapter@D@__crt_stdio_output@@@2@@__crt_stdio_output@@ABE?AW4state@2@DW432@@Z 10026a10 f i libucrt:output.obj
 0001:00025a4e       ?find_next_state@?$output_processor@DV?$string_output_adapter@D@__crt_stdio_output@@V?$format_validation_base@DV?$string_output_adapter@D@__crt_stdio_output@@@2@@__crt_stdio_output@@ABE?AW4state@2@DW432@@Z 10026a4e f i libucrt:output.obj
 0001:00025a90       ?find_next_state@?$output_processor@DV?$string_output_adapter@D@__crt_stdio_output@@V?$positional_parameter_base@DV?$string_output_adapter@D@__crt_stdio_output@@@2@@__crt_stdio_output@@ABE?AW4state@2@DW432@@Z 10026a90 f i libucrt:output.obj
 0001:00025ad2       ?find_next_state@?$output_processor@DV?$string_output_adapter@D@__crt_stdio_output@@V?$standard_base@DV?$string_output_adapter@D@__crt_stdio_output@@@2@@__crt_stdio_output@@ABE?AW4state@2@DW432@@Z 10026ad2 f i libucrt:output.obj
 0001:00025b10       ?find_next_state@?$output_processor@_WV?$stream_output_adapter@_W@__crt_stdio_output@@V?$format_validation_base@_WV?$stream_output_adapter@_W@__crt_stdio_output@@@2@@__crt_stdio_output@@ABE?AW4state@2@_WW432@@Z 10026b10 f i libucrt:output.obj
 0001:00025b54       ?find_next_state@?$output_processor@_WV?$stream_output_adapter@_W@__crt_stdio_output@@V?$positional_parameter_base@_WV?$stream_output_adapter@_W@__crt_stdio_output@@@2@@__crt_stdio_output@@ABE?AW4state@2@_WW432@@Z 10026b54 f i libucrt:output.obj
 0001:00025b98       ?find_next_state@?$output_processor@_WV?$stream_output_adapter@_W@__crt_stdio_output@@V?$standard_base@_WV?$stream_output_adapter@_W@__crt_stdio_output@@@2@@__crt_stdio_output@@ABE?AW4state@2@_WW432@@Z 10026b98 f i libucrt:output.obj
 0001:00025bd9       ?find_next_state@?$output_processor@_WV?$string_output_adapter@_W@__crt_stdio_output@@V?$format_validation_base@_WV?$string_output_adapter@_W@__crt_stdio_output@@@2@@__crt_stdio_output@@ABE?AW4state@2@_WW432@@Z 10026bd9 f i libucrt:output.obj
 0001:00025c1d       ?find_next_state@?$output_processor@_WV?$string_output_adapter@_W@__crt_stdio_output@@V?$positional_parameter_base@_WV?$string_output_adapter@_W@__crt_stdio_output@@@2@@__crt_stdio_output@@ABE?AW4state@2@_WW432@@Z 10026c1d f i libucrt:output.obj
 0001:00025c61       ?find_next_state@?$output_processor@_WV?$string_output_adapter@_W@__crt_stdio_output@@V?$standard_base@_WV?$string_output_adapter@_W@__crt_stdio_output@@@2@@__crt_stdio_output@@ABE?AW4state@2@_WW432@@Z 10026c61 f i libucrt:output.obj
 0001:00025ca2       ?force_decimal_point@__crt_stdio_output@@YAXPADQAU__crt_locale_pointers@@@Z 10026ca2 f i libucrt:output.obj
 0001:00025d15       ?get_flags@__crt_stdio_stream@@QBEJXZ 10026d15 f i libucrt:output.obj
 0001:00025d1b       ?get_parameter_type@?$positional_parameter_base@DV?$stream_output_adapter@D@__crt_stdio_output@@@__crt_stdio_output@@CA?AW4parameter_type@12@F@Z 10026d1b f i libucrt:output.obj
 0001:00025d1f       ?get_parameter_type@?$positional_parameter_base@DV?$stream_output_adapter@D@__crt_stdio_output@@@__crt_stdio_output@@CA?AW4parameter_type@12@G@Z 10026d1f f i libucrt:output.obj
 0001:00025d23       ?get_parameter_type@?$positional_parameter_base@DV?$stream_output_adapter@D@__crt_stdio_output@@@__crt_stdio_output@@CA?AW4parameter_type@12@H@Z 10026d23 f i libucrt:output.obj
 0001:00025d27       ?get_parameter_type@?$positional_parameter_base@DV?$stream_output_adapter@D@__crt_stdio_output@@@__crt_stdio_output@@CA?AW4parameter_type@12@I@Z 10026d27 f i libucrt:output.obj
 0001:00025d2b       ?get_parameter_type@?$positional_parameter_base@DV?$stream_output_adapter@D@__crt_stdio_output@@@__crt_stdio_output@@CA?AW4parameter_type@12@U_CRT_DOUBLE@@@Z 10026d2b f i libucrt:output.obj
 0001:00025d2f       ?get_parameter_type@?$positional_parameter_base@DV?$stream_output_adapter@D@__crt_stdio_output@@@__crt_stdio_output@@CA?AW4parameter_type@12@_J@Z 10026d2f f i libucrt:output.obj
 0001:00025d33       ?get_parameter_type@?$positional_parameter_base@DV?$stream_output_adapter@D@__crt_stdio_output@@@__crt_stdio_output@@CA?AW4parameter_type@12@_K@Z 10026d33 f i libucrt:output.obj
 0001:00025d37       ?get_parameter_type@?$positional_parameter_base@DV?$stream_output_adapter@D@__crt_stdio_output@@@__crt_stdio_output@@CA?AW4parameter_type@12@_W@Z 10026d37 f i libucrt:output.obj
 0001:00025d3b       ?get_parameter_type@?$positional_parameter_base@DV?$string_output_adapter@D@__crt_stdio_output@@@__crt_stdio_output@@CA?AW4parameter_type@12@F@Z 10026d3b f i libucrt:output.obj
 0001:00025d3f       ?get_parameter_type@?$positional_parameter_base@DV?$string_output_adapter@D@__crt_stdio_output@@@__crt_stdio_output@@CA?AW4parameter_type@12@G@Z 10026d3f f i libucrt:output.obj
 0001:00025d43       ?get_parameter_type@?$positional_parameter_base@DV?$string_output_adapter@D@__crt_stdio_output@@@__crt_stdio_output@@CA?AW4parameter_type@12@H@Z 10026d43 f i libucrt:output.obj
 0001:00025d47       ?get_parameter_type@?$positional_parameter_base@DV?$string_output_adapter@D@__crt_stdio_output@@@__crt_stdio_output@@CA?AW4parameter_type@12@I@Z 10026d47 f i libucrt:output.obj
 0001:00025d4b       ?get_parameter_type@?$positional_parameter_base@DV?$string_output_adapter@D@__crt_stdio_output@@@__crt_stdio_output@@CA?AW4parameter_type@12@U_CRT_DOUBLE@@@Z 10026d4b f i libucrt:output.obj
 0001:00025d4f       ?get_parameter_type@?$positional_parameter_base@DV?$string_output_adapter@D@__crt_stdio_output@@@__crt_stdio_output@@CA?AW4parameter_type@12@_J@Z 10026d4f f i libucrt:output.obj
 0001:00025d53       ?get_parameter_type@?$positional_parameter_base@DV?$string_output_adapter@D@__crt_stdio_output@@@__crt_stdio_output@@CA?AW4parameter_type@12@_K@Z 10026d53 f i libucrt:output.obj
 0001:00025d57       ?get_parameter_type@?$positional_parameter_base@DV?$string_output_adapter@D@__crt_stdio_output@@@__crt_stdio_output@@CA?AW4parameter_type@12@_W@Z 10026d57 f i libucrt:output.obj
 0001:00025d5b       ?get_parameter_type@?$positional_parameter_base@_WV?$stream_output_adapter@_W@__crt_stdio_output@@@__crt_stdio_output@@CA?AW4parameter_type@12@F@Z 10026d5b f i libucrt:output.obj
 0001:00025d5f       ?get_parameter_type@?$positional_parameter_base@_WV?$stream_output_adapter@_W@__crt_stdio_output@@@__crt_stdio_output@@CA?AW4parameter_type@12@G@Z 10026d5f f i libucrt:output.obj
 0001:00025d63       ?get_parameter_type@?$positional_parameter_base@_WV?$stream_output_adapter@_W@__crt_stdio_output@@@__crt_stdio_output@@CA?AW4parameter_type@12@H@Z 10026d63 f i libucrt:output.obj
 0001:00025d67       ?get_parameter_type@?$positional_parameter_base@_WV?$stream_output_adapter@_W@__crt_stdio_output@@@__crt_stdio_output@@CA?AW4parameter_type@12@I@Z 10026d67 f i libucrt:output.obj
 0001:00025d6b       ?get_parameter_type@?$positional_parameter_base@_WV?$stream_output_adapter@_W@__crt_stdio_output@@@__crt_stdio_output@@CA?AW4parameter_type@12@U_CRT_DOUBLE@@@Z 10026d6b f i libucrt:output.obj
 0001:00025d6f       ?get_parameter_type@?$positional_parameter_base@_WV?$stream_output_adapter@_W@__crt_stdio_output@@@__crt_stdio_output@@CA?AW4parameter_type@12@_J@Z 10026d6f f i libucrt:output.obj
 0001:00025d73       ?get_parameter_type@?$positional_parameter_base@_WV?$stream_output_adapter@_W@__crt_stdio_output@@@__crt_stdio_output@@CA?AW4parameter_type@12@_K@Z 10026d73 f i libucrt:output.obj
 0001:00025d77       ?get_parameter_type@?$positional_parameter_base@_WV?$stream_output_adapter@_W@__crt_stdio_output@@@__crt_stdio_output@@CA?AW4parameter_type@12@_W@Z 10026d77 f i libucrt:output.obj
 0001:00025d7b       ?get_parameter_type@?$positional_parameter_base@_WV?$string_output_adapter@_W@__crt_stdio_output@@@__crt_stdio_output@@CA?AW4parameter_type@12@F@Z 10026d7b f i libucrt:output.obj
 0001:00025d7f       ?get_parameter_type@?$positional_parameter_base@_WV?$string_output_adapter@_W@__crt_stdio_output@@@__crt_stdio_output@@CA?AW4parameter_type@12@G@Z 10026d7f f i libucrt:output.obj
 0001:00025d83       ?get_parameter_type@?$positional_parameter_base@_WV?$string_output_adapter@_W@__crt_stdio_output@@@__crt_stdio_output@@CA?AW4parameter_type@12@H@Z 10026d83 f i libucrt:output.obj
 0001:00025d87       ?get_parameter_type@?$positional_parameter_base@_WV?$string_output_adapter@_W@__crt_stdio_output@@@__crt_stdio_output@@CA?AW4parameter_type@12@I@Z 10026d87 f i libucrt:output.obj
 0001:00025d8b       ?get_parameter_type@?$positional_parameter_base@_WV?$string_output_adapter@_W@__crt_stdio_output@@@__crt_stdio_output@@CA?AW4parameter_type@12@U_CRT_DOUBLE@@@Z 10026d8b f i libucrt:output.obj
 0001:00025d8f       ?get_parameter_type@?$positional_parameter_base@_WV?$string_output_adapter@_W@__crt_stdio_output@@@__crt_stdio_output@@CA?AW4parameter_type@12@_J@Z 10026d8f f i libucrt:output.obj
 0001:00025d93       ?get_parameter_type@?$positional_parameter_base@_WV?$string_output_adapter@_W@__crt_stdio_output@@@__crt_stdio_output@@CA?AW4parameter_type@12@_K@Z 10026d93 f i libucrt:output.obj
 0001:00025d97       ?get_parameter_type@?$positional_parameter_base@_WV?$string_output_adapter@_W@__crt_stdio_output@@@__crt_stdio_output@@CA?AW4parameter_type@12@_W@Z 10026d97 f i libucrt:output.obj
 0001:00025d9b       ?has_flag@?$output_processor@DV?$stream_output_adapter@D@__crt_stdio_output@@V?$format_validation_base@DV?$stream_output_adapter@D@__crt_stdio_output@@@2@@__crt_stdio_output@@ABE_NI@Z 10026d9b f i libucrt:output.obj
 0001:00025db5       ?has_flag@?$output_processor@DV?$stream_output_adapter@D@__crt_stdio_output@@V?$positional_parameter_base@DV?$stream_output_adapter@D@__crt_stdio_output@@@2@@__crt_stdio_output@@ABE_NI@Z 10026db5 f i libucrt:output.obj
 0001:00025dcf       ?has_flag@?$output_processor@DV?$stream_output_adapter@D@__crt_stdio_output@@V?$standard_base@DV?$stream_output_adapter@D@__crt_stdio_output@@@2@@__crt_stdio_output@@ABE_NI@Z 10026dcf f i libucrt:output.obj
 0001:00025de9       ?has_flag@?$output_processor@DV?$string_output_adapter@D@__crt_stdio_output@@V?$format_validation_base@DV?$string_output_adapter@D@__crt_stdio_output@@@2@@__crt_stdio_output@@ABE_NI@Z 10026de9 f i libucrt:output.obj
 0001:00025e03       ?has_flag@?$output_processor@DV?$string_output_adapter@D@__crt_stdio_output@@V?$positional_parameter_base@DV?$string_output_adapter@D@__crt_stdio_output@@@2@@__crt_stdio_output@@ABE_NI@Z 10026e03 f i libucrt:output.obj
 0001:00025e1d       ?has_flag@?$output_processor@DV?$string_output_adapter@D@__crt_stdio_output@@V?$standard_base@DV?$string_output_adapter@D@__crt_stdio_output@@@2@@__crt_stdio_output@@ABE_NI@Z 10026e1d f i libucrt:output.obj
 0001:00025e37       ?has_flag@?$output_processor@_WV?$stream_output_adapter@_W@__crt_stdio_output@@V?$format_validation_base@_WV?$stream_output_adapter@_W@__crt_stdio_output@@@2@@__crt_stdio_output@@ABE_NI@Z 10026e37 f i libucrt:output.obj
 0001:00025e51       ?has_flag@?$output_processor@_WV?$stream_output_adapter@_W@__crt_stdio_output@@V?$positional_parameter_base@_WV?$stream_output_adapter@_W@__crt_stdio_output@@@2@@__crt_stdio_output@@ABE_NI@Z 10026e51 f i libucrt:output.obj
 0001:00025e6b       ?has_flag@?$output_processor@_WV?$stream_output_adapter@_W@__crt_stdio_output@@V?$standard_base@_WV?$stream_output_adapter@_W@__crt_stdio_output@@@2@@__crt_stdio_output@@ABE_NI@Z 10026e6b f i libucrt:output.obj
 0001:00025e85       ?has_flag@?$output_processor@_WV?$string_output_adapter@_W@__crt_stdio_output@@V?$format_validation_base@_WV?$string_output_adapter@_W@__crt_stdio_output@@@2@@__crt_stdio_output@@ABE_NI@Z 10026e85 f i libucrt:output.obj
 0001:00025e9f       ?has_flag@?$output_processor@_WV?$string_output_adapter@_W@__crt_stdio_output@@V?$positional_parameter_base@_WV?$string_output_adapter@_W@__crt_stdio_output@@@2@@__crt_stdio_output@@ABE_NI@Z 10026e9f f i libucrt:output.obj
 0001:00025eb9       ?has_flag@?$output_processor@_WV?$string_output_adapter@_W@__crt_stdio_output@@V?$standard_base@_WV?$string_output_adapter@_W@__crt_stdio_output@@@2@@__crt_stdio_output@@ABE_NI@Z 10026eb9 f i libucrt:output.obj
 0001:00025ed3       ?is_positional_parameter_reappearance_consistent@?$positional_parameter_base@DV?$stream_output_adapter@D@__crt_stdio_output@@@__crt_stdio_output@@AAE_NABUparameter_data@12@W4parameter_type@12@DW4length_modifier@2@@Z 10026ed3 f i libucrt:output.obj
 0001:0002604c       ?is_positional_parameter_reappearance_consistent@?$positional_parameter_base@DV?$string_output_adapter@D@__crt_stdio_output@@@__crt_stdio_output@@AAE_NABUparameter_data@12@W4parameter_type@12@DW4length_modifier@2@@Z 1002704c f i libucrt:output.obj
 0001:000261c5       ?is_positional_parameter_reappearance_consistent@?$positional_parameter_base@_WV?$stream_output_adapter@_W@__crt_stdio_output@@@__crt_stdio_output@@AAE_NABUparameter_data@12@W4parameter_type@12@_WW4length_modifier@2@@Z 100271c5 f i libucrt:output.obj
 0001:00026330       ?is_positional_parameter_reappearance_consistent@?$positional_parameter_base@_WV?$string_output_adapter@_W@__crt_stdio_output@@@__crt_stdio_output@@AAE_NABUparameter_data@12@W4parameter_type@12@_WW4length_modifier@2@@Z 10027330 f i libucrt:output.obj
 0001:0002649b       ?is_string_backed@__crt_stdio_stream@@QBE_NXZ 1002749b f i libucrt:output.obj
 0001:000264aa       ?narrow_null_string@?$output_processor@DV?$stream_output_adapter@D@__crt_stdio_output@@V?$format_validation_base@DV?$stream_output_adapter@D@__crt_stdio_output@@@2@@__crt_stdio_output@@CAPADXZ 100274aa f i libucrt:output.obj
 0001:000264b0       ?narrow_null_string@?$output_processor@DV?$stream_output_adapter@D@__crt_stdio_output@@V?$positional_parameter_base@DV?$stream_output_adapter@D@__crt_stdio_output@@@2@@__crt_stdio_output@@CAPADXZ 100274b0 f i libucrt:output.obj
 0001:000264b6       ?narrow_null_string@?$output_processor@DV?$stream_output_adapter@D@__crt_stdio_output@@V?$standard_base@DV?$stream_output_adapter@D@__crt_stdio_output@@@2@@__crt_stdio_output@@CAPADXZ 100274b6 f i libucrt:output.obj
 0001:000264bc       ?narrow_null_string@?$output_processor@DV?$string_output_adapter@D@__crt_stdio_output@@V?$format_validation_base@DV?$string_output_adapter@D@__crt_stdio_output@@@2@@__crt_stdio_output@@CAPADXZ 100274bc f i libucrt:output.obj
 0001:000264c2       ?narrow_null_string@?$output_processor@DV?$string_output_adapter@D@__crt_stdio_output@@V?$positional_parameter_base@DV?$string_output_adapter@D@__crt_stdio_output@@@2@@__crt_stdio_output@@CAPADXZ 100274c2 f i libucrt:output.obj
 0001:000264c8       ?narrow_null_string@?$output_processor@DV?$string_output_adapter@D@__crt_stdio_output@@V?$standard_base@DV?$string_output_adapter@D@__crt_stdio_output@@@2@@__crt_stdio_output@@CAPADXZ 100274c8 f i libucrt:output.obj
 0001:000264ce       ?narrow_null_string@?$output_processor@_WV?$stream_output_adapter@_W@__crt_stdio_output@@V?$format_validation_base@_WV?$stream_output_adapter@_W@__crt_stdio_output@@@2@@__crt_stdio_output@@CAPADXZ 100274ce f i libucrt:output.obj
 0001:000264d4       ?narrow_null_string@?$output_processor@_WV?$stream_output_adapter@_W@__crt_stdio_output@@V?$positional_parameter_base@_WV?$stream_output_adapter@_W@__crt_stdio_output@@@2@@__crt_stdio_output@@CAPADXZ 100274d4 f i libucrt:output.obj
 0001:000264da       ?narrow_null_string@?$output_processor@_WV?$stream_output_adapter@_W@__crt_stdio_output@@V?$standard_base@_WV?$stream_output_adapter@_W@__crt_stdio_output@@@2@@__crt_stdio_output@@CAPADXZ 100274da f i libucrt:output.obj
 0001:000264e0       ?narrow_null_string@?$output_processor@_WV?$string_output_adapter@_W@__crt_stdio_output@@V?$format_validation_base@_WV?$string_output_adapter@_W@__crt_stdio_output@@@2@@__crt_stdio_output@@CAPADXZ 100274e0 f i libucrt:output.obj
 0001:000264e6       ?narrow_null_string@?$output_processor@_WV?$string_output_adapter@_W@__crt_stdio_output@@V?$positional_parameter_base@_WV?$string_output_adapter@_W@__crt_stdio_output@@@2@@__crt_stdio_output@@CAPADXZ 100274e6 f i libucrt:output.obj
 0001:000264ec       ?narrow_null_string@?$output_processor@_WV?$string_output_adapter@_W@__crt_stdio_output@@V?$standard_base@_WV?$string_output_adapter@_W@__crt_stdio_output@@@2@@__crt_stdio_output@@CAPADXZ 100274ec f i libucrt:output.obj
 0001:000264f2       ?parse_int_from_format_string@?$output_processor@DV?$stream_output_adapter@D@__crt_stdio_output@@V?$format_validation_base@DV?$stream_output_adapter@D@__crt_stdio_output@@@2@@__crt_stdio_output@@AAE_NQAH@Z 100274f2 f i libucrt:output.obj
 0001:00026565       ?parse_int_from_format_string@?$output_processor@DV?$stream_output_adapter@D@__crt_stdio_output@@V?$positional_parameter_base@DV?$stream_output_adapter@D@__crt_stdio_output@@@2@@__crt_stdio_output@@AAE_NQAH@Z 10027565 f i libucrt:output.obj
 0001:000265d8       ?parse_int_from_format_string@?$output_processor@DV?$stream_output_adapter@D@__crt_stdio_output@@V?$standard_base@DV?$stream_output_adapter@D@__crt_stdio_output@@@2@@__crt_stdio_output@@AAE_NQAH@Z 100275d8 f i libucrt:output.obj
 0001:0002664b       ?parse_int_from_format_string@?$output_processor@DV?$string_output_adapter@D@__crt_stdio_output@@V?$format_validation_base@DV?$string_output_adapter@D@__crt_stdio_output@@@2@@__crt_stdio_output@@AAE_NQAH@Z 1002764b f i libucrt:output.obj
 0001:000266be       ?parse_int_from_format_string@?$output_processor@DV?$string_output_adapter@D@__crt_stdio_output@@V?$positional_parameter_base@DV?$string_output_adapter@D@__crt_stdio_output@@@2@@__crt_stdio_output@@AAE_NQAH@Z 100276be f i libucrt:output.obj
 0001:00026731       ?parse_int_from_format_string@?$output_processor@DV?$string_output_adapter@D@__crt_stdio_output@@V?$standard_base@DV?$string_output_adapter@D@__crt_stdio_output@@@2@@__crt_stdio_output@@AAE_NQAH@Z 10027731 f i libucrt:output.obj
 0001:000267a4       ?parse_int_from_format_string@?$output_processor@_WV?$stream_output_adapter@_W@__crt_stdio_output@@V?$format_validation_base@_WV?$stream_output_adapter@_W@__crt_stdio_output@@@2@@__crt_stdio_output@@AAE_NQAH@Z 100277a4 f i libucrt:output.obj
 0001:00026819       ?parse_int_from_format_string@?$output_processor@_WV?$stream_output_adapter@_W@__crt_stdio_output@@V?$positional_parameter_base@_WV?$stream_output_adapter@_W@__crt_stdio_output@@@2@@__crt_stdio_output@@AAE_NQAH@Z 10027819 f i libucrt:output.obj
 0001:0002688e       ?parse_int_from_format_string@?$output_processor@_WV?$stream_output_adapter@_W@__crt_stdio_output@@V?$standard_base@_WV?$stream_output_adapter@_W@__crt_stdio_output@@@2@@__crt_stdio_output@@AAE_NQAH@Z 1002788e f i libucrt:output.obj
 0001:00026903       ?parse_int_from_format_string@?$output_processor@_WV?$string_output_adapter@_W@__crt_stdio_output@@V?$format_validation_base@_WV?$string_output_adapter@_W@__crt_stdio_output@@@2@@__crt_stdio_output@@AAE_NQAH@Z 10027903 f i libucrt:output.obj
 0001:00026978       ?parse_int_from_format_string@?$output_processor@_WV?$string_output_adapter@_W@__crt_stdio_output@@V?$positional_parameter_base@_WV?$string_output_adapter@_W@__crt_stdio_output@@@2@@__crt_stdio_output@@AAE_NQAH@Z 10027978 f i libucrt:output.obj
 0001:000269ed       ?parse_int_from_format_string@?$output_processor@_WV?$string_output_adapter@_W@__crt_stdio_output@@V?$standard_base@_WV?$string_output_adapter@_W@__crt_stdio_output@@@2@@__crt_stdio_output@@AAE_NQAH@Z 100279ed f i libucrt:output.obj
 0001:00026a62       ?process@?$output_processor@DV?$stream_output_adapter@D@__crt_stdio_output@@V?$format_validation_base@DV?$stream_output_adapter@D@__crt_stdio_output@@@2@@__crt_stdio_output@@QAEHXZ 10027a62 f i libucrt:output.obj
 0001:00026bd4       ?process@?$output_processor@DV?$stream_output_adapter@D@__crt_stdio_output@@V?$positional_parameter_base@DV?$stream_output_adapter@D@__crt_stdio_output@@@2@@__crt_stdio_output@@QAEHXZ 10027bd4 f i libucrt:output.obj
 0001:00026d87       ?process@?$output_processor@DV?$stream_output_adapter@D@__crt_stdio_output@@V?$standard_base@DV?$stream_output_adapter@D@__crt_stdio_output@@@2@@__crt_stdio_output@@QAEHXZ 10027d87 f i libucrt:output.obj
 0001:00026eea       ?process@?$output_processor@DV?$string_output_adapter@D@__crt_stdio_output@@V?$format_validation_base@DV?$string_output_adapter@D@__crt_stdio_output@@@2@@__crt_stdio_output@@QAEHXZ 10027eea f i libucrt:output.obj
 0001:0002705c       ?process@?$output_processor@DV?$string_output_adapter@D@__crt_stdio_output@@V?$positional_parameter_base@DV?$string_output_adapter@D@__crt_stdio_output@@@2@@__crt_stdio_output@@QAEHXZ 1002805c f i libucrt:output.obj
 0001:0002720f       ?process@?$output_processor@DV?$string_output_adapter@D@__crt_stdio_output@@V?$standard_base@DV?$string_output_adapter@D@__crt_stdio_output@@@2@@__crt_stdio_output@@QAEHXZ 1002820f f i libucrt:output.obj
 0001:00027372       ?process@?$output_processor@_WV?$stream_output_adapter@_W@__crt_stdio_output@@V?$format_validation_base@_WV?$stream_output_adapter@_W@__crt_stdio_output@@@2@@__crt_stdio_output@@QAEHXZ 10028372 f i libucrt:output.obj
 0001:000274ee       ?process@?$output_processor@_WV?$stream_output_adapter@_W@__crt_stdio_output@@V?$positional_parameter_base@_WV?$stream_output_adapter@_W@__crt_stdio_output@@@2@@__crt_stdio_output@@QAEHXZ 100284ee f i libucrt:output.obj
 0001:000276a6       ?process@?$output_processor@_WV?$stream_output_adapter@_W@__crt_stdio_output@@V?$standard_base@_WV?$stream_output_adapter@_W@__crt_stdio_output@@@2@@__crt_stdio_output@@QAEHXZ 100286a6 f i libucrt:output.obj
 0001:0002780e       ?process@?$output_processor@_WV?$string_output_adapter@_W@__crt_stdio_output@@V?$format_validation_base@_WV?$string_output_adapter@_W@__crt_stdio_output@@@2@@__crt_stdio_output@@QAEHXZ 1002880e f i libucrt:output.obj
 0001:0002798a       ?process@?$output_processor@_WV?$string_output_adapter@_W@__crt_stdio_output@@V?$positional_parameter_base@_WV?$string_output_adapter@_W@__crt_stdio_output@@@2@@__crt_stdio_output@@QAEHXZ 1002898a f i libucrt:output.obj
 0001:00027b42       ?process@?$output_processor@_WV?$string_output_adapter@_W@__crt_stdio_output@@V?$standard_base@_WV?$string_output_adapter@_W@__crt_stdio_output@@@2@@__crt_stdio_output@@QAEHXZ 10028b42 f i libucrt:output.obj
 0001:00027caa       ?public_stream@__crt_stdio_stream@@QBEPAU_iobuf@@XZ 10028caa f i libucrt:output.obj
 0001:00027cad       ?set_flag@?$output_processor@DV?$stream_output_adapter@D@__crt_stdio_output@@V?$format_validation_base@DV?$stream_output_adapter@D@__crt_stdio_output@@@2@@__crt_stdio_output@@AAEXI@Z 10028cad f i libucrt:output.obj
 0001:00027cbf       ?set_flag@?$output_processor@DV?$stream_output_adapter@D@__crt_stdio_output@@V?$positional_parameter_base@DV?$stream_output_adapter@D@__crt_stdio_output@@@2@@__crt_stdio_output@@AAEXI@Z 10028cbf f i libucrt:output.obj
 0001:00027cd1       ?set_flag@?$output_processor@DV?$stream_output_adapter@D@__crt_stdio_output@@V?$standard_base@DV?$stream_output_adapter@D@__crt_stdio_output@@@2@@__crt_stdio_output@@AAEXI@Z 10028cd1 f i libucrt:output.obj
 0001:00027ce3       ?set_flag@?$output_processor@DV?$string_output_adapter@D@__crt_stdio_output@@V?$format_validation_base@DV?$string_output_adapter@D@__crt_stdio_output@@@2@@__crt_stdio_output@@AAEXI@Z 10028ce3 f i libucrt:output.obj
 0001:00027cf5       ?set_flag@?$output_processor@DV?$string_output_adapter@D@__crt_stdio_output@@V?$positional_parameter_base@DV?$string_output_adapter@D@__crt_stdio_output@@@2@@__crt_stdio_output@@AAEXI@Z 10028cf5 f i libucrt:output.obj
 0001:00027d07       ?set_flag@?$output_processor@DV?$string_output_adapter@D@__crt_stdio_output@@V?$standard_base@DV?$string_output_adapter@D@__crt_stdio_output@@@2@@__crt_stdio_output@@AAEXI@Z 10028d07 f i libucrt:output.obj
 0001:00027d19       ?set_flag@?$output_processor@_WV?$stream_output_adapter@_W@__crt_stdio_output@@V?$format_validation_base@_WV?$stream_output_adapter@_W@__crt_stdio_output@@@2@@__crt_stdio_output@@AAEXI@Z 10028d19 f i libucrt:output.obj
 0001:00027d2b       ?set_flag@?$output_processor@_WV?$stream_output_adapter@_W@__crt_stdio_output@@V?$positional_parameter_base@_WV?$stream_output_adapter@_W@__crt_stdio_output@@@2@@__crt_stdio_output@@AAEXI@Z 10028d2b f i libucrt:output.obj
 0001:00027d3d       ?set_flag@?$output_processor@_WV?$stream_output_adapter@_W@__crt_stdio_output@@V?$standard_base@_WV?$stream_output_adapter@_W@__crt_stdio_output@@@2@@__crt_stdio_output@@AAEXI@Z 10028d3d f i libucrt:output.obj
 0001:00027d4f       ?set_flag@?$output_processor@_WV?$string_output_adapter@_W@__crt_stdio_output@@V?$format_validation_base@_WV?$string_output_adapter@_W@__crt_stdio_output@@@2@@__crt_stdio_output@@AAEXI@Z 10028d4f f i libucrt:output.obj
 0001:00027d61       ?set_flag@?$output_processor@_WV?$string_output_adapter@_W@__crt_stdio_output@@V?$positional_parameter_base@_WV?$string_output_adapter@_W@__crt_stdio_output@@@2@@__crt_stdio_output@@AAEXI@Z 10028d61 f i libucrt:output.obj
 0001:00027d73       ?set_flag@?$output_processor@_WV?$string_output_adapter@_W@__crt_stdio_output@@V?$standard_base@_WV?$string_output_adapter@_W@__crt_stdio_output@@@2@@__crt_stdio_output@@AAEXI@Z 10028d73 f i libucrt:output.obj
 0001:00027d85       ?should_format@?$positional_parameter_base@DV?$stream_output_adapter@D@__crt_stdio_output@@@__crt_stdio_output@@IAE_NXZ 10028d85 f i libucrt:output.obj
 0001:00027da0       ?should_format@?$positional_parameter_base@DV?$string_output_adapter@D@__crt_stdio_output@@@__crt_stdio_output@@IAE_NXZ 10028da0 f i libucrt:output.obj
 0001:00027dbb       ?should_format@?$positional_parameter_base@_WV?$stream_output_adapter@_W@__crt_stdio_output@@@__crt_stdio_output@@IAE_NXZ 10028dbb f i libucrt:output.obj
 0001:00027dd6       ?should_format@?$positional_parameter_base@_WV?$string_output_adapter@_W@__crt_stdio_output@@@__crt_stdio_output@@IAE_NXZ 10028dd6 f i libucrt:output.obj
 0001:00027df1       ?should_format@?$standard_base@DV?$stream_output_adapter@D@__crt_stdio_output@@@__crt_stdio_output@@IAE_NXZ 10028df1 f i libucrt:output.obj
 0001:00027df4       ?should_format@?$standard_base@DV?$string_output_adapter@D@__crt_stdio_output@@@__crt_stdio_output@@IAE_NXZ 10028df4 f i libucrt:output.obj
 0001:00027df7       ?should_format@?$standard_base@_WV?$stream_output_adapter@_W@__crt_stdio_output@@@__crt_stdio_output@@IAE_NXZ 10028df7 f i libucrt:output.obj
 0001:00027dfa       ?should_format@?$standard_base@_WV?$string_output_adapter@_W@__crt_stdio_output@@@__crt_stdio_output@@IAE_NXZ 10028dfa f i libucrt:output.obj
 0001:00027dfd       ?should_skip_normal_state_processing@?$positional_parameter_base@DV?$stream_output_adapter@D@__crt_stdio_output@@@__crt_stdio_output@@IAE_NXZ 10028dfd f i libucrt:output.obj
 0001:00027e2f       ?should_skip_normal_state_processing@?$positional_parameter_base@DV?$string_output_adapter@D@__crt_stdio_output@@@__crt_stdio_output@@IAE_NXZ 10028e2f f i libucrt:output.obj
 0001:00027e61       ?should_skip_normal_state_processing@?$positional_parameter_base@_WV?$stream_output_adapter@_W@__crt_stdio_output@@@__crt_stdio_output@@IAE_NXZ 10028e61 f i libucrt:output.obj
 0001:00027e93       ?should_skip_normal_state_processing@?$positional_parameter_base@_WV?$string_output_adapter@_W@__crt_stdio_output@@@__crt_stdio_output@@IAE_NXZ 10028e93 f i libucrt:output.obj
 0001:00027ec5       ?should_skip_normal_state_processing@?$standard_base@DV?$stream_output_adapter@D@__crt_stdio_output@@@__crt_stdio_output@@IAE_NXZ 10028ec5 f i libucrt:output.obj
 0001:00027ec8       ?should_skip_normal_state_processing@?$standard_base@DV?$string_output_adapter@D@__crt_stdio_output@@@__crt_stdio_output@@IAE_NXZ 10028ec8 f i libucrt:output.obj
 0001:00027ecb       ?should_skip_normal_state_processing@?$standard_base@_WV?$stream_output_adapter@_W@__crt_stdio_output@@@__crt_stdio_output@@IAE_NXZ 10028ecb f i libucrt:output.obj
 0001:00027ece       ?should_skip_normal_state_processing@?$standard_base@_WV?$string_output_adapter@_W@__crt_stdio_output@@@__crt_stdio_output@@IAE_NXZ 10028ece f i libucrt:output.obj
 0001:00027ed1       ?should_skip_type_state_output@?$positional_parameter_base@DV?$stream_output_adapter@D@__crt_stdio_output@@@__crt_stdio_output@@IBE_NXZ 10028ed1 f i libucrt:output.obj
 0001:00027eed       ?should_skip_type_state_output@?$positional_parameter_base@DV?$string_output_adapter@D@__crt_stdio_output@@@__crt_stdio_output@@IBE_NXZ 10028eed f i libucrt:output.obj
 0001:00027f09       ?should_skip_type_state_output@?$positional_parameter_base@_WV?$stream_output_adapter@_W@__crt_stdio_output@@@__crt_stdio_output@@IBE_NXZ 10028f09 f i libucrt:output.obj
 0001:00027f25       ?should_skip_type_state_output@?$positional_parameter_base@_WV?$string_output_adapter@_W@__crt_stdio_output@@@__crt_stdio_output@@IBE_NXZ 10028f25 f i libucrt:output.obj
 0001:00027f41       ?should_skip_type_state_output@?$standard_base@DV?$stream_output_adapter@D@__crt_stdio_output@@@__crt_stdio_output@@IBE_NXZ 10028f41 f i libucrt:output.obj
 0001:00027f44       ?should_skip_type_state_output@?$standard_base@DV?$string_output_adapter@D@__crt_stdio_output@@@__crt_stdio_output@@IBE_NXZ 10028f44 f i libucrt:output.obj
 0001:00027f47       ?should_skip_type_state_output@?$standard_base@_WV?$stream_output_adapter@_W@__crt_stdio_output@@@__crt_stdio_output@@IBE_NXZ 10028f47 f i libucrt:output.obj
 0001:00027f4a       ?should_skip_type_state_output@?$standard_base@_WV?$string_output_adapter@_W@__crt_stdio_output@@@__crt_stdio_output@@IBE_NXZ 10028f4a f i libucrt:output.obj
 0001:00027f4d       ?state_case_dot@?$output_processor@DV?$stream_output_adapter@D@__crt_stdio_output@@V?$format_validation_base@DV?$stream_output_adapter@D@__crt_stdio_output@@@2@@__crt_stdio_output@@AAE_NXZ 10028f4d f i libucrt:output.obj
 0001:00027f54       ?state_case_dot@?$output_processor@DV?$stream_output_adapter@D@__crt_stdio_output@@V?$positional_parameter_base@DV?$stream_output_adapter@D@__crt_stdio_output@@@2@@__crt_stdio_output@@AAE_NXZ 10028f54 f i libucrt:output.obj
 0001:00027f5b       ?state_case_dot@?$output_processor@DV?$stream_output_adapter@D@__crt_stdio_output@@V?$standard_base@DV?$stream_output_adapter@D@__crt_stdio_output@@@2@@__crt_stdio_output@@AAE_NXZ 10028f5b f i libucrt:output.obj
 0001:00027f62       ?state_case_dot@?$output_processor@DV?$string_output_adapter@D@__crt_stdio_output@@V?$format_validation_base@DV?$string_output_adapter@D@__crt_stdio_output@@@2@@__crt_stdio_output@@AAE_NXZ 10028f62 f i libucrt:output.obj
 0001:00027f69       ?state_case_dot@?$output_processor@DV?$string_output_adapter@D@__crt_stdio_output@@V?$positional_parameter_base@DV?$string_output_adapter@D@__crt_stdio_output@@@2@@__crt_stdio_output@@AAE_NXZ 10028f69 f i libucrt:output.obj
 0001:00027f70       ?state_case_dot@?$output_processor@DV?$string_output_adapter@D@__crt_stdio_output@@V?$standard_base@DV?$string_output_adapter@D@__crt_stdio_output@@@2@@__crt_stdio_output@@AAE_NXZ 10028f70 f i libucrt:output.obj
 0001:00027f77       ?state_case_dot@?$output_processor@_WV?$stream_output_adapter@_W@__crt_stdio_output@@V?$format_validation_base@_WV?$stream_output_adapter@_W@__crt_stdio_output@@@2@@__crt_stdio_output@@AAE_NXZ 10028f77 f i libucrt:output.obj
 0001:00027f7e       ?state_case_dot@?$output_processor@_WV?$stream_output_adapter@_W@__crt_stdio_output@@V?$positional_parameter_base@_WV?$stream_output_adapter@_W@__crt_stdio_output@@@2@@__crt_stdio_output@@AAE_NXZ 10028f7e f i libucrt:output.obj
 0001:00027f85       ?state_case_dot@?$output_processor@_WV?$stream_output_adapter@_W@__crt_stdio_output@@V?$standard_base@_WV?$stream_output_adapter@_W@__crt_stdio_output@@@2@@__crt_stdio_output@@AAE_NXZ 10028f85 f i libucrt:output.obj
 0001:00027f8c       ?state_case_dot@?$output_processor@_WV?$string_output_adapter@_W@__crt_stdio_output@@V?$format_validation_base@_WV?$string_output_adapter@_W@__crt_stdio_output@@@2@@__crt_stdio_output@@AAE_NXZ 10028f8c f i libucrt:output.obj
 0001:00027f93       ?state_case_dot@?$output_processor@_WV?$string_output_adapter@_W@__crt_stdio_output@@V?$positional_parameter_base@_WV?$string_output_adapter@_W@__crt_stdio_output@@@2@@__crt_stdio_output@@AAE_NXZ 10028f93 f i libucrt:output.obj
 0001:00027f9a       ?state_case_dot@?$output_processor@_WV?$string_output_adapter@_W@__crt_stdio_output@@V?$standard_base@_WV?$string_output_adapter@_W@__crt_stdio_output@@@2@@__crt_stdio_output@@AAE_NXZ 10028f9a f i libucrt:output.obj
 0001:00027fa1       ?state_case_flag@?$output_processor@DV?$stream_output_adapter@D@__crt_stdio_output@@V?$format_validation_base@DV?$stream_output_adapter@D@__crt_stdio_output@@@2@@__crt_stdio_output@@AAE_NXZ 10028fa1 f i libucrt:output.obj
 0001:00027fed       ?state_case_flag@?$output_processor@DV?$stream_output_adapter@D@__crt_stdio_output@@V?$positional_parameter_base@DV?$stream_output_adapter@D@__crt_stdio_output@@@2@@__crt_stdio_output@@AAE_NXZ 10028fed f i libucrt:output.obj
 0001:00028039       ?state_case_flag@?$output_processor@DV?$stream_output_adapter@D@__crt_stdio_output@@V?$standard_base@DV?$stream_output_adapter@D@__crt_stdio_output@@@2@@__crt_stdio_output@@AAE_NXZ 10029039 f i libucrt:output.obj
 0001:00028085       ?state_case_flag@?$output_processor@DV?$string_output_adapter@D@__crt_stdio_output@@V?$format_validation_base@DV?$string_output_adapter@D@__crt_stdio_output@@@2@@__crt_stdio_output@@AAE_NXZ 10029085 f i libucrt:output.obj
 0001:000280d1       ?state_case_flag@?$output_processor@DV?$string_output_adapter@D@__crt_stdio_output@@V?$positional_parameter_base@DV?$string_output_adapter@D@__crt_stdio_output@@@2@@__crt_stdio_output@@AAE_NXZ 100290d1 f i libucrt:output.obj
 0001:0002811d       ?state_case_flag@?$output_processor@DV?$string_output_adapter@D@__crt_stdio_output@@V?$standard_base@DV?$string_output_adapter@D@__crt_stdio_output@@@2@@__crt_stdio_output@@AAE_NXZ 1002911d f i libucrt:output.obj
 0001:00028169       ?state_case_flag@?$output_processor@_WV?$stream_output_adapter@_W@__crt_stdio_output@@V?$format_validation_base@_WV?$stream_output_adapter@_W@__crt_stdio_output@@@2@@__crt_stdio_output@@AAE_NXZ 10029169 f i libucrt:output.obj
 0001:000281b5       ?state_case_flag@?$output_processor@_WV?$stream_output_adapter@_W@__crt_stdio_output@@V?$positional_parameter_base@_WV?$stream_output_adapter@_W@__crt_stdio_output@@@2@@__crt_stdio_output@@AAE_NXZ 100291b5 f i libucrt:output.obj
 0001:00028201       ?state_case_flag@?$output_processor@_WV?$stream_output_adapter@_W@__crt_stdio_output@@V?$standard_base@_WV?$stream_output_adapter@_W@__crt_stdio_output@@@2@@__crt_stdio_output@@AAE_NXZ 10029201 f i libucrt:output.obj
 0001:0002824d       ?state_case_flag@?$output_processor@_WV?$string_output_adapter@_W@__crt_stdio_output@@V?$format_validation_base@_WV?$string_output_adapter@_W@__crt_stdio_output@@@2@@__crt_stdio_output@@AAE_NXZ 1002924d f i libucrt:output.obj
 0001:00028299       ?state_case_flag@?$output_processor@_WV?$string_output_adapter@_W@__crt_stdio_output@@V?$positional_parameter_base@_WV?$string_output_adapter@_W@__crt_stdio_output@@@2@@__crt_stdio_output@@AAE_NXZ 10029299 f i libucrt:output.obj
 0001:000282e5       ?state_case_flag@?$output_processor@_WV?$string_output_adapter@_W@__crt_stdio_output@@V?$standard_base@_WV?$string_output_adapter@_W@__crt_stdio_output@@@2@@__crt_stdio_output@@AAE_NXZ 100292e5 f i libucrt:output.obj
 0001:00028331       ?state_case_normal@?$output_processor@DV?$stream_output_adapter@D@__crt_stdio_output@@V?$format_validation_base@DV?$stream_output_adapter@D@__crt_stdio_output@@@2@@__crt_stdio_output@@AAE_NXZ 10029331 f i libucrt:output.obj
 0001:00028357       ?state_case_normal@?$output_processor@DV?$stream_output_adapter@D@__crt_stdio_output@@V?$positional_parameter_base@DV?$stream_output_adapter@D@__crt_stdio_output@@@2@@__crt_stdio_output@@AAE_NXZ 10029357 f i libucrt:output.obj
 0001:00028394       ?state_case_normal@?$output_processor@DV?$stream_output_adapter@D@__crt_stdio_output@@V?$standard_base@DV?$stream_output_adapter@D@__crt_stdio_output@@@2@@__crt_stdio_output@@AAE_NXZ 10029394 f i libucrt:output.obj
 0001:000283ba       ?state_case_normal@?$output_processor@DV?$string_output_adapter@D@__crt_stdio_output@@V?$format_validation_base@DV?$string_output_adapter@D@__crt_stdio_output@@@2@@__crt_stdio_output@@AAE_NXZ 100293ba f i libucrt:output.obj
 0001:000283e0       ?state_case_normal@?$output_processor@DV?$string_output_adapter@D@__crt_stdio_output@@V?$positional_parameter_base@DV?$string_output_adapter@D@__crt_stdio_output@@@2@@__crt_stdio_output@@AAE_NXZ 100293e0 f i libucrt:output.obj
 0001:0002841d       ?state_case_normal@?$output_processor@DV?$string_output_adapter@D@__crt_stdio_output@@V?$standard_base@DV?$string_output_adapter@D@__crt_stdio_output@@@2@@__crt_stdio_output@@AAE_NXZ 1002941d f i libucrt:output.obj
 0001:00028443       ?state_case_normal@?$output_processor@_WV?$stream_output_adapter@_W@__crt_stdio_output@@V?$format_validation_base@_WV?$stream_output_adapter@_W@__crt_stdio_output@@@2@@__crt_stdio_output@@AAE_NXZ 10029443 f i libucrt:output.obj
 0001:00028469       ?state_case_normal@?$output_processor@_WV?$stream_output_adapter@_W@__crt_stdio_output@@V?$positional_parameter_base@_WV?$stream_output_adapter@_W@__crt_stdio_output@@@2@@__crt_stdio_output@@AAE_NXZ 10029469 f i libucrt:output.obj
 0001:000284a6       ?state_case_normal@?$output_processor@_WV?$stream_output_adapter@_W@__crt_stdio_output@@V?$standard_base@_WV?$stream_output_adapter@_W@__crt_stdio_output@@@2@@__crt_stdio_output@@AAE_NXZ 100294a6 f i libucrt:output.obj
 0001:000284cc       ?state_case_normal@?$output_processor@_WV?$string_output_adapter@_W@__crt_stdio_output@@V?$format_validation_base@_WV?$string_output_adapter@_W@__crt_stdio_output@@@2@@__crt_stdio_output@@AAE_NXZ 100294cc f i libucrt:output.obj
 0001:000284f2       ?state_case_normal@?$output_processor@_WV?$string_output_adapter@_W@__crt_stdio_output@@V?$positional_parameter_base@_WV?$string_output_adapter@_W@__crt_stdio_output@@@2@@__crt_stdio_output@@AAE_NXZ 100294f2 f i libucrt:output.obj
 0001:0002852f       ?state_case_normal@?$output_processor@_WV?$string_output_adapter@_W@__crt_stdio_output@@V?$standard_base@_WV?$string_output_adapter@_W@__crt_stdio_output@@@2@@__crt_stdio_output@@AAE_NXZ 1002952f f i libucrt:output.obj
 0001:00028555       ?state_case_normal_common@?$output_processor@DV?$stream_output_adapter@D@__crt_stdio_output@@V?$format_validation_base@DV?$stream_output_adapter@D@__crt_stdio_output@@@2@@__crt_stdio_output@@AAE_NXZ 10029555 f i libucrt:output.obj
 0001:00028589       ?state_case_normal_common@?$output_processor@DV?$stream_output_adapter@D@__crt_stdio_output@@V?$positional_parameter_base@DV?$stream_output_adapter@D@__crt_stdio_output@@@2@@__crt_stdio_output@@AAE_NXZ 10029589 f i libucrt:output.obj
 0001:000285bd       ?state_case_normal_common@?$output_processor@DV?$stream_output_adapter@D@__crt_stdio_output@@V?$standard_base@DV?$stream_output_adapter@D@__crt_stdio_output@@@2@@__crt_stdio_output@@AAE_NXZ 100295bd f i libucrt:output.obj
 0001:000285f1       ?state_case_normal_common@?$output_processor@DV?$string_output_adapter@D@__crt_stdio_output@@V?$format_validation_base@DV?$string_output_adapter@D@__crt_stdio_output@@@2@@__crt_stdio_output@@AAE_NXZ 100295f1 f i libucrt:output.obj
 0001:00028625       ?state_case_normal_common@?$output_processor@DV?$string_output_adapter@D@__crt_stdio_output@@V?$positional_parameter_base@DV?$string_output_adapter@D@__crt_stdio_output@@@2@@__crt_stdio_output@@AAE_NXZ 10029625 f i libucrt:output.obj
 0001:00028659       ?state_case_normal_common@?$output_processor@DV?$string_output_adapter@D@__crt_stdio_output@@V?$standard_base@DV?$string_output_adapter@D@__crt_stdio_output@@@2@@__crt_stdio_output@@AAE_NXZ 10029659 f i libucrt:output.obj
 0001:0002868d       ?state_case_normal_common@?$output_processor@_WV?$stream_output_adapter@_W@__crt_stdio_output@@V?$format_validation_base@_WV?$stream_output_adapter@_W@__crt_stdio_output@@@2@@__crt_stdio_output@@AAE_NXZ 1002968d f i libucrt:output.obj
 0001:000286ae       ?state_case_normal_common@?$output_processor@_WV?$stream_output_adapter@_W@__crt_stdio_output@@V?$positional_parameter_base@_WV?$stream_output_adapter@_W@__crt_stdio_output@@@2@@__crt_stdio_output@@AAE_NXZ 100296ae f i libucrt:output.obj
 0001:000286cf       ?state_case_normal_common@?$output_processor@_WV?$stream_output_adapter@_W@__crt_stdio_output@@V?$standard_base@_WV?$stream_output_adapter@_W@__crt_stdio_output@@@2@@__crt_stdio_output@@AAE_NXZ 100296cf f i libucrt:output.obj
 0001:000286f0       ?state_case_normal_common@?$output_processor@_WV?$string_output_adapter@_W@__crt_stdio_output@@V?$format_validation_base@_WV?$string_output_adapter@_W@__crt_stdio_output@@@2@@__crt_stdio_output@@AAE_NXZ 100296f0 f i libucrt:output.obj
 0001:00028711       ?state_case_normal_common@?$output_processor@_WV?$string_output_adapter@_W@__crt_stdio_output@@V?$positional_parameter_base@_WV?$string_output_adapter@_W@__crt_stdio_output@@@2@@__crt_stdio_output@@AAE_NXZ 10029711 f i libucrt:output.obj
 0001:00028732       ?state_case_normal_common@?$output_processor@_WV?$string_output_adapter@_W@__crt_stdio_output@@V?$standard_base@_WV?$string_output_adapter@_W@__crt_stdio_output@@@2@@__crt_stdio_output@@AAE_NXZ 10029732 f i libucrt:output.obj
 0001:00028753       ?state_case_normal_tchar@?$output_processor@DV?$stream_output_adapter@D@__crt_stdio_output@@V?$format_validation_base@DV?$stream_output_adapter@D@__crt_stdio_output@@@2@@__crt_stdio_output@@AAE_ND@Z 10029753 f i libucrt:output.obj
 0001:000287cc       ?state_case_normal_tchar@?$output_processor@DV?$stream_output_adapter@D@__crt_stdio_output@@V?$positional_parameter_base@DV?$stream_output_adapter@D@__crt_stdio_output@@@2@@__crt_stdio_output@@AAE_ND@Z 100297cc f i libucrt:output.obj
 0001:00028845       ?state_case_normal_tchar@?$output_processor@DV?$stream_output_adapter@D@__crt_stdio_output@@V?$standard_base@DV?$stream_output_adapter@D@__crt_stdio_output@@@2@@__crt_stdio_output@@AAE_ND@Z 10029845 f i libucrt:output.obj
 0001:000288be       ?state_case_normal_tchar@?$output_processor@DV?$string_output_adapter@D@__crt_stdio_output@@V?$format_validation_base@DV?$string_output_adapter@D@__crt_stdio_output@@@2@@__crt_stdio_output@@AAE_ND@Z 100298be f i libucrt:output.obj
 0001:00028937       ?state_case_normal_tchar@?$output_processor@DV?$string_output_adapter@D@__crt_stdio_output@@V?$positional_parameter_base@DV?$string_output_adapter@D@__crt_stdio_output@@@2@@__crt_stdio_output@@AAE_ND@Z 10029937 f i libucrt:output.obj
 0001:000289b0       ?state_case_normal_tchar@?$output_processor@DV?$string_output_adapter@D@__crt_stdio_output@@V?$standard_base@DV?$string_output_adapter@D@__crt_stdio_output@@@2@@__crt_stdio_output@@AAE_ND@Z 100299b0 f i libucrt:output.obj
 0001:00028a29       ?state_case_normal_tchar@?$output_processor@_WV?$stream_output_adapter@_W@__crt_stdio_output@@V?$format_validation_base@_WV?$stream_output_adapter@_W@__crt_stdio_output@@@2@@__crt_stdio_output@@AAE_N_W@Z 10029a29 f i libucrt:output.obj
 0001:00028a34       ?state_case_normal_tchar@?$output_processor@_WV?$stream_output_adapter@_W@__crt_stdio_output@@V?$positional_parameter_base@_WV?$stream_output_adapter@_W@__crt_stdio_output@@@2@@__crt_stdio_output@@AAE_N_W@Z 10029a34 f i libucrt:output.obj
 0001:00028a3f       ?state_case_normal_tchar@?$output_processor@_WV?$stream_output_adapter@_W@__crt_stdio_output@@V?$standard_base@_WV?$stream_output_adapter@_W@__crt_stdio_output@@@2@@__crt_stdio_output@@AAE_N_W@Z 10029a3f f i libucrt:output.obj
 0001:00028a4a       ?state_case_normal_tchar@?$output_processor@_WV?$string_output_adapter@_W@__crt_stdio_output@@V?$format_validation_base@_WV?$string_output_adapter@_W@__crt_stdio_output@@@2@@__crt_stdio_output@@AAE_N_W@Z 10029a4a f i libucrt:output.obj
 0001:00028a55       ?state_case_normal_tchar@?$output_processor@_WV?$string_output_adapter@_W@__crt_stdio_output@@V?$positional_parameter_base@_WV?$string_output_adapter@_W@__crt_stdio_output@@@2@@__crt_stdio_output@@AAE_N_W@Z 10029a55 f i libucrt:output.obj
 0001:00028a60       ?state_case_normal_tchar@?$output_processor@_WV?$string_output_adapter@_W@__crt_stdio_output@@V?$standard_base@_WV?$string_output_adapter@_W@__crt_stdio_output@@@2@@__crt_stdio_output@@AAE_N_W@Z 10029a60 f i libucrt:output.obj
 0001:00028a6b       ?state_case_percent@?$output_processor@DV?$stream_output_adapter@D@__crt_stdio_output@@V?$format_validation_base@DV?$stream_output_adapter@D@__crt_stdio_output@@@2@@__crt_stdio_output@@AAE_NXZ 10029a6b f i libucrt:output.obj
 0001:00028a89       ?state_case_percent@?$output_processor@DV?$stream_output_adapter@D@__crt_stdio_output@@V?$positional_parameter_base@DV?$stream_output_adapter@D@__crt_stdio_output@@@2@@__crt_stdio_output@@AAE_NXZ 10029a89 f i libucrt:output.obj
 0001:00028aa7       ?state_case_percent@?$output_processor@DV?$stream_output_adapter@D@__crt_stdio_output@@V?$standard_base@DV?$stream_output_adapter@D@__crt_stdio_output@@@2@@__crt_stdio_output@@AAE_NXZ 10029aa7 f i libucrt:output.obj
 0001:00028ac5       ?state_case_percent@?$output_processor@DV?$string_output_adapter@D@__crt_stdio_output@@V?$format_validation_base@DV?$string_output_adapter@D@__crt_stdio_output@@@2@@__crt_stdio_output@@AAE_NXZ 10029ac5 f i libucrt:output.obj
 0001:00028ae3       ?state_case_percent@?$output_processor@DV?$string_output_adapter@D@__crt_stdio_output@@V?$positional_parameter_base@DV?$string_output_adapter@D@__crt_stdio_output@@@2@@__crt_stdio_output@@AAE_NXZ 10029ae3 f i libucrt:output.obj
 0001:00028b01       ?state_case_percent@?$output_processor@DV?$string_output_adapter@D@__crt_stdio_output@@V?$standard_base@DV?$string_output_adapter@D@__crt_stdio_output@@@2@@__crt_stdio_output@@AAE_NXZ 10029b01 f i libucrt:output.obj
 0001:00028b1f       ?state_case_percent@?$output_processor@_WV?$stream_output_adapter@_W@__crt_stdio_output@@V?$format_validation_base@_WV?$stream_output_adapter@_W@__crt_stdio_output@@@2@@__crt_stdio_output@@AAE_NXZ 10029b1f f i libucrt:output.obj
 0001:00028b3d       ?state_case_percent@?$output_processor@_WV?$stream_output_adapter@_W@__crt_stdio_output@@V?$positional_parameter_base@_WV?$stream_output_adapter@_W@__crt_stdio_output@@@2@@__crt_stdio_output@@AAE_NXZ 10029b3d f i libucrt:output.obj
 0001:00028b5b       ?state_case_percent@?$output_processor@_WV?$stream_output_adapter@_W@__crt_stdio_output@@V?$standard_base@_WV?$stream_output_adapter@_W@__crt_stdio_output@@@2@@__crt_stdio_output@@AAE_NXZ 10029b5b f i libucrt:output.obj
 0001:00028b79       ?state_case_percent@?$output_processor@_WV?$string_output_adapter@_W@__crt_stdio_output@@V?$format_validation_base@_WV?$string_output_adapter@_W@__crt_stdio_output@@@2@@__crt_stdio_output@@AAE_NXZ 10029b79 f i libucrt:output.obj
 0001:00028b97       ?state_case_percent@?$output_processor@_WV?$string_output_adapter@_W@__crt_stdio_output@@V?$positional_parameter_base@_WV?$string_output_adapter@_W@__crt_stdio_output@@@2@@__crt_stdio_output@@AAE_NXZ 10029b97 f i libucrt:output.obj
 0001:00028bb5       ?state_case_percent@?$output_processor@_WV?$string_output_adapter@_W@__crt_stdio_output@@V?$standard_base@_WV?$string_output_adapter@_W@__crt_stdio_output@@@2@@__crt_stdio_output@@AAE_NXZ 10029bb5 f i libucrt:output.obj
 0001:00028bd3       ?state_case_precision@?$output_processor@DV?$stream_output_adapter@D@__crt_stdio_output@@V?$format_validation_base@DV?$stream_output_adapter@D@__crt_stdio_output@@@2@@__crt_stdio_output@@AAE_NXZ 10029bd3 f i libucrt:output.obj
 0001:00028c05       ?state_case_precision@?$output_processor@DV?$stream_output_adapter@D@__crt_stdio_output@@V?$positional_parameter_base@DV?$stream_output_adapter@D@__crt_stdio_output@@@2@@__crt_stdio_output@@AAE_NXZ 10029c05 f i libucrt:output.obj
 0001:00028c4d       ?state_case_precision@?$output_processor@DV?$stream_output_adapter@D@__crt_stdio_output@@V?$standard_base@DV?$stream_output_adapter@D@__crt_stdio_output@@@2@@__crt_stdio_output@@AAE_NXZ 10029c4d f i libucrt:output.obj
 0001:00028c7f       ?state_case_precision@?$output_processor@DV?$string_output_adapter@D@__crt_stdio_output@@V?$format_validation_base@DV?$string_output_adapter@D@__crt_stdio_output@@@2@@__crt_stdio_output@@AAE_NXZ 10029c7f f i libucrt:output.obj
 0001:00028cb1       ?state_case_precision@?$output_processor@DV?$string_output_adapter@D@__crt_stdio_output@@V?$positional_parameter_base@DV?$string_output_adapter@D@__crt_stdio_output@@@2@@__crt_stdio_output@@AAE_NXZ 10029cb1 f i libucrt:output.obj
 0001:00028cf9       ?state_case_precision@?$output_processor@DV?$string_output_adapter@D@__crt_stdio_output@@V?$standard_base@DV?$string_output_adapter@D@__crt_stdio_output@@@2@@__crt_stdio_output@@AAE_NXZ 10029cf9 f i libucrt:output.obj
 0001:00028d2b       ?state_case_precision@?$output_processor@_WV?$stream_output_adapter@_W@__crt_stdio_output@@V?$format_validation_base@_WV?$stream_output_adapter@_W@__crt_stdio_output@@@2@@__crt_stdio_output@@AAE_NXZ 10029d2b f i libucrt:output.obj
 0001:00028d5e       ?state_case_precision@?$output_processor@_WV?$stream_output_adapter@_W@__crt_stdio_output@@V?$positional_parameter_base@_WV?$stream_output_adapter@_W@__crt_stdio_output@@@2@@__crt_stdio_output@@AAE_NXZ 10029d5e f i libucrt:output.obj
 0001:00028da7       ?state_case_precision@?$output_processor@_WV?$stream_output_adapter@_W@__crt_stdio_output@@V?$standard_base@_WV?$stream_output_adapter@_W@__crt_stdio_output@@@2@@__crt_stdio_output@@AAE_NXZ 10029da7 f i libucrt:output.obj
 0001:00028dda       ?state_case_precision@?$output_processor@_WV?$string_output_adapter@_W@__crt_stdio_output@@V?$format_validation_base@_WV?$string_output_adapter@_W@__crt_stdio_output@@@2@@__crt_stdio_output@@AAE_NXZ 10029dda f i libucrt:output.obj
 0001:00028e0d       ?state_case_precision@?$output_processor@_WV?$string_output_adapter@_W@__crt_stdio_output@@V?$positional_parameter_base@_WV?$string_output_adapter@_W@__crt_stdio_output@@@2@@__crt_stdio_output@@AAE_NXZ 10029e0d f i libucrt:output.obj
 0001:00028e56       ?state_case_precision@?$output_processor@_WV?$string_output_adapter@_W@__crt_stdio_output@@V?$standard_base@_WV?$string_output_adapter@_W@__crt_stdio_output@@@2@@__crt_stdio_output@@AAE_NXZ 10029e56 f i libucrt:output.obj
 0001:00028e89       ?state_case_size@?$output_processor@DV?$stream_output_adapter@D@__crt_stdio_output@@V?$format_validation_base@DV?$stream_output_adapter@D@__crt_stdio_output@@@2@@__crt_stdio_output@@AAE_NXZ 10029e89 f i libucrt:output.obj
 0001:0002904c       ?state_case_size@?$output_processor@DV?$stream_output_adapter@D@__crt_stdio_output@@V?$positional_parameter_base@DV?$stream_output_adapter@D@__crt_stdio_output@@@2@@__crt_stdio_output@@AAE_NXZ 1002a04c f i libucrt:output.obj
 0001:0002920f       ?state_case_size@?$output_processor@DV?$stream_output_adapter@D@__crt_stdio_output@@V?$standard_base@DV?$stream_output_adapter@D@__crt_stdio_output@@@2@@__crt_stdio_output@@AAE_NXZ 1002a20f f i libucrt:output.obj
 0001:000293d2       ?state_case_size@?$output_processor@DV?$string_output_adapter@D@__crt_stdio_output@@V?$format_validation_base@DV?$string_output_adapter@D@__crt_stdio_output@@@2@@__crt_stdio_output@@AAE_NXZ 1002a3d2 f i libucrt:output.obj
 0001:00029595       ?state_case_size@?$output_processor@DV?$string_output_adapter@D@__crt_stdio_output@@V?$positional_parameter_base@DV?$string_output_adapter@D@__crt_stdio_output@@@2@@__crt_stdio_output@@AAE_NXZ 1002a595 f i libucrt:output.obj
 0001:00029758       ?state_case_size@?$output_processor@DV?$string_output_adapter@D@__crt_stdio_output@@V?$standard_base@DV?$string_output_adapter@D@__crt_stdio_output@@@2@@__crt_stdio_output@@AAE_NXZ 1002a758 f i libucrt:output.obj
 0001:0002991b       ?state_case_size@?$output_processor@_WV?$stream_output_adapter@_W@__crt_stdio_output@@V?$format_validation_base@_WV?$stream_output_adapter@_W@__crt_stdio_output@@@2@@__crt_stdio_output@@AAE_NXZ 1002a91b f i libucrt:output.obj
 0001:00029af6       ?state_case_size@?$output_processor@_WV?$stream_output_adapter@_W@__crt_stdio_output@@V?$positional_parameter_base@_WV?$stream_output_adapter@_W@__crt_stdio_output@@@2@@__crt_stdio_output@@AAE_NXZ 1002aaf6 f i libucrt:output.obj
 0001:00029cd1       ?state_case_size@?$output_processor@_WV?$stream_output_adapter@_W@__crt_stdio_output@@V?$standard_base@_WV?$stream_output_adapter@_W@__crt_stdio_output@@@2@@__crt_stdio_output@@AAE_NXZ 1002acd1 f i libucrt:output.obj
 0001:00029eac       ?state_case_size@?$output_processor@_WV?$string_output_adapter@_W@__crt_stdio_output@@V?$format_validation_base@_WV?$string_output_adapter@_W@__crt_stdio_output@@@2@@__crt_stdio_output@@AAE_NXZ 1002aeac f i libucrt:output.obj
 0001:0002a087       ?state_case_size@?$output_processor@_WV?$string_output_adapter@_W@__crt_stdio_output@@V?$positional_parameter_base@_WV?$string_output_adapter@_W@__crt_stdio_output@@@2@@__crt_stdio_output@@AAE_NXZ 1002b087 f i libucrt:output.obj
 0001:0002a262       ?state_case_size@?$output_processor@_WV?$string_output_adapter@_W@__crt_stdio_output@@V?$standard_base@_WV?$string_output_adapter@_W@__crt_stdio_output@@@2@@__crt_stdio_output@@AAE_NXZ 1002b262 f i libucrt:output.obj
 0001:0002a43d       ?state_case_type@?$output_processor@DV?$stream_output_adapter@D@__crt_stdio_output@@V?$format_validation_base@DV?$stream_output_adapter@D@__crt_stdio_output@@@2@@__crt_stdio_output@@AAE_NXZ 1002b43d f i libucrt:output.obj
 0001:0002a6f7       ?state_case_type@?$output_processor@DV?$stream_output_adapter@D@__crt_stdio_output@@V?$positional_parameter_base@DV?$stream_output_adapter@D@__crt_stdio_output@@@2@@__crt_stdio_output@@AAE_NXZ 1002b6f7 f i libucrt:output.obj
 0001:0002a9bf       ?state_case_type@?$output_processor@DV?$stream_output_adapter@D@__crt_stdio_output@@V?$standard_base@DV?$stream_output_adapter@D@__crt_stdio_output@@@2@@__crt_stdio_output@@AAE_NXZ 1002b9bf f i libucrt:output.obj
 0001:0002ac79       ?state_case_type@?$output_processor@DV?$string_output_adapter@D@__crt_stdio_output@@V?$format_validation_base@DV?$string_output_adapter@D@__crt_stdio_output@@@2@@__crt_stdio_output@@AAE_NXZ 1002bc79 f i libucrt:output.obj
 0001:0002af33       ?state_case_type@?$output_processor@DV?$string_output_adapter@D@__crt_stdio_output@@V?$positional_parameter_base@DV?$string_output_adapter@D@__crt_stdio_output@@@2@@__crt_stdio_output@@AAE_NXZ 1002bf33 f i libucrt:output.obj
 0001:0002b1fb       ?state_case_type@?$output_processor@DV?$string_output_adapter@D@__crt_stdio_output@@V?$standard_base@DV?$string_output_adapter@D@__crt_stdio_output@@@2@@__crt_stdio_output@@AAE_NXZ 1002c1fb f i libucrt:output.obj
 0001:0002b4b5       ?state_case_type@?$output_processor@_WV?$stream_output_adapter@_W@__crt_stdio_output@@V?$format_validation_base@_WV?$stream_output_adapter@_W@__crt_stdio_output@@@2@@__crt_stdio_output@@AAE_NXZ 1002c4b5 f i libucrt:output.obj
 0001:0002b7a9       ?state_case_type@?$output_processor@_WV?$stream_output_adapter@_W@__crt_stdio_output@@V?$positional_parameter_base@_WV?$stream_output_adapter@_W@__crt_stdio_output@@@2@@__crt_stdio_output@@AAE_NXZ 1002c7a9 f i libucrt:output.obj
 0001:0002bab0       ?state_case_type@?$output_processor@_WV?$stream_output_adapter@_W@__crt_stdio_output@@V?$standard_base@_WV?$stream_output_adapter@_W@__crt_stdio_output@@@2@@__crt_stdio_output@@AAE_NXZ 1002cab0 f i libucrt:output.obj
 0001:0002bda4       ?state_case_type@?$output_processor@_WV?$string_output_adapter@_W@__crt_stdio_output@@V?$format_validation_base@_WV?$string_output_adapter@_W@__crt_stdio_output@@@2@@__crt_stdio_output@@AAE_NXZ 1002cda4 f i libucrt:output.obj
 0001:0002c098       ?state_case_type@?$output_processor@_WV?$string_output_adapter@_W@__crt_stdio_output@@V?$positional_parameter_base@_WV?$string_output_adapter@_W@__crt_stdio_output@@@2@@__crt_stdio_output@@AAE_NXZ 1002d098 f i libucrt:output.obj
 0001:0002c39f       ?state_case_type@?$output_processor@_WV?$string_output_adapter@_W@__crt_stdio_output@@V?$standard_base@_WV?$string_output_adapter@_W@__crt_stdio_output@@@2@@__crt_stdio_output@@AAE_NXZ 1002d39f f i libucrt:output.obj
 0001:0002c693       ?state_case_width@?$output_processor@DV?$stream_output_adapter@D@__crt_stdio_output@@V?$format_validation_base@DV?$stream_output_adapter@D@__crt_stdio_output@@@2@@__crt_stdio_output@@AAE_NXZ 1002d693 f i libucrt:output.obj
 0001:0002c6c8       ?state_case_width@?$output_processor@DV?$stream_output_adapter@D@__crt_stdio_output@@V?$positional_parameter_base@DV?$stream_output_adapter@D@__crt_stdio_output@@@2@@__crt_stdio_output@@AAE_NXZ 1002d6c8 f i libucrt:output.obj
 0001:0002c718       ?state_case_width@?$output_processor@DV?$stream_output_adapter@D@__crt_stdio_output@@V?$standard_base@DV?$stream_output_adapter@D@__crt_stdio_output@@@2@@__crt_stdio_output@@AAE_NXZ 1002d718 f i libucrt:output.obj
 0001:0002c74d       ?state_case_width@?$output_processor@DV?$string_output_adapter@D@__crt_stdio_output@@V?$format_validation_base@DV?$string_output_adapter@D@__crt_stdio_output@@@2@@__crt_stdio_output@@AAE_NXZ 1002d74d f i libucrt:output.obj
 0001:0002c782       ?state_case_width@?$output_processor@DV?$string_output_adapter@D@__crt_stdio_output@@V?$positional_parameter_base@DV?$string_output_adapter@D@__crt_stdio_output@@@2@@__crt_stdio_output@@AAE_NXZ 1002d782 f i libucrt:output.obj
 0001:0002c7d2       ?state_case_width@?$output_processor@DV?$string_output_adapter@D@__crt_stdio_output@@V?$standard_base@DV?$string_output_adapter@D@__crt_stdio_output@@@2@@__crt_stdio_output@@AAE_NXZ 1002d7d2 f i libucrt:output.obj
 0001:0002c807       ?state_case_width@?$output_processor@_WV?$stream_output_adapter@_W@__crt_stdio_output@@V?$format_validation_base@_WV?$stream_output_adapter@_W@__crt_stdio_output@@@2@@__crt_stdio_output@@AAE_NXZ 1002d807 f i libucrt:output.obj
 0001:0002c83e       ?state_case_width@?$output_processor@_WV?$stream_output_adapter@_W@__crt_stdio_output@@V?$positional_parameter_base@_WV?$stream_output_adapter@_W@__crt_stdio_output@@@2@@__crt_stdio_output@@AAE_NXZ 1002d83e f i libucrt:output.obj
 0001:0002c88f       ?state_case_width@?$output_processor@_WV?$stream_output_adapter@_W@__crt_stdio_output@@V?$standard_base@_WV?$stream_output_adapter@_W@__crt_stdio_output@@@2@@__crt_stdio_output@@AAE_NXZ 1002d88f f i libucrt:output.obj
 0001:0002c8c6       ?state_case_width@?$output_processor@_WV?$string_output_adapter@_W@__crt_stdio_output@@V?$format_validation_base@_WV?$string_output_adapter@_W@__crt_stdio_output@@@2@@__crt_stdio_output@@AAE_NXZ 1002d8c6 f i libucrt:output.obj
 0001:0002c8fd       ?state_case_width@?$output_processor@_WV?$string_output_adapter@_W@__crt_stdio_output@@V?$positional_parameter_base@_WV?$string_output_adapter@_W@__crt_stdio_output@@@2@@__crt_stdio_output@@AAE_NXZ 1002d8fd f i libucrt:output.obj
 0001:0002c94e       ?state_case_width@?$output_processor@_WV?$string_output_adapter@_W@__crt_stdio_output@@V?$standard_base@_WV?$string_output_adapter@_W@__crt_stdio_output@@@2@@__crt_stdio_output@@AAE_NXZ 1002d94e f i libucrt:output.obj
 0001:0002c985       ?state_count@?$format_validation_base@DV?$stream_output_adapter@D@__crt_stdio_output@@@__crt_stdio_output@@KAIXZ 1002d985 f i libucrt:output.obj
 0001:0002c989       ?state_count@?$format_validation_base@DV?$string_output_adapter@D@__crt_stdio_output@@@__crt_stdio_output@@KAIXZ 1002d989 f i libucrt:output.obj
 0001:0002c98d       ?state_count@?$format_validation_base@_WV?$stream_output_adapter@_W@__crt_stdio_output@@@__crt_stdio_output@@KAIXZ 1002d98d f i libucrt:output.obj
 0001:0002c991       ?state_count@?$format_validation_base@_WV?$string_output_adapter@_W@__crt_stdio_output@@@__crt_stdio_output@@KAIXZ 1002d991 f i libucrt:output.obj
 0001:0002c995       ?state_count@?$standard_base@DV?$stream_output_adapter@D@__crt_stdio_output@@@__crt_stdio_output@@KAIXZ 1002d995 f i libucrt:output.obj
 0001:0002c999       ?state_count@?$standard_base@DV?$string_output_adapter@D@__crt_stdio_output@@@__crt_stdio_output@@KAIXZ 1002d999 f i libucrt:output.obj
 0001:0002c99d       ?state_count@?$standard_base@_WV?$stream_output_adapter@_W@__crt_stdio_output@@@__crt_stdio_output@@KAIXZ 1002d99d f i libucrt:output.obj
 0001:0002c9a1       ?state_count@?$standard_base@_WV?$string_output_adapter@_W@__crt_stdio_output@@@__crt_stdio_output@@KAIXZ 1002d9a1 f i libucrt:output.obj
 0001:0002c9a5       ?state_transition_table@?$format_validation_base@DV?$stream_output_adapter@D@__crt_stdio_output@@@__crt_stdio_output@@KAPBEXZ 1002d9a5 f i libucrt:output.obj
 0001:0002c9ab       ?state_transition_table@?$format_validation_base@DV?$string_output_adapter@D@__crt_stdio_output@@@__crt_stdio_output@@KAPBEXZ 1002d9ab f i libucrt:output.obj
 0001:0002c9b1       ?state_transition_table@?$format_validation_base@_WV?$stream_output_adapter@_W@__crt_stdio_output@@@__crt_stdio_output@@KAPBEXZ 1002d9b1 f i libucrt:output.obj
 0001:0002c9b7       ?state_transition_table@?$format_validation_base@_WV?$string_output_adapter@_W@__crt_stdio_output@@@__crt_stdio_output@@KAPBEXZ 1002d9b7 f i libucrt:output.obj
 0001:0002c9bd       ?state_transition_table@?$standard_base@DV?$stream_output_adapter@D@__crt_stdio_output@@@__crt_stdio_output@@KAPBEXZ 1002d9bd f i libucrt:output.obj
 0001:0002c9c3       ?state_transition_table@?$standard_base@DV?$string_output_adapter@D@__crt_stdio_output@@@__crt_stdio_output@@KAPBEXZ 1002d9c3 f i libucrt:output.obj
 0001:0002c9c9       ?state_transition_table@?$standard_base@_WV?$stream_output_adapter@_W@__crt_stdio_output@@@__crt_stdio_output@@KAPBEXZ 1002d9c9 f i libucrt:output.obj
 0001:0002c9cf       ?state_transition_table@?$standard_base@_WV?$string_output_adapter@_W@__crt_stdio_output@@@__crt_stdio_output@@KAPBEXZ 1002d9cf f i libucrt:output.obj
 0001:0002c9d5       ?to_integer_size@__crt_stdio_output@@YAIW4length_modifier@1@@Z 1002d9d5 f i libucrt:output.obj
 0001:0002ca48       ?type_case_X@?$output_processor@DV?$stream_output_adapter@D@__crt_stdio_output@@V?$format_validation_base@DV?$stream_output_adapter@D@__crt_stdio_output@@@2@@__crt_stdio_output@@AAE_NXZ 1002da48 f i libucrt:output.obj
 0001:0002ca54       ?type_case_X@?$output_processor@DV?$stream_output_adapter@D@__crt_stdio_output@@V?$positional_parameter_base@DV?$stream_output_adapter@D@__crt_stdio_output@@@2@@__crt_stdio_output@@AAE_NXZ 1002da54 f i libucrt:output.obj
 0001:0002ca60       ?type_case_X@?$output_processor@DV?$stream_output_adapter@D@__crt_stdio_output@@V?$standard_base@DV?$stream_output_adapter@D@__crt_stdio_output@@@2@@__crt_stdio_output@@AAE_NXZ 1002da60 f i libucrt:output.obj
 0001:0002ca6c       ?type_case_X@?$output_processor@DV?$string_output_adapter@D@__crt_stdio_output@@V?$format_validation_base@DV?$string_output_adapter@D@__crt_stdio_output@@@2@@__crt_stdio_output@@AAE_NXZ 1002da6c f i libucrt:output.obj
 0001:0002ca78       ?type_case_X@?$output_processor@DV?$string_output_adapter@D@__crt_stdio_output@@V?$positional_parameter_base@DV?$string_output_adapter@D@__crt_stdio_output@@@2@@__crt_stdio_output@@AAE_NXZ 1002da78 f i libucrt:output.obj
 0001:0002ca84       ?type_case_X@?$output_processor@DV?$string_output_adapter@D@__crt_stdio_output@@V?$standard_base@DV?$string_output_adapter@D@__crt_stdio_output@@@2@@__crt_stdio_output@@AAE_NXZ 1002da84 f i libucrt:output.obj
 0001:0002ca90       ?type_case_X@?$output_processor@_WV?$stream_output_adapter@_W@__crt_stdio_output@@V?$format_validation_base@_WV?$stream_output_adapter@_W@__crt_stdio_output@@@2@@__crt_stdio_output@@AAE_NXZ 1002da90 f i libucrt:output.obj
 0001:0002ca9c       ?type_case_X@?$output_processor@_WV?$stream_output_adapter@_W@__crt_stdio_output@@V?$positional_parameter_base@_WV?$stream_output_adapter@_W@__crt_stdio_output@@@2@@__crt_stdio_output@@AAE_NXZ 1002da9c f i libucrt:output.obj
 0001:0002caa8       ?type_case_X@?$output_processor@_WV?$stream_output_adapter@_W@__crt_stdio_output@@V?$standard_base@_WV?$stream_output_adapter@_W@__crt_stdio_output@@@2@@__crt_stdio_output@@AAE_NXZ 1002daa8 f i libucrt:output.obj
 0001:0002cab4       ?type_case_X@?$output_processor@_WV?$string_output_adapter@_W@__crt_stdio_output@@V?$format_validation_base@_WV?$string_output_adapter@_W@__crt_stdio_output@@@2@@__crt_stdio_output@@AAE_NXZ 1002dab4 f i libucrt:output.obj
 0001:0002cac0       ?type_case_X@?$output_processor@_WV?$string_output_adapter@_W@__crt_stdio_output@@V?$positional_parameter_base@_WV?$string_output_adapter@_W@__crt_stdio_output@@@2@@__crt_stdio_output@@AAE_NXZ 1002dac0 f i libucrt:output.obj
 0001:0002cacc       ?type_case_X@?$output_processor@_WV?$string_output_adapter@_W@__crt_stdio_output@@V?$standard_base@_WV?$string_output_adapter@_W@__crt_stdio_output@@@2@@__crt_stdio_output@@AAE_NXZ 1002dacc f i libucrt:output.obj
 0001:0002cad8       ?type_case_Z@?$output_processor@DV?$stream_output_adapter@D@__crt_stdio_output@@V?$format_validation_base@DV?$stream_output_adapter@D@__crt_stdio_output@@@2@@__crt_stdio_output@@AAE_NXZ 1002dad8 f i libucrt:output.obj
 0001:0002cb53       ?type_case_Z@?$output_processor@DV?$stream_output_adapter@D@__crt_stdio_output@@V?$positional_parameter_base@DV?$stream_output_adapter@D@__crt_stdio_output@@@2@@__crt_stdio_output@@AAE_NXZ 1002db53 f i libucrt:output.obj
 0001:0002cbf1       ?type_case_Z@?$output_processor@DV?$stream_output_adapter@D@__crt_stdio_output@@V?$standard_base@DV?$stream_output_adapter@D@__crt_stdio_output@@@2@@__crt_stdio_output@@AAE_NXZ 1002dbf1 f i libucrt:output.obj
 0001:0002cc6c       ?type_case_Z@?$output_processor@DV?$string_output_adapter@D@__crt_stdio_output@@V?$format_validation_base@DV?$string_output_adapter@D@__crt_stdio_output@@@2@@__crt_stdio_output@@AAE_NXZ 1002dc6c f i libucrt:output.obj
 0001:0002cce7       ?type_case_Z@?$output_processor@DV?$string_output_adapter@D@__crt_stdio_output@@V?$positional_parameter_base@DV?$string_output_adapter@D@__crt_stdio_output@@@2@@__crt_stdio_output@@AAE_NXZ 1002dce7 f i libucrt:output.obj
 0001:0002cd85       ?type_case_Z@?$output_processor@DV?$string_output_adapter@D@__crt_stdio_output@@V?$standard_base@DV?$string_output_adapter@D@__crt_stdio_output@@@2@@__crt_stdio_output@@AAE_NXZ 1002dd85 f i libucrt:output.obj
 0001:0002ce00       ?type_case_Z@?$output_processor@_WV?$stream_output_adapter@_W@__crt_stdio_output@@V?$format_validation_base@_WV?$stream_output_adapter@_W@__crt_stdio_output@@@2@@__crt_stdio_output@@AAE_NXZ 1002de00 f i libucrt:output.obj
 0001:0002ce7b       ?type_case_Z@?$output_processor@_WV?$stream_output_adapter@_W@__crt_stdio_output@@V?$positional_parameter_base@_WV?$stream_output_adapter@_W@__crt_stdio_output@@@2@@__crt_stdio_output@@AAE_NXZ 1002de7b f i libucrt:output.obj
 0001:0002cf19       ?type_case_Z@?$output_processor@_WV?$stream_output_adapter@_W@__crt_stdio_output@@V?$standard_base@_WV?$stream_output_adapter@_W@__crt_stdio_output@@@2@@__crt_stdio_output@@AAE_NXZ 1002df19 f i libucrt:output.obj
 0001:0002cf94       ?type_case_Z@?$output_processor@_WV?$string_output_adapter@_W@__crt_stdio_output@@V?$format_validation_base@_WV?$string_output_adapter@_W@__crt_stdio_output@@@2@@__crt_stdio_output@@AAE_NXZ 1002df94 f i libucrt:output.obj
 0001:0002d00f       ?type_case_Z@?$output_processor@_WV?$string_output_adapter@_W@__crt_stdio_output@@V?$positional_parameter_base@_WV?$string_output_adapter@_W@__crt_stdio_output@@@2@@__crt_stdio_output@@AAE_NXZ 1002e00f f i libucrt:output.obj
 0001:0002d0ad       ?type_case_Z@?$output_processor@_WV?$string_output_adapter@_W@__crt_stdio_output@@V?$standard_base@_WV?$string_output_adapter@_W@__crt_stdio_output@@@2@@__crt_stdio_output@@AAE_NXZ 1002e0ad f i libucrt:output.obj
 0001:0002d128       ?type_case_a@?$output_processor@DV?$stream_output_adapter@D@__crt_stdio_output@@V?$format_validation_base@DV?$stream_output_adapter@D@__crt_stdio_output@@@2@@__crt_stdio_output@@AAE_NXZ 1002e128 f i libucrt:output.obj
 0001:0002d2d8       ?type_case_a@?$output_processor@DV?$stream_output_adapter@D@__crt_stdio_output@@V?$positional_parameter_base@DV?$stream_output_adapter@D@__crt_stdio_output@@@2@@__crt_stdio_output@@AAE_NXZ 1002e2d8 f i libucrt:output.obj
 0001:0002d4af       ?type_case_a@?$output_processor@DV?$stream_output_adapter@D@__crt_stdio_output@@V?$standard_base@DV?$stream_output_adapter@D@__crt_stdio_output@@@2@@__crt_stdio_output@@AAE_NXZ 1002e4af f i libucrt:output.obj
 0001:0002d65f       ?type_case_a@?$output_processor@DV?$string_output_adapter@D@__crt_stdio_output@@V?$format_validation_base@DV?$string_output_adapter@D@__crt_stdio_output@@@2@@__crt_stdio_output@@AAE_NXZ 1002e65f f i libucrt:output.obj
 0001:0002d80f       ?type_case_a@?$output_processor@DV?$string_output_adapter@D@__crt_stdio_output@@V?$positional_parameter_base@DV?$string_output_adapter@D@__crt_stdio_output@@@2@@__crt_stdio_output@@AAE_NXZ 1002e80f f i libucrt:output.obj
 0001:0002d9e6       ?type_case_a@?$output_processor@DV?$string_output_adapter@D@__crt_stdio_output@@V?$standard_base@DV?$string_output_adapter@D@__crt_stdio_output@@@2@@__crt_stdio_output@@AAE_NXZ 1002e9e6 f i libucrt:output.obj
 0001:0002db96       ?type_case_a@?$output_processor@_WV?$stream_output_adapter@_W@__crt_stdio_output@@V?$format_validation_base@_WV?$stream_output_adapter@_W@__crt_stdio_output@@@2@@__crt_stdio_output@@AAE_NXZ 1002eb96 f i libucrt:output.obj
 0001:0002dd64       ?type_case_a@?$output_processor@_WV?$stream_output_adapter@_W@__crt_stdio_output@@V?$positional_parameter_base@_WV?$stream_output_adapter@_W@__crt_stdio_output@@@2@@__crt_stdio_output@@AAE_NXZ 1002ed64 f i libucrt:output.obj
 0001:0002df59       ?type_case_a@?$output_processor@_WV?$stream_output_adapter@_W@__crt_stdio_output@@V?$standard_base@_WV?$stream_output_adapter@_W@__crt_stdio_output@@@2@@__crt_stdio_output@@AAE_NXZ 1002ef59 f i libucrt:output.obj
 0001:0002e127       ?type_case_a@?$output_processor@_WV?$string_output_adapter@_W@__crt_stdio_output@@V?$format_validation_base@_WV?$string_output_adapter@_W@__crt_stdio_output@@@2@@__crt_stdio_output@@AAE_NXZ 1002f127 f i libucrt:output.obj
 0001:0002e2f5       ?type_case_a@?$output_processor@_WV?$string_output_adapter@_W@__crt_stdio_output@@V?$positional_parameter_base@_WV?$string_output_adapter@_W@__crt_stdio_output@@@2@@__crt_stdio_output@@AAE_NXZ 1002f2f5 f i libucrt:output.obj
 0001:0002e4ea       ?type_case_a@?$output_processor@_WV?$string_output_adapter@_W@__crt_stdio_output@@V?$standard_base@_WV?$string_output_adapter@_W@__crt_stdio_output@@@2@@__crt_stdio_output@@AAE_NXZ 1002f4ea f i libucrt:output.obj
 0001:0002e6b8       ?type_case_c@?$output_processor@DV?$stream_output_adapter@D@__crt_stdio_output@@V?$format_validation_base@DV?$stream_output_adapter@D@__crt_stdio_output@@@2@@__crt_stdio_output@@AAE_NXZ 1002f6b8 f i libucrt:output.obj
 0001:0002e6c2       ?type_case_c@?$output_processor@DV?$stream_output_adapter@D@__crt_stdio_output@@V?$positional_parameter_base@DV?$stream_output_adapter@D@__crt_stdio_output@@@2@@__crt_stdio_output@@AAE_NXZ 1002f6c2 f i libucrt:output.obj
 0001:0002e6cc       ?type_case_c@?$output_processor@DV?$stream_output_adapter@D@__crt_stdio_output@@V?$standard_base@DV?$stream_output_adapter@D@__crt_stdio_output@@@2@@__crt_stdio_output@@AAE_NXZ 1002f6cc f i libucrt:output.obj
 0001:0002e6d6       ?type_case_c@?$output_processor@DV?$string_output_adapter@D@__crt_stdio_output@@V?$format_validation_base@DV?$string_output_adapter@D@__crt_stdio_output@@@2@@__crt_stdio_output@@AAE_NXZ 1002f6d6 f i libucrt:output.obj
 0001:0002e6e0       ?type_case_c@?$output_processor@DV?$string_output_adapter@D@__crt_stdio_output@@V?$positional_parameter_base@DV?$string_output_adapter@D@__crt_stdio_output@@@2@@__crt_stdio_output@@AAE_NXZ 1002f6e0 f i libucrt:output.obj
 0001:0002e6ea       ?type_case_c@?$output_processor@DV?$string_output_adapter@D@__crt_stdio_output@@V?$standard_base@DV?$string_output_adapter@D@__crt_stdio_output@@@2@@__crt_stdio_output@@AAE_NXZ 1002f6ea f i libucrt:output.obj
 0001:0002e6f4       ?type_case_c@?$output_processor@_WV?$stream_output_adapter@_W@__crt_stdio_output@@V?$format_validation_base@_WV?$stream_output_adapter@_W@__crt_stdio_output@@@2@@__crt_stdio_output@@AAE_NXZ 1002f6f4 f i libucrt:output.obj
 0001:0002e6fe       ?type_case_c@?$output_processor@_WV?$stream_output_adapter@_W@__crt_stdio_output@@V?$positional_parameter_base@_WV?$stream_output_adapter@_W@__crt_stdio_output@@@2@@__crt_stdio_output@@AAE_NXZ 1002f6fe f i libucrt:output.obj
 0001:0002e708       ?type_case_c@?$output_processor@_WV?$stream_output_adapter@_W@__crt_stdio_output@@V?$standard_base@_WV?$stream_output_adapter@_W@__crt_stdio_output@@@2@@__crt_stdio_output@@AAE_NXZ 1002f708 f i libucrt:output.obj
 0001:0002e712       ?type_case_c@?$output_processor@_WV?$string_output_adapter@_W@__crt_stdio_output@@V?$format_validation_base@_WV?$string_output_adapter@_W@__crt_stdio_output@@@2@@__crt_stdio_output@@AAE_NXZ 1002f712 f i libucrt:output.obj
 0001:0002e71c       ?type_case_c@?$output_processor@_WV?$string_output_adapter@_W@__crt_stdio_output@@V?$positional_parameter_base@_WV?$string_output_adapter@_W@__crt_stdio_output@@@2@@__crt_stdio_output@@AAE_NXZ 1002f71c f i libucrt:output.obj
 0001:0002e726       ?type_case_c@?$output_processor@_WV?$string_output_adapter@_W@__crt_stdio_output@@V?$standard_base@_WV?$string_output_adapter@_W@__crt_stdio_output@@@2@@__crt_stdio_output@@AAE_NXZ 1002f726 f i libucrt:output.obj
 0001:0002e730       ?type_case_c_tchar@?$output_processor@DV?$stream_output_adapter@D@__crt_stdio_output@@V?$format_validation_base@DV?$stream_output_adapter@D@__crt_stdio_output@@@2@@__crt_stdio_output@@AAE_ND@Z 1002f730 f i libucrt:output.obj
 0001:0002e7e4       ?type_case_c_tchar@?$output_processor@DV?$stream_output_adapter@D@__crt_stdio_output@@V?$positional_parameter_base@DV?$stream_output_adapter@D@__crt_stdio_output@@@2@@__crt_stdio_output@@AAE_ND@Z 1002f7e4 f i libucrt:output.obj
 0001:0002e8d4       ?type_case_c_tchar@?$output_processor@DV?$stream_output_adapter@D@__crt_stdio_output@@V?$standard_base@DV?$stream_output_adapter@D@__crt_stdio_output@@@2@@__crt_stdio_output@@AAE_ND@Z 1002f8d4 f i libucrt:output.obj
 0001:0002e988       ?type_case_c_tchar@?$output_processor@DV?$string_output_adapter@D@__crt_stdio_output@@V?$format_validation_base@DV?$string_output_adapter@D@__crt_stdio_output@@@2@@__crt_stdio_output@@AAE_ND@Z 1002f988 f i libucrt:output.obj
 0001:0002ea3c       ?type_case_c_tchar@?$output_processor@DV?$string_output_adapter@D@__crt_stdio_output@@V?$positional_parameter_base@DV?$string_output_adapter@D@__crt_stdio_output@@@2@@__crt_stdio_output@@AAE_ND@Z 1002fa3c f i libucrt:output.obj
 0001:0002eb2c       ?type_case_c_tchar@?$output_processor@DV?$string_output_adapter@D@__crt_stdio_output@@V?$standard_base@DV?$string_output_adapter@D@__crt_stdio_output@@@2@@__crt_stdio_output@@AAE_ND@Z 1002fb2c f i libucrt:output.obj
 0001:0002ebe0       ?type_case_c_tchar@?$output_processor@_WV?$stream_output_adapter@_W@__crt_stdio_output@@V?$format_validation_base@_WV?$stream_output_adapter@_W@__crt_stdio_output@@@2@@__crt_stdio_output@@AAE_N_W@Z 1002fbe0 f i libucrt:output.obj
 0001:0002ec9e       ?type_case_c_tchar@?$output_processor@_WV?$stream_output_adapter@_W@__crt_stdio_output@@V?$positional_parameter_base@_WV?$stream_output_adapter@_W@__crt_stdio_output@@@2@@__crt_stdio_output@@AAE_N_W@Z 1002fc9e f i libucrt:output.obj
 0001:0002ed78       ?type_case_c_tchar@?$output_processor@_WV?$stream_output_adapter@_W@__crt_stdio_output@@V?$standard_base@_WV?$stream_output_adapter@_W@__crt_stdio_output@@@2@@__crt_stdio_output@@AAE_N_W@Z 1002fd78 f i libucrt:output.obj
 0001:0002ee36       ?type_case_c_tchar@?$output_processor@_WV?$string_output_adapter@_W@__crt_stdio_output@@V?$format_validation_base@_WV?$string_output_adapter@_W@__crt_stdio_output@@@2@@__crt_stdio_output@@AAE_N_W@Z 1002fe36 f i libucrt:output.obj
 0001:0002eef4       ?type_case_c_tchar@?$output_processor@_WV?$string_output_adapter@_W@__crt_stdio_output@@V?$positional_parameter_base@_WV?$string_output_adapter@_W@__crt_stdio_output@@@2@@__crt_stdio_output@@AAE_N_W@Z 1002fef4 f i libucrt:output.obj
 0001:0002efce       ?type_case_c_tchar@?$output_processor@_WV?$string_output_adapter@_W@__crt_stdio_output@@V?$standard_base@_WV?$string_output_adapter@_W@__crt_stdio_output@@@2@@__crt_stdio_output@@AAE_N_W@Z 1002ffce f i libucrt:output.obj
 0001:0002f08c       ?type_case_d@?$output_processor@DV?$stream_output_adapter@D@__crt_stdio_output@@V?$format_validation_base@DV?$stream_output_adapter@D@__crt_stdio_output@@@2@@__crt_stdio_output@@AAE_NXZ 1003008c f i libucrt:output.obj
 0001:0002f09d       ?type_case_d@?$output_processor@DV?$stream_output_adapter@D@__crt_stdio_output@@V?$positional_parameter_base@DV?$stream_output_adapter@D@__crt_stdio_output@@@2@@__crt_stdio_output@@AAE_NXZ 1003009d f i libucrt:output.obj
 0001:0002f0ae       ?type_case_d@?$output_processor@DV?$stream_output_adapter@D@__crt_stdio_output@@V?$standard_base@DV?$stream_output_adapter@D@__crt_stdio_output@@@2@@__crt_stdio_output@@AAE_NXZ 100300ae f i libucrt:output.obj
 0001:0002f0bf       ?type_case_d@?$output_processor@DV?$string_output_adapter@D@__crt_stdio_output@@V?$format_validation_base@DV?$string_output_adapter@D@__crt_stdio_output@@@2@@__crt_stdio_output@@AAE_NXZ 100300bf f i libucrt:output.obj
 0001:0002f0d0       ?type_case_d@?$output_processor@DV?$string_output_adapter@D@__crt_stdio_output@@V?$positional_parameter_base@DV?$string_output_adapter@D@__crt_stdio_output@@@2@@__crt_stdio_output@@AAE_NXZ 100300d0 f i libucrt:output.obj
 0001:0002f0e1       ?type_case_d@?$output_processor@DV?$string_output_adapter@D@__crt_stdio_output@@V?$standard_base@DV?$string_output_adapter@D@__crt_stdio_output@@@2@@__crt_stdio_output@@AAE_NXZ 100300e1 f i libucrt:output.obj
 0001:0002f0f2       ?type_case_d@?$output_processor@_WV?$stream_output_adapter@_W@__crt_stdio_output@@V?$format_validation_base@_WV?$stream_output_adapter@_W@__crt_stdio_output@@@2@@__crt_stdio_output@@AAE_NXZ 100300f2 f i libucrt:output.obj
 0001:0002f103       ?type_case_d@?$output_processor@_WV?$stream_output_adapter@_W@__crt_stdio_output@@V?$positional_parameter_base@_WV?$stream_output_adapter@_W@__crt_stdio_output@@@2@@__crt_stdio_output@@AAE_NXZ 10030103 f i libucrt:output.obj
 0001:0002f114       ?type_case_d@?$output_processor@_WV?$stream_output_adapter@_W@__crt_stdio_output@@V?$standard_base@_WV?$stream_output_adapter@_W@__crt_stdio_output@@@2@@__crt_stdio_output@@AAE_NXZ 10030114 f i libucrt:output.obj
 0001:0002f125       ?type_case_d@?$output_processor@_WV?$string_output_adapter@_W@__crt_stdio_output@@V?$format_validation_base@_WV?$string_output_adapter@_W@__crt_stdio_output@@@2@@__crt_stdio_output@@AAE_NXZ 10030125 f i libucrt:output.obj
 0001:0002f136       ?type_case_d@?$output_processor@_WV?$string_output_adapter@_W@__crt_stdio_output@@V?$positional_parameter_base@_WV?$string_output_adapter@_W@__crt_stdio_output@@@2@@__crt_stdio_output@@AAE_NXZ 10030136 f i libucrt:output.obj
 0001:0002f147       ?type_case_d@?$output_processor@_WV?$string_output_adapter@_W@__crt_stdio_output@@V?$standard_base@_WV?$string_output_adapter@_W@__crt_stdio_output@@@2@@__crt_stdio_output@@AAE_NXZ 10030147 f i libucrt:output.obj
 0001:0002f158       ?type_case_integer@?$output_processor@DV?$stream_output_adapter@D@__crt_stdio_output@@V?$format_validation_base@DV?$stream_output_adapter@D@__crt_stdio_output@@@2@@__crt_stdio_output@@AAE_NI_N@Z 10030158 f i libucrt:output.obj
 0001:0002f2f4       ?type_case_integer@?$output_processor@DV?$stream_output_adapter@D@__crt_stdio_output@@V?$positional_parameter_base@DV?$stream_output_adapter@D@__crt_stdio_output@@@2@@__crt_stdio_output@@AAE_NI_N@Z 100302f4 f i libucrt:output.obj
 0001:0002f4d1       ?type_case_integer@?$output_processor@DV?$stream_output_adapter@D@__crt_stdio_output@@V?$standard_base@DV?$stream_output_adapter@D@__crt_stdio_output@@@2@@__crt_stdio_output@@AAE_NI_N@Z 100304d1 f i libucrt:output.obj
 0001:0002f66d       ?type_case_integer@?$output_processor@DV?$string_output_adapter@D@__crt_stdio_output@@V?$format_validation_base@DV?$string_output_adapter@D@__crt_stdio_output@@@2@@__crt_stdio_output@@AAE_NI_N@Z 1003066d f i libucrt:output.obj
 0001:0002f809       ?type_case_integer@?$output_processor@DV?$string_output_adapter@D@__crt_stdio_output@@V?$positional_parameter_base@DV?$string_output_adapter@D@__crt_stdio_output@@@2@@__crt_stdio_output@@AAE_NI_N@Z 10030809 f i libucrt:output.obj
 0001:0002f9e6       ?type_case_integer@?$output_processor@DV?$string_output_adapter@D@__crt_stdio_output@@V?$standard_base@DV?$string_output_adapter@D@__crt_stdio_output@@@2@@__crt_stdio_output@@AAE_NI_N@Z 100309e6 f i libucrt:output.obj
 0001:0002fb82       ?type_case_integer@?$output_processor@_WV?$stream_output_adapter@_W@__crt_stdio_output@@V?$format_validation_base@_WV?$stream_output_adapter@_W@__crt_stdio_output@@@2@@__crt_stdio_output@@AAE_NI_N@Z 10030b82 f i libucrt:output.obj
 0001:0002fd1e       ?type_case_integer@?$output_processor@_WV?$stream_output_adapter@_W@__crt_stdio_output@@V?$positional_parameter_base@_WV?$stream_output_adapter@_W@__crt_stdio_output@@@2@@__crt_stdio_output@@AAE_NI_N@Z 10030d1e f i libucrt:output.obj
 0001:0002fefb       ?type_case_integer@?$output_processor@_WV?$stream_output_adapter@_W@__crt_stdio_output@@V?$standard_base@_WV?$stream_output_adapter@_W@__crt_stdio_output@@@2@@__crt_stdio_output@@AAE_NI_N@Z 10030efb f i libucrt:output.obj
 0001:00030097       ?type_case_integer@?$output_processor@_WV?$string_output_adapter@_W@__crt_stdio_output@@V?$format_validation_base@_WV?$string_output_adapter@_W@__crt_stdio_output@@@2@@__crt_stdio_output@@AAE_NI_N@Z 10031097 f i libucrt:output.obj
 0001:00030233       ?type_case_integer@?$output_processor@_WV?$string_output_adapter@_W@__crt_stdio_output@@V?$positional_parameter_base@_WV?$string_output_adapter@_W@__crt_stdio_output@@@2@@__crt_stdio_output@@AAE_NI_N@Z 10031233 f i libucrt:output.obj
 0001:00030410       ?type_case_integer@?$output_processor@_WV?$string_output_adapter@_W@__crt_stdio_output@@V?$standard_base@_WV?$string_output_adapter@_W@__crt_stdio_output@@@2@@__crt_stdio_output@@AAE_NI_N@Z 10031410 f i libucrt:output.obj
 0001:000305ac       ?type_case_n@?$output_processor@DV?$stream_output_adapter@D@__crt_stdio_output@@V?$format_validation_base@DV?$stream_output_adapter@D@__crt_stdio_output@@@2@@__crt_stdio_output@@AAE_NXZ 100315ac f i libucrt:output.obj
 0001:0003063d       ?type_case_n@?$output_processor@DV?$stream_output_adapter@D@__crt_stdio_output@@V?$positional_parameter_base@DV?$stream_output_adapter@D@__crt_stdio_output@@@2@@__crt_stdio_output@@AAE_NXZ 1003163d f i libucrt:output.obj
 0001:000306fc       ?type_case_n@?$output_processor@DV?$stream_output_adapter@D@__crt_stdio_output@@V?$standard_base@DV?$stream_output_adapter@D@__crt_stdio_output@@@2@@__crt_stdio_output@@AAE_NXZ 100316fc f i libucrt:output.obj
 0001:0003078d       ?type_case_n@?$output_processor@DV?$string_output_adapter@D@__crt_stdio_output@@V?$format_validation_base@DV?$string_output_adapter@D@__crt_stdio_output@@@2@@__crt_stdio_output@@AAE_NXZ 1003178d f i libucrt:output.obj
 0001:0003081e       ?type_case_n@?$output_processor@DV?$string_output_adapter@D@__crt_stdio_output@@V?$positional_parameter_base@DV?$string_output_adapter@D@__crt_stdio_output@@@2@@__crt_stdio_output@@AAE_NXZ 1003181e f i libucrt:output.obj
 0001:000308dd       ?type_case_n@?$output_processor@DV?$string_output_adapter@D@__crt_stdio_output@@V?$standard_base@DV?$string_output_adapter@D@__crt_stdio_output@@@2@@__crt_stdio_output@@AAE_NXZ 100318dd f i libucrt:output.obj
 0001:0003096e       ?type_case_n@?$output_processor@_WV?$stream_output_adapter@_W@__crt_stdio_output@@V?$format_validation_base@_WV?$stream_output_adapter@_W@__crt_stdio_output@@@2@@__crt_stdio_output@@AAE_NXZ 1003196e f i libucrt:output.obj
 0001:000309ff       ?type_case_n@?$output_processor@_WV?$stream_output_adapter@_W@__crt_stdio_output@@V?$positional_parameter_base@_WV?$stream_output_adapter@_W@__crt_stdio_output@@@2@@__crt_stdio_output@@AAE_NXZ 100319ff f i libucrt:output.obj
 0001:00030abe       ?type_case_n@?$output_processor@_WV?$stream_output_adapter@_W@__crt_stdio_output@@V?$standard_base@_WV?$stream_output_adapter@_W@__crt_stdio_output@@@2@@__crt_stdio_output@@AAE_NXZ 10031abe f i libucrt:output.obj
 0001:00030b4f       ?type_case_n@?$output_processor@_WV?$string_output_adapter@_W@__crt_stdio_output@@V?$format_validation_base@_WV?$string_output_adapter@_W@__crt_stdio_output@@@2@@__crt_stdio_output@@AAE_NXZ 10031b4f f i libucrt:output.obj
 0001:00030be0       ?type_case_n@?$output_processor@_WV?$string_output_adapter@_W@__crt_stdio_output@@V?$positional_parameter_base@_WV?$string_output_adapter@_W@__crt_stdio_output@@@2@@__crt_stdio_output@@AAE_NXZ 10031be0 f i libucrt:output.obj
 0001:00030c9f       ?type_case_n@?$output_processor@_WV?$string_output_adapter@_W@__crt_stdio_output@@V?$standard_base@_WV?$string_output_adapter@_W@__crt_stdio_output@@@2@@__crt_stdio_output@@AAE_NXZ 10031c9f f i libucrt:output.obj
 0001:00030d30       ?type_case_o@?$output_processor@DV?$stream_output_adapter@D@__crt_stdio_output@@V?$format_validation_base@DV?$stream_output_adapter@D@__crt_stdio_output@@@2@@__crt_stdio_output@@AAE_NXZ 10031d30 f i libucrt:output.obj
 0001:00030d56       ?type_case_o@?$output_processor@DV?$stream_output_adapter@D@__crt_stdio_output@@V?$positional_parameter_base@DV?$stream_output_adapter@D@__crt_stdio_output@@@2@@__crt_stdio_output@@AAE_NXZ 10031d56 f i libucrt:output.obj
 0001:00030d7c       ?type_case_o@?$output_processor@DV?$stream_output_adapter@D@__crt_stdio_output@@V?$standard_base@DV?$stream_output_adapter@D@__crt_stdio_output@@@2@@__crt_stdio_output@@AAE_NXZ 10031d7c f i libucrt:output.obj
 0001:00030da2       ?type_case_o@?$output_processor@DV?$string_output_adapter@D@__crt_stdio_output@@V?$format_validation_base@DV?$string_output_adapter@D@__crt_stdio_output@@@2@@__crt_stdio_output@@AAE_NXZ 10031da2 f i libucrt:output.obj
 0001:00030dc8       ?type_case_o@?$output_processor@DV?$string_output_adapter@D@__crt_stdio_output@@V?$positional_parameter_base@DV?$string_output_adapter@D@__crt_stdio_output@@@2@@__crt_stdio_output@@AAE_NXZ 10031dc8 f i libucrt:output.obj
 0001:00030dee       ?type_case_o@?$output_processor@DV?$string_output_adapter@D@__crt_stdio_output@@V?$standard_base@DV?$string_output_adapter@D@__crt_stdio_output@@@2@@__crt_stdio_output@@AAE_NXZ 10031dee f i libucrt:output.obj
 0001:00030e14       ?type_case_o@?$output_processor@_WV?$stream_output_adapter@_W@__crt_stdio_output@@V?$format_validation_base@_WV?$stream_output_adapter@_W@__crt_stdio_output@@@2@@__crt_stdio_output@@AAE_NXZ 10031e14 f i libucrt:output.obj
 0001:00030e3a       ?type_case_o@?$output_processor@_WV?$stream_output_adapter@_W@__crt_stdio_output@@V?$positional_parameter_base@_WV?$stream_output_adapter@_W@__crt_stdio_output@@@2@@__crt_stdio_output@@AAE_NXZ 10031e3a f i libucrt:output.obj
 0001:00030e60       ?type_case_o@?$output_processor@_WV?$stream_output_adapter@_W@__crt_stdio_output@@V?$standard_base@_WV?$stream_output_adapter@_W@__crt_stdio_output@@@2@@__crt_stdio_output@@AAE_NXZ 10031e60 f i libucrt:output.obj
 0001:00030e86       ?type_case_o@?$output_processor@_WV?$string_output_adapter@_W@__crt_stdio_output@@V?$format_validation_base@_WV?$string_output_adapter@_W@__crt_stdio_output@@@2@@__crt_stdio_output@@AAE_NXZ 10031e86 f i libucrt:output.obj
 0001:00030eac       ?type_case_o@?$output_processor@_WV?$string_output_adapter@_W@__crt_stdio_output@@V?$positional_parameter_base@_WV?$string_output_adapter@_W@__crt_stdio_output@@@2@@__crt_stdio_output@@AAE_NXZ 10031eac f i libucrt:output.obj
 0001:00030ed2       ?type_case_o@?$output_processor@_WV?$string_output_adapter@_W@__crt_stdio_output@@V?$standard_base@_WV?$string_output_adapter@_W@__crt_stdio_output@@@2@@__crt_stdio_output@@AAE_NXZ 10031ed2 f i libucrt:output.obj
 0001:00030ef8       ?type_case_p@?$output_processor@DV?$stream_output_adapter@D@__crt_stdio_output@@V?$format_validation_base@DV?$stream_output_adapter@D@__crt_stdio_output@@@2@@__crt_stdio_output@@AAE_NXZ 10031ef8 f i libucrt:output.obj
 0001:00030f16       ?type_case_p@?$output_processor@DV?$stream_output_adapter@D@__crt_stdio_output@@V?$positional_parameter_base@DV?$stream_output_adapter@D@__crt_stdio_output@@@2@@__crt_stdio_output@@AAE_NXZ 10031f16 f i libucrt:output.obj
 0001:00030f34       ?type_case_p@?$output_processor@DV?$stream_output_adapter@D@__crt_stdio_output@@V?$standard_base@DV?$stream_output_adapter@D@__crt_stdio_output@@@2@@__crt_stdio_output@@AAE_NXZ 10031f34 f i libucrt:output.obj
 0001:00030f52       ?type_case_p@?$output_processor@DV?$string_output_adapter@D@__crt_stdio_output@@V?$format_validation_base@DV?$string_output_adapter@D@__crt_stdio_output@@@2@@__crt_stdio_output@@AAE_NXZ 10031f52 f i libucrt:output.obj
 0001:00030f70       ?type_case_p@?$output_processor@DV?$string_output_adapter@D@__crt_stdio_output@@V?$positional_parameter_base@DV?$string_output_adapter@D@__crt_stdio_output@@@2@@__crt_stdio_output@@AAE_NXZ 10031f70 f i libucrt:output.obj
 0001:00030f8e       ?type_case_p@?$output_processor@DV?$string_output_adapter@D@__crt_stdio_output@@V?$standard_base@DV?$string_output_adapter@D@__crt_stdio_output@@@2@@__crt_stdio_output@@AAE_NXZ 10031f8e f i libucrt:output.obj
 0001:00030fac       ?type_case_p@?$output_processor@_WV?$stream_output_adapter@_W@__crt_stdio_output@@V?$format_validation_base@_WV?$stream_output_adapter@_W@__crt_stdio_output@@@2@@__crt_stdio_output@@AAE_NXZ 10031fac f i libucrt:output.obj
 0001:00030fca       ?type_case_p@?$output_processor@_WV?$stream_output_adapter@_W@__crt_stdio_output@@V?$positional_parameter_base@_WV?$stream_output_adapter@_W@__crt_stdio_output@@@2@@__crt_stdio_output@@AAE_NXZ 10031fca f i libucrt:output.obj
 0001:00030fe8       ?type_case_p@?$output_processor@_WV?$stream_output_adapter@_W@__crt_stdio_output@@V?$standard_base@_WV?$stream_output_adapter@_W@__crt_stdio_output@@@2@@__crt_stdio_output@@AAE_NXZ 10031fe8 f i libucrt:output.obj
 0001:00031006       ?type_case_p@?$output_processor@_WV?$string_output_adapter@_W@__crt_stdio_output@@V?$format_validation_base@_WV?$string_output_adapter@_W@__crt_stdio_output@@@2@@__crt_stdio_output@@AAE_NXZ 10032006 f i libucrt:output.obj
 0001:00031024       ?type_case_p@?$output_processor@_WV?$string_output_adapter@_W@__crt_stdio_output@@V?$positional_parameter_base@_WV?$string_output_adapter@_W@__crt_stdio_output@@@2@@__crt_stdio_output@@AAE_NXZ 10032024 f i libucrt:output.obj
 0001:00031042       ?type_case_p@?$output_processor@_WV?$string_output_adapter@_W@__crt_stdio_output@@V?$standard_base@_WV?$string_output_adapter@_W@__crt_stdio_output@@@2@@__crt_stdio_output@@AAE_NXZ 10032042 f i libucrt:output.obj
 0001:00031060       ?type_case_s@?$output_processor@DV?$stream_output_adapter@D@__crt_stdio_output@@V?$format_validation_base@DV?$stream_output_adapter@D@__crt_stdio_output@@@2@@__crt_stdio_output@@AAE_NXZ 10032060 f i libucrt:output.obj
 0001:000310ef       ?type_case_s@?$output_processor@DV?$stream_output_adapter@D@__crt_stdio_output@@V?$positional_parameter_base@DV?$stream_output_adapter@D@__crt_stdio_output@@@2@@__crt_stdio_output@@AAE_NXZ 100320ef f i libucrt:output.obj
 0001:0003118a       ?type_case_s@?$output_processor@DV?$stream_output_adapter@D@__crt_stdio_output@@V?$standard_base@DV?$stream_output_adapter@D@__crt_stdio_output@@@2@@__crt_stdio_output@@AAE_NXZ 1003218a f i libucrt:output.obj
 0001:00031219       ?type_case_s@?$output_processor@DV?$string_output_adapter@D@__crt_stdio_output@@V?$format_validation_base@DV?$string_output_adapter@D@__crt_stdio_output@@@2@@__crt_stdio_output@@AAE_NXZ 10032219 f i libucrt:output.obj
 0001:000312a8       ?type_case_s@?$output_processor@DV?$string_output_adapter@D@__crt_stdio_output@@V?$positional_parameter_base@DV?$string_output_adapter@D@__crt_stdio_output@@@2@@__crt_stdio_output@@AAE_NXZ 100322a8 f i libucrt:output.obj
 0001:00031343       ?type_case_s@?$output_processor@DV?$string_output_adapter@D@__crt_stdio_output@@V?$standard_base@DV?$string_output_adapter@D@__crt_stdio_output@@@2@@__crt_stdio_output@@AAE_NXZ 10032343 f i libucrt:output.obj
 0001:000313d2       ?type_case_s@?$output_processor@_WV?$stream_output_adapter@_W@__crt_stdio_output@@V?$format_validation_base@_WV?$stream_output_adapter@_W@__crt_stdio_output@@@2@@__crt_stdio_output@@AAE_NXZ 100323d2 f i libucrt:output.obj
 0001:00031463       ?type_case_s@?$output_processor@_WV?$stream_output_adapter@_W@__crt_stdio_output@@V?$positional_parameter_base@_WV?$stream_output_adapter@_W@__crt_stdio_output@@@2@@__crt_stdio_output@@AAE_NXZ 10032463 f i libucrt:output.obj
 0001:00031500       ?type_case_s@?$output_processor@_WV?$stream_output_adapter@_W@__crt_stdio_output@@V?$standard_base@_WV?$stream_output_adapter@_W@__crt_stdio_output@@@2@@__crt_stdio_output@@AAE_NXZ 10032500 f i libucrt:output.obj
 0001:00031591       ?type_case_s@?$output_processor@_WV?$string_output_adapter@_W@__crt_stdio_output@@V?$format_validation_base@_WV?$string_output_adapter@_W@__crt_stdio_output@@@2@@__crt_stdio_output@@AAE_NXZ 10032591 f i libucrt:output.obj
 0001:00031622       ?type_case_s@?$output_processor@_WV?$string_output_adapter@_W@__crt_stdio_output@@V?$positional_parameter_base@_WV?$string_output_adapter@_W@__crt_stdio_output@@@2@@__crt_stdio_output@@AAE_NXZ 10032622 f i libucrt:output.obj
 0001:000316bf       ?type_case_s@?$output_processor@_WV?$string_output_adapter@_W@__crt_stdio_output@@V?$standard_base@_WV?$string_output_adapter@_W@__crt_stdio_output@@@2@@__crt_stdio_output@@AAE_NXZ 100326bf f i libucrt:output.obj
 0001:00031750       ?type_case_s_compute_narrow_string_length@?$output_processor@DV?$stream_output_adapter@D@__crt_stdio_output@@V?$format_validation_base@DV?$stream_output_adapter@D@__crt_stdio_output@@@2@@__crt_stdio_output@@ABEHHD@Z 10032750 f i libucrt:output.obj
 0001:0003176b       ?type_case_s_compute_narrow_string_length@?$output_processor@DV?$stream_output_adapter@D@__crt_stdio_output@@V?$positional_parameter_base@DV?$stream_output_adapter@D@__crt_stdio_output@@@2@@__crt_stdio_output@@ABEHHD@Z 1003276b f i libucrt:output.obj
 0001:00031786       ?type_case_s_compute_narrow_string_length@?$output_processor@DV?$stream_output_adapter@D@__crt_stdio_output@@V?$standard_base@DV?$stream_output_adapter@D@__crt_stdio_output@@@2@@__crt_stdio_output@@ABEHHD@Z 10032786 f i libucrt:output.obj
 0001:000317a1       ?type_case_s_compute_narrow_string_length@?$output_processor@DV?$string_output_adapter@D@__crt_stdio_output@@V?$format_validation_base@DV?$string_output_adapter@D@__crt_stdio_output@@@2@@__crt_stdio_output@@ABEHHD@Z 100327a1 f i libucrt:output.obj
 0001:000317bc       ?type_case_s_compute_narrow_string_length@?$output_processor@DV?$string_output_adapter@D@__crt_stdio_output@@V?$positional_parameter_base@DV?$string_output_adapter@D@__crt_stdio_output@@@2@@__crt_stdio_output@@ABEHHD@Z 100327bc f i libucrt:output.obj
 0001:000317d7       ?type_case_s_compute_narrow_string_length@?$output_processor@DV?$string_output_adapter@D@__crt_stdio_output@@V?$standard_base@DV?$string_output_adapter@D@__crt_stdio_output@@@2@@__crt_stdio_output@@ABEHHD@Z 100327d7 f i libucrt:output.obj
 0001:000317f2       ?type_case_s_compute_narrow_string_length@?$output_processor@_WV?$stream_output_adapter@_W@__crt_stdio_output@@V?$format_validation_base@_WV?$stream_output_adapter@_W@__crt_stdio_output@@@2@@__crt_stdio_output@@ABEHH_W@Z 100327f2 f i libucrt:output.obj
 0001:00031842       ?type_case_s_compute_narrow_string_length@?$output_processor@_WV?$stream_output_adapter@_W@__crt_stdio_output@@V?$positional_parameter_base@_WV?$stream_output_adapter@_W@__crt_stdio_output@@@2@@__crt_stdio_output@@ABEHH_W@Z 10032842 f i libucrt:output.obj
 0001:00031892       ?type_case_s_compute_narrow_string_length@?$output_processor@_WV?$stream_output_adapter@_W@__crt_stdio_output@@V?$standard_base@_WV?$stream_output_adapter@_W@__crt_stdio_output@@@2@@__crt_stdio_output@@ABEHH_W@Z 10032892 f i libucrt:output.obj
 0001:000318e2       ?type_case_s_compute_narrow_string_length@?$output_processor@_WV?$string_output_adapter@_W@__crt_stdio_output@@V?$format_validation_base@_WV?$string_output_adapter@_W@__crt_stdio_output@@@2@@__crt_stdio_output@@ABEHH_W@Z 100328e2 f i libucrt:output.obj
 0001:00031932       ?type_case_s_compute_narrow_string_length@?$output_processor@_WV?$string_output_adapter@_W@__crt_stdio_output@@V?$positional_parameter_base@_WV?$string_output_adapter@_W@__crt_stdio_output@@@2@@__crt_stdio_output@@ABEHH_W@Z 10032932 f i libucrt:output.obj
 0001:00031982       ?type_case_s_compute_narrow_string_length@?$output_processor@_WV?$string_output_adapter@_W@__crt_stdio_output@@V?$standard_base@_WV?$string_output_adapter@_W@__crt_stdio_output@@@2@@__crt_stdio_output@@ABEHH_W@Z 10032982 f i libucrt:output.obj
 0001:000319d2       ?type_case_u@?$output_processor@DV?$stream_output_adapter@D@__crt_stdio_output@@V?$format_validation_base@DV?$stream_output_adapter@D@__crt_stdio_output@@@2@@__crt_stdio_output@@AAE_NXZ 100329d2 f i libucrt:output.obj
 0001:000319de       ?type_case_u@?$output_processor@DV?$stream_output_adapter@D@__crt_stdio_output@@V?$positional_parameter_base@DV?$stream_output_adapter@D@__crt_stdio_output@@@2@@__crt_stdio_output@@AAE_NXZ 100329de f i libucrt:output.obj
 0001:000319ea       ?type_case_u@?$output_processor@DV?$stream_output_adapter@D@__crt_stdio_output@@V?$standard_base@DV?$stream_output_adapter@D@__crt_stdio_output@@@2@@__crt_stdio_output@@AAE_NXZ 100329ea f i libucrt:output.obj
 0001:000319f6       ?type_case_u@?$output_processor@DV?$string_output_adapter@D@__crt_stdio_output@@V?$format_validation_base@DV?$string_output_adapter@D@__crt_stdio_output@@@2@@__crt_stdio_output@@AAE_NXZ 100329f6 f i libucrt:output.obj
 0001:00031a02       ?type_case_u@?$output_processor@DV?$string_output_adapter@D@__crt_stdio_output@@V?$positional_parameter_base@DV?$string_output_adapter@D@__crt_stdio_output@@@2@@__crt_stdio_output@@AAE_NXZ 10032a02 f i libucrt:output.obj
 0001:00031a0e       ?type_case_u@?$output_processor@DV?$string_output_adapter@D@__crt_stdio_output@@V?$standard_base@DV?$string_output_adapter@D@__crt_stdio_output@@@2@@__crt_stdio_output@@AAE_NXZ 10032a0e f i libucrt:output.obj
 0001:00031a1a       ?type_case_u@?$output_processor@_WV?$stream_output_adapter@_W@__crt_stdio_output@@V?$format_validation_base@_WV?$stream_output_adapter@_W@__crt_stdio_output@@@2@@__crt_stdio_output@@AAE_NXZ 10032a1a f i libucrt:output.obj
 0001:00031a26       ?type_case_u@?$output_processor@_WV?$stream_output_adapter@_W@__crt_stdio_output@@V?$positional_parameter_base@_WV?$stream_output_adapter@_W@__crt_stdio_output@@@2@@__crt_stdio_output@@AAE_NXZ 10032a26 f i libucrt:output.obj
 0001:00031a32       ?type_case_u@?$output_processor@_WV?$stream_output_adapter@_W@__crt_stdio_output@@V?$standard_base@_WV?$stream_output_adapter@_W@__crt_stdio_output@@@2@@__crt_stdio_output@@AAE_NXZ 10032a32 f i libucrt:output.obj
 0001:00031a3e       ?type_case_u@?$output_processor@_WV?$string_output_adapter@_W@__crt_stdio_output@@V?$format_validation_base@_WV?$string_output_adapter@_W@__crt_stdio_output@@@2@@__crt_stdio_output@@AAE_NXZ 10032a3e f i libucrt:output.obj
 0001:00031a4a       ?type_case_u@?$output_processor@_WV?$string_output_adapter@_W@__crt_stdio_output@@V?$positional_parameter_base@_WV?$string_output_adapter@_W@__crt_stdio_output@@@2@@__crt_stdio_output@@AAE_NXZ 10032a4a f i libucrt:output.obj
 0001:00031a56       ?type_case_u@?$output_processor@_WV?$string_output_adapter@_W@__crt_stdio_output@@V?$standard_base@_WV?$string_output_adapter@_W@__crt_stdio_output@@@2@@__crt_stdio_output@@AAE_NXZ 10032a56 f i libucrt:output.obj
 0001:00031a62       ?type_case_x@?$output_processor@DV?$stream_output_adapter@D@__crt_stdio_output@@V?$format_validation_base@DV?$stream_output_adapter@D@__crt_stdio_output@@@2@@__crt_stdio_output@@AAE_NXZ 10032a62 f i libucrt:output.obj
 0001:00031a6e       ?type_case_x@?$output_processor@DV?$stream_output_adapter@D@__crt_stdio_output@@V?$positional_parameter_base@DV?$stream_output_adapter@D@__crt_stdio_output@@@2@@__crt_stdio_output@@AAE_NXZ 10032a6e f i libucrt:output.obj
 0001:00031a7a       ?type_case_x@?$output_processor@DV?$stream_output_adapter@D@__crt_stdio_output@@V?$standard_base@DV?$stream_output_adapter@D@__crt_stdio_output@@@2@@__crt_stdio_output@@AAE_NXZ 10032a7a f i libucrt:output.obj
 0001:00031a86       ?type_case_x@?$output_processor@DV?$string_output_adapter@D@__crt_stdio_output@@V?$format_validation_base@DV?$string_output_adapter@D@__crt_stdio_output@@@2@@__crt_stdio_output@@AAE_NXZ 10032a86 f i libucrt:output.obj
 0001:00031a92       ?type_case_x@?$output_processor@DV?$string_output_adapter@D@__crt_stdio_output@@V?$positional_parameter_base@DV?$string_output_adapter@D@__crt_stdio_output@@@2@@__crt_stdio_output@@AAE_NXZ 10032a92 f i libucrt:output.obj
 0001:00031a9e       ?type_case_x@?$output_processor@DV?$string_output_adapter@D@__crt_stdio_output@@V?$standard_base@DV?$string_output_adapter@D@__crt_stdio_output@@@2@@__crt_stdio_output@@AAE_NXZ 10032a9e f i libucrt:output.obj
 0001:00031aaa       ?type_case_x@?$output_processor@_WV?$stream_output_adapter@_W@__crt_stdio_output@@V?$format_validation_base@_WV?$stream_output_adapter@_W@__crt_stdio_output@@@2@@__crt_stdio_output@@AAE_NXZ 10032aaa f i libucrt:output.obj
 0001:00031ab6       ?type_case_x@?$output_processor@_WV?$stream_output_adapter@_W@__crt_stdio_output@@V?$positional_parameter_base@_WV?$stream_output_adapter@_W@__crt_stdio_output@@@2@@__crt_stdio_output@@AAE_NXZ 10032ab6 f i libucrt:output.obj
 0001:00031ac2       ?type_case_x@?$output_processor@_WV?$stream_output_adapter@_W@__crt_stdio_output@@V?$standard_base@_WV?$stream_output_adapter@_W@__crt_stdio_output@@@2@@__crt_stdio_output@@AAE_NXZ 10032ac2 f i libucrt:output.obj
 0001:00031ace       ?type_case_x@?$output_processor@_WV?$string_output_adapter@_W@__crt_stdio_output@@V?$format_validation_base@_WV?$string_output_adapter@_W@__crt_stdio_output@@@2@@__crt_stdio_output@@AAE_NXZ 10032ace f i libucrt:output.obj
 0001:00031ada       ?type_case_x@?$output_processor@_WV?$string_output_adapter@_W@__crt_stdio_output@@V?$positional_parameter_base@_WV?$string_output_adapter@_W@__crt_stdio_output@@@2@@__crt_stdio_output@@AAE_NXZ 10032ada f i libucrt:output.obj
 0001:00031ae6       ?type_case_x@?$output_processor@_WV?$string_output_adapter@_W@__crt_stdio_output@@V?$standard_base@_WV?$string_output_adapter@_W@__crt_stdio_output@@@2@@__crt_stdio_output@@AAE_NXZ 10032ae6 f i libucrt:output.obj
 0001:00031af2       ?unset_flag@?$output_processor@DV?$stream_output_adapter@D@__crt_stdio_output@@V?$format_validation_base@DV?$stream_output_adapter@D@__crt_stdio_output@@@2@@__crt_stdio_output@@AAEXI@Z 10032af2 f i libucrt:output.obj
 0001:00031b07       ?unset_flag@?$output_processor@DV?$stream_output_adapter@D@__crt_stdio_output@@V?$positional_parameter_base@DV?$stream_output_adapter@D@__crt_stdio_output@@@2@@__crt_stdio_output@@AAEXI@Z 10032b07 f i libucrt:output.obj
 0001:00031b1c       ?unset_flag@?$output_processor@DV?$stream_output_adapter@D@__crt_stdio_output@@V?$standard_base@DV?$stream_output_adapter@D@__crt_stdio_output@@@2@@__crt_stdio_output@@AAEXI@Z 10032b1c f i libucrt:output.obj
 0001:00031b31       ?unset_flag@?$output_processor@DV?$string_output_adapter@D@__crt_stdio_output@@V?$format_validation_base@DV?$string_output_adapter@D@__crt_stdio_output@@@2@@__crt_stdio_output@@AAEXI@Z 10032b31 f i libucrt:output.obj
 0001:00031b46       ?unset_flag@?$output_processor@DV?$string_output_adapter@D@__crt_stdio_output@@V?$positional_parameter_base@DV?$string_output_adapter@D@__crt_stdio_output@@@2@@__crt_stdio_output@@AAEXI@Z 10032b46 f i libucrt:output.obj
 0001:00031b5b       ?unset_flag@?$output_processor@DV?$string_output_adapter@D@__crt_stdio_output@@V?$standard_base@DV?$string_output_adapter@D@__crt_stdio_output@@@2@@__crt_stdio_output@@AAEXI@Z 10032b5b f i libucrt:output.obj
 0001:00031b70       ?unset_flag@?$output_processor@_WV?$stream_output_adapter@_W@__crt_stdio_output@@V?$format_validation_base@_WV?$stream_output_adapter@_W@__crt_stdio_output@@@2@@__crt_stdio_output@@AAEXI@Z 10032b70 f i libucrt:output.obj
 0001:00031b85       ?unset_flag@?$output_processor@_WV?$stream_output_adapter@_W@__crt_stdio_output@@V?$positional_parameter_base@_WV?$stream_output_adapter@_W@__crt_stdio_output@@@2@@__crt_stdio_output@@AAEXI@Z 10032b85 f i libucrt:output.obj
 0001:00031b9a       ?unset_flag@?$output_processor@_WV?$stream_output_adapter@_W@__crt_stdio_output@@V?$standard_base@_WV?$stream_output_adapter@_W@__crt_stdio_output@@@2@@__crt_stdio_output@@AAEXI@Z 10032b9a f i libucrt:output.obj
 0001:00031baf       ?unset_flag@?$output_processor@_WV?$string_output_adapter@_W@__crt_stdio_output@@V?$format_validation_base@_WV?$string_output_adapter@_W@__crt_stdio_output@@@2@@__crt_stdio_output@@AAEXI@Z 10032baf f i libucrt:output.obj
 0001:00031bc4       ?unset_flag@?$output_processor@_WV?$string_output_adapter@_W@__crt_stdio_output@@V?$positional_parameter_base@_WV?$string_output_adapter@_W@__crt_stdio_output@@@2@@__crt_stdio_output@@AAEXI@Z 10032bc4 f i libucrt:output.obj
 0001:00031bd9       ?unset_flag@?$output_processor@_WV?$string_output_adapter@_W@__crt_stdio_output@@V?$standard_base@_WV?$string_output_adapter@_W@__crt_stdio_output@@@2@@__crt_stdio_output@@AAEXI@Z 10032bd9 f i libucrt:output.obj
 0001:00031bee       ?update_field_width@?$positional_parameter_base@DV?$stream_output_adapter@D@__crt_stdio_output@@@__crt_stdio_output@@IAE_NXZ 10032bee f i libucrt:output.obj
 0001:00031cd1       ?update_field_width@?$positional_parameter_base@DV?$string_output_adapter@D@__crt_stdio_output@@@__crt_stdio_output@@IAE_NXZ 10032cd1 f i libucrt:output.obj
 0001:00031db4       ?update_field_width@?$positional_parameter_base@_WV?$stream_output_adapter@_W@__crt_stdio_output@@@__crt_stdio_output@@IAE_NXZ 10032db4 f i libucrt:output.obj
 0001:00031e98       ?update_field_width@?$positional_parameter_base@_WV?$string_output_adapter@_W@__crt_stdio_output@@@__crt_stdio_output@@IAE_NXZ 10032e98 f i libucrt:output.obj
 0001:00031f7c       ?update_field_width@?$standard_base@DV?$stream_output_adapter@D@__crt_stdio_output@@@__crt_stdio_output@@IAE_NXZ 10032f7c f i libucrt:output.obj
 0001:00031f90       ?update_field_width@?$standard_base@DV?$string_output_adapter@D@__crt_stdio_output@@@__crt_stdio_output@@IAE_NXZ 10032f90 f i libucrt:output.obj
 0001:00031fa4       ?update_field_width@?$standard_base@_WV?$stream_output_adapter@_W@__crt_stdio_output@@@__crt_stdio_output@@IAE_NXZ 10032fa4 f i libucrt:output.obj
 0001:00031fb8       ?update_field_width@?$standard_base@_WV?$string_output_adapter@_W@__crt_stdio_output@@@__crt_stdio_output@@IAE_NXZ 10032fb8 f i libucrt:output.obj
 0001:00031fcc       ?update_precision@?$positional_parameter_base@DV?$stream_output_adapter@D@__crt_stdio_output@@@__crt_stdio_output@@IAE_NXZ 10032fcc f i libucrt:output.obj
 0001:000320af       ?update_precision@?$positional_parameter_base@DV?$string_output_adapter@D@__crt_stdio_output@@@__crt_stdio_output@@IAE_NXZ 100330af f i libucrt:output.obj
 0001:00032192       ?update_precision@?$positional_parameter_base@_WV?$stream_output_adapter@_W@__crt_stdio_output@@@__crt_stdio_output@@IAE_NXZ 10033192 f i libucrt:output.obj
 0001:00032276       ?update_precision@?$positional_parameter_base@_WV?$string_output_adapter@_W@__crt_stdio_output@@@__crt_stdio_output@@IAE_NXZ 10033276 f i libucrt:output.obj
 0001:0003235a       ?update_precision@?$standard_base@DV?$stream_output_adapter@D@__crt_stdio_output@@@__crt_stdio_output@@IAE_NXZ 1003335a f i libucrt:output.obj
 0001:0003236e       ?update_precision@?$standard_base@DV?$string_output_adapter@D@__crt_stdio_output@@@__crt_stdio_output@@IAE_NXZ 1003336e f i libucrt:output.obj
 0001:00032382       ?update_precision@?$standard_base@_WV?$stream_output_adapter@_W@__crt_stdio_output@@@__crt_stdio_output@@IAE_NXZ 10033382 f i libucrt:output.obj
 0001:00032396       ?update_precision@?$standard_base@_WV?$string_output_adapter@_W@__crt_stdio_output@@@__crt_stdio_output@@IAE_NXZ 10033396 f i libucrt:output.obj
 0001:000323aa       ?valid@__crt_stdio_stream@@QBE_NXZ 100333aa f i libucrt:output.obj
 0001:000323b4       ?validate@?$stream_output_adapter@D@__crt_stdio_output@@QBE_NXZ 100333b4 f i libucrt:output.obj
 0001:000323dd       ?validate@?$stream_output_adapter@_W@__crt_stdio_output@@QBE_NXZ 100333dd f i libucrt:output.obj
 0001:000323fe       ?validate@?$string_output_adapter@D@__crt_stdio_output@@QBE_NXZ 100333fe f i libucrt:output.obj
 0001:0003241f       ?validate@?$string_output_adapter@_W@__crt_stdio_output@@QBE_NXZ 1003341f f i libucrt:output.obj
 0001:00032440       ?validate_and_store_parameter_data@?$positional_parameter_base@DV?$stream_output_adapter@D@__crt_stdio_output@@@__crt_stdio_output@@AAE_NAAUparameter_data@12@W4parameter_type@12@DW4length_modifier@2@@Z 10033440 f i libucrt:output.obj
 0001:0003249d       ?validate_and_store_parameter_data@?$positional_parameter_base@DV?$string_output_adapter@D@__crt_stdio_output@@@__crt_stdio_output@@AAE_NAAUparameter_data@12@W4parameter_type@12@DW4length_modifier@2@@Z 1003349d f i libucrt:output.obj
 0001:000324fa       ?validate_and_store_parameter_data@?$positional_parameter_base@_WV?$stream_output_adapter@_W@__crt_stdio_output@@@__crt_stdio_output@@AAE_NAAUparameter_data@12@W4parameter_type@12@_WW4length_modifier@2@@Z 100334fa f i libucrt:output.obj
 0001:0003255a       ?validate_and_store_parameter_data@?$positional_parameter_base@_WV?$string_output_adapter@_W@__crt_stdio_output@@@__crt_stdio_output@@AAE_NAAUparameter_data@12@W4parameter_type@12@_WW4length_modifier@2@@Z 1003355a f i libucrt:output.obj
 0001:000325ba       ?validate_and_update_state_at_beginning_of_format_character@?$positional_parameter_base@DV?$stream_output_adapter@D@__crt_stdio_output@@@__crt_stdio_output@@IAE_NXZ 100335ba f i libucrt:output.obj
 0001:000326f0       ?validate_and_update_state_at_beginning_of_format_character@?$positional_parameter_base@DV?$string_output_adapter@D@__crt_stdio_output@@@__crt_stdio_output@@IAE_NXZ 100336f0 f i libucrt:output.obj
 0001:00032826       ?validate_and_update_state_at_beginning_of_format_character@?$positional_parameter_base@_WV?$stream_output_adapter@_W@__crt_stdio_output@@@__crt_stdio_output@@IAE_NXZ 10033826 f i libucrt:output.obj
 0001:00032968       ?validate_and_update_state_at_beginning_of_format_character@?$positional_parameter_base@_WV?$string_output_adapter@_W@__crt_stdio_output@@@__crt_stdio_output@@IAE_NXZ 10033968 f i libucrt:output.obj
 0001:00032aaa       ?validate_and_update_state_at_beginning_of_format_character@?$standard_base@DV?$stream_output_adapter@D@__crt_stdio_output@@@__crt_stdio_output@@IAE_NXZ 10033aaa f i libucrt:output.obj
 0001:00032aad       ?validate_and_update_state_at_beginning_of_format_character@?$standard_base@DV?$string_output_adapter@D@__crt_stdio_output@@@__crt_stdio_output@@IAE_NXZ 10033aad f i libucrt:output.obj
 0001:00032ab0       ?validate_and_update_state_at_beginning_of_format_character@?$standard_base@_WV?$stream_output_adapter@_W@__crt_stdio_output@@@__crt_stdio_output@@IAE_NXZ 10033ab0 f i libucrt:output.obj
 0001:00032ab3       ?validate_and_update_state_at_beginning_of_format_character@?$standard_base@_WV?$string_output_adapter@_W@__crt_stdio_output@@@__crt_stdio_output@@IAE_NXZ 10033ab3 f i libucrt:output.obj
 0001:00032ab6       ?validate_and_update_state_at_end_of_format_string@?$format_validation_base@DV?$stream_output_adapter@D@__crt_stdio_output@@@__crt_stdio_output@@IBE_NXZ 10033ab6 f i libucrt:output.obj
 0001:00032ae0       ?validate_and_update_state_at_end_of_format_string@?$format_validation_base@DV?$string_output_adapter@D@__crt_stdio_output@@@__crt_stdio_output@@IBE_NXZ 10033ae0 f i libucrt:output.obj
 0001:00032b0a       ?validate_and_update_state_at_end_of_format_string@?$format_validation_base@_WV?$stream_output_adapter@_W@__crt_stdio_output@@@__crt_stdio_output@@IBE_NXZ 10033b0a f i libucrt:output.obj
 0001:00032b34       ?validate_and_update_state_at_end_of_format_string@?$format_validation_base@_WV?$string_output_adapter@_W@__crt_stdio_output@@@__crt_stdio_output@@IBE_NXZ 10033b34 f i libucrt:output.obj
 0001:00032b5e       ?validate_and_update_state_at_end_of_format_string@?$positional_parameter_base@DV?$stream_output_adapter@D@__crt_stdio_output@@@__crt_stdio_output@@IAE_NXZ 10033b5e f i libucrt:output.obj
 0001:00032bfe       ?validate_and_update_state_at_end_of_format_string@?$positional_parameter_base@DV?$string_output_adapter@D@__crt_stdio_output@@@__crt_stdio_output@@IAE_NXZ 10033bfe f i libucrt:output.obj
 0001:00032c9e       ?validate_and_update_state_at_end_of_format_string@?$positional_parameter_base@_WV?$stream_output_adapter@_W@__crt_stdio_output@@@__crt_stdio_output@@IAE_NXZ 10033c9e f i libucrt:output.obj
 0001:00032d3e       ?validate_and_update_state_at_end_of_format_string@?$positional_parameter_base@_WV?$string_output_adapter@_W@__crt_stdio_output@@@__crt_stdio_output@@IAE_NXZ 10033d3e f i libucrt:output.obj
 0001:00032dde       ?validate_and_update_state_at_end_of_format_string@?$standard_base@DV?$stream_output_adapter@D@__crt_stdio_output@@@__crt_stdio_output@@IBE_NXZ 10033dde f i libucrt:output.obj
 0001:00032de1       ?validate_and_update_state_at_end_of_format_string@?$standard_base@DV?$string_output_adapter@D@__crt_stdio_output@@@__crt_stdio_output@@IBE_NXZ 10033de1 f i libucrt:output.obj
 0001:00032de4       ?validate_and_update_state_at_end_of_format_string@?$standard_base@_WV?$stream_output_adapter@_W@__crt_stdio_output@@@__crt_stdio_output@@IBE_NXZ 10033de4 f i libucrt:output.obj
 0001:00032de7       ?validate_and_update_state_at_end_of_format_string@?$standard_base@_WV?$string_output_adapter@_W@__crt_stdio_output@@@__crt_stdio_output@@IBE_NXZ 10033de7 f i libucrt:output.obj
 0001:00032dea       ?validate_state_for_type_case_a@?$positional_parameter_base@DV?$stream_output_adapter@D@__crt_stdio_output@@@__crt_stdio_output@@IAE_NXZ 10033dea f i libucrt:output.obj
 0001:00032e51       ?validate_state_for_type_case_a@?$positional_parameter_base@DV?$string_output_adapter@D@__crt_stdio_output@@@__crt_stdio_output@@IAE_NXZ 10033e51 f i libucrt:output.obj
 0001:00032eb8       ?validate_state_for_type_case_a@?$positional_parameter_base@_WV?$stream_output_adapter@_W@__crt_stdio_output@@@__crt_stdio_output@@IAE_NXZ 10033eb8 f i libucrt:output.obj
 0001:00032f1f       ?validate_state_for_type_case_a@?$positional_parameter_base@_WV?$string_output_adapter@_W@__crt_stdio_output@@@__crt_stdio_output@@IAE_NXZ 10033f1f f i libucrt:output.obj
 0001:00032f86       ?validate_state_for_type_case_a@?$standard_base@DV?$stream_output_adapter@D@__crt_stdio_output@@@__crt_stdio_output@@IBE_NXZ 10033f86 f i libucrt:output.obj
 0001:00032f89       ?validate_state_for_type_case_a@?$standard_base@DV?$string_output_adapter@D@__crt_stdio_output@@@__crt_stdio_output@@IBE_NXZ 10033f89 f i libucrt:output.obj
 0001:00032f8c       ?validate_state_for_type_case_a@?$standard_base@_WV?$stream_output_adapter@_W@__crt_stdio_output@@@__crt_stdio_output@@IBE_NXZ 10033f8c f i libucrt:output.obj
 0001:00032f8f       ?validate_state_for_type_case_a@?$standard_base@_WV?$string_output_adapter@_W@__crt_stdio_output@@@__crt_stdio_output@@IBE_NXZ 10033f8f f i libucrt:output.obj
 0001:00032f92       ?validate_stream_is_ansi_if_required@?$__acrt_stdio_char_traits@D@@SA_NQAU_iobuf@@@Z 10033f92 f i libucrt:output.obj
 0001:00033034       ?validate_stream_is_ansi_if_required@?$__acrt_stdio_char_traits@_W@@SA_NQAU_iobuf@@@Z 10034034 f i libucrt:output.obj
 0001:00033037       ?wide_null_string@?$output_processor@DV?$stream_output_adapter@D@__crt_stdio_output@@V?$format_validation_base@DV?$stream_output_adapter@D@__crt_stdio_output@@@2@@__crt_stdio_output@@CAPA_WXZ 10034037 f i libucrt:output.obj
 0001:0003303d       ?wide_null_string@?$output_processor@DV?$stream_output_adapter@D@__crt_stdio_output@@V?$positional_parameter_base@DV?$stream_output_adapter@D@__crt_stdio_output@@@2@@__crt_stdio_output@@CAPA_WXZ 1003403d f i libucrt:output.obj
 0001:00033043       ?wide_null_string@?$output_processor@DV?$stream_output_adapter@D@__crt_stdio_output@@V?$standard_base@DV?$stream_output_adapter@D@__crt_stdio_output@@@2@@__crt_stdio_output@@CAPA_WXZ 10034043 f i libucrt:output.obj
 0001:00033049       ?wide_null_string@?$output_processor@DV?$string_output_adapter@D@__crt_stdio_output@@V?$format_validation_base@DV?$string_output_adapter@D@__crt_stdio_output@@@2@@__crt_stdio_output@@CAPA_WXZ 10034049 f i libucrt:output.obj
 0001:0003304f       ?wide_null_string@?$output_processor@DV?$string_output_adapter@D@__crt_stdio_output@@V?$positional_parameter_base@DV?$string_output_adapter@D@__crt_stdio_output@@@2@@__crt_stdio_output@@CAPA_WXZ 1003404f f i libucrt:output.obj
 0001:00033055       ?wide_null_string@?$output_processor@DV?$string_output_adapter@D@__crt_stdio_output@@V?$standard_base@DV?$string_output_adapter@D@__crt_stdio_output@@@2@@__crt_stdio_output@@CAPA_WXZ 10034055 f i libucrt:output.obj
 0001:0003305b       ?wide_null_string@?$output_processor@_WV?$stream_output_adapter@_W@__crt_stdio_output@@V?$format_validation_base@_WV?$stream_output_adapter@_W@__crt_stdio_output@@@2@@__crt_stdio_output@@CAPA_WXZ 1003405b f i libucrt:output.obj
 0001:00033061       ?wide_null_string@?$output_processor@_WV?$stream_output_adapter@_W@__crt_stdio_output@@V?$positional_parameter_base@_WV?$stream_output_adapter@_W@__crt_stdio_output@@@2@@__crt_stdio_output@@CAPA_WXZ 10034061 f i libucrt:output.obj
 0001:00033067       ?wide_null_string@?$output_processor@_WV?$stream_output_adapter@_W@__crt_stdio_output@@V?$standard_base@_WV?$stream_output_adapter@_W@__crt_stdio_output@@@2@@__crt_stdio_output@@CAPA_WXZ 10034067 f i libucrt:output.obj
 0001:0003306d       ?wide_null_string@?$output_processor@_WV?$string_output_adapter@_W@__crt_stdio_output@@V?$format_validation_base@_WV?$string_output_adapter@_W@__crt_stdio_output@@@2@@__crt_stdio_output@@CAPA_WXZ 1003406d f i libucrt:output.obj
 0001:00033073       ?wide_null_string@?$output_processor@_WV?$string_output_adapter@_W@__crt_stdio_output@@V?$positional_parameter_base@_WV?$string_output_adapter@_W@__crt_stdio_output@@@2@@__crt_stdio_output@@CAPA_WXZ 10034073 f i libucrt:output.obj
 0001:00033079       ?wide_null_string@?$output_processor@_WV?$string_output_adapter@_W@__crt_stdio_output@@V?$standard_base@_WV?$string_output_adapter@_W@__crt_stdio_output@@@2@@__crt_stdio_output@@CAPA_WXZ 10034079 f i libucrt:output.obj
 0001:0003307f       ?write_character@?$stream_output_adapter@D@__crt_stdio_output@@QBEXDQAH@Z 1003407f f i libucrt:output.obj
 0001:000330cb       ?write_character@?$stream_output_adapter@_W@__crt_stdio_output@@QBEX_WQAH@Z 100340cb f i libucrt:output.obj
 0001:0003311b       ?write_character@?$string_output_adapter@D@__crt_stdio_output@@QBE_NDQAH@Z 1003411b f i libucrt:output.obj
 0001:0003316d       ?write_character@?$string_output_adapter@_W@__crt_stdio_output@@QBE_N_WQAH@Z 1003416d f i libucrt:output.obj
 0001:000331c3       ?write_stored_string_tchar@?$output_processor@DV?$stream_output_adapter@D@__crt_stdio_output@@V?$format_validation_base@DV?$stream_output_adapter@D@__crt_stdio_output@@@2@@__crt_stdio_output@@AAE_ND@Z 100341c3 f i libucrt:output.obj
 0001:00033293       ?write_stored_string_tchar@?$output_processor@DV?$stream_output_adapter@D@__crt_stdio_output@@V?$positional_parameter_base@DV?$stream_output_adapter@D@__crt_stdio_output@@@2@@__crt_stdio_output@@AAE_ND@Z 10034293 f i libucrt:output.obj
 0001:00033363       ?write_stored_string_tchar@?$output_processor@DV?$stream_output_adapter@D@__crt_stdio_output@@V?$standard_base@DV?$stream_output_adapter@D@__crt_stdio_output@@@2@@__crt_stdio_output@@AAE_ND@Z 10034363 f i libucrt:output.obj
 0001:00033433       ?write_stored_string_tchar@?$output_processor@DV?$string_output_adapter@D@__crt_stdio_output@@V?$format_validation_base@DV?$string_output_adapter@D@__crt_stdio_output@@@2@@__crt_stdio_output@@AAE_ND@Z 10034433 f i libucrt:output.obj
 0001:00033503       ?write_stored_string_tchar@?$output_processor@DV?$string_output_adapter@D@__crt_stdio_output@@V?$positional_parameter_base@DV?$string_output_adapter@D@__crt_stdio_output@@@2@@__crt_stdio_output@@AAE_ND@Z 10034503 f i libucrt:output.obj
 0001:000335d3       ?write_stored_string_tchar@?$output_processor@DV?$string_output_adapter@D@__crt_stdio_output@@V?$standard_base@DV?$string_output_adapter@D@__crt_stdio_output@@@2@@__crt_stdio_output@@AAE_ND@Z 100345d3 f i libucrt:output.obj
 0001:000336a3       ?write_stored_string_tchar@?$output_processor@_WV?$stream_output_adapter@_W@__crt_stdio_output@@V?$format_validation_base@_WV?$stream_output_adapter@_W@__crt_stdio_output@@@2@@__crt_stdio_output@@AAE_N_W@Z 100346a3 f i libucrt:output.obj
 0001:00033750       ?write_stored_string_tchar@?$output_processor@_WV?$stream_output_adapter@_W@__crt_stdio_output@@V?$positional_parameter_base@_WV?$stream_output_adapter@_W@__crt_stdio_output@@@2@@__crt_stdio_output@@AAE_N_W@Z 10034750 f i libucrt:output.obj
 0001:000337fd       ?write_stored_string_tchar@?$output_processor@_WV?$stream_output_adapter@_W@__crt_stdio_output@@V?$standard_base@_WV?$stream_output_adapter@_W@__crt_stdio_output@@@2@@__crt_stdio_output@@AAE_N_W@Z 100347fd f i libucrt:output.obj
 0001:000338aa       ?write_stored_string_tchar@?$output_processor@_WV?$string_output_adapter@_W@__crt_stdio_output@@V?$format_validation_base@_WV?$string_output_adapter@_W@__crt_stdio_output@@@2@@__crt_stdio_output@@AAE_N_W@Z 100348aa f i libucrt:output.obj
 0001:00033957       ?write_stored_string_tchar@?$output_processor@_WV?$string_output_adapter@_W@__crt_stdio_output@@V?$positional_parameter_base@_WV?$string_output_adapter@_W@__crt_stdio_output@@@2@@__crt_stdio_output@@AAE_N_W@Z 10034957 f i libucrt:output.obj
 0001:00033a04       ?write_stored_string_tchar@?$output_processor@_WV?$string_output_adapter@_W@__crt_stdio_output@@V?$standard_base@_WV?$string_output_adapter@_W@__crt_stdio_output@@@2@@__crt_stdio_output@@AAE_N_W@Z 10034a04 f i libucrt:output.obj
 0001:00033ab1       ?write_string@?$stream_output_adapter@D@__crt_stdio_output@@QBEXQBDHQAH1@Z 10034ab1 f i libucrt:output.obj
 0001:00033b5d       ?write_string@?$stream_output_adapter@_W@__crt_stdio_output@@QBEXQB_WHQAH1@Z 10034b5d f i libucrt:output.obj
 0001:00033c0d       ?write_string@?$string_output_adapter@D@__crt_stdio_output@@QBEXQBDHQAH1@Z 10034c0d f i libucrt:output.obj
 0001:00033cc4       ?write_string@?$string_output_adapter@_W@__crt_stdio_output@@QBEXQB_WHQAH1@Z 10034cc4 f i libucrt:output.obj
 0001:00033d84       ___acrt_isleadbyte_l_noupdate 10034d84 f i libucrt:output.obj
 0001:00033da5       ___acrt_locale_changed     10034da5 f i libucrt:output.obj
 0001:00033db6       ___stdio_common_vfprintf   10034db6 f   libucrt:output.obj
 0001:00033e4a       ___stdio_common_vfprintf_p 10034e4a f   libucrt:output.obj
 0001:00033ede       ___stdio_common_vfprintf_s 10034ede f   libucrt:output.obj
 0001:00033f72       ___stdio_common_vfwprintf  10034f72 f   libucrt:output.obj
 0001:00034006       ___stdio_common_vfwprintf_p 10035006 f   libucrt:output.obj
 0001:0003409a       ___stdio_common_vfwprintf_s 1003509a f   libucrt:output.obj
 0001:0003412e       ___stdio_common_vsnprintf_s 1003512e f   libucrt:output.obj
 0001:0003415e       ___stdio_common_vsnwprintf_s 1003515e f   libucrt:output.obj
 0001:0003418e       ___stdio_common_vsprintf   1003518e f   libucrt:output.obj
 0001:000341bb       ___stdio_common_vsprintf_p 100351bb f   libucrt:output.obj
 0001:000341e8       ___stdio_common_vsprintf_s 100351e8 f   libucrt:output.obj
 0001:00034215       ___stdio_common_vswprintf  10035215 f   libucrt:output.obj
 0001:00034242       ___stdio_common_vswprintf_p 10035242 f   libucrt:output.obj
 0001:0003426f       ___stdio_common_vswprintf_s 1003526f f   libucrt:output.obj
 0001:0003429c       _calloc                    1003529c f   libucrt:calloc.obj
 0001:000342a9       _free                      100352a9 f   libucrt:free.obj
 0001:000342ae       ??$__vcrt_va_start_verify_argument_type@QB_W@@YAXXZ 100352ae f i libucrt:assert.obj
 0001:0003524b       ??$ftprintf@PAU_iobuf@@PBDABQBDABQBDABI@?$__crt_char_traits@D@@SAH$$QAPAU_iobuf@@$$QAPBDABQBD2ABI@Z 1003624b f i libucrt:assert.obj
 0001:0003527d       ??$ftprintf@PAU_iobuf@@PB_WABQB_WABQB_WABI@?$__crt_char_traits@_W@@SAH$$QAPAU_iobuf@@$$QAPB_WABQB_W2ABI@Z 1003627d f i libucrt:assert.obj
 0001:000352af       ??$get_module_file_name@AAPAUHINSTANCE__@@AAY0BAF@DK@?$__crt_char_traits@D@@SAKAAPAUHINSTANCE__@@AAY0BAF@D$$QAK@Z 100362af f i libucrt:assert.obj
 0001:000352cf       ??$get_module_file_name@AAPAUHINSTANCE__@@AAY0BAF@_WK@?$__crt_char_traits@_W@@SAKAAPAUHINSTANCE__@@AAY0BAF@_W$$QAK@Z 100362cf f i libucrt:assert.obj
 0001:000352ef       ??$itot_s@ABIQAD$$CBIH@?$__crt_char_traits@D@@SAHABI$$QBQAD$$QBI$$QAH@Z 100362ef f i libucrt:assert.obj
 0001:0003531a       ??$itot_s@ABIQA_W$$CBIH@?$__crt_char_traits@_W@@SAHABI$$QBQA_W$$QBI$$QAH@Z 1003631a f i libucrt:assert.obj
 0001:00035345       ??$show_message_box@AAY0CEA@DPBDJ@?$__crt_char_traits@D@@SAHAAY0CEA@D$$QAPBD$$QAJ@Z 10036345 f i libucrt:assert.obj
 0001:00035368       ??$show_message_box@AAY0CEA@_WPB_WJ@?$__crt_char_traits@_W@@SAHAAY0CEA@_W$$QAPB_W$$QAJ@Z 10036368 f i libucrt:assert.obj
 0001:0003538b       ??$tcscat_s@ABQADABIAAPAD@?$__crt_char_traits@D@@SAHABQADABIAAPAD@Z 1003638b f i libucrt:assert.obj
 0001:000353b0       ??$tcscat_s@ABQADABIABQBD@?$__crt_char_traits@D@@SAHABQADABIABQBD@Z 100363b0 f i libucrt:assert.obj
 0001:000353d5       ??$tcscat_s@ABQADABIPBD@?$__crt_char_traits@D@@SAHABQADABI$$QAPBD@Z 100363d5 f i libucrt:assert.obj
 0001:000353fa       ??$tcscat_s@ABQA_WABIAAPA_W@?$__crt_char_traits@_W@@SAHABQA_WABIAAPA_W@Z 100363fa f i libucrt:assert.obj
 0001:0003541f       ??$tcscat_s@ABQA_WABIABQB_W@?$__crt_char_traits@_W@@SAHABQA_WABIABQB_W@Z 1003641f f i libucrt:assert.obj
 0001:00035444       ??$tcscat_s@ABQA_WABIPB_W@?$__crt_char_traits@_W@@SAHABQA_WABI$$QAPB_W@Z 10036444 f i libucrt:assert.obj
 0001:00035469       ??$tcscpy_s@AAY0BAF@DIPBD@?$__crt_char_traits@D@@SAHAAY0BAF@D$$QAI$$QAPBD@Z 10036469 f i libucrt:assert.obj
 0001:0003548c       ??$tcscpy_s@AAY0BAF@_WIPB_W@?$__crt_char_traits@_W@@SAHAAY0BAF@_W$$QAI$$QAPB_W@Z 1003648c f i libucrt:assert.obj
 0001:000354af       ??$tcscpy_s@ABQADABIPBD@?$__crt_char_traits@D@@SAHABQADABI$$QAPBD@Z 100364af f i libucrt:assert.obj
 0001:000354d4       ??$tcscpy_s@ABQA_WABIPB_W@?$__crt_char_traits@_W@@SAHABQA_WABI$$QAPB_W@Z 100364d4 f i libucrt:assert.obj
 0001:000354f9       ??$tcslen@AAY0BAF@D@?$__crt_char_traits@D@@SAIAAY0BAF@D@Z 100364f9 f i libucrt:assert.obj
 0001:00035514       ??$tcslen@AAY0BAF@_W@?$__crt_char_traits@_W@@SAIAAY0BAF@_W@Z 10036514 f i libucrt:assert.obj
 0001:00035537       ??$tcslen@ABQAD@?$__crt_char_traits@D@@SAIABQAD@Z 10036537 f i libucrt:assert.obj
 0001:00035555       ??$tcslen@ABQA_W@?$__crt_char_traits@_W@@SAIABQA_W@Z 10036555 f i libucrt:assert.obj
 0001:0003557a       ??$tcslen@ABQBD@?$__crt_char_traits@D@@SAIABQBD@Z 1003657a f i libucrt:assert.obj
 0001:00035598       ??$tcslen@ABQB_W@?$__crt_char_traits@_W@@SAIABQB_W@Z 10036598 f i libucrt:assert.obj
 0001:000355bd       ??$tcsncat_s@ABQADABIAAPBD$$CBI@?$__crt_char_traits@D@@SAHABQADABIAAPBD$$QBI@Z 100365bd f i libucrt:assert.obj
 0001:000355e8       ??$tcsncat_s@ABQADABIABQBDABI@?$__crt_char_traits@D@@SAHABQADABIABQBD1@Z 100365e8 f i libucrt:assert.obj
 0001:00035613       ??$tcsncat_s@ABQADABIPBD$$CBI@?$__crt_char_traits@D@@SAHABQADABI$$QAPBD$$QBI@Z 10036613 f i libucrt:assert.obj
 0001:0003563e       ??$tcsncat_s@ABQA_WABIAAPB_W$$CBI@?$__crt_char_traits@_W@@SAHABQA_WABIAAPB_W$$QBI@Z 1003663e f i libucrt:assert.obj
 0001:00035669       ??$tcsncat_s@ABQA_WABIABQB_WABI@?$__crt_char_traits@_W@@SAHABQA_WABIABQB_W1@Z 10036669 f i libucrt:assert.obj
 0001:00035694       ??$tcsncat_s@ABQA_WABIPB_W$$CBI@?$__crt_char_traits@_W@@SAHABQA_WABI$$QAPB_W$$QBI@Z 10036694 f i libucrt:assert.obj
 0001:00035839       ?has_any_buffer@__crt_stdio_stream@@QBE_NXZ 10036839 f i libucrt:assert.obj
 0001:0003584e       ?has_any_of@__crt_stdio_stream@@QBE_NJ@Z 1003684e f i libucrt:assert.obj
 0001:0003586a       __assert                   1003686a f   libucrt:assert.obj
 0001:000358c4       __invoke_watson_if_error   100368c4 f i libucrt:assert.obj
 0001:000358ee       __vfwprintf_l              100368ee f i libucrt:assert.obj
 0001:0003591c       __vswprintf_c_l            1003691c f i libucrt:assert.obj
 0001:00035956       __wassert                  10036956 f   libucrt:assert.obj
 0001:000359b0       _fwprintf                  100369b0 f i libucrt:assert.obj
 0001:00035a72       _swprintf                  10036a72 f i libucrt:assert.obj
 0001:00035a97       _realloc                   10036a97 f   libucrt:realloc.obj
 0001:00035aa4       ??$?B$$A6GXPAXK0@Z@__crt_fast_encoded_nullptr_t@@QBEP6GXPAXK0@ZXZ 10036aa4 f i libucrt:exit.obj
 0001:00035ac2       ??$__crt_fast_decode_pointer@P6GXPAXK0@Z@@YAP6GXPAXK0@ZQ6GX0K0@Z@Z 10036ac2 f i libucrt:exit.obj
 0001:00035add       ??$__crt_fast_encode_pointer@P6GXPAXK0@Z@@YAP6GXPAXK0@ZQ6GX0K0@Z@Z 10036add f i libucrt:exit.obj
 0001:00035b03       ??$__crt_get_proc_address@P6GXI@Z@@YAP6GXI@ZQAUHINSTANCE__@@QBD@Z 10036b03 f i libucrt:exit.obj
 0001:00035b1a       ??0?$__crt_unique_handle_t@U__crt_hmodule_traits@@@@QAE@QAUHINSTANCE__@@@Z 10036b1a f i libucrt:exit.obj
 0001:00035b2e       ??1?$__crt_unique_handle_t@U__crt_hmodule_traits@@@@QAE@XZ 10036b2e f i libucrt:exit.obj
 0001:00035b61       ?close@?$__crt_unique_handle_t@U__crt_hmodule_traits@@@@QAEXXZ 10036b61 f i libucrt:exit.obj
 0001:00035b7d       ?close@__crt_hmodule_traits@@SA_NPAUHINSTANCE__@@@Z 10036b7d f i libucrt:exit.obj
 0001:00035d48       ?get@?$__crt_unique_handle_t@U__crt_hmodule_traits@@@@QBEPAUHINSTANCE__@@XZ 10036d48 f i libucrt:exit.obj
 0001:00035d4b       ?get_address_of@?$__crt_unique_handle_t@U__crt_hmodule_traits@@@@QAEPAPAUHINSTANCE__@@XZ 10036d4b f i libucrt:exit.obj
 0001:00035d4e       ?get_invalid_value@__crt_hmodule_traits@@SAPAUHINSTANCE__@@XZ 10036d4e f i libucrt:exit.obj
 0001:00035e4b       __Exit                     10036e4b f   libucrt:exit.obj
 0001:00035e66       ___acrt_initialize_thread_local_exit_callback 10036e66 f   libucrt:exit.obj
 0001:00035e78       __c_exit                   10036e78 f   libucrt:exit.obj
 0001:00035e8a       __cexit                    10036e8a f   libucrt:exit.obj
 0001:00035e9c       __exit                     10036e9c f   libucrt:exit.obj
 0001:00035eb7       __is_c_termination_complete 10036eb7 f   libucrt:exit.obj
 0001:00035ebd       __register_thread_local_exe_atexit_callback 10036ebd f   libucrt:exit.obj
 0001:00035f03       _exit                      10036f03 f   libucrt:exit.obj
 0001:00035f1e       _quick_exit                10036f1e f   libucrt:exit.obj
 0001:00035f40       _strncat                   10036f40 f   libucrt:strncat.obj
 0001:000360d0       _strncpy                   100370d0 f   libucrt:strncpy.obj
 0001:0003623d       ?is_in_use@__crt_stdio_stream@@QBE_NXZ 1003723d f i libucrt:fclose.obj
 0001:0003624c       __fclose_nolock            1003724c f   libucrt:fclose.obj
 0001:000362df       _fclose                    100372df f   libucrt:fclose.obj
 0001:00036611       ??$open_file@ABQBDABQBDABHPAU_iobuf@@@?$__crt_char_traits@D@@SAPAU_iobuf@@ABQBD0ABH$$QAPAU1@@Z 10037611 f i libucrt:fopen.obj
 0001:0003663c       ??$open_file@ABQB_WABQB_WABHPAU_iobuf@@@?$__crt_char_traits@_W@@SAPAU_iobuf@@ABQB_W0ABH$$QAPAU1@@Z 1003763c f i libucrt:fopen.obj
 0001:00036667       ?unlock@__crt_stdio_stream@@QBEXXZ 10037667 f i libucrt:fopen.obj
 0001:00036672       __fsopen                   10037672 f   libucrt:fopen.obj
 0001:0003667f       __wfopen                   1003767f f   libucrt:fopen.obj
 0001:0003669b       __wfopen_s                 1003769b f   libucrt:fopen.obj
 0001:000366f3       __wfsopen                  100376f3 f   libucrt:fopen.obj
 0001:00036700       _fopen                     10037700 f   libucrt:fopen.obj
 0001:0003671c       _fopen_s                   1003771c f   libucrt:fopen.obj
 0001:00036774       ?set_flags@__crt_stdio_stream@@QBE_NJ@Z 10037774 f i libucrt:fread.obj
 0001:000367a4       __fread_nolock             100377a4 f   libucrt:fread.obj
 0001:000367c8       __fread_nolock_s           100377c8 f   libucrt:fread.obj
 0001:00036a07       _fread                     10037a07 f   libucrt:fread.obj
 0001:00036a2b       _fread_s                   10037a2b f   libucrt:fread.obj
 0001:00036b83       ??$?RV<lambda_11b4f7b0d3157825a5656a18eba1ae27>@@AAV<lambda_b51c0495177f500e782686251704ae76>@@V<lambda_cf89b47920b5017557bfe891e78aca36>@@@?$__crt_seh_guarded_call@I@@QAEI$$QAV<lambda_11b4f7b0d3157825a5656a18eba1ae27>@@AAV<lambda_b51c0495177f500e782686251704ae76>@@$$QAV<lambda_cf89b47920b5017557bfe891e78aca36>@@@Z 10037b83 f i libucrt:fwrite.obj
 0001:00036be8       ??$__acrt_lock_stream_and_call@V<lambda_b51c0495177f500e782686251704ae76>@@@@YAIQAU_iobuf@@$$QAV<lambda_b51c0495177f500e782686251704ae76>@@@Z 10037be8 f i libucrt:fwrite.obj
 0001:00036cdd       ?has_big_buffer@__crt_stdio_stream@@QBE_NXZ 10037cdd f i libucrt:fwrite.obj
 0001:00036cee       __fwrite_nolock            10037cee f   libucrt:fwrite.obj
 0001:00036ec5       _fwrite                    10037ec5 f   libucrt:fwrite.obj
 0001:00036f33       ??$?R_W@__crt_internal_free_policy@@QBEXQB_W@Z 10037f33 f i libucrt:unlink.obj
 0001:00036f49       ??0?$__crt_unique_heap_ptr@_WU__crt_internal_free_policy@@@@QAE@QA_W@Z 10037f49 f i libucrt:unlink.obj
 0001:00036f5d       ??1?$__crt_unique_heap_ptr@_WU__crt_internal_free_policy@@@@QAE@XZ 10037f5d f i libucrt:unlink.obj
 0001:00036f73       ?get@?$__crt_unique_heap_ptr@_WU__crt_internal_free_policy@@@@QBEPA_WXZ 10037f73 f i libucrt:unlink.obj
 0001:00036f76       ?get_address_of@?$__crt_unique_heap_ptr@_WU__crt_internal_free_policy@@@@QAEPAPA_WXZ 10037f76 f i libucrt:unlink.obj
 0001:00036f79       ?release@?$__crt_unique_heap_ptr@_WU__crt_internal_free_policy@@@@QAEXXZ 10037f79 f i libucrt:unlink.obj
 0001:00036f8f       __unlink                   10037f8f f   libucrt:unlink.obj
 0001:00036f9c       _remove                    10037f9c f   libucrt:unlink.obj
 0001:00036ffc       ?__acrt_stdio_reset_buffer@@YAXV__crt_stdio_stream@@@Z 10037ffc f i libucrt:rewind.obj
 0001:00037017       ?has_all_of@__crt_stdio_stream@@QBE_NJ@Z 10038017 f i libucrt:rewind.obj
 0001:00037036       ?unset_flags@__crt_stdio_stream@@QBE_NJ@Z 10038036 f i libucrt:rewind.obj
 0001:0003706a       _rewind                    1003806a f   libucrt:rewind.obj
 0001:0003716b       _ldexp                     1003816b f   libucrt:ldexp.obj
 0001:000373cb       __errcode                  100383cb f   libucrt:fpexcept.obj
 0001:0003740c       __except1                  1003840c f   libucrt:fpexcept.obj
 0001:0003750d       __except2                  1003850d f   libucrt:fpexcept.obj
 0001:00037656       __handle_exc               10038656 f   libucrt:fpexcept.obj
 0001:000378ae       __handle_qnan2             100388ae f   libucrt:fpexcept.obj
 0001:000378be       __raise_exc                100388be f   libucrt:fpexcept.obj
 0001:000378e9       __raise_exc_ex             100388e9 f   libucrt:fpexcept.obj
 0001:00037c96       __raise_excf               10038c96 f   libucrt:fpexcept.obj
 0001:00037cc1       __set_errno_from_matherr   10038cc1 f   libucrt:fpexcept.obj
 0001:00037cfb       __umatherr                 10038cfb f   libucrt:fpexcept.obj
 0001:00037dc5       __initterm                 10038dc5 f   libucrt:initterm.obj
 0001:00037e38       __initterm_e               10038e38 f   libucrt:initterm.obj
 0001:00037ebb       __seh_filter_dll           10038ebb f   libucrt:exception_filter.obj
 0001:00037ee3       __seh_filter_exe           10038ee3 f   libucrt:exception_filter.obj
 0001:000380b2       ??$?RE@__crt_internal_free_policy@@QBEXQBE@Z 100390b2 f i libucrt:argv_parsing.obj
 0001:000380c8       ??$?RPAD@__crt_internal_free_policy@@QBEXQBQAD@Z 100390c8 f i libucrt:argv_parsing.obj
 0001:000380de       ??$?RPA_W@__crt_internal_free_policy@@QBEXQBQA_W@Z 100390de f i libucrt:argv_parsing.obj
 0001:000383c7       ??$get_module_file_name@$$TAAY0BAF@DH@?$__crt_char_traits@D@@SAK$$QA$$TAAY0BAF@D$$QAH@Z 100393c7 f i libucrt:argv_parsing.obj
 0001:000383e7       ??$get_module_file_name@$$TAAY0BAF@_WH@?$__crt_char_traits@_W@@SAK$$QA$$TAAY0BAF@_W$$QAH@Z 100393e7 f i libucrt:argv_parsing.obj
 0001:000387c0       ??$set_program_name@PAD@?$__crt_char_traits@D@@SAX$$QAPAD@Z 100397c0 f i libucrt:argv_parsing.obj
 0001:000387d5       ??$set_program_name@PA_W@?$__crt_char_traits@_W@@SAX$$QAPA_W@Z 100397d5 f i libucrt:argv_parsing.obj
 0001:00038812       ??0?$__crt_unique_heap_ptr@EU__crt_internal_free_policy@@@@QAE@QAE@Z 10039812 f i libucrt:argv_parsing.obj
 0001:00038826       ??0?$__crt_unique_heap_ptr@PADU__crt_internal_free_policy@@@@QAE@QAPAD@Z 10039826 f i libucrt:argv_parsing.obj
 0001:0003883a       ??0?$__crt_unique_heap_ptr@PA_WU__crt_internal_free_policy@@@@QAE@QAPA_W@Z 1003983a f i libucrt:argv_parsing.obj
 0001:0003884e       ??1?$__crt_unique_heap_ptr@EU__crt_internal_free_policy@@@@QAE@XZ 1003984e f i libucrt:argv_parsing.obj
 0001:00038864       ??1?$__crt_unique_heap_ptr@PADU__crt_internal_free_policy@@@@QAE@XZ 10039864 f i libucrt:argv_parsing.obj
 0001:0003887a       ??1?$__crt_unique_heap_ptr@PA_WU__crt_internal_free_policy@@@@QAE@XZ 1003987a f i libucrt:argv_parsing.obj
 0001:00038890       ??B?$__crt_unique_heap_ptr@EU__crt_internal_free_policy@@@@QBE_NXZ 10039890 f i libucrt:argv_parsing.obj
 0001:000388d0       ?detach@?$__crt_unique_heap_ptr@EU__crt_internal_free_policy@@@@QAEPAEXZ 100398d0 f i libucrt:argv_parsing.obj
 0001:000388d6       ?detach@?$__crt_unique_heap_ptr@PADU__crt_internal_free_policy@@@@QAEPAPADXZ 100398d6 f i libucrt:argv_parsing.obj
 0001:000388dc       ?detach@?$__crt_unique_heap_ptr@PA_WU__crt_internal_free_policy@@@@QAEPAPA_WXZ 100398dc f i libucrt:argv_parsing.obj
 0001:00038902       ?get@?$__crt_unique_heap_ptr@EU__crt_internal_free_policy@@@@QBEPAEXZ 10039902 f i libucrt:argv_parsing.obj
 0001:00038905       ?get@?$__crt_unique_heap_ptr@PADU__crt_internal_free_policy@@@@QBEPAPADXZ 10039905 f i libucrt:argv_parsing.obj
 0001:00038908       ?get@?$__crt_unique_heap_ptr@PA_WU__crt_internal_free_policy@@@@QBEPAPA_WXZ 10039908 f i libucrt:argv_parsing.obj
 0001:0003890b       ?get_address_of@?$__crt_unique_heap_ptr@PADU__crt_internal_free_policy@@@@QAEPAPAPADXZ 1003990b f i libucrt:argv_parsing.obj
 0001:0003890e       ?get_address_of@?$__crt_unique_heap_ptr@PA_WU__crt_internal_free_policy@@@@QAEPAPAPA_WXZ 1003990e f i libucrt:argv_parsing.obj
 0001:00038929       ?is_valid@?$__crt_unique_heap_ptr@EU__crt_internal_free_policy@@@@QBE_NXZ 10039929 f i libucrt:argv_parsing.obj
 0001:00038933       ?release@?$__crt_unique_heap_ptr@EU__crt_internal_free_policy@@@@QAEXXZ 10039933 f i libucrt:argv_parsing.obj
 0001:00038949       ?release@?$__crt_unique_heap_ptr@PADU__crt_internal_free_policy@@@@QAEXXZ 10039949 f i libucrt:argv_parsing.obj
 0001:0003895f       ?release@?$__crt_unique_heap_ptr@PA_WU__crt_internal_free_policy@@@@QAEXXZ 1003995f f i libucrt:argv_parsing.obj
 0001:00038996       ___acrt_allocate_buffer_for_argv 10039996 f   libucrt:argv_parsing.obj
 0001:00038a00       __configure_narrow_argv    10039a00 f   libucrt:argv_parsing.obj
 0001:00038a0d       __configure_wide_argv      10039a0d f   libucrt:argv_parsing.obj
 0001:00038a1a       __set_pgmptr               10039a1a f i libucrt:argv_parsing.obj
 0001:00038a2c       __set_wpgmptr              10039a2c f i libucrt:argv_parsing.obj
 0001:00038f06       ??$get_environment_from_os@$$$V@?$__crt_char_traits@D@@SAPADXZ 10039f06 f i libucrt:environment_initialization.obj
 0001:00038f0b       ??$get_environment_from_os@$$$V@?$__crt_char_traits@_W@@SAPA_WXZ 10039f0b f i libucrt:environment_initialization.obj
 0001:00039045       ??$set_variable_in_environment_nolock@PADH@?$__crt_char_traits@D@@SAH$$QAPAD$$QAH@Z 1003a045 f i libucrt:environment_initialization.obj
 0001:00039063       ??$set_variable_in_environment_nolock@PA_WH@?$__crt_char_traits@_W@@SAH$$QAPA_W$$QAH@Z 1003a063 f i libucrt:environment_initialization.obj
 0001:00039081       ??$tcscpy_s@PADABIAAPAD@?$__crt_char_traits@D@@SAH$$QAPADABIAAPAD@Z 1003a081 f i libucrt:environment_initialization.obj
 0001:000390a6       ??$tcscpy_s@PA_WABIAAPA_W@?$__crt_char_traits@_W@@SAH$$QAPA_WABIAAPA_W@Z 1003a0a6 f i libucrt:environment_initialization.obj
 0001:000390cb       ??$tcslen@AAPAD@?$__crt_char_traits@D@@SAIAAPAD@Z 1003a0cb f i libucrt:environment_initialization.obj
 0001:000390e9       ??$tcslen@AAPA_W@?$__crt_char_traits@_W@@SAIAAPA_W@Z 1003a0e9 f i libucrt:environment_initialization.obj
 0001:0003910e       ??$uninitialize@A6AXAAPAPAD@Z@?$dual_state_global@PAPAD@__crt_state_management@@QAEXA6AXAAPAPAD@Z@Z 1003a10e f i libucrt:environment_initialization.obj
 0001:0003915e       ??$uninitialize@A6AXAAPAPA_W@Z@?$dual_state_global@PAPA_W@__crt_state_management@@QAEXA6AXAAPAPA_W@Z@Z 1003a15e f i libucrt:environment_initialization.obj
 0001:000391f0       ??B?$__crt_unique_heap_ptr@PADU__crt_internal_free_policy@@@@QBE_NXZ 1003a1f0 f i libucrt:environment_initialization.obj
 0001:000391fa       ??B?$__crt_unique_heap_ptr@PA_WU__crt_internal_free_policy@@@@QBE_NXZ 1003a1fa f i libucrt:environment_initialization.obj
 0001:00039204       ??B?$__crt_unique_heap_ptr@_WU__crt_internal_free_policy@@@@QBE_NXZ 1003a204 f i libucrt:environment_initialization.obj
 0001:0003920e       ?__crt_compute_required_transform_buffer_count@@YAIIQBD@Z 1003a20e f i libucrt:environment_initialization.obj
 0001:0003922e       ?__crt_compute_required_transform_buffer_count@@YAIIQB_W@Z 1003a22e f i libucrt:environment_initialization.obj
 0001:00039251       ?__crt_transform_string@@YAIIQBDQA_WI@Z 1003a251 f i libucrt:environment_initialization.obj
 0001:00039275       ?__crt_transform_string@@YAIIQB_WQADI@Z 1003a275 f i libucrt:environment_initialization.obj
 0001:0003929d       ?detach@?$__crt_unique_heap_ptr@DU__crt_internal_free_policy@@@@QAEPADXZ 1003a29d f i libucrt:environment_initialization.obj
 0001:000392a3       ?detach@?$__crt_unique_heap_ptr@_WU__crt_internal_free_policy@@@@QAEPA_WXZ 1003a2a3 f i libucrt:environment_initialization.obj
 0001:000392a9       ?get_current_state_index@__crt_state_management@@YAIXZ 1003a2a9 f i libucrt:environment_initialization.obj
 0001:000392d0       ?initialize@?$dual_state_global@PAPAD@__crt_state_management@@QAEXQAPAD@Z 1003a2d0 f i libucrt:environment_initialization.obj
 0001:0003930d       ?initialize@?$dual_state_global@PAPA_W@__crt_state_management@@QAEXQAPA_W@Z 1003a30d f i libucrt:environment_initialization.obj
 0001:0003934a       ?is_valid@?$__crt_unique_heap_ptr@PADU__crt_internal_free_policy@@@@QBE_NXZ 1003a34a f i libucrt:environment_initialization.obj
 0001:00039354       ?is_valid@?$__crt_unique_heap_ptr@PA_WU__crt_internal_free_policy@@@@QBE_NXZ 1003a354 f i libucrt:environment_initialization.obj
 0001:0003935e       ?is_valid@?$__crt_unique_heap_ptr@_WU__crt_internal_free_policy@@@@QBE_NXZ 1003a35e f i libucrt:environment_initialization.obj
 0001:0003936e       ?value@?$dual_state_global@PAPAD@__crt_state_management@@QAEAAPAPADXZ 1003a36e f i libucrt:environment_initialization.obj
 0001:00039371       ?value@?$dual_state_global@PAPA_W@__crt_state_management@@QAEAAPAPA_WXZ 1003a371 f i libucrt:environment_initialization.obj
 0001:00039374       ___dcrt_get_or_create_narrow_environment_nolock 1003a374 f   libucrt:environment_initialization.obj
 0001:00039379       ___dcrt_get_or_create_wide_environment_nolock 1003a379 f   libucrt:environment_initialization.obj
 0001:0003937e       ___dcrt_uninitialize_environments_nolock 1003a37e f   libucrt:environment_initialization.obj
 0001:000393c2       ___p__environ              1003a3c2 f   libucrt:environment_initialization.obj
 0001:000393c8       ___p__wenviron             1003a3c8 f   libucrt:environment_initialization.obj
 0001:000393ce       __get_initial_narrow_environment 1003a3ce f   libucrt:environment_initialization.obj
 0001:000393e7       __get_initial_wide_environment 1003a3e7 f   libucrt:environment_initialization.obj
 0001:00039400       __initialize_narrow_environment 1003a400 f   libucrt:environment_initialization.obj
 0001:00039405       __initialize_wide_environment 1003a405 f   libucrt:environment_initialization.obj
 0001:0003940a       ??$?BP6AXXZ@__crt_fast_encoded_nullptr_t@@QBEPAP6AXXZXZ 1003a40a f i libucrt:onexit.obj
 0001:00039428       ??$?RP6AXXZ@__crt_internal_free_policy@@QBEXQBQ6AXXZ@Z 1003a428 f i libucrt:onexit.obj
 0001:0003943e       ??$?RV<lambda_800076c951b434888f4765a74a194fcc>@@AAV<lambda_4e60a939b0d047cfe11ddc22648dfba9>@@V<lambda_6dbb1268764f43b569ce7b67e331d33a>@@@?$__crt_seh_guarded_call@H@@QAEH$$QAV<lambda_800076c951b434888f4765a74a194fcc>@@AAV<lambda_4e60a939b0d047cfe11ddc22648dfba9>@@$$QAV<lambda_6dbb1268764f43b569ce7b67e331d33a>@@@Z 1003a43e f i libucrt:onexit.obj
 0001:000394a3       ??$?RV<lambda_995298e7d72eb4c2aab26c0585b3abe5>@@AAV<lambda_275893d493268fdec8709772e3fcec0e>@@V<lambda_293819299cbf9a7022e18b56a874bb5c>@@@?$__crt_seh_guarded_call@H@@QAEH$$QAV<lambda_995298e7d72eb4c2aab26c0585b3abe5>@@AAV<lambda_275893d493268fdec8709772e3fcec0e>@@$$QAV<lambda_293819299cbf9a7022e18b56a874bb5c>@@@Z 1003a4a3 f i libucrt:onexit.obj
 0001:00039508       ??$__acrt_lock_and_call@V<lambda_275893d493268fdec8709772e3fcec0e>@@@@YAHW4__acrt_lock_id@@$$QAV<lambda_275893d493268fdec8709772e3fcec0e>@@@Z 1003a508 f i libucrt:onexit.obj
 0001:0003953a       ??$__acrt_lock_and_call@V<lambda_4e60a939b0d047cfe11ddc22648dfba9>@@@@YAHW4__acrt_lock_id@@$$QAV<lambda_4e60a939b0d047cfe11ddc22648dfba9>@@@Z 1003a53a f i libucrt:onexit.obj
 0001:0003956c       ??$__crt_fast_encode_pointer@P6AHXZ@@YAP6AHXZQ6AHXZ@Z 1003a56c f i libucrt:onexit.obj
 0001:00039619       ??0?$__crt_unique_heap_ptr@P6AXXZU__crt_internal_free_policy@@@@QAE@QAP6AXXZ@Z 1003a619 f i libucrt:onexit.obj
 0001:0003962d       ??1?$__crt_unique_heap_ptr@P6AXXZU__crt_internal_free_policy@@@@QAE@XZ 1003a62d f i libucrt:onexit.obj
 0001:00039968       ?detach@?$__crt_unique_heap_ptr@P6AXXZU__crt_internal_free_policy@@@@QAEPAP6AXXZXZ 1003a968 f i libucrt:onexit.obj
 0001:0003996e       ?release@?$__crt_unique_heap_ptr@P6AXXZU__crt_internal_free_policy@@@@QAEXXZ 1003a96e f i libucrt:onexit.obj
 0001:00039984       __crt_at_quick_exit        1003a984 f   libucrt:onexit.obj
 0001:0003999f       __crt_atexit               1003a99f f   libucrt:onexit.obj
 0001:000399ba       __execute_onexit_table     1003a9ba f   libucrt:onexit.obj
 0001:000399de       __initialize_onexit_table  1003a9de f   libucrt:onexit.obj
 0001:00039a2a       __register_onexit_function 1003aa2a f   libucrt:onexit.obj
 0001:00039b91       ?initialize@?$dual_state_global@PAU__crt_locale_data@@@__crt_state_management@@QAEXQAU__crt_locale_data@@@Z 1003ab91 f i libucrt:initialization.obj
 0001:00039bce       ___acrt_initialize         1003abce f   libucrt:initialization.obj
 0001:00039be4       ___acrt_thread_attach      1003abe4 f   libucrt:initialization.obj
 0001:00039bf1       ___acrt_thread_detach      1003abf1 f   libucrt:initialization.obj
 0001:00039bfb       ___acrt_uninitialize       1003abfb f   libucrt:initialization.obj
 0001:00039c11       ___acrt_uninitialize_critical 1003ac11 f   libucrt:initialization.obj
 0001:00039c42       __get_terminate            1003ac42 f   libucrt:terminate.obj
 0001:00039c58       _set_terminate             1003ac58 f   libucrt:terminate.obj
 0001:00039c80       _terminate                 1003ac80 f   libucrt:terminate.obj
 0001:00039ccb       ??$__crt_interlocked_exchange_pointer@X$$T@@YAPAXPDSAX$$T@Z 1003accb f i libucrt:free_base.obj
 0001:00039ce3       ___acrt_get_msvcrt_heap_handle 1003ace3 f   libucrt:free_base.obj
 0001:00039d74       __free_base                1003ad74 f   libucrt:free_base.obj
 0001:00039dbc       __malloc_base              1003adbc f   libucrt:malloc_base.obj
 0001:00039e8d       _strcpy_s                  1003ae8d f   libucrt:strcpy_s.obj
 0001:00039efd       __set_abort_behavior       1003aefd f   libucrt:abort.obj
 0001:00039f26       _abort                     1003af26 f   libucrt:abort.obj
 0001:00039f79       __calloc_base              1003af79 f   libucrt:calloc_base.obj
 0001:00039fed       ??$is_overflow_condition@K@__crt_strtox@@YA_NIK@Z 1003afed f i libucrt:atox.obj
 0001:0003a02c       ??$is_overflow_condition@_K@__crt_strtox@@YA_NI_K@Z 1003b02c f i libucrt:atox.obj
 0001:0003a07f       ??$make_c_string_character_source@D$$T@__crt_strtox@@YA?AV?$c_string_character_source@D@0@QBD$$T@Z 1003b07f f i libucrt:atox.obj
 0001:0003a0a0       ??$make_c_string_character_source@_W$$T@__crt_strtox@@YA?AV?$c_string_character_source@_W@0@QB_W$$T@Z 1003b0a0 f i libucrt:atox.obj
 0001:0003a0c1       ??$parse_integer@KV?$c_string_character_source@D@__crt_strtox@@@__crt_strtox@@YAKQAU__crt_locale_pointers@@V?$c_string_character_source@D@0@H_N@Z 1003b0c1 f i libucrt:atox.obj
 0001:0003a373       ??$parse_integer@KV?$c_string_character_source@_W@__crt_strtox@@@__crt_strtox@@YAKQAU__crt_locale_pointers@@V?$c_string_character_source@_W@0@H_N@Z 1003b373 f i libucrt:atox.obj
 0001:0003ac11       ??$parse_integer@_KV?$c_string_character_source@D@__crt_strtox@@@__crt_strtox@@YA_KQAU__crt_locale_pointers@@V?$c_string_character_source@D@0@H_N@Z 1003bc11 f i libucrt:atox.obj
 0001:0003af60       ??$parse_integer@_KV?$c_string_character_source@_W@__crt_strtox@@@__crt_strtox@@YA_KQAU__crt_locale_pointers@@V?$c_string_character_source@_W@0@H_N@Z 1003bf60 f i libucrt:atox.obj
 0001:0003b6d2       ??$parse_integer_from_string@JD$$T@__crt_strtox@@YAJQBD$$THQAU__crt_locale_pointers@@@Z 1003c6d2 f i libucrt:atox.obj
 0001:0003b70a       ??$parse_integer_from_string@J_W$$T@__crt_strtox@@YAJQB_W$$THQAU__crt_locale_pointers@@@Z 1003c70a f i libucrt:atox.obj
 0001:0003b742       ??$parse_integer_from_string@_JD$$T@__crt_strtox@@YA_JQBD$$THQAU__crt_locale_pointers@@@Z 1003c742 f i libucrt:atox.obj
 0001:0003b77a       ??$parse_integer_from_string@_J_W$$T@__crt_strtox@@YA_JQB_W$$THQAU__crt_locale_pointers@@@Z 1003c77a f i libucrt:atox.obj
 0001:0003b7b2       ??0?$c_string_character_source@D@__crt_strtox@@QAE@QBDQAPBD@Z 1003c7b2 f i libucrt:atox.obj
 0001:0003b7d5       ??0?$c_string_character_source@_W@__crt_strtox@@QAE@QB_WQAPB_W@Z 1003c7d5 f i libucrt:atox.obj
 0001:0003b7f8       ??1?$c_string_character_source@D@__crt_strtox@@QAE@XZ 1003c7f8 f i libucrt:atox.obj
 0001:0003b807       ??1?$c_string_character_source@_W@__crt_strtox@@QAE@XZ 1003c807 f i libucrt:atox.obj
 0001:0003b816       ?get@?$c_string_character_source@D@__crt_strtox@@QAEDXZ 1003c816 f i libucrt:atox.obj
 0001:0003b820       ?get@?$c_string_character_source@_W@__crt_strtox@@QAE_WXZ 1003c820 f i libucrt:atox.obj
 0001:0003b82d       ?is_space@__crt_strtox@@YA_NDQAU__crt_locale_pointers@@@Z 1003c82d f i libucrt:atox.obj
 0001:0003b853       ?is_space@__crt_strtox@@YA_N_WPAU__crt_locale_pointers@@@Z 1003c853 f i libucrt:atox.obj
 0001:0003b872       ?maximum_signed_value@__crt_strtox@@YAJK@Z 1003c872 f i libucrt:atox.obj
 0001:0003b878       ?maximum_signed_value@__crt_strtox@@YA_J_K@Z 1003c878 f i libucrt:atox.obj
 0001:0003b883       ?minimum_signed_value@__crt_strtox@@YAJK@Z 1003c883 f i libucrt:atox.obj
 0001:0003b889       ?minimum_signed_value@__crt_strtox@@YA_J_K@Z 1003c889 f i libucrt:atox.obj
 0001:0003b893       ?parse_digit@__crt_strtox@@YAID@Z 1003c893 f i libucrt:atox.obj
 0001:0003b8db       ?parse_digit@__crt_strtox@@YAI_W@Z 1003c8db f i libucrt:atox.obj
 0001:0003bb38       ?restore_state@?$c_string_character_source@D@__crt_strtox@@QAE_NQBD@Z 1003cb38 f i libucrt:atox.obj
 0001:0003bb4c       ?restore_state@?$c_string_character_source@_W@__crt_strtox@@QAE_NQB_W@Z 1003cb4c f i libucrt:atox.obj
 0001:0003bb60       ?save_state@?$c_string_character_source@D@__crt_strtox@@QBEPBDXZ 1003cb60 f i libucrt:atox.obj
 0001:0003bb63       ?save_state@?$c_string_character_source@_W@__crt_strtox@@QBEPB_WXZ 1003cb63 f i libucrt:atox.obj
 0001:0003bb66       ?unget@?$c_string_character_source@D@__crt_strtox@@QAEXD@Z 1003cb66 f i libucrt:atox.obj
 0001:0003bb98       ?unget@?$c_string_character_source@_W@__crt_strtox@@QAEX_W@Z 1003cb98 f i libucrt:atox.obj
 0001:0003bbcf       ?validate@?$c_string_character_source@D@__crt_strtox@@QBE_NXZ 1003cbcf f i libucrt:atox.obj
 0001:0003bbf0       ?validate@?$c_string_character_source@_W@__crt_strtox@@QBE_NXZ 1003cbf0 f i libucrt:atox.obj
 0001:0003bc11       ?wide_character_to_digit@__crt_strtox@@YAH_W@Z 1003cc11 f i libucrt:atox.obj
 0001:0003be1a       ___acrt_get_locale_data_prefix 1003ce1a f i libucrt:atox.obj
 0001:0003be29       __atoi64                   1003ce29 f   libucrt:atox.obj
 0001:0003be5d       __atoi64_l                 1003ce5d f   libucrt:atox.obj
 0001:0003be92       __atoi_l                   1003ce92 f   libucrt:atox.obj
 0001:0003bec7       __atol_l                   1003cec7 f   libucrt:atox.obj
 0001:0003befc       __atoll_l                  1003cefc f   libucrt:atox.obj
 0001:0003bf31       __chvalidchk_l             1003cf31 f i libucrt:atox.obj
 0001:0003bf65       __ischartype_l             1003cf65 f i libucrt:atox.obj
 0001:0003bfa4       __wtoi                     1003cfa4 f   libucrt:atox.obj
 0001:0003bfd8       __wtoi64                   1003cfd8 f   libucrt:atox.obj
 0001:0003c00c       __wtoi64_l                 1003d00c f   libucrt:atox.obj
 0001:0003c041       __wtoi_l                   1003d041 f   libucrt:atox.obj
 0001:0003c076       __wtol                     1003d076 f   libucrt:atox.obj
 0001:0003c0aa       __wtol_l                   1003d0aa f   libucrt:atox.obj
 0001:0003c0df       __wtoll                    1003d0df f   libucrt:atox.obj
 0001:0003c113       __wtoll_l                  1003d113 f   libucrt:atox.obj
 0001:0003c148       _atoi                      1003d148 f   libucrt:atox.obj
 0001:0003c17c       _atol                      1003d17c f   libucrt:atox.obj
 0001:0003c1b0       _atoll                     1003d1b0 f   libucrt:atox.obj
 0001:0003c1e4       ??$__crt_fast_decode_pointer@P6AXPB_W00II@Z@@YAP6AXPB_W00II@ZQ6AX000II@Z@Z 1003d1e4 f i libucrt:invalid_parameter.obj
 0001:0003c1ff       ??$__crt_fast_encode_pointer@P6AXPB_W00II@Z@@YAP6AXPB_W00II@ZQ6AX000II@Z@Z 1003d1ff f i libucrt:invalid_parameter.obj
 0001:0003c225       ?initialize@?$dual_state_global@P6AXPB_W00II@Z@__crt_state_management@@QAEXQ6AXPB_W00II@Z@Z 1003d225 f i libucrt:invalid_parameter.obj
 0001:0003c262       ?value@?$dual_state_global@P6AXPB_W00II@Z@__crt_state_management@@QAEAAP6AXPB_W00II@ZXZ 1003d262 f i libucrt:invalid_parameter.obj
 0001:0003c265       ___acrt_call_reportfault   1003d265 f   libucrt:invalid_parameter.obj
 0001:0003c3ee       ___acrt_initialize_invalid_parameter_handler 1003d3ee f   libucrt:invalid_parameter.obj
 0001:0003c407       __get_invalid_parameter_handler 1003d407 f   libucrt:invalid_parameter.obj
 0001:0003c41e       __get_thread_local_invalid_parameter_handler 1003d41e f   libucrt:invalid_parameter.obj
 0001:0003c433       __invalid_parameter        1003d433 f   libucrt:invalid_parameter.obj
 0001:0003c4cc       __invalid_parameter_noinfo 1003d4cc f   libucrt:invalid_parameter.obj
 0001:0003c4e0       __invalid_parameter_noinfo_noreturn 1003d4e0 f   libucrt:invalid_parameter.obj
 0001:0003c504       __invoke_watson            1003d504 f   libucrt:invalid_parameter.obj
 0001:0003c543       __set_invalid_parameter_handler 1003d543 f   libucrt:invalid_parameter.obj
 0001:0003c57f       __set_thread_local_invalid_parameter_handler 1003d57f f   libucrt:invalid_parameter.obj
 0001:0003c5a3       ___acrt_errno_from_os_error 1003d5a3 f   libucrt:errno.obj
 0001:0003c5f6       ___acrt_errno_map_os_error 1003d5f6 f   libucrt:errno.obj
 0001:0003c621       ___doserrno                1003d621 f   libucrt:errno.obj
 0001:0003c638       __errno                    1003d638 f   libucrt:errno.obj
 0001:0003c64f       __get_doserrno             1003d64f f   libucrt:errno.obj
 0001:0003c67d       __get_errno                1003d67d f   libucrt:errno.obj
 0001:0003c6ab       __set_doserrno             1003d6ab f   libucrt:errno.obj
 0001:0003c6d4       __set_errno                1003d6d4 f   libucrt:errno.obj
 0001:0003c754       ??$?B$$A6GHPA_WKJ@Z@__crt_fast_encoded_nullptr_t@@QBEP6GHPA_WKJ@ZXZ 1003d754 f i libucrt:winapi_thunks.obj
 0001:0003c772       ??$?RV<lambda_9227be29367c048ad7fd93a717dcb1a1>@@AAV<lambda_a463b7b0560cfcaf9b17f27c6ef46564>@@V<lambda_ccea11b5727ccf69be64f5f5d9a08d9f>@@@?$__crt_seh_guarded_call@H@@QAEH$$QAV<lambda_9227be29367c048ad7fd93a717dcb1a1>@@AAV<lambda_a463b7b0560cfcaf9b17f27c6ef46564>@@$$QAV<lambda_ccea11b5727ccf69be64f5f5d9a08d9f>@@@Z 1003d772 f i libucrt:winapi_thunks.obj
 0001:0003c817       ??$__acrt_lock_and_call@V<lambda_a463b7b0560cfcaf9b17f27c6ef46564>@@@@YAHW4__acrt_lock_id@@$$QAV<lambda_a463b7b0560cfcaf9b17f27c6ef46564>@@@Z 1003d817 f i libucrt:winapi_thunks.obj
 0001:0003c849       ??$__crt_fast_decode_pointer@P6GHPA_WKJ@Z@@YAP6GHPA_WKJ@ZQ6GH0KJ@Z@Z 1003d849 f i libucrt:winapi_thunks.obj
 0001:0003c864       ??$__crt_fast_encode_pointer@P6GHPA_WKJ@Z@@YAP6GHPA_WKJ@ZQ6GH0KJ@Z@Z 1003d864 f i libucrt:winapi_thunks.obj
 0001:0003cf91       ___acrt_AreFileApisANSI@0  1003df91 f   libucrt:winapi_thunks.obj
 0001:0003cff2       ___acrt_CompareStringEx@36 1003dff2 f   libucrt:winapi_thunks.obj
 0001:0003d083       ___acrt_EnumSystemLocalesEx@16 1003e083 f   libucrt:winapi_thunks.obj
 0001:0003d10b       ___acrt_FlsAlloc@4         1003e10b f   libucrt:winapi_thunks.obj
 0001:0003d176       ___acrt_FlsFree@4          1003e176 f   libucrt:winapi_thunks.obj
 0001:0003d1e1       ___acrt_FlsGetValue@4      1003e1e1 f   libucrt:winapi_thunks.obj
 0001:0003d24c       ___acrt_FlsSetValue@8      1003e24c f   libucrt:winapi_thunks.obj
 0001:0003d2bb       ___acrt_GetDateFormatEx@28 1003e2bb f   libucrt:winapi_thunks.obj
 0001:0003d35d       ___acrt_GetEnabledXStateFeatures@0 1003e35d f   libucrt:winapi_thunks.obj
 0001:0003d3bf       ___acrt_GetFileInformationByHandleEx@16 1003e3bf f   libucrt:winapi_thunks.obj
 0001:0003d43a       ___acrt_GetLocaleInfoEx@16 1003e43a f   libucrt:winapi_thunks.obj
 0001:0003d4be       ___acrt_GetSystemTimePreciseAsFileTime@4 1003e4be f   libucrt:winapi_thunks.obj
 0001:0003d529       ___acrt_GetTimeFormatEx@24 1003e529 f   libucrt:winapi_thunks.obj
 0001:0003d5b5       ___acrt_GetUserDefaultLocaleName@8 1003e5b5 f   libucrt:winapi_thunks.obj
 0001:0003d635       ___acrt_GetXStateFeaturesMask@8 1003e635 f   libucrt:winapi_thunks.obj
 0001:0003d6a1       ___acrt_InitializeCriticalSectionEx@12 1003e6a1 f   libucrt:winapi_thunks.obj
 0001:0003d71b       ___acrt_IsValidLocaleName@4 1003e71b f   libucrt:winapi_thunks.obj
 0001:0003d796       ___acrt_LCIDToLocaleName@16 1003e796 f   libucrt:winapi_thunks.obj
 0001:0003d81a       ___acrt_LCMapStringEx@36   1003e81a f   libucrt:winapi_thunks.obj
 0001:0003d8c4       ___acrt_LocaleNameToLCID@8 1003e8c4 f   libucrt:winapi_thunks.obj
 0001:0003d937       ___acrt_LocateXStateFeature@12 1003e937 f   libucrt:winapi_thunks.obj
 0001:0003d98e       ___acrt_MessageBoxA@16     1003e98e f   libucrt:winapi_thunks.obj
 0001:0003d9e9       ___acrt_MessageBoxW@16     1003e9e9 f   libucrt:winapi_thunks.obj
 0001:0003da44       ___acrt_RoInitialize@4     1003ea44 f   libucrt:winapi_thunks.obj
 0001:0003daaa       ___acrt_RoUninitialize@0   1003eaaa f   libucrt:winapi_thunks.obj
 0001:0003db05       ___acrt_RtlGenRandom@8     1003eb05 f   libucrt:winapi_thunks.obj
 0001:0003db71       ___acrt_SetThreadStackGuarantee@4 1003eb71 f   libucrt:winapi_thunks.obj
 0001:0003dbd7       ___acrt_can_show_message_box 1003ebd7 f   libucrt:winapi_thunks.obj
 0001:0003dbf6       ___acrt_can_use_vista_locale_apis 1003ebf6 f   libucrt:winapi_thunks.obj
 0001:0003dc05       ___acrt_can_use_xstate_apis 1003ec05 f   libucrt:winapi_thunks.obj
 0001:0003dc14       ___acrt_get_parent_window  1003ec14 f   libucrt:winapi_thunks.obj
 0001:0003dcb2       ___acrt_initialize_winapi_thunks 1003ecb2 f   libucrt:winapi_thunks.obj
 0001:0003dce1       ___acrt_is_interactive     1003ece1 f   libucrt:winapi_thunks.obj
 0001:0003ddb0       ___acrt_is_packaged_app    1003edb0 f   libucrt:winapi_thunks.obj
 0001:0003de58       ___acrt_uninitialize_winapi_thunks 1003ee58 f   libucrt:winapi_thunks.obj
 0001:0003de9b       ??0__crt_stdio_stream@@QAE@QAU__crt_stdio_stream_data@@@Z 1003ee9b f i libucrt:closeall.obj
 0001:0003deaf       __fcloseall                1003eeaf f   libucrt:closeall.obj
 0001:0003df77       ___acrt_stdio_flush_nolock 1003ef77 f   libucrt:fflush.obj
 0001:0003dff6       __fflush_nolock            1003eff6 f   libucrt:fflush.obj
 0001:0003e04e       __flushall                 1003f04e f   libucrt:fflush.obj
 0001:0003e167       _fflush                    1003f167 f   libucrt:fflush.obj
 0001:0003e1d6       ?has_crt_buffer@__crt_stdio_stream@@QBE_NXZ 1003f1d6 f i libucrt:_freebuf.obj
 0001:0003e1e5       ___acrt_stdio_free_buffer_nolock 1003f1e5 f   libucrt:_freebuf.obj
 0001:0003e422       ___acrt_initialize_lowio   1003f422 f   libucrt:ioinit.obj
 0001:0003e48d       ___acrt_uninitialize_lowio 1003f48d f   libucrt:ioinit.obj
 0001:0003e4df       ___isascii                 1003f4df f i libucrt:_ctype.obj
 0001:0003e4f5       ___iscsym                  1003f4f5 f i libucrt:_ctype.obj
 0001:0003e51f       ___iscsymf                 1003f51f f i libucrt:_ctype.obj
 0001:0003e545       ___toascii                 1003f545 f i libucrt:_ctype.obj
 0001:0003e555       __isalnum_l                1003f555 f i libucrt:_ctype.obj
 0001:0003e59e       __isalpha_l                1003f59e f i libucrt:_ctype.obj
 0001:0003e5e7       __isblank_l                1003f5e7 f i libucrt:_ctype.obj
 0001:0003e63a       __iscntrl_l                1003f63a f i libucrt:_ctype.obj
 0001:0003e680       __iscsym_l                 1003f680 f i libucrt:_ctype.obj
 0001:0003e6ab       __iscsymf_l                1003f6ab f i libucrt:_ctype.obj
 0001:0003e6d6       __isdigit_l                1003f6d6 f i libucrt:_ctype.obj
 0001:0003e71c       __isgraph_l                1003f71c f i libucrt:_ctype.obj
 0001:0003e765       __islower_l                1003f765 f i libucrt:_ctype.obj
 0001:0003e7ab       __isprint_l                1003f7ab f i libucrt:_ctype.obj
 0001:0003e7f4       __ispunct_l                1003f7f4 f i libucrt:_ctype.obj
 0001:0003e83a       __isspace_l                1003f83a f i libucrt:_ctype.obj
 0001:0003e880       __isupper_l                1003f880 f i libucrt:_ctype.obj
 0001:0003e8c6       __isxdigit_l               1003f8c6 f i libucrt:_ctype.obj
 0001:0003e90f       _isalnum                   1003f90f f i libucrt:_ctype.obj
 0001:0003e949       _isalpha                   1003f949 f i libucrt:_ctype.obj
 0001:0003e983       _isblank                   1003f983 f i libucrt:_ctype.obj
 0001:0003e9c7       _iscntrl                   1003f9c7 f i libucrt:_ctype.obj
 0001:0003e9ff       _isdigit                   1003f9ff f i libucrt:_ctype.obj
 0001:0003ea37       _isgraph                   1003fa37 f i libucrt:_ctype.obj
 0001:0003ea71       _islower                   1003fa71 f i libucrt:_ctype.obj
 0001:0003eaa9       _isprint                   1003faa9 f i libucrt:_ctype.obj
 0001:0003eae3       _ispunct                   1003fae3 f i libucrt:_ctype.obj
 0001:0003eb1b       _isspace                   1003fb1b f i libucrt:_ctype.obj
 0001:0003eb53       _isupper                   1003fb53 f i libucrt:_ctype.obj
 0001:0003eb8b       _isxdigit                  1003fb8b f i libucrt:_ctype.obj
 0001:0003ef83       __tolower                  1003ff83 f   libucrt:tolower_toupper.obj
 0001:0003ef93       __tolower_l                1003ff93 f   libucrt:tolower_toupper.obj
 0001:0003efb3       __toupper                  1003ffb3 f   libucrt:tolower_toupper.obj
 0001:0003efc3       __toupper_l                1003ffc3 f   libucrt:tolower_toupper.obj
 0001:0003efe3       _tolower                   1003ffe3 f   libucrt:tolower_toupper.obj
 0001:0003f01f       _toupper                   1004001f f   libucrt:tolower_toupper.obj
 0001:0003f05b       ??$make_c_string_character_source@DPAPAD@__crt_strtox@@YA?AV?$c_string_character_source@D@0@QBDQAPAD@Z 1004005b f i libucrt:strtox.obj
 0001:0003f07c       ??$make_c_string_character_source@_WPAPA_W@__crt_strtox@@YA?AV?$c_string_character_source@_W@0@QB_WQAPA_W@Z 1004007c f i libucrt:strtox.obj
 0001:0003f09d       ??$parse_integer_from_string@JDPAPAD@__crt_strtox@@YAJQBDQAPADHQAU__crt_locale_pointers@@@Z 1004009d f i libucrt:strtox.obj
 0001:0003f0d5       ??$parse_integer_from_string@J_WPAPA_W@__crt_strtox@@YAJQB_WQAPA_WHQAU__crt_locale_pointers@@@Z 100400d5 f i libucrt:strtox.obj
 0001:0003f10d       ??$parse_integer_from_string@KDPAPAD@__crt_strtox@@YAKQBDQAPADHQAU__crt_locale_pointers@@@Z 1004010d f i libucrt:strtox.obj
 0001:0003f145       ??$parse_integer_from_string@K_WPAPA_W@__crt_strtox@@YAKQB_WQAPA_WHQAU__crt_locale_pointers@@@Z 10040145 f i libucrt:strtox.obj
 0001:0003f17d       ??$parse_integer_from_string@_JDPAPAD@__crt_strtox@@YA_JQBDQAPADHQAU__crt_locale_pointers@@@Z 1004017d f i libucrt:strtox.obj
 0001:0003f1b5       ??$parse_integer_from_string@_J_WPAPA_W@__crt_strtox@@YA_JQB_WQAPA_WHQAU__crt_locale_pointers@@@Z 100401b5 f i libucrt:strtox.obj
 0001:0003f1ed       ??$parse_integer_from_string@_KDPAPAD@__crt_strtox@@YA_KQBDQAPADHQAU__crt_locale_pointers@@@Z 100401ed f i libucrt:strtox.obj
 0001:0003f225       ??$parse_integer_from_string@_K_WPAPA_W@__crt_strtox@@YA_KQB_WQAPA_WHQAU__crt_locale_pointers@@@Z 10040225 f i libucrt:strtox.obj
 0001:0003f25d       __strtoi64                 1004025d f   libucrt:strtox.obj
 0001:0003f294       __strtoi64_l               10040294 f   libucrt:strtox.obj
 0001:0003f2cc       __strtoimax_l              100402cc f   libucrt:strtox.obj
 0001:0003f304       __strtol_l                 10040304 f   libucrt:strtox.obj
 0001:0003f33c       __strtoll_l                1004033c f   libucrt:strtox.obj
 0001:0003f374       __strtoui64                10040374 f   libucrt:strtox.obj
 0001:0003f3ab       __strtoui64_l              100403ab f   libucrt:strtox.obj
 0001:0003f3e3       __strtoul_l                100403e3 f   libucrt:strtox.obj
 0001:0003f41b       __strtoull_l               1004041b f   libucrt:strtox.obj
 0001:0003f453       __strtoumax_l              10040453 f   libucrt:strtox.obj
 0001:0003f48b       __wcstoi64                 1004048b f   libucrt:strtox.obj
 0001:0003f4c2       __wcstoi64_l               100404c2 f   libucrt:strtox.obj
 0001:0003f4fa       __wcstoimax_l              100404fa f   libucrt:strtox.obj
 0001:0003f532       __wcstol_l                 10040532 f   libucrt:strtox.obj
 0001:0003f56a       __wcstoll_l                1004056a f   libucrt:strtox.obj
 0001:0003f5a2       __wcstoui64                100405a2 f   libucrt:strtox.obj
 0001:0003f5d9       __wcstoui64_l              100405d9 f   libucrt:strtox.obj
 0001:0003f611       __wcstoul_l                10040611 f   libucrt:strtox.obj
 0001:0003f649       __wcstoull_l               10040649 f   libucrt:strtox.obj
 0001:0003f681       __wcstoumax_l              10040681 f   libucrt:strtox.obj
 0001:0003f6b9       _strtoimax                 100406b9 f   libucrt:strtox.obj
 0001:0003f6f0       _strtol                    100406f0 f   libucrt:strtox.obj
 0001:0003f727       _strtoll                   10040727 f   libucrt:strtox.obj
 0001:0003f75e       _strtoul                   1004075e f   libucrt:strtox.obj
 0001:0003f795       _strtoull                  10040795 f   libucrt:strtox.obj
 0001:0003f7cc       _strtoumax                 100407cc f   libucrt:strtox.obj
 0001:0003f803       _wcstoimax                 10040803 f   libucrt:strtox.obj
 0001:0003f83a       _wcstol                    1004083a f   libucrt:strtox.obj
 0001:0003f871       _wcstoll                   10040871 f   libucrt:strtox.obj
 0001:0003f8a8       _wcstoul                   100408a8 f   libucrt:strtox.obj
 0001:0003f8df       _wcstoull                  100408df f   libucrt:strtox.obj
 0001:0003f916       _wcstoumax                 10040916 f   libucrt:strtox.obj
 0001:0003f94d       __mbtowc_l                 1004094d f   libucrt:mbtowc.obj
 0001:0003fa85       _mbtowc                    10040a85 f   libucrt:mbtowc.obj
 0001:0003faa5       __wctomb_l                 10040aa5 f   libucrt:wctomb.obj
 0001:0003fb0c       __wctomb_s_l               10040b0c f   libucrt:wctomb.obj
 0001:0003fc75       _wctomb                    10040c75 f   libucrt:wctomb.obj
 0001:0003fcb6       _wctomb_s                  10040cb6 f   libucrt:wctomb.obj
 0001:000403ce       ??1?$__crt_simd_cleanup_guard@$00@@QAE@XZ 100413ce f i libucrt:strnlen.obj
 0001:000403d2       ??1?$__crt_simd_cleanup_guard@$0A@@@QAE@XZ 100413d2 f i libucrt:strnlen.obj
 0001:000403d3       ?compare_equals@?$__crt_simd_traits@$00E@@SA?AT__m256i@@T2@0@Z 100413d3 f i libucrt:strnlen.obj
 0001:000403d8       ?compare_equals@?$__crt_simd_traits@$00G@@SA?AT__m256i@@T2@0@Z 100413d8 f i libucrt:strnlen.obj
 0001:000403dd       ?compare_equals@?$__crt_simd_traits@$0A@E@@SA?AT__m128i@@T2@0@Z 100413dd f i libucrt:strnlen.obj
 0001:000403e2       ?compare_equals@?$__crt_simd_traits@$0A@G@@SA?AT__m128i@@T2@0@Z 100413e2 f i libucrt:strnlen.obj
 0001:000403e7       ?compute_byte_mask@?$__crt_simd_pack_traits@$00@@SAHT__m256i@@@Z 100413e7 f i libucrt:strnlen.obj
 0001:000403ec       ?compute_byte_mask@?$__crt_simd_pack_traits@$0A@@@SAHT__m128i@@@Z 100413ec f i libucrt:strnlen.obj
 0001:000403f1       ?get_zero_pack@?$__crt_simd_pack_traits@$00@@SA?AT__m256i@@XZ 100413f1 f i libucrt:strnlen.obj
 0001:000403f6       ?get_zero_pack@?$__crt_simd_pack_traits@$0A@@@SA?AT__m128i@@XZ 100413f6 f i libucrt:strnlen.obj
 0001:000403fb       _strnlen                   100413fb f   libucrt:strnlen.obj
 0001:0004056b       _wcsnlen                   1004156b f   libucrt:strnlen.obj
 0001:0004078f       ??$?RU__acrt_ptd@@@__crt_internal_free_policy@@QBEXQBU__acrt_ptd@@@Z 1004178f f i libucrt:per_thread_data.obj
 0001:000407a5       ??$?RV<lambda_3518db117f0e7cdb002338c5d3c47b6c>@@AAV<lambda_b2ea41f6bbb362cd97d94c6828d90b61>@@V<lambda_abdedf541bb04549bc734292b4a045d4>@@@?$__crt_seh_guarded_call@X@@QAEX$$QAV<lambda_3518db117f0e7cdb002338c5d3c47b6c>@@AAV<lambda_b2ea41f6bbb362cd97d94c6828d90b61>@@$$QAV<lambda_abdedf541bb04549bc734292b4a045d4>@@@Z 100417a5 f i libucrt:per_thread_data.obj
 0001:00040809       ??$?RV<lambda_51b6e8b1eb166f2a3faf91f424b38130>@@AAV<lambda_6250bd4b2a391816dd638c3bf72b0bcb>@@V<lambda_0b5a4a3e68152e1d9b943535f5f47bed>@@@?$__crt_seh_guarded_call@X@@QAEX$$QAV<lambda_51b6e8b1eb166f2a3faf91f424b38130>@@AAV<lambda_6250bd4b2a391816dd638c3bf72b0bcb>@@$$QAV<lambda_0b5a4a3e68152e1d9b943535f5f47bed>@@@Z 10041809 f i libucrt:per_thread_data.obj
 0001:00040882       ??$?RV<lambda_5b71d36f03204c0beab531769a5b5694>@@AAV<lambda_be2b3da3f62db62e9dad5dc70221a656>@@V<lambda_8f9ce462984622f9bf76b59e2aaaf805>@@@?$__crt_seh_guarded_call@X@@QAEX$$QAV<lambda_5b71d36f03204c0beab531769a5b5694>@@AAV<lambda_be2b3da3f62db62e9dad5dc70221a656>@@$$QAV<lambda_8f9ce462984622f9bf76b59e2aaaf805>@@@Z 10041882 f i libucrt:per_thread_data.obj
 0001:000408df       ??$?RV<lambda_9df27f884b057bc3edfc946cb5b7cf47>@@AAV<lambda_e69574bed617af4e071282c136b37893>@@V<lambda_cc0d902bcbbeb830f749456577db4721>@@@?$__crt_seh_guarded_call@X@@QAEX$$QAV<lambda_9df27f884b057bc3edfc946cb5b7cf47>@@AAV<lambda_e69574bed617af4e071282c136b37893>@@$$QAV<lambda_cc0d902bcbbeb830f749456577db4721>@@@Z 100418df f i libucrt:per_thread_data.obj
 0001:00040939       ??$__acrt_lock_and_call@V<lambda_6250bd4b2a391816dd638c3bf72b0bcb>@@@@YAXW4__acrt_lock_id@@$$QAV<lambda_6250bd4b2a391816dd638c3bf72b0bcb>@@@Z 10041939 f i libucrt:per_thread_data.obj
 0001:0004096b       ??$__acrt_lock_and_call@V<lambda_b2ea41f6bbb362cd97d94c6828d90b61>@@@@YAXW4__acrt_lock_id@@$$QAV<lambda_b2ea41f6bbb362cd97d94c6828d90b61>@@@Z 1004196b f i libucrt:per_thread_data.obj
 0001:0004099d       ??$__acrt_lock_and_call@V<lambda_be2b3da3f62db62e9dad5dc70221a656>@@@@YAXW4__acrt_lock_id@@$$QAV<lambda_be2b3da3f62db62e9dad5dc70221a656>@@@Z 1004199d f i libucrt:per_thread_data.obj
 0001:000409cf       ??$__acrt_lock_and_call@V<lambda_e69574bed617af4e071282c136b37893>@@@@YAXW4__acrt_lock_id@@$$QAV<lambda_e69574bed617af4e071282c136b37893>@@@Z 100419cf f i libucrt:per_thread_data.obj
 0001:00040b08       ??0?$__crt_unique_heap_ptr@U__acrt_ptd@@U__crt_internal_free_policy@@@@QAE@QAU__acrt_ptd@@@Z 10041b08 f i libucrt:per_thread_data.obj
 0001:00040b1c       ??0__crt_scoped_get_last_error_reset@@QAE@XZ 10041b1c f i libucrt:per_thread_data.obj
 0001:00040b31       ??1?$__crt_unique_heap_ptr@U__acrt_ptd@@U__crt_internal_free_policy@@@@QAE@XZ 10041b31 f i libucrt:per_thread_data.obj
 0001:00040b47       ??1__crt_scoped_get_last_error_reset@@QAE@XZ 10041b47 f i libucrt:per_thread_data.obj
 0001:00040b52       ??B?$__crt_unique_heap_ptr@U__acrt_ptd@@U__crt_internal_free_policy@@@@QBE_NXZ 10041b52 f i libucrt:per_thread_data.obj
 0001:00040cc8       ?dangerous_get_state_array@?$dual_state_global@PAU__crt_locale_data@@@__crt_state_management@@QAEPAPAU__crt_locale_data@@XZ 10041cc8 f i libucrt:per_thread_data.obj
 0001:00040dcc       ?detach@?$__crt_unique_heap_ptr@U__acrt_ptd@@U__crt_internal_free_policy@@@@QAEPAU__acrt_ptd@@XZ 10041dcc f i libucrt:per_thread_data.obj
 0001:00040dd2       ?get@?$__crt_unique_heap_ptr@U__acrt_ptd@@U__crt_internal_free_policy@@@@QBEPAU__acrt_ptd@@XZ 10041dd2 f i libucrt:per_thread_data.obj
 0001:00040ee1       ?is_valid@?$__crt_unique_heap_ptr@U__acrt_ptd@@U__crt_internal_free_policy@@@@QBE_NXZ 10041ee1 f i libucrt:per_thread_data.obj
 0001:00040eeb       ?release@?$__crt_unique_heap_ptr@U__acrt_ptd@@U__crt_internal_free_policy@@@@QAEXXZ 10041eeb f i libucrt:per_thread_data.obj
 0001:00040f77       ?value@?$dual_state_global@PAU__crt_locale_data@@@__crt_state_management@@QAEAAPAU__crt_locale_data@@XZ 10041f77 f i libucrt:per_thread_data.obj
 0001:00040f7a       ___acrt_freeptd            10041f7a f   libucrt:per_thread_data.obj
 0001:00040fb1       ___acrt_getptd             10041fb1 f   libucrt:per_thread_data.obj
 0001:00041056       ___acrt_getptd_noexit      10042056 f   libucrt:per_thread_data.obj
 0001:000410fc       ___acrt_initialize_ptd     100420fc f   libucrt:per_thread_data.obj
 0001:00041133       ___acrt_uninitialize_ptd   10042133 f   libucrt:per_thread_data.obj
 0001:00041153       ___threadhandle            10042153 f   libucrt:per_thread_data.obj
 0001:00041159       ___threadid                10042159 f   libucrt:per_thread_data.obj
 0001:0004115f       ___acrt_update_locale_info 1004215f f   libucrt:locale_update.obj
 0001:00041197       ___acrt_update_multibyte_info 10042197 f   libucrt:locale_update.obj
 0001:000411cf       ?__acrt_fp_classify@@YA?AW4__acrt_fp_class@@ABN@Z 100421cf f i libucrt:cvt.obj
 0001:00041256       ?__acrt_fp_is_negative@@YA_NABN@Z 10042256 f i libucrt:cvt.obj
 0001:00041cc9       ?strrchr@@YAPADQADH@Z      10042cc9 f i libucrt:cvt.obj
 0001:00041cd6       ___acrt_fp_format          10042cd6 f   libucrt:cvt.obj
 0001:00041eb0       __fputwc_nolock            10042eb0 f   libucrt:fputwc.obj
 0001:0004201f       __fputwchar                1004301f f   libucrt:fputwc.obj
 0001:0004203f       __putwc_nolock             1004303f f   libucrt:fputwc.obj
 0001:0004204c       _fputwc                    1004304c f   libucrt:fputwc.obj
 0001:000420e5       _putwc                     100430e5 f   libucrt:fputwc.obj
 0001:000420f2       _putwchar                  100430f2 f   libucrt:fputwc.obj
 0001:000420ff       ?lowio_handle@__crt_stdio_stream@@QBEHXZ 100430ff f i libucrt:fileno.obj
 0001:00042105       __fileno                   10043105 f   libucrt:fileno.obj
 0001:00042134       __fputc_nolock             10043134 f   libucrt:fputc.obj
 0001:00042167       __fputchar                 10043167 f   libucrt:fputc.obj
 0001:00042187       __putc_nolock              10043187 f   libucrt:fputc.obj
 0001:00042194       _fputc                     10043194 f   libucrt:fputc.obj
 0001:000422d9       _putc                      100432d9 f   libucrt:fputc.obj
 0001:000422e6       _putchar                   100432e6 f   libucrt:fputc.obj
 0001:000422f3       __get_printf_count_output  100432f3 f   libucrt:printf_count_output.obj
 0001:0004230d       __set_printf_count_output  1004330d f   libucrt:printf_count_output.obj
 0001:00042341       ?has_temporary_buffer@__crt_stdio_stream@@QBE_NXZ 10043341 f i libucrt:_sftbuf.obj
 0001:00042350       ___acrt_stdio_begin_temporary_buffering_nolock 10043350 f   libucrt:_sftbuf.obj
 0001:00042432       ___acrt_stdio_end_temporary_buffering_nolock 10043432 f   libucrt:_sftbuf.obj
 0001:0004247c       ??$?RU__crt_locale_data@@@__crt_internal_free_policy@@QBEXQBU__crt_locale_data@@@Z 1004347c f i libucrt:wsetlocale.obj
 0001:00042492       ??$?RU__crt_locale_pointers@@@__crt_internal_free_policy@@QBEXQBU__crt_locale_pointers@@@Z 10043492 f i libucrt:wsetlocale.obj
 0001:000424a8       ??$?RU__crt_multibyte_data@@@__crt_internal_free_policy@@QBEXQBU__crt_multibyte_data@@@Z 100434a8 f i libucrt:wsetlocale.obj
 0001:000424be       ??$?RV<lambda_70818de7b02deff9841e8b0962a60ed9>@@AAV<lambda_2af78c5f5901b1372d98f9ab3177dfa6>@@AAV<lambda_f51fe5fd7c79a33db34fc9310f277369>@@@?$__crt_seh_guarded_call@X@@QAEX$$QAV<lambda_70818de7b02deff9841e8b0962a60ed9>@@AAV<lambda_2af78c5f5901b1372d98f9ab3177dfa6>@@AAV<lambda_f51fe5fd7c79a33db34fc9310f277369>@@@Z 100434be f i libucrt:wsetlocale.obj
 0001:00042507       ??$?RV<lambda_76aaead6e312921abc834cb00a638bdd>@@AAV<lambda_176e34f99554166dd2fac165c457248c>@@V<lambda_998ee1c9f4290b119b936bcd6215875a>@@@?$__crt_seh_guarded_call@X@@QAEX$$QAV<lambda_76aaead6e312921abc834cb00a638bdd>@@AAV<lambda_176e34f99554166dd2fac165c457248c>@@$$QAV<lambda_998ee1c9f4290b119b936bcd6215875a>@@@Z 10043507 f i libucrt:wsetlocale.obj
 0001:00042563       ??$?RV<lambda_c76fdea48760d5f9368b465f31df4405>@@AAV<lambda_e378711a6f6581bf7f0efd7cdf97f5d9>@@V<lambda_e927a58b2a85c081d733e8c6192ae2d2>@@@?$__crt_seh_guarded_call@X@@QAEX$$QAV<lambda_c76fdea48760d5f9368b465f31df4405>@@AAV<lambda_e378711a6f6581bf7f0efd7cdf97f5d9>@@$$QAV<lambda_e927a58b2a85c081d733e8c6192ae2d2>@@@Z 10043563 f i libucrt:wsetlocale.obj
 0001:000425b6       ??$?RV<lambda_c9469061b39d205f0f236529d4a41659>@@AAV<lambda_b7fb1a997d3ebc0cc0186c5835178808>@@V<lambda_14b92c79d699846b5cc916cd4cf280e4>@@@?$__crt_seh_guarded_call@X@@QAEX$$QAV<lambda_c9469061b39d205f0f236529d4a41659>@@AAV<lambda_b7fb1a997d3ebc0cc0186c5835178808>@@$$QAV<lambda_14b92c79d699846b5cc916cd4cf280e4>@@@Z 100435b6 f i libucrt:wsetlocale.obj
 0001:00042610       ??$__acrt_lock_and_call@V<lambda_176e34f99554166dd2fac165c457248c>@@@@YAXW4__acrt_lock_id@@$$QAV<lambda_176e34f99554166dd2fac165c457248c>@@@Z 10043610 f i libucrt:wsetlocale.obj
 0001:00042642       ??$__acrt_lock_and_call@V<lambda_b7fb1a997d3ebc0cc0186c5835178808>@@@@YAXW4__acrt_lock_id@@$$QAV<lambda_b7fb1a997d3ebc0cc0186c5835178808>@@@Z 10043642 f i libucrt:wsetlocale.obj
 0001:00042674       ??$__acrt_lock_and_call@V<lambda_e378711a6f6581bf7f0efd7cdf97f5d9>@@@@YAXW4__acrt_lock_id@@$$QAV<lambda_e378711a6f6581bf7f0efd7cdf97f5d9>@@@Z 10043674 f i libucrt:wsetlocale.obj
 0001:000426a6       ??$__crt_call_and_cleanup@V<lambda_2af78c5f5901b1372d98f9ab3177dfa6>@@V<lambda_f51fe5fd7c79a33db34fc9310f277369>@@@@YAX$$QAV<lambda_2af78c5f5901b1372d98f9ab3177dfa6>@@$$QAV<lambda_f51fe5fd7c79a33db34fc9310f277369>@@@Z 100436a6 f i libucrt:wsetlocale.obj
 0001:000426c9       ??$__vcrt_va_start_verify_argument_type@H@@YAXXZ 100436c9 f i libucrt:wsetlocale.obj
 0001:000427ee       ??0?$__crt_unique_heap_ptr@U__crt_locale_data@@U__crt_internal_free_policy@@@@QAE@QAU__crt_locale_data@@@Z 100437ee f i libucrt:wsetlocale.obj
 0001:00042802       ??0?$__crt_unique_heap_ptr@U__crt_locale_pointers@@U__crt_internal_free_policy@@@@QAE@QAU__crt_locale_pointers@@@Z 10043802 f i libucrt:wsetlocale.obj
 0001:00042816       ??0?$__crt_unique_heap_ptr@U__crt_multibyte_data@@U__crt_internal_free_policy@@@@QAE@QAU__crt_multibyte_data@@@Z 10043816 f i libucrt:wsetlocale.obj
 0001:0004282a       ??1?$__crt_unique_heap_ptr@U__crt_locale_data@@U__crt_internal_free_policy@@@@QAE@XZ 1004382a f i libucrt:wsetlocale.obj
 0001:00042840       ??1?$__crt_unique_heap_ptr@U__crt_locale_pointers@@U__crt_internal_free_policy@@@@QAE@XZ 10043840 f i libucrt:wsetlocale.obj
 0001:00042856       ??1?$__crt_unique_heap_ptr@U__crt_multibyte_data@@U__crt_internal_free_policy@@@@QAE@XZ 10043856 f i libucrt:wsetlocale.obj
 0001:0004286c       ??B?$__crt_unique_heap_ptr@U__crt_locale_data@@U__crt_internal_free_policy@@@@QBE_NXZ 1004386c f i libucrt:wsetlocale.obj
 0001:00042876       ??B?$__crt_unique_heap_ptr@U__crt_locale_pointers@@U__crt_internal_free_policy@@@@QBE_NXZ 10043876 f i libucrt:wsetlocale.obj
 0001:00042880       ??B?$__crt_unique_heap_ptr@U__crt_multibyte_data@@U__crt_internal_free_policy@@@@QBE_NXZ 10043880 f i libucrt:wsetlocale.obj
 0001:00042aa9       ?detach@?$__crt_unique_heap_ptr@U__crt_locale_data@@U__crt_internal_free_policy@@@@QAEPAU__crt_locale_data@@XZ 10043aa9 f i libucrt:wsetlocale.obj
 0001:00042aaf       ?detach@?$__crt_unique_heap_ptr@U__crt_locale_pointers@@U__crt_internal_free_policy@@@@QAEPAU__crt_locale_pointers@@XZ 10043aaf f i libucrt:wsetlocale.obj
 0001:00042ab5       ?detach@?$__crt_unique_heap_ptr@U__crt_multibyte_data@@U__crt_internal_free_policy@@@@QAEPAU__crt_multibyte_data@@XZ 10043ab5 f i libucrt:wsetlocale.obj
 0001:00042abb       ?get@?$__crt_unique_heap_ptr@U__crt_locale_data@@U__crt_internal_free_policy@@@@QBEPAU__crt_locale_data@@XZ 10043abb f i libucrt:wsetlocale.obj
 0001:00042abe       ?get@?$__crt_unique_heap_ptr@U__crt_locale_pointers@@U__crt_internal_free_policy@@@@QBEPAU__crt_locale_pointers@@XZ 10043abe f i libucrt:wsetlocale.obj
 0001:00042ac1       ?get@?$__crt_unique_heap_ptr@U__crt_multibyte_data@@U__crt_internal_free_policy@@@@QBEPAU__crt_multibyte_data@@XZ 10043ac1 f i libucrt:wsetlocale.obj
 0001:00042ac4       ?is_valid@?$__crt_unique_heap_ptr@U__crt_locale_data@@U__crt_internal_free_policy@@@@QBE_NXZ 10043ac4 f i libucrt:wsetlocale.obj
 0001:00042ace       ?is_valid@?$__crt_unique_heap_ptr@U__crt_locale_pointers@@U__crt_internal_free_policy@@@@QBE_NXZ 10043ace f i libucrt:wsetlocale.obj
 0001:00042ad8       ?is_valid@?$__crt_unique_heap_ptr@U__crt_multibyte_data@@U__crt_internal_free_policy@@@@QBE_NXZ 10043ad8 f i libucrt:wsetlocale.obj
 0001:00042ae2       ?release@?$__crt_unique_heap_ptr@U__crt_locale_data@@U__crt_internal_free_policy@@@@QAEXXZ 10043ae2 f i libucrt:wsetlocale.obj
 0001:00042af8       ?release@?$__crt_unique_heap_ptr@U__crt_locale_pointers@@U__crt_internal_free_policy@@@@QAEXXZ 10043af8 f i libucrt:wsetlocale.obj
 0001:00042b0e       ?release@?$__crt_unique_heap_ptr@U__crt_multibyte_data@@U__crt_internal_free_policy@@@@QAEXXZ 10043b0e f i libucrt:wsetlocale.obj
 0001:00042b24       ___acrt_copy_locale_name   10043b24 f   libucrt:wsetlocale.obj
 0001:00042ba3       ___acrt_set_locale_changed 10043ba3 f   libucrt:wsetlocale.obj
 0001:00042bb0       ___acrt_uninitialize_locale 10043bb0 f   libucrt:wsetlocale.obj
 0001:00042c16       ___lc_lctowcs              10043c16 f   libucrt:wsetlocale.obj
 0001:00042ca2       ___lc_wcstolc              10043ca2 f   libucrt:wsetlocale.obj
 0001:00042e1c       __configthreadlocale       10043e1c f   libucrt:wsetlocale.obj
 0001:00042ed0       __create_locale            10043ed0 f   libucrt:wsetlocale.obj
 0001:00042f4d       __expandlocale             10043f4d f   libucrt:wsetlocale.obj
 0001:000433a1       __free_locale              100443a1 f   libucrt:wsetlocale.obj
 0001:00043487       __get_current_locale       10044487 f   libucrt:wsetlocale.obj
 0001:00043520       __wcreate_locale           10044520 f   libucrt:wsetlocale.obj
 0001:0004366b       __wcscats                  1004466b f   libucrt:wsetlocale.obj
 0001:000436bc       __wsetlocale               100446bc f   libucrt:wsetlocale.obj
 0001:000441e2       ___p___mb_cur_max          100451e2 f   libucrt:nlsdata.obj
 0001:000442d9       ___acrt_report_runtime_error 100452d9 f   libucrt:report_runtime_error.obj
 0001:0004443f       __query_app_type           1004543f f   libucrt:report_runtime_error.obj
 0001:00044445       __set_app_type             10045445 f   libucrt:report_runtime_error.obj
 0001:00044931       __i64toa                   10045931 f   libucrt:xtoa.obj
 0001:00044984       __i64toa_s                 10045984 f   libucrt:xtoa.obj
 0001:000449d5       __i64tow                   100459d5 f   libucrt:xtoa.obj
 0001:00044a28       __i64tow_s                 10045a28 f   libucrt:xtoa.obj
 0001:00044a79       __itoa                     10045a79 f   libucrt:xtoa.obj
 0001:00044abd       __itoa_s                   10045abd f   libucrt:xtoa.obj
 0001:00044aff       __itow                     10045aff f   libucrt:xtoa.obj
 0001:00044b43       __itow_s                   10045b43 f   libucrt:xtoa.obj
 0001:00044b85       __ltoa                     10045b85 f   libucrt:xtoa.obj
 0001:00044bc9       __ltoa_s                   10045bc9 f   libucrt:xtoa.obj
 0001:00044c0b       __ltow                     10045c0b f   libucrt:xtoa.obj
 0001:00044c4f       __ltow_s                   10045c4f f   libucrt:xtoa.obj
 0001:00044c91       __ui64toa                  10045c91 f   libucrt:xtoa.obj
 0001:00044cbb       __ui64toa_s                10045cbb f   libucrt:xtoa.obj
 0001:00044ce3       __ui64tow                  10045ce3 f   libucrt:xtoa.obj
 0001:00044d0d       __ui64tow_s                10045d0d f   libucrt:xtoa.obj
 0001:00044d35       __ultoa                    10045d35 f   libucrt:xtoa.obj
 0001:00044d5b       __ultoa_s                  10045d5b f   libucrt:xtoa.obj
 0001:00044d7f       __ultow                    10045d7f f   libucrt:xtoa.obj
 0001:00044da5       __ultow_s                  10045da5 f   libucrt:xtoa.obj
 0001:00044dc9       __set_error_mode           10045dc9 f   libucrt:set_error_mode.obj
 0001:00044ea5       _wcscat_s                  10045ea5 f   libucrt:wcscat_s.obj
 0001:00044faf       _wcscpy_s                  10045faf f   libucrt:wcscpy_s.obj
 0001:0004514f       _wcsncat_s                 1004614f f   libucrt:wcsncat_s.obj
 0001:000451df       _strcat_s                  100461df f   libucrt:strcat_s.obj
 0001:00045366       _strncat_s                 10046366 f   libucrt:strncat_s.obj
 0001:00045591       ??$message_box@$$TAAPBDAAPBDAAI@?$__crt_char_traits@D@@SAH$$QA$$TAAPBD1AAI@Z 10046591 f i libucrt:crtmbox.obj
 0001:000455b9       ??$message_box@$$TAAPB_WAAPB_WAAI@?$__crt_char_traits@_W@@SAH$$QA$$TAAPB_W1AAI@Z 100465b9 f i libucrt:crtmbox.obj
 0001:000455e1       ??$message_box@$$TABQBDABQBDK@?$__crt_char_traits@D@@SAH$$QA$$TABQBD1$$QAK@Z 100465e1 f i libucrt:crtmbox.obj
 0001:00045609       ??$message_box@$$TABQB_WABQB_WK@?$__crt_char_traits@_W@@SAH$$QA$$TABQB_W1$$QAK@Z 10046609 f i libucrt:crtmbox.obj
 0001:00045631       ??$message_box@PAUHWND__@@ABQBDABQBDABI@?$__crt_char_traits@D@@SAH$$QAPAUHWND__@@ABQBD1ABI@Z 10046631 f i libucrt:crtmbox.obj
 0001:00045659       ??$message_box@PAUHWND__@@ABQB_WABQB_WABI@?$__crt_char_traits@_W@@SAH$$QAPAUHWND__@@ABQB_W1ABI@Z 10046659 f i libucrt:crtmbox.obj
 0001:000456d5       ??$output_debug_string@ABQBD@?$__crt_char_traits@D@@SAXABQBD@Z 100466d5 f i libucrt:crtmbox.obj
 0001:000456eb       ??$output_debug_string@ABQB_W@?$__crt_char_traits@_W@@SAXABQB_W@Z 100466eb f i libucrt:crtmbox.obj
 0001:00045701       ??0?$__crt_unique_handle_t@U__crt_handle_traits@@@@QAE@QAX@Z 10046701 f i libucrt:crtmbox.obj
 0001:00045715       ??1?$__crt_unique_handle_t@U__crt_handle_traits@@@@QAE@XZ 10046715 f i libucrt:crtmbox.obj
 0001:00045731       ??B?$__crt_unique_handle_t@U__crt_handle_traits@@@@QBE_NXZ 10046731 f i libucrt:crtmbox.obj
 0001:0004573c       ?close@?$__crt_unique_handle_t@U__crt_handle_traits@@@@QAEXXZ 1004673c f i libucrt:crtmbox.obj
 0001:00045758       ?close@__crt_handle_traits@@SA_NPAX@Z 10046758 f i libucrt:crtmbox.obj
 0001:00045773       ?get@?$__crt_unique_handle_t@U__crt_handle_traits@@@@QBEPAXXZ 10046773 f i libucrt:crtmbox.obj
 0001:00045776       ?get_invalid_value@__crt_handle_traits@@SAPAXXZ 10046776 f i libucrt:crtmbox.obj
 0001:0004577a       ?is_valid@?$__crt_unique_handle_t@U__crt_handle_traits@@@@QBE_NXZ 1004677a f i libucrt:crtmbox.obj
 0001:00045785       ___acrt_show_narrow_message_box 10046785 f   libucrt:crtmbox.obj
 0001:00045792       ___acrt_show_wide_message_box 10046792 f   libucrt:crtmbox.obj
 0001:0004579f       ??$?RV<lambda_d92cfe8357b99225085016881b624cb0>@@AAV<lambda_b721fa326cdb32351d23dfa67958c160>@@V<lambda_42d75b0848218ec137fa420c8ba9fdf9>@@@?$__crt_seh_guarded_call@H@@QAEH$$QAV<lambda_d92cfe8357b99225085016881b624cb0>@@AAV<lambda_b721fa326cdb32351d23dfa67958c160>@@$$QAV<lambda_42d75b0848218ec137fa420c8ba9fdf9>@@@Z 1004679f f i libucrt:setvbuf.obj
 0001:00045804       ??$__acrt_lock_stream_and_call@V<lambda_b721fa326cdb32351d23dfa67958c160>@@@@YAHQAU_iobuf@@$$QAV<lambda_b721fa326cdb32351d23dfa67958c160>@@@Z 10046804 f i libucrt:setvbuf.obj
 0001:000459a1       _setvbuf                   100469a1 f   libucrt:setvbuf.obj
 0001:00045a34       ??$?B$$A6AXH@Z@__crt_fast_encoded_nullptr_t@@QBEP6AXH@ZXZ 10046a34 f i libucrt:signal.obj
 0001:00045a52       ??$?RV<lambda_a048d3beccc847880fc8490e18b82769>@@AAV<lambda_ec61778202f4f5fc7e7711acc23c3bca>@@V<lambda_f7496a158712204296dd6628a163878e>@@@?$__crt_seh_guarded_call@P6AXH@Z@@QAEP6AXH@Z$$QAV<lambda_a048d3beccc847880fc8490e18b82769>@@AAV<lambda_ec61778202f4f5fc7e7711acc23c3bca>@@$$QAV<lambda_f7496a158712204296dd6628a163878e>@@@Z 10046a52 f i libucrt:signal.obj
 0001:00045ac2       ??$__acrt_lock_and_call@V<lambda_ec61778202f4f5fc7e7711acc23c3bca>@@@@YAP6AXH@ZW4__acrt_lock_id@@$$QAV<lambda_ec61778202f4f5fc7e7711acc23c3bca>@@@Z 10046ac2 f i libucrt:signal.obj
 0001:00045af4       ??$__crt_fast_decode_pointer@P6AXH@Z@@YAP6AXH@ZQ6AXH@Z@Z 10046af4 f i libucrt:signal.obj
 0001:00045b0f       ??$__crt_fast_encode_pointer@P6AXH@Z@@YAP6AXH@ZQ6AXH@Z@Z 10046b0f f i libucrt:signal.obj
 0001:00045cb9       ?initialize@?$dual_state_global@P6AXH@Z@__crt_state_management@@QAEXQ6AXH@Z@Z 10046cb9 f i libucrt:signal.obj
 0001:00045d65       ?value@?$dual_state_global@P6AXH@Z@__crt_state_management@@QAEAAP6AXH@ZXZ 10046d65 f i libucrt:signal.obj
 0001:00045d68       ___acrt_get_sigabrt_handler 10046d68 f   libucrt:signal.obj
 0001:00045d84       ___acrt_initialize_signal_handlers 10046d84 f   libucrt:signal.obj
 0001:00045dcd       ___fpecode                 10046dcd f   libucrt:signal.obj
 0001:00045dd8       ___pxcptinfoptrs           10046dd8 f   libucrt:signal.obj
 0001:00045de3       _raise                     10046de3 f   libucrt:signal.obj
 0001:0004606d       _signal                    1004706d f   libucrt:signal.obj
 0001:0004628b       __realloc_base             1004728b f   libucrt:realloc_base.obj
 0001:0004630e       ___acrt_initialize_locks   1004730e f   libucrt:locks.obj
 0001:0004635f       ___acrt_lock               1004735f f   libucrt:locks.obj
 0001:0004637b       ___acrt_uninitialize_locks 1004737b f   libucrt:locks.obj
 0001:000463b8       ___acrt_unlock             100473b8 f   libucrt:locks.obj
 0001:000463d4       __lock_locales             100473d4 f   libucrt:locks.obj
 0001:000463df       __unlock_locales           100473df f   libucrt:locks.obj
 0001:000463ea       ??$?RV<lambda_123407a5e2ac06da108355a851863b7a>@@AAV<lambda_2fe9b910cf3cbf4a0ab98a02ba45b3ec>@@V<lambda_ae55bdf541ad94d75914d381c370e64d>@@@?$__crt_seh_guarded_call@H@@QAEH$$QAV<lambda_123407a5e2ac06da108355a851863b7a>@@AAV<lambda_2fe9b910cf3cbf4a0ab98a02ba45b3ec>@@$$QAV<lambda_ae55bdf541ad94d75914d381c370e64d>@@@Z 100473ea f i libucrt:close.obj
 0001:0004648c       ??$__acrt_lowio_lock_fh_and_call@V<lambda_2fe9b910cf3cbf4a0ab98a02ba45b3ec>@@@@YAHH$$QAV<lambda_2fe9b910cf3cbf4a0ab98a02ba45b3ec>@@@Z 1004748c f i libucrt:close.obj
 0001:000465df       __close                    100475df f   libucrt:close.obj
 0001:0004667d       __close_nolock             1004767d f   libucrt:close.obj
 0001:00046740       ??$?RU__crt_stdio_stream_data@@@__crt_internal_free_policy@@QBEXQBU__crt_stdio_stream_data@@@Z 10047740 f i libucrt:stream.obj
 0001:00046756       ??0?$__crt_unique_heap_ptr@U__crt_stdio_stream_data@@U__crt_internal_free_policy@@@@QAE@QAU__crt_stdio_stream_data@@@Z 10047756 f i libucrt:stream.obj
 0001:0004676a       ??0__crt_stdio_stream@@QAE@XZ 1004776a f i libucrt:stream.obj
 0001:00046770       ??1?$__crt_unique_heap_ptr@U__crt_stdio_stream_data@@U__crt_internal_free_policy@@@@QAE@XZ 10047770 f i libucrt:stream.obj
 0001:00046786       ?__acrt_stdio_allocate_stream@@YA?AV__crt_stdio_stream@@XZ 10047786 f   libucrt:stream.obj
 0001:000467fc       ?__acrt_stdio_free_stream@@YAXV__crt_stdio_stream@@@Z 100477fc f   libucrt:stream.obj
 0001:00046845       ?deallocate@__crt_stdio_stream@@QAEXXZ 10047845 f i libucrt:stream.obj
 0001:00046851       ?detach@?$__crt_unique_heap_ptr@U__crt_stdio_stream_data@@U__crt_internal_free_policy@@@@QAEPAU__crt_stdio_stream_data@@XZ 10047851 f i libucrt:stream.obj
 0001:0004694a       ?lock@__crt_stdio_stream@@QBEXXZ 1004794a f i libucrt:stream.obj
 0001:00046955       ?release@?$__crt_unique_heap_ptr@U__crt_stdio_stream_data@@U__crt_internal_free_policy@@@@QAEXXZ 10047955 f i libucrt:stream.obj
 0001:0004696b       ?try_allocate@__crt_stdio_stream@@QAE_NXZ 1004796b f i libucrt:stream.obj
 0001:00046994       ??$__acrt_stdio_parse_mode@D@@YA?AU__acrt_stdio_stream_mode@@QBD@Z 10047994 f i libucrt:openfile.obj
 0001:00046c52       ??$__acrt_stdio_parse_mode@_W@@YA?AU__acrt_stdio_stream_mode@@QB_W@Z 10047c52 f i libucrt:openfile.obj
 0001:00047073       ??$tcsncmp@AAPBDAAY02$$CBDI@?$__crt_char_traits@D@@SAHAAPBDAAY02$$CBD$$QAI@Z 10048073 f i libucrt:openfile.obj
 0001:00047096       ??$tcsncmp@AAPB_WAAY02$$CB_WI@?$__crt_char_traits@_W@@SAHAAPB_WAAY02$$CB_W$$QAI@Z 10048096 f i libucrt:openfile.obj
 0001:000470b9       ??$tcsnicmp@AAPBDAAY04$$CBDI@?$__crt_char_traits@D@@SAHAAPBDAAY04$$CBD$$QAI@Z 100480b9 f i libucrt:openfile.obj
 0001:000470dc       ??$tcsnicmp@AAPBDAAY06$$CBDI@?$__crt_char_traits@D@@SAHAAPBDAAY06$$CBD$$QAI@Z 100480dc f i libucrt:openfile.obj
 0001:000470ff       ??$tcsnicmp@AAPBDAAY07$$CBDI@?$__crt_char_traits@D@@SAHAAPBDAAY07$$CBD$$QAI@Z 100480ff f i libucrt:openfile.obj
 0001:00047122       ??$tcsnicmp@AAPB_WAAY04$$CB_WI@?$__crt_char_traits@_W@@SAHAAPB_WAAY04$$CB_W$$QAI@Z 10048122 f i libucrt:openfile.obj
 0001:00047145       ??$tcsnicmp@AAPB_WAAY06$$CB_WI@?$__crt_char_traits@_W@@SAHAAPB_WAAY06$$CB_W$$QAI@Z 10048145 f i libucrt:openfile.obj
 0001:00047168       ??$tcsnicmp@AAPB_WAAY07$$CB_WI@?$__crt_char_traits@_W@@SAHAAPB_WAAY07$$CB_W$$QAI@Z 10048168 f i libucrt:openfile.obj
 0001:0004718b       ??$tsopen_s@PAHABQBDABHABHH@?$__crt_char_traits@D@@SAH$$QAPAHABQBDABH2$$QAH@Z 1004818b f i libucrt:openfile.obj
 0001:000471bd       ??$tsopen_s@PAHABQB_WABHABHH@?$__crt_char_traits@_W@@SAH$$QAPAHABQB_WABH2$$QAH@Z 100481bd f i libucrt:openfile.obj
 0001:000471ef       ?__acrt_stdio_parse_mode_D@@YA_NAAU__acrt_stdio_stream_mode@@@Z 100481ef f i libucrt:openfile.obj
 0001:00047210       ?__acrt_stdio_parse_mode_N@@YA_NAAU__acrt_stdio_stream_mode@@@Z 10048210 f i libucrt:openfile.obj
 0001:00047226       ?__acrt_stdio_parse_mode_R@@YA_NAAU__acrt_stdio_stream_mode@@AA_N@Z 10048226 f i libucrt:openfile.obj
 0001:0004724b       ?__acrt_stdio_parse_mode_S@@YA_NAAU__acrt_stdio_stream_mode@@AA_N@Z 1004824b f i libucrt:openfile.obj
 0001:00047270       ?__acrt_stdio_parse_mode_T@@YA_NAAU__acrt_stdio_stream_mode@@@Z 10048270 f i libucrt:openfile.obj
 0001:00047296       ?__acrt_stdio_parse_mode_b@@YA_NAAU__acrt_stdio_stream_mode@@@Z 10048296 f i libucrt:openfile.obj
 0001:000472be       ?__acrt_stdio_parse_mode_c@@YA_NAAU__acrt_stdio_stream_mode@@AA_N@Z 100482be f i libucrt:openfile.obj
 0001:000472e8       ?__acrt_stdio_parse_mode_n@@YA_NAAU__acrt_stdio_stream_mode@@AA_N@Z 100482e8 f i libucrt:openfile.obj
 0001:00047312       ?__acrt_stdio_parse_mode_plus@@YA_NAAU__acrt_stdio_stream_mode@@AA_N@Z 10048312 f i libucrt:openfile.obj
 0001:00047354       ?__acrt_stdio_parse_mode_t@@YA_NAAU__acrt_stdio_stream_mode@@@Z 10048354 f i libucrt:openfile.obj
 0001:0004737c       __openfile                 1004837c f   libucrt:openfile.obj
 0001:00047389       __wopenfile                10048389 f   libucrt:openfile.obj
 0001:00047a2e       __read                     10048a2e f   libucrt:read.obj
 0001:00047b85       __read_nolock              10048b85 f   libucrt:read.obj
 0001:0004851d       ___acrt_stdio_refill_and_read_narrow_nolock 1004951d f   libucrt:_filbuf.obj
 0001:0004852a       ___acrt_stdio_refill_and_read_wide_nolock 1004952a f   libucrt:_filbuf.obj
 0001:00048c89       __write                    10049c89 f   libucrt:write.obj
 0001:00048dae       __write_nolock             10049dae f   libucrt:write.obj
 0001:000494f4       ___acrt_stdio_flush_and_write_narrow_nolock 1004a4f4 f   libucrt:_flsbuf.obj
 0001:00049501       ___acrt_stdio_flush_and_write_wide_nolock 1004a501 f   libucrt:_flsbuf.obj
 0001:0004950e       ___acrt_copy_path_to_wide_string 1004a50e f   libucrt:string_utilities.obj
 0001:00049606       ___acrt_copy_to_char       1004a606 f   libucrt:string_utilities.obj
 0001:000496f1       __wremove                  1004a6f1 f   libucrt:wunlink.obj
 0001:00049723       __wunlink                  1004a723 f   libucrt:wunlink.obj
 0001:00049b97       __lseek                    1004ab97 f   libucrt:lseek.obj
 0001:00049ba4       __lseek_nolock             1004aba4 f   libucrt:lseek.obj
 0001:00049bb1       __lseeki64                 1004abb1 f   libucrt:lseek.obj
 0001:00049bd2       __lseeki64_nolock          1004abd2 f   libucrt:lseek.obj
 0001:00049bf3       __chgsign                  1004abf3 f   libucrt:ieeemisc.obj
 0001:00049c2d       __chgsignf                 1004ac2d f   libucrt:ieeemisc.obj
 0001:00049c58       __copysign                 1004ac58 f   libucrt:ieeemisc.obj
 0001:00049c8c       __copysignf                1004ac8c f   libucrt:ieeemisc.obj
 0001:00049cb1       __finite                   1004acb1 f   libucrt:ieeemisc.obj
 0001:00049cd1       __fpclass                  1004acd1 f   libucrt:ieeemisc.obj
 0001:00049d9e       __isnan                    1004ad9e f   libucrt:ieeemisc.obj
 0001:00049de1       __logb                     1004ade1 f   libucrt:ieeemisc.obj
 0001:00049ee6       __nextafter                1004aee6 f   libucrt:ieeemisc.obj
 0001:00049f0c       __scalb                    1004af0c f   libucrt:ieeemisc.obj
 0001:00049f2c       __add_exp                  1004af2c f   libucrt:util.obj
 0001:00049f66       __decomp                   1004af66 f   libucrt:util.obj
 0001:0004a06f       __get_exp                  1004b06f f   libucrt:util.obj
 0001:0004a08e       __set_bexp                 1004b08e f   libucrt:util.obj
 0001:0004a0c1       __set_exp                  1004b0c1 f   libucrt:util.obj
 0001:0004a0fb       __sptype                   1004b0fb f   libucrt:util.obj
 0001:0004a170       ___clrfp_sse2              1004b170 f   libucrt:fpctrl.obj
 0001:0004a199       ___ctrlfp_sse2             1004b199 f   libucrt:fpctrl.obj
 0001:0004a1e2       ___fclrf_sse2              1004b1e2 f   libucrt:fpctrl.obj
 0001:0004a208       ___get_fpsr_sse2           1004b208 f   libucrt:fpctrl.obj
 0001:0004a22d       ___set_fpsr_sse2           1004b22d f   libucrt:fpctrl.obj
 0001:0004a2c0       ___set_statfp_sse2         1004b2c0 f   libucrt:fpctrl.obj
 0001:0004a2e1       ___statfp_sse2             1004b2e1 f   libucrt:fpctrl.obj
 0001:0004a2fb       __clrfp                    1004b2fb f   libucrt:fpctrl.obj
 0001:0004a312       __ctrlfp                   1004b312 f   libucrt:fpctrl.obj
 0001:0004a349       __set_statfp               1004b349 f   libucrt:fpctrl.obj
 0001:0004a3ba       __statfp                   1004b3ba f   libucrt:fpctrl.obj
 0001:0004a3d0       ??$__crt_fast_decode_pointer@P6AHPAU_exception@@@Z@@YAP6AHPAU_exception@@@ZQ6AH0@Z@Z 1004b3d0 f i libucrt:matherr.obj
 0001:0004a3eb       ??$__crt_fast_encode_pointer@P6AHPAU_exception@@@Z@@YAP6AHPAU_exception@@@ZQ6AH0@Z@Z 1004b3eb f i libucrt:matherr.obj
 0001:0004a411       ?initialize@?$dual_state_global@P6AHPAU_exception@@@Z@__crt_state_management@@QAEXQ6AHPAU_exception@@@Z@Z 1004b411 f i libucrt:matherr.obj
 0001:0004a44e       ?value@?$dual_state_global@P6AHPAU_exception@@@Z@__crt_state_management@@QAEAAP6AHPAU_exception@@@ZXZ 1004b44e f i libucrt:matherr.obj
 0001:0004a451       ___acrt_has_user_matherr   1004b451 f   libucrt:matherr.obj
 0001:0004a470       ___acrt_initialize_user_matherr 1004b470 f   libucrt:matherr.obj
 0001:0004a489       ___acrt_invoke_user_matherr 1004b489 f   libucrt:matherr.obj
 0001:0004a4e4       ___setusermatherr          1004b4e4 f   libucrt:matherr.obj
 0001:0004aef6       ??$find_first_file_ex@ABQADW4_FINDEX_INFO_LEVELS@@PAU_WIN32_FIND_DATAA@@W4_FINDEX_SEARCH_OPS@@$$TH@?$__crt_char_traits@D@@SAPAXABQAD$$QAW4_FINDEX_INFO_LEVELS@@$$QAPAU_WIN32_FIND_DATAA@@$$QAW4_FINDEX_SEARCH_OPS@@$$QA$$T$$QAH@Z 1004bef6 f i libucrt:argv_wildcards.obj
 0001:0004af2b       ??$find_first_file_ex@ABQA_WW4_FINDEX_INFO_LEVELS@@PAU_WIN32_FIND_DATAW@@W4_FINDEX_SEARCH_OPS@@$$TH@?$__crt_char_traits@_W@@SAPAXABQA_W$$QAW4_FINDEX_INFO_LEVELS@@$$QAPAU_WIN32_FIND_DATAW@@$$QAW4_FINDEX_SEARCH_OPS@@$$QA$$T$$QAH@Z 1004bf2b f i libucrt:argv_wildcards.obj
 0001:0004af60       ??$find_next_file@PAXPAU_WIN32_FIND_DATAA@@@?$__crt_char_traits@D@@SAH$$QAPAX$$QAPAU_WIN32_FIND_DATAA@@@Z 1004bf60 f i libucrt:argv_wildcards.obj
 0001:0004af7c       ??$find_next_file@PAXPAU_WIN32_FIND_DATAW@@@?$__crt_char_traits@_W@@SAH$$QAPAX$$QAPAU_WIN32_FIND_DATAW@@@Z 1004bf7c f i libucrt:argv_wildcards.obj
 0001:0004af98       ??$tcsncpy_s@AAPADIAAPADABI@?$__crt_char_traits@D@@SAHAAPAD$$QAI0ABI@Z 1004bf98 f i libucrt:argv_wildcards.obj
 0001:0004afc3       ??$tcsncpy_s@AAPA_WIAAPA_WABI@?$__crt_char_traits@_W@@SAHAAPA_W$$QAI0ABI@Z 1004bfc3 f i libucrt:argv_wildcards.obj
 0001:0004afee       ??$tcsncpy_s@PAD$$CBIABQBDABI@?$__crt_char_traits@D@@SAH$$QAPAD$$QBIABQBDABI@Z 1004bfee f i libucrt:argv_wildcards.obj
 0001:0004b019       ??$tcsncpy_s@PADABIABQBDABI@?$__crt_char_traits@D@@SAH$$QAPADABIABQBD1@Z 1004c019 f i libucrt:argv_wildcards.obj
 0001:0004b044       ??$tcsncpy_s@PA_W$$CBIABQB_WABI@?$__crt_char_traits@_W@@SAH$$QAPA_W$$QBIABQB_WABI@Z 1004c044 f i libucrt:argv_wildcards.obj
 0001:0004b06f       ??$tcsncpy_s@PA_WABIABQB_WABI@?$__crt_char_traits@_W@@SAH$$QAPA_WABIABQB_W1@Z 1004c06f f i libucrt:argv_wildcards.obj
 0001:0004b09a       ??$tcspbrk@AAPADAAY02$$CBD@?$__crt_char_traits@D@@SAPADAAPADAAY02$$CBD@Z 1004c09a f i libucrt:argv_wildcards.obj
 0001:0004b0b5       ??$tcspbrk@AAPA_WAAY02$$CB_W@?$__crt_char_traits@_W@@SAPA_WAAPA_WAAY02$$CB_W@Z 1004c0b5 f i libucrt:argv_wildcards.obj
 0001:0004b0d0       ??0?$__crt_unique_handle_t@U__crt_findfile_traits@@@@QAE@QAX@Z 1004c0d0 f i libucrt:argv_wildcards.obj
 0001:0004b0e4       ??0?$argument_list@D@?A0xb0e4b824@@QAE@XZ 1004c0e4 f i libucrt:argv_wildcards.obj
 0001:0004b0f4       ??0?$argument_list@_W@?A0xb0e4b824@@QAE@XZ 1004c0f4 f i libucrt:argv_wildcards.obj
 0001:0004b104       ??1?$__crt_unique_handle_t@U__crt_findfile_traits@@@@QAE@XZ 1004c104 f i libucrt:argv_wildcards.obj
 0001:0004b120       ??1?$argument_list@D@?A0xb0e4b824@@QAE@XZ 1004c120 f i libucrt:argv_wildcards.obj
 0001:0004b14e       ??1?$argument_list@_W@?A0xb0e4b824@@QAE@XZ 1004c14e f i libucrt:argv_wildcards.obj
 0001:0004b1dc       ?append@?$argument_list@D@?A0xb0e4b824@@QAEHQAD@Z 1004c1dc f i libucrt:argv_wildcards.obj
 0001:0004b21e       ?append@?$argument_list@_W@?A0xb0e4b824@@QAEHQA_W@Z 1004c21e f i libucrt:argv_wildcards.obj
 0001:0004b260       ?begin@?$argument_list@D@?A0xb0e4b824@@QBEPAPADXZ 1004c260 f i libucrt:argv_wildcards.obj
 0001:0004b263       ?begin@?$argument_list@_W@?A0xb0e4b824@@QBEPAPA_WXZ 1004c263 f i libucrt:argv_wildcards.obj
 0001:0004b266       ?close@?$__crt_unique_handle_t@U__crt_findfile_traits@@@@QAEXXZ 1004c266 f i libucrt:argv_wildcards.obj
 0001:0004b282       ?close@__crt_findfile_traits@@SA_NPAX@Z 1004c282 f i libucrt:argv_wildcards.obj
 0001:0004b29d       ?end@?$argument_list@D@?A0xb0e4b824@@QBEPAPADXZ 1004c29d f i libucrt:argv_wildcards.obj
 0001:0004b2a1       ?end@?$argument_list@_W@?A0xb0e4b824@@QBEPAPA_WXZ 1004c2a1 f i libucrt:argv_wildcards.obj
 0001:0004b2a5       ?expand_if_necessary@?$argument_list@D@?A0xb0e4b824@@AAEHXZ 1004c2a5 f i libucrt:argv_wildcards.obj
 0001:0004b34d       ?expand_if_necessary@?$argument_list@_W@?A0xb0e4b824@@AAEHXZ 1004c34d f i libucrt:argv_wildcards.obj
 0001:0004b3f5       ?get@?$__crt_unique_handle_t@U__crt_findfile_traits@@@@QBEPAXXZ 1004c3f5 f i libucrt:argv_wildcards.obj
 0001:0004b3f8       ?get_invalid_value@__crt_findfile_traits@@SAPAXXZ 1004c3f8 f i libucrt:argv_wildcards.obj
 0001:0004b419       ?size@?$argument_list@D@?A0xb0e4b824@@QBEIXZ 1004c419 f i libucrt:argv_wildcards.obj
 0001:0004b424       ?size@?$argument_list@_W@?A0xb0e4b824@@QBEIXZ 1004c424 f i libucrt:argv_wildcards.obj
 0001:0004b42f       ?strpbrk@@YAPADQADQBD@Z    1004c42f f i libucrt:argv_wildcards.obj
 0001:0004b43c       ?wcspbrk@@YAPA_WPA_WPB_W@Z 1004c43c f i libucrt:argv_wildcards.obj
 0001:0004b449       ___acrt_expand_narrow_argv_wildcards 1004c449 f   libucrt:argv_wildcards.obj
 0001:0004b456       ___acrt_expand_wide_argv_wildcards 1004c456 f   libucrt:argv_wildcards.obj
 0001:0004b463       ??$?RV<lambda_978dc153c237d78434369da87b74ff60>@@AAV<lambda_ad1ced32f4ac17aa236e5ef05d6b3b7c>@@V<lambda_4a8533e2866a575feecb8298ce776b0d>@@@?$__crt_seh_guarded_call@X@@QAEX$$QAV<lambda_978dc153c237d78434369da87b74ff60>@@AAV<lambda_ad1ced32f4ac17aa236e5ef05d6b3b7c>@@$$QAV<lambda_4a8533e2866a575feecb8298ce776b0d>@@@Z 1004c463 f i libucrt:mbctype.obj
 0001:0004b4b6       ??$__acrt_lock_and_call@V<lambda_ad1ced32f4ac17aa236e5ef05d6b3b7c>@@@@YAXW4__acrt_lock_id@@$$QAV<lambda_ad1ced32f4ac17aa236e5ef05d6b3b7c>@@@Z 1004c4b6 f i libucrt:mbctype.obj
 0001:0004bac7       ___acrt_initialize_multibyte 1004cac7 f   libucrt:mbctype.obj
 0001:0004baec       ___acrt_update_thread_multibyte_data 1004caec f   libucrt:mbctype.obj
 0001:0004bbb6       ___p__mbcasemap            1004cbb6 f   libucrt:mbctype.obj
 0001:0004bbbc       ___p__mbctype              1004cbbc f   libucrt:mbctype.obj
 0001:0004bbc2       __getmbcp                  1004cbc2 f   libucrt:mbctype.obj
 0001:0004bc05       __setmbcp                  1004cc05 f   libucrt:mbctype.obj
 0001:0004bc1c       __setmbcp_nolock           1004cc1c f   libucrt:mbctype.obj
 0001:0004bf99       __ismbbalnum               1004cf99 f   libucrt:ismbbyte.obj
 0001:0004bfba       __ismbbalnum_l             1004cfba f   libucrt:ismbbyte.obj
 0001:0004bfdd       __ismbbalpha               1004cfdd f   libucrt:ismbbyte.obj
 0001:0004bffe       __ismbbalpha_l             1004cffe f   libucrt:ismbbyte.obj
 0001:0004c021       __ismbbblank               1004d021 f   libucrt:ismbbyte.obj
 0001:0004c04c       __ismbbblank_l             1004d04c f   libucrt:ismbbyte.obj
 0001:0004c079       __ismbbgraph               1004d079 f   libucrt:ismbbyte.obj
 0001:0004c09a       __ismbbgraph_l             1004d09a f   libucrt:ismbbyte.obj
 0001:0004c0bd       __ismbbkalnum              1004d0bd f   libucrt:ismbbyte.obj
 0001:0004c0db       __ismbbkalnum_l            1004d0db f   libucrt:ismbbyte.obj
 0001:0004c0fa       __ismbbkana                1004d0fa f   libucrt:ismbbyte.obj
 0001:0004c111       __ismbbkana_l              1004d111 f   libucrt:ismbbyte.obj
 0001:0004c176       __ismbbkprint              1004d176 f   libucrt:ismbbyte.obj
 0001:0004c194       __ismbbkprint_l            1004d194 f   libucrt:ismbbyte.obj
 0001:0004c1b3       __ismbbkpunct              1004d1b3 f   libucrt:ismbbyte.obj
 0001:0004c1d1       __ismbbkpunct_l            1004d1d1 f   libucrt:ismbbyte.obj
 0001:0004c1f0       __ismbblead                1004d1f0 f   libucrt:ismbbyte.obj
 0001:0004c20e       __ismbblead_l              1004d20e f   libucrt:ismbbyte.obj
 0001:0004c22d       __ismbbprint               1004d22d f   libucrt:ismbbyte.obj
 0001:0004c24e       __ismbbprint_l             1004d24e f   libucrt:ismbbyte.obj
 0001:0004c271       __ismbbpunct               1004d271 f   libucrt:ismbbyte.obj
 0001:0004c28f       __ismbbpunct_l             1004d28f f   libucrt:ismbbyte.obj
 0001:0004c2ae       __ismbbtrail               1004d2ae f   libucrt:ismbbyte.obj
 0001:0004c2cc       __ismbbtrail_l             1004d2cc f   libucrt:ismbbyte.obj
 0001:0004c2eb       ___acrt_initialize_command_line 1004d2eb f   libucrt:argv_data.obj
 0001:0004c30a       ___acrt_uninitialize_command_line 1004d30a f   libucrt:argv_data.obj
 0001:0004c30d       ___p___argc                1004d30d f   libucrt:argv_data.obj
 0001:0004c313       ___p___argv                1004d313 f   libucrt:argv_data.obj
 0001:0004c319       ___p___wargv               1004d319 f   libucrt:argv_data.obj
 0001:0004c31f       ___p__acmdln               1004d31f f   libucrt:argv_data.obj
 0001:0004c325       ___p__pgmptr               1004d325 f   libucrt:argv_data.obj
 0001:0004c32b       ___p__wcmdln               1004d32b f   libucrt:argv_data.obj
 0001:0004c331       ___p__wpgmptr              1004d331 f   libucrt:argv_data.obj
 0001:0004c337       __get_pgmptr               1004d337 f   libucrt:argv_data.obj
 0001:0004c374       __get_wpgmptr              1004d374 f   libucrt:argv_data.obj
 0001:0004c3b1       ??0?$__crt_unique_handle_t@Uenvironment_strings_traits@?A0x588e5281@@@@QAE@QA_W@Z 1004d3b1 f i libucrt:get_environment_from_os.obj
 0001:0004c3c5       ??1?$__crt_unique_handle_t@Uenvironment_strings_traits@?A0x588e5281@@@@QAE@XZ 1004d3c5 f i libucrt:get_environment_from_os.obj
 0001:0004c3e1       ??B?$__crt_unique_handle_t@Uenvironment_strings_traits@?A0x588e5281@@@@QBE_NXZ 1004d3e1 f i libucrt:get_environment_from_os.obj
 0001:0004c3eb       ?close@?$__crt_unique_handle_t@Uenvironment_strings_traits@?A0x588e5281@@@@QAEXXZ 1004d3eb f i libucrt:get_environment_from_os.obj
 0001:0004c407       ?close@environment_strings_traits@?A0x588e5281@@SA_NPA_W@Z 1004d407 f i libucrt:get_environment_from_os.obj
 0001:0004c461       ?get@?$__crt_unique_handle_t@Uenvironment_strings_traits@?A0x588e5281@@@@QBEPA_WXZ 1004d461 f i libucrt:get_environment_from_os.obj
 0001:0004c464       ?get_invalid_value@environment_strings_traits@?A0x588e5281@@SAPA_WXZ 1004d464 f i libucrt:get_environment_from_os.obj
 0001:0004c467       ?is_valid@?$__crt_unique_handle_t@Uenvironment_strings_traits@?A0x588e5281@@@@QBE_NXZ 1004d467 f i libucrt:get_environment_from_os.obj
 0001:0004c471       ___dcrt_get_narrow_environment_from_os 1004d471 f   libucrt:get_environment_from_os.obj
 0001:0004c514       ___dcrt_get_wide_environment_from_os 1004d514 f   libucrt:get_environment_from_os.obj
 0001:0004cdac       ??$get_or_create_environment_nolock@$$$V@?$__crt_char_traits@D@@SAPAPADXZ 1004ddac f i libucrt:setenv.obj
 0001:0004cdb1       ??$get_or_create_environment_nolock@$$$V@?$__crt_char_traits@_W@@SAPAPA_WXZ 1004ddb1 f i libucrt:setenv.obj
 0001:0004cdb6       ??$set_environment_variable@ABQADQAD@?$__crt_char_traits@D@@SAHABQAD$$QBQAD@Z 1004ddb6 f i libucrt:setenv.obj
 0001:0004cdd2       ??$set_environment_variable@ABQA_WQA_W@?$__crt_char_traits@_W@@SAHABQA_W$$QBQA_W@Z 1004ddd2 f i libucrt:setenv.obj
 0001:0004cdee       ??$tcschr@ABQADD@?$__crt_char_traits@D@@SAPADABQAD$$QAD@Z 1004ddee f i libucrt:setenv.obj
 0001:0004ce0e       ??$tcschr@ABQA_WD@?$__crt_char_traits@_W@@SAPA_WABQA_W$$QAD@Z 1004de0e f i libucrt:setenv.obj
 0001:0004ce33       ??$tcscpy_s@AAPADABIAAPAD@?$__crt_char_traits@D@@SAHAAPADABI0@Z 1004de33 f i libucrt:setenv.obj
 0001:0004ce58       ??$tcscpy_s@AAPA_WABIAAPA_W@?$__crt_char_traits@_W@@SAHAAPA_WABI0@Z 1004de58 f i libucrt:setenv.obj
 0001:0004ce7d       ??$tcscpy_s@ABQADABIABQAD@?$__crt_char_traits@D@@SAHABQADABI0@Z 1004de7d f i libucrt:setenv.obj
 0001:0004cea2       ??$tcscpy_s@ABQA_WABIABQA_W@?$__crt_char_traits@_W@@SAHABQA_WABI0@Z 1004dea2 f i libucrt:setenv.obj
 0001:0004cec7       ??$tcsnicoll@ABQBDAAPADABI@?$__crt_char_traits@D@@SAHABQBDAAPADABI@Z 1004dec7 f i libucrt:setenv.obj
 0001:0004ceec       ??$tcsnicoll@ABQB_WAAPA_WABI@?$__crt_char_traits@_W@@SAHABQB_WAAPA_WABI@Z 1004deec f i libucrt:setenv.obj
 0001:0004cf35       ?strchr@@YAPADQADH@Z       1004df35 f i libucrt:setenv.obj
 0001:0004cf42       ?wcschr@@YAPA_WPA_W_W@Z    1004df42 f i libucrt:setenv.obj
 0001:0004cf4f       ___dcrt_set_variable_in_narrow_environment_nolock 1004df4f f   libucrt:setenv.obj
 0001:0004cf5c       ___dcrt_set_variable_in_wide_environment_nolock 1004df5c f   libucrt:setenv.obj
 0001:0004cf69       __recalloc                 1004df69 f   libucrt:recalloc.obj
 0001:0004cf76       __recalloc_base            1004df76 f   libucrt:recalloc.obj
 0001:0004cffe       ___acrt_getheap            1004dffe f   libucrt:heap_handle.obj
 0001:0004d004       ___acrt_initialize_heap    1004e004 f   libucrt:heap_handle.obj
 0001:0004d019       ___acrt_uninitialize_heap  1004e019 f   libucrt:heap_handle.obj
 0001:0004d025       __get_heap_handle          1004e025 f   libucrt:heap_handle.obj
 0001:0004d02b       ___acrt_execute_initializers 1004e02b f   libucrt:shared_initialization.obj
 0001:0004d0ce       ___acrt_execute_uninitializers 1004e0ce f   libucrt:shared_initialization.obj
 0001:0004d12e       ??$?B$$A6AHI@Z@__crt_fast_encoded_nullptr_t@@QBEP6AHI@ZXZ 1004e12e f i libucrt:new_handler.obj
 0001:0004d14c       ??$__crt_fast_decode_pointer@P6AHI@Z@@YAP6AHI@ZQ6AHI@Z@Z 1004e14c f i libucrt:new_handler.obj
 0001:0004d167       ??$__crt_fast_encode_pointer@P6AHI@Z@@YAP6AHI@ZQ6AHI@Z@Z 1004e167 f i libucrt:new_handler.obj
 0001:0004d18d       ?_set_new_handler@@YAP6AHI@ZH@Z 1004e18d f   libucrt:new_handler.obj
 0001:0004d1b3       ?initialize@?$dual_state_global@P6AHI@Z@__crt_state_management@@QAEXQ6AHI@Z@Z 1004e1b3 f i libucrt:new_handler.obj
 0001:0004d1f0       ?value@?$dual_state_global@P6AHI@Z@__crt_state_management@@QAEAAP6AHI@ZXZ 1004e1f0 f i libucrt:new_handler.obj
 0001:0004d1f3       ___acrt_initialize_new_handler 1004e1f3 f   libucrt:new_handler.obj
 0001:0004d20c       __callnewh                 1004e20c f   libucrt:new_handler.obj
 0001:0004d261       __query_new_handler        1004e261 f   libucrt:new_handler.obj
 0001:0004d2c7       __set_new_handler          1004e2c7 f   libucrt:new_handler.obj
 0001:0004d33f       ?value@?$dual_state_global@J@__crt_state_management@@QAEAAJXZ 1004e33f f i libucrt:new_mode.obj
 0001:0004d342       __query_new_mode           1004e342 f   libucrt:new_mode.obj
 0001:0004d348       __set_new_mode             1004e348 f   libucrt:new_mode.obj
 0001:0004d382       ___pctype_func             1004e382 f   libucrt:ctype.obj
 0001:0004d3b1       ___pwctype_func            1004e3b1 f   libucrt:ctype.obj
 0001:0004d3b7       __iswctype_l               1004e3b7 f   libucrt:iswctype.obj
 0001:0004d3d0       _iswctype                  1004e3d0 f   libucrt:iswctype.obj
 0001:0004d446       __isctype                  1004e446 f   libucrt:isctype.obj
 0001:0004d483       __isctype_l                1004e483 f   libucrt:isctype.obj
 0001:0004d74a       ___acrt_DownlevelLCIDToLocaleName 1004e74a f   libucrt:lcidtoname_downlevel.obj
 0001:0004d81e       ___acrt_DownlevelLocaleNameToLCID 1004e81e f   libucrt:lcidtoname_downlevel.obj
 0001:0004d855       ??$?RV<lambda_61cee617f5178ae960314fd4d05640a0>@@AAV<lambda_6978c1fb23f02e42e1d9e99668cc68aa>@@V<lambda_9cd88cf8ad10232537feb2133f08c833>@@@?$__crt_seh_guarded_call@H@@QAEH$$QAV<lambda_61cee617f5178ae960314fd4d05640a0>@@AAV<lambda_6978c1fb23f02e42e1d9e99668cc68aa>@@$$QAV<lambda_9cd88cf8ad10232537feb2133f08c833>@@@Z 1004e855 f i libucrt:commit.obj
 0001:0004d913       ??$__acrt_lowio_lock_fh_and_call@V<lambda_6978c1fb23f02e42e1d9e99668cc68aa>@@@@YAHH$$QAV<lambda_6978c1fb23f02e42e1d9e99668cc68aa>@@@Z 1004e913 f i libucrt:commit.obj
 0001:0004da05       __commit                   1004ea05 f   libucrt:commit.obj
 0001:0004da8f       ??$?RU__crt_lowio_handle_data@@@__crt_internal_free_policy@@QBEXQBU__crt_lowio_handle_data@@@Z 1004ea8f f i libucrt:osfinfo.obj
 0001:0004daa5       ??0?$__crt_unique_heap_ptr@U__crt_lowio_handle_data@@U__crt_internal_free_policy@@@@QAE@QAU__crt_lowio_handle_data@@@Z 1004eaa5 f i libucrt:osfinfo.obj
 0001:0004dab9       ??1?$__crt_unique_heap_ptr@U__crt_lowio_handle_data@@U__crt_internal_free_policy@@@@QAE@XZ 1004eab9 f i libucrt:osfinfo.obj
 0001:0004dacf       ??B?$__crt_unique_heap_ptr@U__crt_lowio_handle_data@@U__crt_internal_free_policy@@@@QBE_NXZ 1004eacf f i libucrt:osfinfo.obj
 0001:0004dad9       ?detach@?$__crt_unique_heap_ptr@U__crt_lowio_handle_data@@U__crt_internal_free_policy@@@@QAEPAU__crt_lowio_handle_data@@XZ 1004ead9 f i libucrt:osfinfo.obj
 0001:0004dadf       ?get@?$__crt_unique_heap_ptr@U__crt_lowio_handle_data@@U__crt_internal_free_policy@@@@QBEPAU__crt_lowio_handle_data@@XZ 1004eadf f i libucrt:osfinfo.obj
 0001:0004dae2       ?is_valid@?$__crt_unique_heap_ptr@U__crt_lowio_handle_data@@U__crt_internal_free_policy@@@@QBE_NXZ 1004eae2 f i libucrt:osfinfo.obj
 0001:0004daec       ?release@?$__crt_unique_heap_ptr@U__crt_lowio_handle_data@@U__crt_internal_free_policy@@@@QAEXXZ 1004eaec f i libucrt:osfinfo.obj
 0001:0004db02       ___acrt_lowio_create_handle_array 1004eb02 f   libucrt:osfinfo.obj
 0001:0004db9a       ___acrt_lowio_destroy_handle_array 1004eb9a f   libucrt:osfinfo.obj
 0001:0004dbdc       ___acrt_lowio_ensure_fh_exists 1004ebdc f   libucrt:osfinfo.obj
 0001:0004dc9a       ___acrt_lowio_lock_fh      1004ec9a f   libucrt:osfinfo.obj
 0001:0004dcc5       ___acrt_lowio_set_os_handle 1004ecc5 f   libucrt:osfinfo.obj
 0001:0004dd7e       ___acrt_lowio_unlock_fh    1004ed7e f   libucrt:osfinfo.obj
 0001:0004dda9       __alloc_osfhnd             1004eda9 f   libucrt:osfinfo.obj
 0001:0004deff       __free_osfhnd              1004eeff f   libucrt:osfinfo.obj
 0001:0004dfb4       __get_osfhandle            1004efb4 f   libucrt:osfinfo.obj
 0001:0004e038       __open_osfhandle           1004f038 f   libucrt:osfinfo.obj
 0001:0004e189       ___iswcsym                 1004f189 f i libucrt:_wctype.obj
 0001:0004e1b8       ___iswcsymf                1004f1b8 f i libucrt:_wctype.obj
 0001:0004e1e7       __isleadbyte_l             1004f1e7 f i libucrt:_wctype.obj
 0001:0004e22e       __iswalnum_l               1004f22e f i libucrt:_wctype.obj
 0001:0004e249       __iswalpha_l               1004f249 f i libucrt:_wctype.obj
 0001:0004e264       __iswblank_l               1004f264 f i libucrt:_wctype.obj
 0001:0004e288       __iswcntrl_l               1004f288 f i libucrt:_wctype.obj
 0001:0004e29f       __iswcsym_l                1004f29f f i libucrt:_wctype.obj
 0001:0004e2ce       __iswcsymf_l               1004f2ce f i libucrt:_wctype.obj
 0001:0004e2fd       __iswdigit_l               1004f2fd f i libucrt:_wctype.obj
 0001:0004e314       __iswgraph_l               1004f314 f i libucrt:_wctype.obj
 0001:0004e32f       __iswlower_l               1004f32f f i libucrt:_wctype.obj
 0001:0004e346       __iswprint_l               1004f346 f i libucrt:_wctype.obj
 0001:0004e361       __iswpunct_l               1004f361 f i libucrt:_wctype.obj
 0001:0004e378       __iswspace_l               1004f378 f i libucrt:_wctype.obj
 0001:0004e38f       __iswupper_l               1004f38f f i libucrt:_wctype.obj
 0001:0004e3a6       __iswxdigit_l              1004f3a6 f i libucrt:_wctype.obj
 0001:0004e3c1       _isleadbyte                1004f3c1 f i libucrt:_wctype.obj
 0001:0004e3d8       _iswalnum                  1004f3d8 f i libucrt:_wctype.obj
 0001:0004e3f3       _iswalpha                  1004f3f3 f i libucrt:_wctype.obj
 0001:0004e40e       _iswascii                  1004f40e f i libucrt:_wctype.obj
 0001:0004e427       _iswblank                  1004f427 f i libucrt:_wctype.obj
 0001:0004e44b       _iswcntrl                  1004f44b f i libucrt:_wctype.obj
 0001:0004e462       _iswdigit                  1004f462 f i libucrt:_wctype.obj
 0001:0004e479       _iswgraph                  1004f479 f i libucrt:_wctype.obj
 0001:0004e494       _iswlower                  1004f494 f i libucrt:_wctype.obj
 0001:0004e4ab       _iswprint                  1004f4ab f i libucrt:_wctype.obj
 0001:0004e4c6       _iswpunct                  1004f4c6 f i libucrt:_wctype.obj
 0001:0004e4dd       _iswspace                  1004f4dd f i libucrt:_wctype.obj
 0001:0004e4f4       _iswupper                  1004f4f4 f i libucrt:_wctype.obj
 0001:0004e50b       _iswxdigit                 1004f50b f i libucrt:_wctype.obj
 0001:0004e526       ??0?$__crt_scoped_stack_ptr@_W@@QAE@U?$__crt_scoped_stack_ptr_tag@_W@@@Z 1004f526 f i libucrt:lcmapstringa.obj
 0001:0004e53a       ??0?$__crt_scoped_stack_ptr_tag@_W@@QAE@QA_W@Z 1004f53a f i libucrt:lcmapstringa.obj
 0001:0004e54e       ??1?$__crt_scoped_stack_ptr@_W@@QAE@XZ 1004f54e f i libucrt:lcmapstringa.obj
 0001:0004e559       ??B?$__crt_scoped_stack_ptr@_W@@QBE_NXZ 1004f559 f i libucrt:lcmapstringa.obj
 0001:0004e807       ?get@?$__crt_scoped_stack_ptr@_W@@QBEPA_WXZ 1004f807 f i libucrt:lcmapstringa.obj
 0001:0004e80a       __MallocaComputeSize       1004f80a f i libucrt:lcmapstringa.obj
 0001:0004e821       __MarkAllocaS              1004f821 f i libucrt:lcmapstringa.obj
 0001:0004e83c       ___acrt_LCMapStringA       1004f83c f   libucrt:lcmapstringa.obj
 0001:0004e899       __freea_crt                1004f899 f i libucrt:lcmapstringa.obj
 0001:0004e8c1       ??$?RG@__crt_internal_free_policy@@QBEXQBG@Z 1004f8c1 f i libucrt:initctype.obj
 0001:0004e8d7       ??$?RJ@__crt_internal_free_policy@@QBEXQBJ@Z 1004f8d7 f i libucrt:initctype.obj
 0001:0004e8ed       ??0?$__crt_unique_heap_ptr@GU__crt_internal_free_policy@@@@QAE@QAG@Z 1004f8ed f i libucrt:initctype.obj
 0001:0004e901       ??0?$__crt_unique_heap_ptr@JU__crt_internal_free_policy@@@@QAE@QAJ@Z 1004f901 f i libucrt:initctype.obj
 0001:0004e915       ??1?$__crt_unique_heap_ptr@GU__crt_internal_free_policy@@@@QAE@XZ 1004f915 f i libucrt:initctype.obj
 0001:0004e92b       ??1?$__crt_unique_heap_ptr@JU__crt_internal_free_policy@@@@QAE@XZ 1004f92b f i libucrt:initctype.obj
 0001:0004e941       ?detach@?$__crt_unique_heap_ptr@GU__crt_internal_free_policy@@@@QAEPAGXZ 1004f941 f i libucrt:initctype.obj
 0001:0004e947       ?detach@?$__crt_unique_heap_ptr@JU__crt_internal_free_policy@@@@QAEPAJXZ 1004f947 f i libucrt:initctype.obj
 0001:0004e94d       ?release@?$__crt_unique_heap_ptr@GU__crt_internal_free_policy@@@@QAEXXZ 1004f94d f i libucrt:initctype.obj
 0001:0004e963       ?release@?$__crt_unique_heap_ptr@JU__crt_internal_free_policy@@@@QAEXXZ 1004f963 f i libucrt:initctype.obj
 0001:0004e979       ____lc_codepage_func       1004f979 f   libucrt:initctype.obj
 0001:0004e9a9       ____lc_collate_cp_func     1004f9a9 f   libucrt:initctype.obj
 0001:0004e9d9       ____lc_locale_name_func    1004f9d9 f   libucrt:initctype.obj
 0001:0004ea0c       ____mb_cur_max_func        1004fa0c f   libucrt:initctype.obj
 0001:0004ea3c       ____mb_cur_max_l_func      1004fa3c f   libucrt:initctype.obj
 0001:0004ea5b       ___acrt_locale_initialize_ctype 1004fa5b f   libucrt:initctype.obj
 0001:0004eee0       ___acrt_add_locale_ref     1004fee0 f   libucrt:locale_refcounting.obj
 0001:0004ef7c       ___acrt_free_locale        1004ff7c f   libucrt:locale_refcounting.obj
 0001:0004f118       ___acrt_locale_add_lc_time_reference 10050118 f   libucrt:locale_refcounting.obj
 0001:0004f14b       ___acrt_locale_free_lc_time_if_unreferenced 1005014b f   libucrt:locale_refcounting.obj
 0001:0004f187       ___acrt_locale_release_lc_time_reference 10050187 f   libucrt:locale_refcounting.obj
 0001:0004f1ba       ___acrt_release_locale_ref 100501ba f   libucrt:locale_refcounting.obj
 0001:0004f25b       ___acrt_update_thread_locale_data 1005025b f   libucrt:locale_refcounting.obj
 0001:0004f2ef       __updatetlocinfoEx_nolock  100502ef f   libucrt:locale_refcounting.obj
 0001:0004f353       ___acrt_fp_strflt_to_string 10050353 f   libucrt:_fptostr.obj
 0001:00050b80       ??0big_integer@__crt_strtox@@QAE@ABU01@@Z 10051b80 f i libucrt:cfout.obj
 0001:00050bc0       ??0big_integer@__crt_strtox@@QAE@XZ 10051bc0 f i libucrt:cfout.obj
 0001:00050bcb       ??0scoped_fp_state_reset@?A0x48fbfdd4@@QAE@XZ 10051bcb f i libucrt:cfout.obj
 0001:00050bff       ??1scoped_fp_state_reset@?A0x48fbfdd4@@QAE@XZ 10051bff f i libucrt:cfout.obj
 0001:00050c10       ??4big_integer@__crt_strtox@@QAEAAU01@ABU01@@Z 10051c10 f i libucrt:cfout.obj
 0001:00050c50       ??8__crt_strtox@@YA_NABUbig_integer@0@0@Z 10051c50 f i libucrt:cfout.obj
 0001:00050ca0       ??9__crt_strtox@@YA_NABUbig_integer@0@0@Z 10051ca0 f i libucrt:cfout.obj
 0001:00050d00       ?add_carry@__crt_strtox@@YAIAAIII@Z 10051d00 f i libucrt:cfout.obj
 0001:00050d30       ?add_multiply_carry@__crt_strtox@@YAIAAIIII@Z 10051d30 f i libucrt:cfout.obj
 0001:00050d60       ?bit_scan_reverse@__crt_strtox@@YAII@Z 10051d60 f i libucrt:cfout.obj
 0001:00050d90       ?count_sequential_high_zeroes@__crt_strtox@@YAII@Z 10051d90 f i libucrt:cfout.obj
 0001:00050dc0       ?divide@__crt_strtox@@YA_KAAUbig_integer@1@ABU21@@Z 10051dc0 f i libucrt:cfout.obj
 0001:000513a0       ?is_zero@__crt_strtox@@YA_NABUbig_integer@1@@Z 100523a0 f i libucrt:cfout.obj
 0001:000513c0       ?make_big_integer@__crt_strtox@@YA?AUbig_integer@1@_K@Z 100523c0 f i libucrt:cfout.obj
 0001:000513f0       ?make_big_integer_power_of_two@__crt_strtox@@YA?AUbig_integer@1@I@Z 100523f0 f i libucrt:cfout.obj
 0001:00051450       ?multiply@__crt_strtox@@YA_NAAUbig_integer@1@ABU21@@Z 10052450 f i libucrt:cfout.obj
 0001:00051900       ?multiply@__crt_strtox@@YA_NAAUbig_integer@1@I@Z 10052900 f i libucrt:cfout.obj
 0001:00051a00       ?multiply_64_32@__crt_strtox@@YA_K_KI@Z 10052a00 f i libucrt:cfout.obj
 0001:00051a20       ?multiply_by_power_of_ten@__crt_strtox@@YA_NAAUbig_integer@1@I@Z 10052a20 f i libucrt:cfout.obj
 0001:00052120       ?multiply_core@__crt_strtox@@YAIQAIII@Z 10053120 f i libucrt:cfout.obj
 0001:00052170       ?shift_left@__crt_strtox@@YA_NAAUbig_integer@1@I@Z 10053170 f i libucrt:cfout.obj
 0001:00052312       ___acrt_fltout             10053312 f   libucrt:cfout.obj
 0001:00053c36       __isatty                   10054c36 f   libucrt:isatty.obj
 0001:00053ca1       ??$?RUlconv@@@__crt_internal_free_policy@@QBEXQBUlconv@@@Z 10054ca1 f i libucrt:initmon.obj
 0001:00053cb7       ??0?$__crt_unique_heap_ptr@Ulconv@@U__crt_internal_free_policy@@@@QAE@QAUlconv@@@Z 10054cb7 f i libucrt:initmon.obj
 0001:00053ccb       ??1?$__crt_unique_heap_ptr@Ulconv@@U__crt_internal_free_policy@@@@QAE@XZ 10054ccb f i libucrt:initmon.obj
 0001:00053ce1       ?detach@?$__crt_unique_heap_ptr@Ulconv@@U__crt_internal_free_policy@@@@QAEPAUlconv@@XZ 10054ce1 f i libucrt:initmon.obj
 0001:00053ce7       ?release@?$__crt_unique_heap_ptr@Ulconv@@U__crt_internal_free_policy@@@@QAEXXZ 10054ce7 f i libucrt:initmon.obj
 0001:00053cfd       ___acrt_locale_free_monetary 10054cfd f   libucrt:initmon.obj
 0001:00053e3a       ___acrt_locale_initialize_monetary 10054e3a f   libucrt:initmon.obj
 0001:0005432d       ___acrt_locale_free_numeric 1005532d f   libucrt:initnum.obj
 0001:000543b0       ___acrt_locale_initialize_numeric 100553b0 f   libucrt:initnum.obj
 0001:0005469b       ??$?RU__crt_lc_time_data@@@__crt_internal_free_policy@@QBEXQBU__crt_lc_time_data@@@Z 1005569b f i libucrt:inittime.obj
 0001:0005473b       ??0?$__crt_unique_heap_ptr@U__crt_lc_time_data@@U__crt_internal_free_policy@@@@QAE@QAU__crt_lc_time_data@@@Z 1005573b f i libucrt:inittime.obj
 0001:0005474f       ??1?$__crt_unique_heap_ptr@U__crt_lc_time_data@@U__crt_internal_free_policy@@@@QAE@XZ 1005574f f i libucrt:inittime.obj
 0001:00054765       ??B?$__crt_unique_heap_ptr@U__crt_lc_time_data@@U__crt_internal_free_policy@@@@QBE_NXZ 10055765 f i libucrt:inittime.obj
 0001:0005476f       ?detach@?$__crt_unique_heap_ptr@U__crt_lc_time_data@@U__crt_internal_free_policy@@@@QAEPAU__crt_lc_time_data@@XZ 1005576f f i libucrt:inittime.obj
 0001:000547c0       ?get@?$__crt_unique_heap_ptr@U__crt_lc_time_data@@U__crt_internal_free_policy@@@@QBEPAU__crt_lc_time_data@@XZ 100557c0 f i libucrt:inittime.obj
 0001:00054b58       ?is_valid@?$__crt_unique_heap_ptr@U__crt_lc_time_data@@U__crt_internal_free_policy@@@@QBE_NXZ 10055b58 f i libucrt:inittime.obj
 0001:00054b62       ?release@?$__crt_unique_heap_ptr@U__crt_lc_time_data@@U__crt_internal_free_policy@@@@QAEXXZ 10055b62 f i libucrt:inittime.obj
 0001:00054b78       ___acrt_locale_free_time   10055b78 f   libucrt:inittime.obj
 0001:00054c95       ___acrt_locale_initialize_time 10055c95 f   libucrt:inittime.obj
 0001:00054e33       _wcsncpy_s                 10055e33 f   libucrt:wcsncpy_s.obj
 0001:00054e40       _wcscspn                   10055e40 f   libucrt:wcscspn.obj
 0001:00054ea4       _wcsncmp                   10055ea4 f   libucrt:wcsncmp.obj
 0001:00054eec       _wcspbrk                   10055eec f   libucrt:wcspbrk.obj
 0001:00054f42       ___acrt_GetStringTypeA     10055f42 f   libucrt:getstringtypea.obj
 0001:000559b6       ___acrt_get_qualified_locale 100569b6 f   libucrt:get_qualified_locale.obj
 0001:0005655d       ___acrt_get_qualified_locale_downlevel 1005755d f   libucrt:getqloc_downlevel.obj
 0001:000567e5       _localeconv                100577e5 f   libucrt:localeconv.obj
 0001:00056819       __wcsnicmp                 10057819 f   libucrt:wcsnicmp.obj
 0001:000568ff       __wcsnicmp_l               100578ff f   libucrt:wcsnicmp.obj
 0001:00056a40       _strncmp                   10057a40 f   libucrt:strncmp.obj
 0001:00056ad6       __strnicmp                 10057ad6 f   libucrt:strnicmp.obj
 0001:00056b5d       __strnicmp_l               10057b5d f   libucrt:strnicmp.obj
 0001:00056c41       ??$__vcrt_va_start_verify_argument_type@$$CBH@@YAXXZ 10057c41 f i libucrt:open.obj
 0001:00056ff8       ??$tsopen_nolock@PAHABQAHABQBDABHABHABHABH@?$__crt_char_traits@D@@SAH$$QAPAHABQAHABQBDABH333@Z 10057ff8 f i libucrt:open.obj
 0001:00057036       ??$tsopen_nolock@PAHABQAHABQB_WABHABHABHABH@?$__crt_char_traits@_W@@SAH$$QAPAHABQAHABQB_WABH333@Z 10058036 f i libucrt:open.obj
 0001:00057074       ??$tsopen_nolock@PAHPAHABQBDABHHABHH@?$__crt_char_traits@D@@SAH$$QAPAH0ABQBDABH$$QAH23@Z 10058074 f i libucrt:open.obj
 0001:000570b2       ??$tsopen_nolock@PAHPAHABQB_WABHHABHH@?$__crt_char_traits@_W@@SAH$$QAPAH0ABQB_WABH$$QAH23@Z 100580b2 f i libucrt:open.obj
 0001:00057880       __open                     10058880 f   libucrt:open.obj
 0001:0005789e       __sopen                    1005889e f   libucrt:open.obj
 0001:000578e0       __sopen_dispatch           100588e0 f   libucrt:open.obj
 0001:000578ed       __sopen_nolock             100588ed f   libucrt:open.obj
 0001:00057952       __sopen_s                  10058952 f   libucrt:open.obj
 0001:0005797a       __wopen                    1005897a f   libucrt:open.obj
 0001:00057998       __wsopen                   10058998 f   libucrt:open.obj
 0001:000579da       __wsopen_dispatch          100589da f   libucrt:open.obj
 0001:000579e7       __wsopen_nolock            100589e7 f   libucrt:open.obj
 0001:00057dda       __wsopen_s                 10058dda f   libucrt:open.obj
 0001:00057e02       ___p__commode              10058e02 f   libucrt:ncommode.obj
 0001:00057e08       ___acrt_stdio_allocate_buffer_nolock 10058e08 f   libucrt:_getbuf.obj
 0001:00057e7c       ??$?RV<lambda_4980db0136e49a56f91ef52c46ca659a>@@AAV<lambda_6e3e78bb6855d1e4040e022c1b427e22>@@V<lambda_9c074eaf62197b4fd0274ed9e7824161>@@@?$__crt_seh_guarded_call@G@@QAEG$$QAV<lambda_4980db0136e49a56f91ef52c46ca659a>@@AAV<lambda_6e3e78bb6855d1e4040e022c1b427e22>@@$$QAV<lambda_9c074eaf62197b4fd0274ed9e7824161>@@@Z 10058e7c f i libucrt:putwch.obj
 0001:00057ef1       ??$__acrt_lock_and_call@V<lambda_6e3e78bb6855d1e4040e022c1b427e22>@@@@YAGW4__acrt_lock_id@@$$QAV<lambda_6e3e78bb6855d1e4040e022c1b427e22>@@@Z 10058ef1 f i libucrt:putwch.obj
 0001:00057f89       __putwch                   10058f89 f   libucrt:putwch.obj
 0001:00057fad       __putwch_nolock            10058fad f   libucrt:putwch.obj
 0001:00058003       _nextafter                 10059003 f   libucrt:nextafter.obj
 0001:00058029       ??1scoped_global_state_reset@__crt_state_management@@QAE@XZ 10059029 f i libucrt:qsort.obj
 0001:00058140       _qsort                     10059140 f   libucrt:qsort.obj
 0001:0005869d       _strncpy_s                 1005969d f   libucrt:strncpy_s.obj
 0001:000586b0       _strpbrk                   100596b0 f   libucrt:strpbrk.obj
 0001:00058700       __mbsdec                   10059700 f   libucrt:mbsdec.obj
 0001:0005871c       __mbsdec_l                 1005971c f   libucrt:mbsdec.obj
 0001:000587de       __wcsnicoll                100597de f   libucrt:wcsnicol.obj
 0001:000588e2       __wcsnicoll_l              100598e2 f   libucrt:wcsnicol.obj
 0001:00058a5a       __strnicoll                10059a5a f   libucrt:strnicol.obj
 0001:00058a8d       __strnicoll_l              10059a8d f   libucrt:strnicol.obj
 0001:00058bc8       __msize                    10059bc8 f   libucrt:msize.obj
 0001:00058c07       ___strncnt                 10059c07 f   libucrt:strncnt.obj
 0001:00058d63       ___acrt_GetLocaleInfoA     10059d63 f   libucrt:getlocaleinfoa.obj
 0001:00058f81       _fegetenv                  10059f81 f   libucrt:fegetenv.obj
 0001:00058fa5       _fesetenv                  10059fa5 f   libucrt:fesetenv.obj
 0001:00059000       _feholdexcept              1005a000 f   libucrt:feholdexcept.obj
 0001:00059070       _log10                     1005a070 f   libucrt:log10.obj
 0001:000590b0       __CIlog10                  1005a0b0 f   libucrt:log10.obj
 0001:000590eb       __CIlog10_default          1005a0eb f   libucrt:log10.obj
 0001:000590ff       __log10_default            1005a0ff     libucrt:log10.obj
 0001:00059220       _ceil                      1005a220 f   libucrt:ceil_pentium4.obj
 0001:00059260       __ceil_pentium4            1005a260 f   libucrt:ceil_pentium4.obj
 0001:00059384       __wcsicmp                  1005a384 f   libucrt:wcsicmp.obj
 0001:0005943e       __wcsicmp_l                1005a43e f   libucrt:wcsicmp.obj
 0001:00059556       __towlower_l               1005a556 f   libucrt:towlower.obj
 0001:00059651       _towlower                  1005a651 f   libucrt:towlower.obj
 0001:00059670       ___ascii_strnicmp          1005a670 f   libucrt:_strnicm.obj
 0001:000596e9       ??$__crt_interlocked_read@H@@YAHPDH@Z 1005a6e9 f i libucrt:setmode.obj
 0001:000596f8       __get_fmode                1005a6f8 f   libucrt:setmode.obj
 0001:0005972f       __set_fmode                1005a72f f   libucrt:setmode.obj
 0001:0005977b       __setmode                  1005a77b f   libucrt:setmode.obj
 0001:000598cc       __setmode_nolock           1005a8cc f   libucrt:setmode.obj
 0001:000599d1       ??$?RV<lambda_4cfda81533ccf5a03113a1ca40a30445>@@AAV<lambda_1cffa78e445b1da5fba1a2e0e533226f>@@V<lambda_68c952aa1b860373b2109ef12d0bba9d>@@@?$__crt_seh_guarded_call@H@@QAEH$$QAV<lambda_4cfda81533ccf5a03113a1ca40a30445>@@AAV<lambda_1cffa78e445b1da5fba1a2e0e533226f>@@$$QAV<lambda_68c952aa1b860373b2109ef12d0bba9d>@@@Z 1005a9d1 f i libucrt:chsize.obj
 0001:00059a7b       ??$__acrt_lowio_lock_fh_and_call@V<lambda_1cffa78e445b1da5fba1a2e0e533226f>@@@@YAHH$$QAV<lambda_1cffa78e445b1da5fba1a2e0e533226f>@@@Z 1005aa7b f i libucrt:chsize.obj
 0001:00059b5d       __chsize                   1005ab5d f   libucrt:chsize.obj
 0001:00059b80       __chsize_nolock            1005ab80 f   libucrt:chsize.obj
 0001:00059d75       __chsize_s                 1005ad75 f   libucrt:chsize.obj
 0001:00059e36       __umask                    1005ae36 f   libucrt:umask.obj
 0001:00059e64       __umask_s                  1005ae64 f   libucrt:umask.obj
 0001:00059ead       ___dcrt_lowio_initialize_console_output 1005aead f   libucrt:initcon.obj
 0001:00059ed3       ___dcrt_terminate_console_output 1005aed3 f   libucrt:initcon.obj
 0001:00059eef       _nexttoward                1005aeef f   libucrt:nexttoward.obj
 0001:0005a0a0       ___acrt_CompareStringW     1005b0a0 f   libucrt:comparestringw.obj
 0001:0005a474       ___acrt_CompareStringA     1005b474 f   libucrt:comparestringa.obj
 0001:0005a4ce       ___acrt_fenv_get_fp_status_word_from_exception_mask 1005b4ce f   libucrt:_fenvutils.obj
 0001:0005a911       __getfpcontrolword         1005b911 f   libucrt:_fenvutils.obj
 0001:0005a964       __getfpstatusword          1005b964 f   libucrt:_fenvutils.obj
 0001:0005aa36       __setfpcontrolword         1005ba36 f   libucrt:_fenvutils.obj
 0001:0005aad6       __setfpstatusword          1005bad6 f   libucrt:_fenvutils.obj
 0001:0005ad0c       ___control87_2             1005bd0c f   libucrt:ieee87.obj
 0001:0005b2e0       ___fpreset_sse2            1005c2e0 f   libucrt:ieee87.obj
 0001:0005b533       __clearfp                  1005c533 f   libucrt:ieee87.obj
 0001:0005b648       __control87                1005c648 f   libucrt:ieee87.obj
 0001:0005ba0a       __controlfp                1005ca0a f   libucrt:ieee87.obj
 0001:0005ba2a       __fpreset                  1005ca2a f   libucrt:ieee87.obj
 0001:0005bb27       __set_controlfp            1005cb27 f   libucrt:ieee87.obj
 0001:0005bbbd       __statusfp                 1005cbbd f   libucrt:ieee87.obj
 0001:0005bc80       __statusfp2                1005cc80 f   libucrt:ieee87.obj
 0001:0005bcfd       ___acrt_initialize_sse2    1005ccfd f   libucrt:mathfcns.obj
 0001:0005bd0f       __set_SSE2_enable          1005cd0f f   libucrt:mathfcns.obj
 0001:0005bd40       __CIlog10_pentium4         1005cd40 f   libucrt:log10_pentium4.obj
 0001:0005bd58       __log10_pentium4           1005cd58     libucrt:log10_pentium4.obj
 0001:0005c091       __fFEXP                    1005d091     libucrt:87tran.obj
 0001:0005c0e8       __rtinfpopse               1005d0e8     libucrt:87tran.obj
 0001:0005c0ea       __rtinfnpopse              1005d0ea     libucrt:87tran.obj
 0001:0005c0fa       __fFLN                     1005d0fa     libucrt:87tran.obj
 0001:0005c1af       __rtinfpop                 1005d1af     libucrt:87tran.obj
 0001:0005c1b1       __rtinfnpop                1005d1b1     libucrt:87tran.obj
 0001:0005c1ce       __ffexpm1                  1005d1ce     libucrt:87tran.obj
 0001:0005c300       __trandisp1                1005d300 f   libucrt:87disp.obj
 0001:0005c367       __trandisp2                1005d367 f   libucrt:87disp.obj
 0001:0005c3f3       __rttospopde               1005d3f3     libucrt:87disp.obj
 0001:0005c3f8       __rttospop                 1005d3f8     libucrt:87disp.obj
 0001:0005c3fa       __rtnospop                 1005d3fa     libucrt:87disp.obj
 0001:0005c3fc       __rttosnpop                1005d3fc     libucrt:87disp.obj
 0001:0005c3fd       __rtnospopde               1005d3fd     libucrt:87disp.obj
 0001:0005c404       __rtzeropop                1005d404     libucrt:87disp.obj
 0001:0005c406       __rtzeronpop               1005d406     libucrt:87disp.obj
 0001:0005c40b       __rtzerospop               1005d40b     libucrt:87disp.obj
 0001:0005c418       __rtonepop                 1005d418     libucrt:87disp.obj
 0001:0005c41a       __rtonenpop                1005d41a     libucrt:87disp.obj
 0001:0005c41f       __tosnan1                  1005d41f     libucrt:87disp.obj
 0001:0005c44a       __nosnan2                  1005d44a     libucrt:87disp.obj
 0001:0005c44c       __tosnan2                  1005d44c     libucrt:87disp.obj
 0001:0005c474       __nan2                     1005d474     libucrt:87disp.obj
 0001:0005c4b3       __rtindfpop                1005d4b3     libucrt:87disp.obj
 0001:0005c4b5       __rtindfnpop               1005d4b5     libucrt:87disp.obj
 0001:0005c4c6       __rttosnpopde              1005d4c6     libucrt:87disp.obj
 0001:0005c4d0       __rtatan2inf               1005d4d0     libucrt:87disp.obj
 0001:0005c4ed       __rtchsifneg               1005d4ed     libucrt:87disp.obj
 0001:0005c571       ___setfflag                1005d571 f   libucrt:fp_flags.obj
 0001:0005c590       __twoToTOS                 1005d590 f   libucrt:common.obj
 0001:0005c5a5       __load_CW                  1005d5a5 f   libucrt:common.obj
 0001:0005c5bc       __convertTOStoQNaN         1005d5bc f   libucrt:common.obj
 0001:0005c5d5       __fload_withFB             1005d5d5 f   libucrt:common.obj
 0001:0005c618       __checkTOS_withFB          1005d618 f   libucrt:common.obj
 0001:0005c62e       __fast_exit                1005d62e f   libucrt:common.obj
 0001:0005c63b       __math_exit                1005d63b f   libucrt:common.obj
 0001:0005c665       __check_overflow_exit      1005d665 f   libucrt:common.obj
 0001:0005c679       __check_range_exit         1005d679 f   libucrt:common.obj
 0001:0005c780       __startTwoArgErrorHandling 1005d780 f   libucrt:genexcep.obj
 0001:0005c797       __startOneArgErrorHandling 1005d797 f   libucrt:genexcep.obj
 0001:0005c7e7       ___libm_error_support      1005d7e7 f   libucrt:libm_error.obj
 0001:0005ca85       ___libm_setusermatherr     1005da85 f   libucrt:libm_error.obj
 0001:0005cabe       __ceil_default             1005dabe f   libucrt:ceil.obj
 0001:0005cba5       ___acrt_LCMapStringW       1005dba5 f   libucrt:lcmapstringw.obj
 0001:0005cbf2       ___p__fmode                1005dbf2 f   libucrt:txtmode.obj
 0001:0005cbf8       __d_int                    1005dbf8 f   libucrt:_test.obj
 0001:0005cd40       __dtest                    1005dd40 f   libucrt:_test.obj
 0001:0005cdbd       __fd_int                   1005ddbd f   libucrt:_test.obj
 0001:0005cebf       __fdtest                   1005debf f   libucrt:_test.obj
 0001:0005cf20       __fperrraise               1005df20 f   libucrt:_test.obj
 0001:0005cf4b       __ld_int                   1005df4b f   libucrt:_test.obj
 0001:0005cf58       __ldtest                   1005df58 f   libucrt:_test.obj
 0001:0005cffd       __controlfp_s              1005dffd f   libucrt:contrlfp.obj
 0001:0005d073       __d_inttype                1005e073 f   libucrt:powhlp.obj
 0001:0005d0f7       __powhlp                   1005e0f7 f   libucrt:powhlp.obj
 0001:0005d26c       __87except                 1005e26c f   libucrt:87except.obj
 0001:0005d3b9       __frnd                     1005e3b9 f   libucrt:frnd.obj
 0001:0005d3d4       _fegetexceptflag           1005e3d4 f   libucrt:fegetexceptflag.obj
 0001:0005d411       _fesetexceptflag           1005e411 f   libucrt:fesetexceptflag.obj
 0001:0005d472       _fetestexcept              1005e472 f   libucrt:fetestexcept.obj
 0001:0005d4a0       __FindPESection            1005e4a0 f   LIBCMT:pesect.obj
 0001:0005d500       __IsNonwritableInCurrentImage 1005e500 f   LIBCMT:pesect.obj
 0001:0005d5f0       __ValidateImageBase        1005e5f0 f   LIBCMT:pesect.obj
 0001:0005d630       __aulldvrm                 1005e630 f   LIBCMT:ulldvrm.obj
 0001:0005d6ea       ??1type_info@@UAE@XZ       1005e6ea f   LIBCMT:std_type_info_static.obj
 0001:0005d6f1       ??_Gtype_info@@UAEPAXI@Z   1005e6f1 f i LIBCMT:std_type_info_static.obj
 0001:0005d6f1       ??_Etype_info@@UAEPAXI@Z   1005e6f1 f i LIBCMT:std_type_info_static.obj
 0001:0005d720       __SEH_prolog4_GS           1005e720 f   LIBCMT:_sehprolg4gs_.obj
 0001:0005d769       __SEH_epilog4_GS           1005e769 f   LIBCMT:_sehprolg4gs_.obj
 0001:0005d790       __allmul                   1005e790 f   LIBCMT:llmul.obj
 0001:0005d7e0       __alldvrm                  1005e7e0 f   LIBCMT:lldvrm.obj
 0001:0005d900       __aullshr                  1005e900 f   LIBCMT:ullshr.obj
 0001:0005d930       __alloca_probe             1005e930 f   LIBCMT:chkstk.obj
 0001:0005d930       __chkstk                   1005e930 f   LIBCMT:chkstk.obj
 0001:0005d970       __alloca_probe_16          1005e970 f   LIBCMT:alloca16.obj
 0001:0005d986       __alloca_probe_8           1005e986     LIBCMT:alloca16.obj
 0001:0005d9b0       __allshl                   1005e9b0 f   LIBCMT:llshl.obj
 0001:0005d9e0       __ftol2_sse                1005e9e0 f   LIBCMT:_ftol2_.obj
 0001:0005d9e9       __ftol2_pentium4           1005e9e9 f   LIBCMT:_ftol2_.obj
 0001:0005d9fc       __ftol2_sse_excpt          1005e9fc f   LIBCMT:_ftol2_.obj
 0001:0005da20       __ftol2                    1005ea20 f   LIBCMT:_ftol2_.obj
 0001:0005dac2       __initialize_default_precision 1005eac2 f   LIBCMT:default_precision.obj
 0001:0005daeb       ??3@YAXPAXI@Z              1005eaeb f   LIBCMT:delete_scalar_size.obj
 0001:0005dafc       ??3@YAXPAX@Z               1005eafc f   LIBCMT:delete_scalar.obj
 0001:0005db02       _InterlockedPushEntrySList@8 1005eb02 f   kernel32:KERNEL32.dll
 0001:0005db08       _InterlockedFlushSList@4   1005eb08 f   kernel32:KERNEL32.dll
 0001:0005db0e       _RtlUnwind@16              1005eb0e f   kernel32:KERNEL32.dll
 0001:0005db14       _GetLastError@0            1005eb14 f   kernel32:KERNEL32.dll
 0001:0005db1a       _SetLastError@4            1005eb1a f   kernel32:KERNEL32.dll
 0001:0005db20       _EnterCriticalSection@4    1005eb20 f   kernel32:KERNEL32.dll
 0001:0005db26       _LeaveCriticalSection@4    1005eb26 f   kernel32:KERNEL32.dll
 0001:0005db2c       _DeleteCriticalSection@4   1005eb2c f   kernel32:KERNEL32.dll
 0001:0005db32       _InitializeCriticalSectionAndSpinCount@8 1005eb32 f   kernel32:KERNEL32.dll
 0001:0005db38       _TlsAlloc@0                1005eb38 f   kernel32:KERNEL32.dll
 0001:0005db3e       _TlsGetValue@4             1005eb3e f   kernel32:KERNEL32.dll
 0001:0005db44       _TlsSetValue@8             1005eb44 f   kernel32:KERNEL32.dll
 0001:0005db4a       _TlsFree@4                 1005eb4a f   kernel32:KERNEL32.dll
 0001:0005db50       _FreeLibrary@4             1005eb50 f   kernel32:KERNEL32.dll
 0001:0005db56       _LoadLibraryExW@12         1005eb56 f   kernel32:KERNEL32.dll
 0001:0005db5c       _GetStdHandle@4            1005eb5c f   kernel32:KERNEL32.dll
 0001:0005db62       _GetFileType@4             1005eb62 f   kernel32:KERNEL32.dll
 0001:0005db68       _GetModuleFileNameA@12     1005eb68 f   kernel32:KERNEL32.dll
 0001:0005db6e       _GetModuleFileNameW@12     1005eb6e f   kernel32:KERNEL32.dll
 0001:0005db74       _GetModuleHandleExW@12     1005eb74 f   kernel32:KERNEL32.dll
 0001:0005db7a       _WriteConsoleW@20          1005eb7a f   kernel32:KERNEL32.dll
 0001:0005db80       _ExitProcess@4             1005eb80 f   kernel32:KERNEL32.dll
 0001:0005db86       _RaiseException@16         1005eb86 f   kernel32:KERNEL32.dll
 0001:0005db8c       _MultiByteToWideChar@24    1005eb8c f   kernel32:KERNEL32.dll
 0001:0005db92       _WideCharToMultiByte@32    1005eb92 f   kernel32:KERNEL32.dll
 0001:0005db98       _HeapFree@12               1005eb98 f   kernel32:KERNEL32.dll
 0001:0005db9e       _HeapAlloc@12              1005eb9e f   kernel32:KERNEL32.dll
 0001:0005dba4       _GetDateFormatW@24         1005eba4 f   kernel32:KERNEL32.dll
 0001:0005dbaa       _GetTimeFormatW@24         1005ebaa f   kernel32:KERNEL32.dll
 0001:0005dbb0       _CompareStringW@24         1005ebb0 f   kernel32:KERNEL32.dll
 0001:0005dbb6       _LCMapStringW@24           1005ebb6 f   kernel32:KERNEL32.dll
 0001:0005dbbc       _GetLocaleInfoW@16         1005ebbc f   kernel32:KERNEL32.dll
 0001:0005dbc2       _IsValidLocale@8           1005ebc2 f   kernel32:KERNEL32.dll
 0001:0005dbc8       _GetUserDefaultLCID@0      1005ebc8 f   kernel32:KERNEL32.dll
 0001:0005dbce       _EnumSystemLocalesW@8      1005ebce f   kernel32:KERNEL32.dll
 0001:0005dbd4       _GetCurrentThread@0        1005ebd4 f   kernel32:KERNEL32.dll
 0001:0005dbda       _GetACP@0                  1005ebda f   kernel32:KERNEL32.dll
 0001:0005dbe0       _WriteFile@20              1005ebe0 f   kernel32:KERNEL32.dll
 0001:0005dbe6       _OutputDebugStringA@4      1005ebe6 f   kernel32:KERNEL32.dll
 0001:0005dbec       _OutputDebugStringW@4      1005ebec f   kernel32:KERNEL32.dll
 0001:0005dbf2       _CloseHandle@4             1005ebf2 f   kernel32:KERNEL32.dll
 0001:0005dbf8       _WaitForSingleObjectEx@12  1005ebf8 f   kernel32:KERNEL32.dll
 0001:0005dbfe       _CreateThread@24           1005ebfe f   kernel32:KERNEL32.dll
 0001:0005dc04       _SetConsoleCtrlHandler@8   1005ec04 f   kernel32:KERNEL32.dll
 0001:0005dc0a       _HeapReAlloc@16            1005ec0a f   kernel32:KERNEL32.dll
 0001:0005dc10       _ReadFile@20               1005ec10 f   kernel32:KERNEL32.dll
 0001:0005dc16       _GetConsoleMode@8          1005ec16 f   kernel32:KERNEL32.dll
 0001:0005dc1c       _ReadConsoleW@20           1005ec1c f   kernel32:KERNEL32.dll
 0001:0005dc22       _GetConsoleCP@0            1005ec22 f   kernel32:KERNEL32.dll
 0001:0005dc28       _DeleteFileW@4             1005ec28 f   kernel32:KERNEL32.dll
 0001:0005dc2e       _SetFilePointerEx@20       1005ec2e f   kernel32:KERNEL32.dll
 0001:0005dc34       _FindClose@4               1005ec34 f   kernel32:KERNEL32.dll
 0001:0005dc3a       _FindFirstFileExA@24       1005ec3a f   kernel32:KERNEL32.dll
 0001:0005dc40       _FindFirstFileExW@24       1005ec40 f   kernel32:KERNEL32.dll
 0001:0005dc46       _FindNextFileA@8           1005ec46 f   kernel32:KERNEL32.dll
 0001:0005dc4c       _FindNextFileW@8           1005ec4c f   kernel32:KERNEL32.dll
 0001:0005dc52       _IsValidCodePage@4         1005ec52 f   kernel32:KERNEL32.dll
 0001:0005dc58       _GetOEMCP@0                1005ec58 f   kernel32:KERNEL32.dll
 0001:0005dc5e       _GetCPInfo@8               1005ec5e f   kernel32:KERNEL32.dll
 0001:0005dc64       _GetCommandLineA@0         1005ec64 f   kernel32:KERNEL32.dll
 0001:0005dc6a       _GetCommandLineW@0         1005ec6a f   kernel32:KERNEL32.dll
 0001:0005dc70       _GetEnvironmentStringsW@0  1005ec70 f   kernel32:KERNEL32.dll
 0001:0005dc76       _FreeEnvironmentStringsW@4 1005ec76 f   kernel32:KERNEL32.dll
 0001:0005dc7c       _SetEnvironmentVariableA@8 1005ec7c f   kernel32:KERNEL32.dll
 0001:0005dc82       _SetEnvironmentVariableW@8 1005ec82 f   kernel32:KERNEL32.dll
 0001:0005dc88       _GetProcessHeap@0          1005ec88 f   kernel32:KERNEL32.dll
 0001:0005dc8e       _GetStringTypeW@16         1005ec8e f   kernel32:KERNEL32.dll
 0001:0005dc94       _FlushFileBuffers@4        1005ec94 f   kernel32:KERNEL32.dll
 0001:0005dc9a       _SetStdHandle@8            1005ec9a f   kernel32:KERNEL32.dll
 0001:0005dca0       _CreateFileW@28            1005eca0 f   kernel32:KERNEL32.dll
 0001:0005dca6       _HeapSize@12               1005eca6 f   kernel32:KERNEL32.dll
 0001:0005dcac       _SetEndOfFile@4            1005ecac f   kernel32:KERNEL32.dll
 0001:0005dcb2       _EncodePointer@4           1005ecb2 f   kernel32:KERNEL32.dll
 0001:0005dcb8       _DecodePointer@4           1005ecb8 f   kernel32:KERNEL32.dll
 0001:0005dcc0       _strrchr                   1005ecc0 f   libvcruntime:strrchr.obj
 0001:0005dfa7       _memcmp                    1005efa7 f   libvcruntime:_memcmp_.obj
 0001:00061a8f       _wcschr                    10062a8f f   libvcruntime:wcschr.obj
 0002:00000000       ___xc_a                    10063000     LIBCMT:initializers.obj
 0002:00000104       ___xc_z                    10063104     LIBCMT:initializers.obj
 0002:00000208       ___xi_a                    10063208     LIBCMT:initializers.obj
 0002:0000030c       ___acrt_stdio_initializer  1006330c     libucrt:stdio_initializer.obj
 0002:00000310       ___acrt_multibyte_initializer 10063310     libucrt:multibyte_initializer.obj
 0002:00000314       ___acrt_tran_sse2_initializer 10063314     libucrt:sse2_initializer.obj
 0002:0000041c       ___xi_z                    1006341c     LIBCMT:initializers.obj
 0002:00000520       ___xp_a                    10063520     LIBCMT:initializers.obj
 0002:00000624       ___acrt_locale_terminator  10063624     libucrt:locale_initializer.obj
 0002:00000628       ___dcrt_console_output_terminator 10063628     libucrt:console_output_initializer.obj
 0002:00000730       ___acrt_stdio_terminator   10063730     libucrt:stdio_initializer.obj
 0002:00000834       ___xp_z                    10063834     LIBCMT:initializers.obj
 0002:00000938       ___xt_a                    10063938     LIBCMT:initializers.obj
 0002:00000a3c       ___xt_z                    10063a3c     LIBCMT:initializers.obj
 0002:00000b40       _System_M                  10063b40     System.obj
 0002:00000b44       ??_C@_00CNPNBAHC@?$AA@     10063b44     System.obj
 0002:00000b48       ??_C@_0M@GNOGBNEJ@System?1Out1?$AA@ 10063b48     System.obj
 0002:00000b58       ??_C@_0BI@PHJEPFFP@Error?5creating?5scope?51?6?$AA@ 10063b58     System.obj
 0002:00000b74       ??_C@_05JIDBFJIA@Q4?5AD?$AA@ 10063b74     System.obj
 0002:00000b7c       ??_C@_0BI@PFNCELAG@Error?5creating?5scope?52?6?$AA@ 10063b7c     System.obj
 0002:00000b98       ??_C@_0P@GBJHHIJP@Magnet_Control?$AA@ 10063b98     System.obj
 0002:00000bac       ??_C@_0BC@OJJPBDHH@FixedStepDiscrete?$AA@ 10063bac     System.obj
 0002:00000bc4       ??_C@_04EPKDLPPB@tout?$AA@ 10063bc4     System.obj
 0002:00000bcc       ??_C@_03HBFGMJOD@rt_?$AA@  10063bcc     System.obj
 0002:00000bd0       ??_C@_04LHDDHLEA@yout?$AA@ 10063bd0     System.obj
 0002:00000bd8       ??_C@_0N@NHKJHHJP@System?1Q4?5AD?$AA@ 10063bd8     System.obj
 0002:00000be8       ??_C@_06EJLBKEAC@Q4?5DA?5?$AA@ 10063be8     System.obj
 0002:00000bf0       ??_C@_0O@MEPGDBNJ@System?1Q4?5DA?5?$AA@ 10063bf0     System.obj
 0002:00000c00       __real@3f50624dd2f1a9fc    10063c00     System.obj
 0002:00000c10       __real@3ff0000000000000    10063c10     System.obj
 0002:00000c20       __real@4000000000000000    10063c20     System.obj
 0002:00000c30       __real@403e000000000000    10063c30     System.obj
 0002:00000c40       __real@4069000000000000    10063c40     System.obj
 0002:00000c50       __real@41f0000000000000    10063c50     System.obj
 0002:00000c60       __real@bff0000000000000    10063c60     System.obj
 0002:00000c70       __xmm@00000000000000003f50624dd2f1a9fc 10063c70     System.obj
 0002:00000c90       __xmm@00000030000000020000000600000001 10063c90     System.obj
 0002:00000cb0       __xmm@41f00000000000000000000000000000 10063cb0     System.obj
 0002:00000cc8       __real@3cb0000000000000    10063cc8     rt_matrx.obj
 0002:00000cd8       __real@3fe0000000000000    10063cd8     rt_matrx.obj
 0002:00000f74       ??_C@_05LPIJGKJ@Value?$AA@ 10063f74     System_capi.obj
 0002:00000f7c       ??_C@_02KKFPAPOP@P1?$AA@   10063f7c     System_capi.obj
 0002:00000f80       ??_C@_02IBHCFMCM@P2?$AA@   10063f80     System_capi.obj
 0002:00000f84       ??_C@_02JIGJGNGN@P3?$AA@   10063f84     System_capi.obj
 0002:00000f88       ??_C@_02MODDMKOL@P5?$AA@   10063f88     System_capi.obj
 0002:00000f8c       ??_C@_02OFBOJJCI@P6?$AA@   10063f8c     System_capi.obj
 0002:00000f90       ??_C@_02PMAFKIGJ@P7?$AA@   10063f90     System_capi.obj
 0002:00000f94       ??_C@_02NHCIPLKK@P4?$AA@   10063f94     System_capi.obj
 0002:00000f98       ??_C@_02HLJNLEKG@P8?$AA@   10063f98     System_capi.obj
 0002:00000f9c       ??_C@_02GCIGIFOH@P9?$AA@   10063f9c     System_capi.obj
 0002:00000fa0       ??_C@_06BNJCAIGJ@double?$AA@ 10063fa0     System_capi.obj
 0002:00000fa8       ??_C@_06CNMIJIPB@real_T?$AA@ 10063fa8     System_capi.obj
 0002:00000fb0       ??_C@_05KNFBNCOH@float?$AA@ 10063fb0     System_capi.obj
 0002:00000fb8       _serialfifoground          10063fb8     xpc_datatype_ground.obj
 0002:00000fc4       _bcmsg1553ground           10063fc4     xpc_datatype_ground.obj
 0002:00000fd4       _bcstatground              10063fd4     xpc_datatype_ground.obj
 0002:00000fec       _bmmsg1553ground           10063fec     xpc_datatype_ground.obj
 0002:00001028       ??_C@_0BI@INNPNFJN@Memory?5Allocation?5Error?$AA@ 10064028     rtw_modelmap_utils.obj
 0002:00001048       ??_C@_1HC@IFMGIDHA@?$AAC?$AA?3?$AA?2?$AAP?$AAR?$AAO?$AAG?$AAR?$AAA?$AA?$HO?$AA1?$AA?2?$AAM?$AAA?$AAT?$AAL?$AAA?$AAB?$AA?2?$AAR?$AA2?$AA0?$AA1?$AA7?$AAa?$AA?2?$AAr?$AAt?$AAw?$AA?2?$AAc?$AA?2@ 10064048     rtw_modelmap_utils.obj
 0002:000010d0       ??_C@_1CI@OEAJCJND@?$AAj?$AA?5?$AA?$DN?$AA?$DN?$AA?5?$AAe?$AAn?$AAc?$AAo?$AAd?$AAe?$AAd?$AAP?$AAa?$AAt?$AAh?$AAL?$AAe?$AAn?$AA?$AA@ 100640d0     rtw_modelmap_utils.obj
 0002:00001100       ??_C@_1DC@NFAOIFKB@?$AAe?$AAn?$AAc?$AAo?$AAd?$AAe?$AAd?$AAP?$AAa?$AAt?$AAh?$AA?$FL?$AAj?$AA?9?$AA1?$AA?$FN?$AA?5?$AA?$DN?$AA?$DN?$AA?5?$AA?8?$AA?2?$AA0?$AA?8?$AA?$AA@ 10064100     rtw_modelmap_utils.obj
 0002:0000113c       ??_C@_1DI@FLNJGPEE@?$AAs?$AAi?$AAg?$AAC?$AAo?$AAm?$AAp?$AAl?$AAe?$AAx?$AAi?$AAt?$AAy?$AA?$FL?$AA?$CK?$AAs?$AAi?$AAg?$AAI?$AAd?$AAx?$AA?$FN?$AA?5?$AA?$CB?$AA?$DN?$AA?5?$AA1?$AA?$AA@ 1006413c     rtw_modelmap_utils.obj
 0002:00001180       ??_C@_1KI@OFELMGBG@?$AA?$CI?$AA?$CI?$AA?$CI?$AAd?$AAa?$AAt?$AAa?$AAT?$AAy?$AAp?$AAe?$AAM?$AAa?$AAp?$AA?$CJ?$AA?$FL?$AA?$CI?$AA?$CI?$AA?$CI?$AAs?$AAt?$AAa?$AAt?$AAe?$AAs?$AA?$CJ?$AA?$FL?$AA?$CI?$AAi?$AA?$CJ?$AA?$FN?$AA?4@ 10064180     rtw_modelmap_utils.obj
 0002:0000124c       ??_C@_1DA@ILCMPHNE@?$AAf?$AAu?$AAl?$AAl?$AAP?$AAa?$AAt?$AAh?$AA?5?$AA?$CB?$AA?$DN?$AA?5?$AA?$CI?$AA?$CI?$AAv?$AAo?$AAi?$AAd?$AA?5?$AA?$CK?$AA?$CJ?$AA0?$AA?$CJ?$AA?$AA@ 1006424c     rtw_modelmap_utils.obj
 0002:00001288       ??_C@_1CI@OEPPFCCA@?$AAp?$AAa?$AAt?$AAh?$AA?5?$AA?$CB?$AA?$DN?$AA?5?$AA?$CI?$AA?$CI?$AAv?$AAo?$AAi?$AAd?$AA?5?$AA?$CK?$AA?$CJ?$AA0?$AA?$CJ?$AA?$AA@ 10064288     rtw_modelmap_utils.obj
 0002:000012b8       ??_C@_1FK@GLJIMFHB@?$AA?$CI?$AA?$CI?$AAm?$AAm?$AAi?$AA?$CJ?$AA?9?$AA?$DO?$AAI?$AAn?$AAs?$AAt?$AAa?$AAn?$AAc?$AAe?$AAM?$AAa?$AAp?$AA?4?$AAf?$AAu?$AAl?$AAl?$AAP?$AAa?$AAt?$AAh?$AA?$CJ?$AA?5?$AA?$DN?$AA?$DN@ 100642b8     rtw_modelmap_utils.obj
 0002:00001324       ??_C@_1DG@HPCJGNCE@?$AAm?$AAm?$AAi?$AAP?$AAa?$AAt?$AAh?$AA?$FL?$AAp?$AAa?$AAt?$AAh?$AAL?$AAe?$AAn?$AA?9?$AA1?$AA?$FN?$AA?5?$AA?$DN?$AA?$DN?$AA?5?$AA?8?$AA?2?$AA0?$AA?8?$AA?$AA@ 10064324     rtw_modelmap_utils.obj
 0002:00001364       ??_C@_1DM@DBAOGGOO@?$AAm?$AAm?$AAi?$AAP?$AAa?$AAt?$AAh?$AA?$FL?$AAm?$AAm?$AAi?$AAP?$AAa?$AAt?$AAh?$AAL?$AAe?$AAn?$AA?9?$AA1?$AA?$FN?$AA?5?$AA?$DN?$AA?$DN?$AA?5?$AA?8?$AA?2?$AA0?$AA?8?$AA?$AA@ 10064364     rtw_modelmap_utils.obj
 0002:000013ac       ??_C@_1DC@LHIAKAFE@?$AAb?$AAl?$AAo?$AAc?$AAk?$AAP?$AAa?$AAt?$AAh?$AA?5?$AA?$CB?$AA?$DN?$AA?5?$AA?$CI?$AA?$CI?$AAv?$AAo?$AAi?$AAd?$AA?5?$AA?$CK?$AA?$CJ?$AA0?$AA?$CJ?$AA?$AA@ 100643ac     rtw_modelmap_utils.obj
 0002:000013e8       ??_C@_1GI@KIEJKPGC@?$AAf?$AAu?$AAl?$AAl?$AAS?$AAt?$AAa?$AAt?$AAe?$AAB?$AAl?$AAo?$AAc?$AAk?$AAP?$AAa?$AAt?$AAh?$AA?$FL?$AAf?$AAu?$AAl?$AAl?$AAS?$AAt?$AAa?$AAt?$AAe?$AAB?$AAl?$AAo?$AAc@ 100643e8     rtw_modelmap_utils.obj
 0002:00001468       ??_C@_1EE@DNPIBJHC@?$AA?$CI?$AA?$CI?$AAd?$AAi?$AAm?$AAM?$AAa?$AAp?$AA?$CJ?$AA?$FL?$AA?$CI?$AAm?$AAa?$AAp?$AAI?$AAd?$AAx?$AA?$CJ?$AA?$FN?$AA?4?$AAn?$AAu?$AAm?$AAD?$AAi?$AAm?$AAs?$AA?$CJ?$AA?5?$AA?$DN?$AA?$DN?$AA?5@ 10064468     rtw_modelmap_utils.obj
 0002:000014bc       ??_C@_06JFOKFOED@CSTATE?$AA@ 100644bc     rtw_modelmap_utils.obj
 0002:000014c4       ??_C@_06FAENGAMN@DSTATE?$AA@ 100644c4     rtw_modelmap_utils.obj
 0002:000014cc       ??_C@_1BI@LEBJNOGG@?$AAc?$AAs?$AAv?$AAI?$AAd?$AAx?$AA?5?$AA?$DO?$AA?$DN?$AA?5?$AA0?$AA?$AA@ 100644cc     rtw_modelmap_utils.obj
 0002:000014e8       ??_C@_1BA@KDMGHCHP@?$AAT?$AAI?$AAD?$AA?$DN?$AA?$DN?$AA?9?$AA1?$AA?$AA@ 100644e8     rtw_modelmap_utils.obj
 0002:000014fc       ??_C@_1DM@DHGKBPCE@?$AAs?$AAi?$AAg?$AAP?$AAa?$AAt?$AAh?$AA?$FL?$AAs?$AAi?$AAg?$AAP?$AAa?$AAt?$AAh?$AAL?$AAe?$AAn?$AA?9?$AA1?$AA?$FN?$AA?5?$AA?$DN?$AA?$DN?$AA?5?$AA?8?$AA?2?$AA0?$AA?8?$AA?$AA@ 100644fc     rtw_modelmap_utils.obj
 0002:00001da8       ??_C@_0DJ@FHKINPLE@Unexpected?5itemKind?5?$DN?5DATA_ITEM?5@ 10064da8     rt_logging.obj
 0002:00001dec       ??_C@_0DA@IEHFPFCJ@Unexpected?5itemKind?$DN?$CFd?5in?5rt_Pro@ 10064dec     rt_logging.obj
 0002:00001e28       ??_C@_0DA@IFLHJPBO@Unexpected?5itemKind?$DN?$CFd?5in?5rt_Pro@ 10064e28     rt_logging.obj
 0002:00001e64       ??_C@_0DA@IAPIIJJL@Unexpected?5itemKind?$DN?$CFd?5in?5rt_Pro@ 10064e64     rt_logging.obj
 0002:00001ea0       ??_C@_0BE@LCIGPJIG@MATLAB?55?40?5MAT?9file?$AA@ 10064ea0     rt_logging.obj
 0002:00001eb8       ??_C@_0FB@PCJEAJIB@?$CK?$CK?$CK?5Log?5variable?5?$CFs?5has?5wrapped?5@ 10064eb8     rt_logging.obj
 0002:00001f20       ??_C@_0MG@NKMLMOGF@?$CK?$CK?$CK?5To?5avoid?5wrapping?0?5explicitl@ 10064f20     rt_logging.obj
 0002:00002010       ??_C@_0N@IPAEOLLP@_rtw_tmw?4tmw?$AA@ 10065010     rt_logging.obj
 0002:00002020       ??_C@_04HDOCAJNK@?$CFs?$CFs?$AA@ 10065020     rt_logging.obj
 0002:00002028       ??_C@_03ELIABIOC@w?$CLb?$AA@ 10065028     rt_logging.obj
 0002:0000202c       ??_C@_0BF@JPILDDFA@?$CK?$CK?$CK?5Error?5opening?5?$CFs?$AA@ 1006502c     rt_logging.obj
 0002:00002048       ??_C@_0BK@EEMDELA@unable?5to?5open?5data?5file?6?$AA@ 10065048     rt_logging.obj
 0002:00002068       ??_C@_04CGFJFPFD@none?$AA@ 10065068     rt_logging.obj
 0002:00002070       ??_C@_0EE@LCGFPNON@?$CK?$CK?$CK?5Error?5creating?5signals?5struc@ 10065070     rt_logging.obj
 0002:000020c4       ??_C@_0CE@NHECEDMK@?$CK?$CK?$CK?5Error?5creating?5log?5variable?5@ 100650c4     rt_logging.obj
 0002:000020f0       ??_C@_0DB@IOCGKAGH@?$CK?$CK?$CK?5Errors?5occurred?5when?5startin@ 100650f0     rt_logging.obj
 0002:0000212c       ??_C@_0BO@BBLOGEBK@?$CK?$CK?$CK?5Memory?5allocation?5error?4?6?$AA@ 1006512c     rt_logging.obj
 0002:00002150       ??_C@_0N@LGFBAGEL@?5?$CIreal?5part?$CJ?$AA@ 10065150     rt_logging.obj
 0002:00002160       ??_C@_0KH@CGNMHNFE@?5?5?5?5varName?5?5?5?5?5?5?5?5?5?5?$DN?5?$CFs?$CFs?6?5?5?5?5@ 10065160     rt_logging.obj
 0002:00002228       ??_C@_0LE@OALKKEFM@?5?5?5?5varName?5?5?5?5?5?5?5?5?5?5?$DN?5?$CFs?5?$CIcompl@ 10065228     rt_logging.obj
 0002:00002300       ??_C@_0KF@JDDLEOKO@?5?5?5?5varName?5?5?5?5?5?5?5?5?5?5?$DN?5?$CFs?6?5?5?5?5nR@ 10065300     rt_logging.obj
 0002:000023c8       ??_C@_0DP@HPDMIOFM@?$CK?$CK?$CK?5Using?5a?5default?5buffer?5of?5si@ 100653c8     rt_logging.obj
 0002:00002418       ??_C@_0KE@JEFOLKNF@?6?$CK?$CK?$CK?5Memory?5required?5to?5log?5vari@ 10065418     rt_logging.obj
 0002:000024e0       ??_C@_0JP@DKLMHCBI@?$CK?$CK?$CK?5Details?3?6?5?5?5?5?5?5?5varName?5?5?5?5?5@ 100654e0     rt_logging.obj
 0002:000025a0       ??_C@_0CM@CAMILBED@?$CK?$CK?$CK?5Error?5allocating?5memory?5for?5@ 100655a0     rt_logging.obj
 0002:000025d4       ??_C@_0DF@BBCNMOPM@?$CK?$CK?$CK?5Error?5allocating?5memory?5for?5@ 100655d4     rt_logging.obj
 0002:00002618       ??_C@_0JP@DBCLPCCI@?$CK?$CK?$CK?5Details?3?6?5?5?5?5?5?5?5varName?5?5?5?5?5@ 10065618     rt_logging.obj
 0002:000026d8       ??_C@_0FK@DPGAOBGA@?$CK?$CK?$CK?5Error?5allocating?5memory?5for?5@ 100656d8     rt_logging.obj
 0002:00002744       ??_C@_0BI@GGDNPHLJ@?$CK?$CK?$CK?5Error?5writing?5to?5?$CFs?$AA@ 10065744     rt_logging.obj
 0002:00002760       ??_C@_0CB@IBGJGELG@?$CK?$CK?$CK?5Error?5writing?5?$CFs?5due?5to?3?5?$CFs?6@ 10065760     rt_logging.obj
 0002:00002788       ??_C@_0CN@FLMCHCPB@?$CK?$CK?$CK?5Error?5writing?5log?5variable?5?$CF@ 10065788     rt_logging.obj
 0002:000027c0       ??_C@_0DH@GAJCNOJP@?$CK?$CK?$CK?5Error?5writing?5structure?5log?5@ 100657c0     rt_logging.obj
 0002:00002804       ??_C@_0BD@POEALECL@?$CK?$CK?5created?5?$CFs?5?$CK?$CK?6?6?$AA@ 10065804     rt_logging.obj
 0002:00002820       __real@0000000000000000    10065820     rt_logging.obj
 0002:00002830       __real@4020000000000000    10065830     rt_logging.obj
 0002:00002840       __real@41dfffffffc00000    10065840     rt_logging.obj
 0002:00002850       __real@41efffffffe00000    10065850     rt_logging.obj
 0002:00002860       __real@4330000000000000    10065860     rt_logging.obj
 0002:00002870       __real@8000000000000000    10065870     rt_logging.obj
 0002:00002880       __real@bfbf9add3afd2773    10065880     rt_logging.obj
 0002:00002890       __real@c000000000000000    10065890     rt_logging.obj
 0002:000028a0       __xmm@20202020202020202020202020202020 100658a0     rt_logging.obj
 0002:000028b4       ??_C@_06JIODDOFH@System?$AA@ 100658b4     xpctarget.obj
 0002:000028bc       _ptsetfilename             100658bc     xpctarget.obj
 0002:000028c0       _xmlfile                   100658c0     xpctarget.obj
 0002:000028c8       ??_C@_0L@CHBJKKFC@xpceSetVar?$AA@ 100658c8     xpctarget.obj
 0002:000028d8       ??_C@_03LADEHNAB@6?46?$AA@ 100658d8     xpctarget.obj
 0002:000028e0       __real@3fb999999999999a    100658e0     xpctarget.obj
 0002:000028f0       __real@408f400000000000    100658f0     xpctarget.obj
 0002:00002900       _System_BIOMAP             10065900     appmappingData.obj
 0002:00002924       _System_LBLMAP             10065924     appmappingData.obj
 0002:00002948       _System_SIDMAP             10065948     appmappingData.obj
 0002:0000296c       _System_SBIO               1006596c     appmappingData.obj
 0002:00002978       _System_SLBL               10065978     appmappingData.obj
 0002:00002984       _System_dtmap              10065984     appmappingData.obj
 0002:00002990       _System_PTIDSMAP           10065990     appmappingData.obj
 0002:00002a18       _System_PTNAMESMAP         10065a18     appmappingData.obj
 0002:00002aa0       _System_SPTMAP             10065aa0     appmappingData.obj
 0002:00002ae8       _appInfo                   10065ae8     appmappingData.obj
 0002:00002ba4       ??_C@_0CC@FIFFDAB@?$CFd?5input?5args?5expected?0?5?$CFd?5passe@ 10065ba4     adquanserq8.obj
 0002:00002bcc       ??_C@_0L@GPCJJFPH@Quanser?5Q8?$AA@ 10065bcc     adquanserq8.obj
 0002:00002bdc       ??_C@_0L@MDJMNKPL@Quanser?5Q4?$AA@ 10065bdc     adquanserq8.obj
 0002:00002bec       ??_C@_0BI@IHCNPKCM@No?5?$CFs?5at?5bus?5?$CFd?5slot?5?$CFd?$AA@ 10065bec     adquanserq8.obj
 0002:00002c08       ??_C@_0BN@HPKICLI@?$CFs?5A?1D?5driver?5internal?5error?$AA@ 10065c08     adquanserq8.obj
 0002:00002c30       __real@3f54000000000000    10065c30     adquanserq8.obj
 0002:00002c3c       ??_C@_0BK@DJPPGIA@Bad?5channel?5in?5?$CFs?5D?1A?3?5?$CFn?$AA@ 10065c3c     daquanserq8.obj
 0002:00002c5c       ??_C@_0BI@OLGKMIEO@Bad?5range?5in?5?$CFs?5D?1A?3?5?$CFd?$AA@ 10065c5c     daquanserq8.obj
 0002:00002c78       __real@4014000000000000    10065c78     daquanserq8.obj
 0002:00002c88       __real@4024000000000000    10065c88     daquanserq8.obj
 0002:00002c98       __real@406999999999999a    10065c98     daquanserq8.obj
 0002:00002ca8       __real@407999999999999a    10065ca8     daquanserq8.obj
 0002:00002cb4       ??_C@_0CC@DMFKNLL@VendorId?5?$DN?50x?$CFx?0?5DeviceId?5?$DN?50x?$CFx@ 10065cb4     xpcruntime:xpcimports.obj
 0002:00002cdc       ??_C@_0DH@OHCBLNMG@Subsystem?5Device?5ID?5?$DN?50x?$CFx?6Subsy@ 10065cdc     xpcruntime:xpcimports.obj
 0002:00002d20       ??_C@_0BD@MMMMEFCM@Class?5Code?5?$DN?50x?$CFx?6?$AA@ 10065d20     xpcruntime:xpcimports.obj
 0002:00002d38       ??_C@_0BE@OLDDDNHM@InterruptLine?5?$DN?5?$CFd?6?$AA@ 10065d38     xpcruntime:xpcimports.obj
 0002:00002d50       ??_C@_0BF@OLKLEKBD@bus?5?$DN?5?$CFd?0?5slot?5?$DN?5?$CFd?6?$AA@ 10065d50     xpcruntime:xpcimports.obj
 0002:00002d6c       ??_C@_0CE@DGLLGDFH@?5?5?5?5Phys?5?5?5Virtual?5?5?5Length?5IO?1M@ 10065d6c     xpcruntime:xpcimports.obj
 0002:00002d98       ??_C@_0BI@FEOPLEMG@?$CF08x?5?$CF08x?5?$CF08x?5?5?5?5?5?5?$CFc?6?$AA@ 10065d98     xpcruntime:xpcimports.obj
 0002:00002db4       ??_C@_0BB@BNNCEDPC@rl32eScopeExists?$AA@ 10065db4     xpcruntime:xpcimports.obj
 0002:00002dc8       ??_C@_0BM@FJBFEGFG@rl32eScopeExists?5not?5found?6?$AA@ 10065dc8     xpcruntime:xpcimports.obj
 0002:00002dec       ??_C@_0O@BNNGKJEA@rl32eDefScope?$AA@ 10065dec     xpcruntime:xpcimports.obj
 0002:00002dfc       ??_C@_0BJ@CDNOENKA@rl32eDefScope?5not?5found?6?$AA@ 10065dfc     xpcruntime:xpcimports.obj
 0002:00002e1c       ??_C@_0P@CKNKILDP@rl32eAddSignal?$AA@ 10065e1c     xpcruntime:xpcimports.obj
 0002:00002e30       ??_C@_0BK@GMJAJBAI@rl32eAddSignal?5not?5found?6?$AA@ 10065e30     xpcruntime:xpcimports.obj
 0002:00002e50       ??_C@_0BB@LDMIHGCE@rl32eGetSignalNo?$AA@ 10065e50     xpcruntime:xpcimports.obj
 0002:00002e64       ??_C@_0BM@LGAMBAID@rl32eGetSignalNo?5not?5found?6?$AA@ 10065e64     xpcruntime:xpcimports.obj
 0002:00002e88       ??_C@_0O@CFDGALBP@rl32eSetScope?$AA@ 10065e88     xpcruntime:xpcimports.obj
 0002:00002e98       ??_C@_0BJ@JCLHHIN@rl32eSetScope?5not?5found?6?$AA@ 10065e98     xpcruntime:xpcimports.obj
 0002:00002eb8       ??_C@_0P@IKMCBMHH@xpceFSScopeSet?$AA@ 10065eb8     xpcruntime:xpcimports.obj
 0002:00002ecc       ??_C@_0BK@JODJPNNH@xpceFSScopeSet?5not?5found?6?$AA@ 10065ecc     xpcruntime:xpcimports.obj
 0002:00002eec       ??_C@_0BE@DLACEEJM@rl32eSetTargetScope?$AA@ 10065eec     xpcruntime:xpcimports.obj
 0002:00002f04       ??_C@_0BP@JCHFMKPJ@rl32eSetTargetScope?5not?5found?6?$AA@ 10065f04     xpcruntime:xpcimports.obj
 0002:00002f2c       ??_C@_0BJ@LIDLNDHC@rl32eSetTargetScopeSigFt?$AA@ 10065f2c     xpcruntime:xpcimports.obj
 0002:00002f4c       ??_C@_0CE@JLGHCFHI@rl32eSetTargetScopeSigFt?5not?5fou@ 10065f4c     xpcruntime:xpcimports.obj
 0002:00002f78       ??_C@_0BI@JAPOIDNG@rl32eRestartAcquisition?$AA@ 10065f78     xpcruntime:xpcimports.obj
 0002:00002f94       ??_C@_0CD@LLBEFFBO@rl32eRestartAcquisition?5not?5foun@ 10065f94     xpcruntime:xpcimports.obj
 0002:00002fc0       ??_C@_0P@IEIIADJB@xpceScopeAcqOK?$AA@ 10065fc0     xpcruntime:xpcimports.obj
 0002:00002fd4       ??_C@_0BK@NJCKNFPN@xpceScopeAcqOK?5not?5found?6?$AA@ 10065fd4     xpcruntime:xpcimports.obj
 0002:00002ff4       ??_C@_0BA@IJINKAHF@xpceRegisterISR?$AA@ 10065ff4     xpcruntime:xpcimports.obj
 0002:00003008       ??_C@_0BL@NNDLOEJE@xpceRegisterISR?5not?5found?6?$AA@ 10066008     xpcruntime:xpcimports.obj
 0002:00003028       ??_C@_0BC@NLBADGKF@xpceDeRegisterISR?$AA@ 10066028     xpcruntime:xpcimports.obj
 0002:00003040       ??_C@_0BN@DCAIKFFD@xpceDeRegisterISR?5not?5found?6?$AA@ 10066040     xpcruntime:xpcimports.obj
 0002:00003064       ??_C@_07JPMEPILD@xpcInpB?$AA@ 10066064     xpcruntime:xpcimports.obj
 0002:00003070       ??_C@_0BD@PGABEJOL@xpcInpB?5not?5found?6?$AA@ 10066070     xpcruntime:xpcimports.obj
 0002:00003088       ??_C@_07KIHBBOKH@xpcInpW?$AA@ 10066088     xpcruntime:xpcimports.obj
 0002:00003094       ??_C@_0BD@FPCJFMCC@xpcInpW?5not?5found?6?$AA@ 10066094     xpcruntime:xpcimports.obj
 0002:000030ac       ??_C@_08KDIAJBOP@xpcInpDW?$AA@ 100660ac     xpcruntime:xpcimports.obj
 0002:000030b8       ??_C@_0BE@PIELDNIL@xpcInpDW?5not?5found?6?$AA@ 100660b8     xpcruntime:xpcimports.obj
 0002:000030d0       ??_C@_08PJFMOIGO@xpcOutpB?$AA@ 100660d0     xpcruntime:xpcimports.obj
 0002:000030dc       ??_C@_0BE@HCKNCEKF@xpcOutpB?5not?5found?6?$AA@ 100660dc     xpcruntime:xpcimports.obj
 0002:000030f4       ??_C@_08MOOJAOHK@xpcOutpW?$AA@ 100660f4     xpcruntime:xpcimports.obj
 0002:00003100       ??_C@_0BE@NLIFDBGM@xpcOutpW?5not?5found?6?$AA@ 10066100     xpcruntime:xpcimports.obj
 0002:00003118       ??_C@_09FLIEKHJG@xpcOutpDW?$AA@ 10066118     xpcruntime:xpcimports.obj
 0002:00003124       ??_C@_0BF@GJKLPNHB@xpcOutpDW?5not?5found?6?$AA@ 10066124     xpcruntime:xpcimports.obj
 0002:00003140       ??_C@_0BH@EHOLELHH@xpcReserveMemoryRegion?$AA@ 10066140     xpcruntime:xpcimports.obj
 0002:0000315c       ??_C@_0CC@KAAAGPI@xpcReserveMemoryRegion?5not?5found@ 1006615c     xpcruntime:xpcimports.obj
 0002:00003184       ??_C@_0BA@JGPMHGAF@rl32eShowPCIDev?$AA@ 10066184     xpcruntime:xpcimports.obj
 0002:00003198       ??_C@_0BL@DDFFLNHI@rl32eShowPCIDev?5not?5found?6?$AA@ 10066198     xpcruntime:xpcimports.obj
 0002:000031b8       ??_C@_0BB@KBCOJPFB@rl32eShowPCIInfo?$AA@ 100661b8     xpcruntime:xpcimports.obj
 0002:000031cc       ??_C@_0BM@IFDMAGLO@rl32eShowPCIInfo?5not?5found?6?$AA@ 100661cc     xpcruntime:xpcimports.obj
 0002:000031f0       ??_C@_0BA@BGPAADB@rl32eGetPCIInfo?$AA@ 100661f0     xpcruntime:xpcimports.obj
 0002:00003204       ??_C@_0BL@IGOMLDCK@rl32eGetPCIInfo?5not?5found?6?$AA@ 10066204     xpcruntime:xpcimports.obj
 0002:00003224       ??_C@_0BG@NJPFKFDP@rl32eGetPCIInfoAtSlot?$AA@ 10066224     xpcruntime:xpcimports.obj
 0002:00003240       ??_C@_0CB@BBKIPMLA@rl32eGetPCIInfoAtSlot?5not?5found?6@ 10066240     xpcruntime:xpcimports.obj
 0002:00003268       ??_C@_0BH@OKBOPNFG@xpceAssignPCIInterrupt?$AA@ 10066268     xpcruntime:xpcimports.obj
 0002:00003284       ??_C@_0CC@CDNDNJBJ@xpceAssignPCIInterrupt?5not?5found@ 10066284     xpcruntime:xpcimports.obj
 0002:000032ac       ??_C@_0BD@PCKOKHO@xpceGetSignalValue?$AA@ 100662ac     xpcruntime:xpcimports.obj
 0002:000032c4       ??_C@_0BO@GCBDJHMB@xpceGetSignalValue?5not?5found?6?$AA@ 100662c4     xpcruntime:xpcimports.obj
 0002:000032e8       ??_C@_0BB@BJONJAGA@xpceSetParameter?$AA@ 100662e8     xpcruntime:xpcimports.obj
 0002:000032fc       ??_C@_0BM@BJIKDLHA@xpceSetParameter?5not?5found?6?$AA@ 100662fc     xpcruntime:xpcimports.obj
 0002:00003320       ??_C@_0BB@GNFDFMCM@xpceGetParameter?$AA@ 10066320     xpcruntime:xpcimports.obj
 0002:00003334       ??_C@_0BM@POHNKBC@xpceGetParameter?5not?5found?6?$AA@ 10066334     xpcruntime:xpcimports.obj
 0002:00003358       ??_C@_0BB@CEIJLFCD@xpceGetParamDims?$AA@ 10066358     xpcruntime:xpcimports.obj
 0002:0000336c       ??_C@_0BM@OABDBKAO@xpceGetParamDims?5not?5found?6?$AA@ 1006636c     xpcruntime:xpcimports.obj
 0002:00003390       ??_C@_0L@OCBLLHBM@xpceGetTET?$AA@ 10066390     xpcruntime:xpcimports.obj
 0002:000033a0       ??_C@_0BG@HNOFBOB@xpceGetTET?5not?5found?6?$AA@ 100663a0     xpcruntime:xpcimports.obj
 0002:000033bc       ??_C@_0P@OKGNGAGH@xpcIsModelInit?$AA@ 100663bc     xpcruntime:xpcimports.obj
 0002:000033d0       ??_C@_0BK@DHEMLBIM@xpcIsModelInit?5not?5found?6?$AA@ 100663d0     xpcruntime:xpcimports.obj
 0002:000033f0       ??_C@_0BH@KJJLCAOJ@xpcAllocPhysicalMemory?$AA@ 100663f0     xpcruntime:xpcimports.obj
 0002:0000340c       ??_C@_0CC@MOJPNHKL@xpcAllocPhysicalMemory?5not?5found@ 1006640c     xpcruntime:xpcimports.obj
 0002:00003434       ??_C@_0BG@CBNPGAEL@xpcFreePhysicalMemory?$AA@ 10066434     xpcruntime:xpcimports.obj
 0002:00003450       ??_C@_0CB@PKJEBPOG@xpcFreePhysicalMemory?5not?5found?6@ 10066450     xpcruntime:xpcimports.obj
 0002:00003478       ??_C@_0BC@JGKNLICL@xpcGetElapsedTime?$AA@ 10066478     xpcruntime:xpcimports.obj
 0002:00003490       ??_C@_0BN@OEOAHCIO@xpcGetElapsedTime?5not?5found?6?$AA@ 10066490     xpcruntime:xpcimports.obj
 0002:000034b4       ??_C@_0M@ICBLMODA@xpcBusyWait?$AA@ 100664b4     xpcruntime:xpcimports.obj
 0002:000034c4       ??_C@_0BH@FBOPECBI@xpcBusyWait?5not?5found?6?$AA@ 100664c4     xpcruntime:xpcimports.obj
 0002:000034e0       ??_C@_0N@LKKJEKKA@TBCreateSpin?$AA@ 100664e0     xpcruntime:xpcimports.obj
 0002:000034f0       ??_C@_0BI@FHKMLKOE@TBCreateSpin?5not?5found?6?$AA@ 100664f0     xpcruntime:xpcimports.obj
 0002:0000350c       ??_C@_0N@HOAJHNBD@TBDeleteSpin?$AA@ 1006650c     xpcruntime:xpcimports.obj
 0002:0000351c       ??_C@_0BI@BKCPAAG@TBDeleteSpin?5not?5found?6?$AA@ 1006651c     xpcruntime:xpcimports.obj
 0002:00003538       ??_C@_0P@DAHDDBJG@TBTakeSpinFast?$AA@ 10066538     xpcruntime:xpcimports.obj
 0002:0000354c       ??_C@_0BK@NKAIBHGB@TBTakeSpinFast?5not?5found?6?$AA@ 1006654c     xpcruntime:xpcimports.obj
 0002:0000356c       ??_C@_0P@FKNAAELA@TBGiveSpinFast?$AA@ 1006656c     xpcruntime:xpcimports.obj
 0002:00003580       ??_C@_0BK@KGPJBJND@TBGiveSpinFast?5not?5found?6?$AA@ 10066580     xpcruntime:xpcimports.obj
 0002:000035a0       ??_C@_0BE@IIGBFDHK@xpceCreateSemaphore?$AA@ 100665a0     xpcruntime:xpcimports.obj
 0002:000035b8       ??_C@_0BP@KFBAFFKJ@xpceCreateSemaphore?5not?5found?6?$AA@ 100665b8     xpcruntime:xpcimports.obj
 0002:000035e0       ??_C@_0BC@IFNIONKJ@xpceWaitSemaphore?$AA@ 100665e0     xpcruntime:xpcimports.obj
 0002:000035f8       ??_C@_0BN@NMFAADIO@xpceWaitSemaphore?5not?5found?6?$AA@ 100665f8     xpcruntime:xpcimports.obj
 0002:0000361c       ??_C@_0BE@NNDIOBKE@xpceSignalSemaphore?$AA@ 1006661c     xpcruntime:xpcimports.obj
 0002:00003634       ??_C@_0BP@LBANMHJP@xpceSignalSemaphore?5not?5found?6?$AA@ 10066634     xpcruntime:xpcimports.obj
 0002:0000365c       ??_C@_0BE@MEBEKOIM@xpceDeleteSemaphore?$AA@ 1006665c     xpcruntime:xpcimports.obj
 0002:00003674       ??_C@_0BP@OFNCKOJH@xpceDeleteSemaphore?5not?5found?6?$AA@ 10066674     xpcruntime:xpcimports.obj
 0002:0000369c       ??_C@_0BD@MFNDMBOF@FindUsbVideoDevice?$AA@ 1006669c     xpcruntime:xpcimports.obj
 0002:000036b4       ??_C@_0BO@POKLDHMI@FindUsbVideoDevice?5not?5found?6?$AA@ 100666b4     xpcruntime:xpcimports.obj
 0002:000036d8       ??_C@_0BA@PLPAPNAB@GetVideoConfigs?$AA@ 100666d8     xpcruntime:xpcimports.obj
 0002:000036ec       ??_C@_0BL@DALDHKHC@GetVideoConfigs?5not?5found?6?$AA@ 100666ec     xpcruntime:xpcimports.obj
 0002:0000370c       ??_C@_0L@GBAEMHMH@StartVideo?$AA@ 1006670c     xpcruntime:xpcimports.obj
 0002:0000371c       ??_C@_0BG@HDCELEBP@StartVideo?5not?5found?6?$AA@ 1006671c     xpcruntime:xpcimports.obj
 0002:00003738       ??_C@_0BA@FDNPOCLN@ReadFrameBuffer?$AA@ 10066738     xpcruntime:xpcimports.obj
 0002:0000374c       ??_C@_0BL@JHGHPNBI@ReadFrameBuffer?5not?5found?6?$AA@ 1006674c     xpcruntime:xpcimports.obj
 0002:0000376c       ??_C@_09FAHCLKAG@StopVideo?$AA@ 1006676c     xpcruntime:xpcimports.obj
 0002:00003778       ??_C@_0BF@NKGKKADL@StopVideo?5not?5found?6?$AA@ 10066778     xpcruntime:xpcimports.obj
 0002:00003794       ??_C@_0O@MCPKDLLL@ConvertUImage?$AA@ 10066794     xpcruntime:xpcimports.obj
 0002:000037a4       ??_C@_0BJ@PHJKOAFL@ConvertUImage?5not?5found?6?$AA@ 100667a4     xpcruntime:xpcimports.obj
 0002:000037c4       ??_C@_0BD@NKCBPBJJ@CreateVideoDisplay?$AA@ 100667c4     xpcruntime:xpcimports.obj
 0002:000037dc       ??_C@_0BO@HPPLLNFP@CreateVideoDisplay?5not?5found?6?$AA@ 100667dc     xpcruntime:xpcimports.obj
 0002:00003800       ??_C@_0BE@KJCKGPHA@DestroyVideoDisplay?$AA@ 10066800     xpcruntime:xpcimports.obj
 0002:00003818       ??_C@_0BP@FMGLJAIJ@DestroyVideoDisplay?5not?5found?6?$AA@ 10066818     xpcruntime:xpcimports.obj
 0002:00003840       ??_C@_0BC@HCMIMIDN@StartVideoDisplay?$AA@ 10066840     xpcruntime:xpcimports.obj
 0002:00003858       ??_C@_0BN@EFIEBGOO@StartVideoDisplay?5not?5found?6?$AA@ 10066858     xpcruntime:xpcimports.obj
 0002:0000387c       ??_C@_0BB@JBBLMILG@StopVideoDisplay?$AA@ 1006687c     xpcruntime:xpcimports.obj
 0002:00003890       ??_C@_0BM@DBJBPLEL@StopVideoDisplay?5not?5found?6?$AA@ 10066890     xpcruntime:xpcimports.obj
 0002:000038b4       ??_C@_0M@MFJEGMHC@StreamVideo?$AA@ 100668b4     xpcruntime:xpcimports.obj
 0002:000038c4       ??_C@_0BH@OINCDMLA@StreamVideo?5not?5found?6?$AA@ 100668c4     xpcruntime:xpcimports.obj
 0002:000038e0       ??_C@_0N@IGGLCIGE@xpceaddEvent?$AA@ 100668e0     xpcruntime:xpcimports.obj
 0002:000038f0       ??_C@_0BI@NHJNFMKH@xpceaddEvent?5not?5found?6?$AA@ 100668f0     xpcruntime:xpcimports.obj
 0002:0000390c       ??_C@_0BB@HDPOIJAB@xpceDAQPostEvent?$AA@ 1006690c     xpcruntime:xpcimports.obj
 0002:00003920       ??_C@_0BM@IHANBKGN@xpceDAQPostEvent?5not?5found?6?$AA@ 10066920     xpcruntime:xpcimports.obj
 0002:00003944       ??_C@_0BH@MBACMOD@xpceDAQUpdateTimeStamp?$AA@ 10066944     xpcruntime:xpcimports.obj
 0002:00003960       ??_C@_0CC@DAKBBINL@xpceDAQUpdateTimeStamp?5not?5found@ 10066960     xpcruntime:xpcimports.obj
 0002:00003988       ??_C@_0BN@HJOHIFOM@xpceGetIntTimerGranularityNS?$AA@ 10066988     xpcruntime:xpcimports.obj
 0002:000039ac       ??_C@_0CI@OADDPMKB@xpceGetIntTimerGranularityNS?5not@ 100669ac     xpcruntime:xpcimports.obj
 0002:000039dc       ??_C@_0BG@CCHICKPN@slrteSetStepSizeDelta?$AA@ 100669dc     xpcruntime:xpcimports.obj
 0002:000039f8       ??_C@_0CB@MKHINEIJ@slrteSetStepSizeDelta?5not?5found?6@ 100669f8     xpcruntime:xpcimports.obj
 0002:00003a20       ??_C@_0BI@CLNBLDKJ@slrteGetCurrentStepSize?$AA@ 10066a20     xpcruntime:xpcimports.obj
 0002:00003a3c       ??_C@_0CD@GIOJPGJA@slrteGetCurrentStepSize?5not?5foun@ 10066a3c     xpcruntime:xpcimports.obj
 0002:00003a68       ??_C@_0BE@FCLCBOC@registerPTPTimeRead?$AA@ 10066a68     xpcruntime:xpcimports.obj
 0002:00003a80       ??_C@_0BP@LHPKAJIP@registerPTPTimeRead?5not?5found?6?$AA@ 10066a80     xpcruntime:xpcimports.obj
 0002:00003aa8       ??_C@_0BG@KIGCDDJI@unRegisterPTPTimeRead?$AA@ 10066aa8     xpcruntime:xpcimports.obj
 0002:00003ac4       ??_C@_0CB@MLFFBFCM@unRegisterPTPTimeRead?5not?5found?6@ 10066ac4     xpcruntime:xpcimports.obj
 0002:00003aec       ??_C@_0BB@IPMDDBHK@slTestInitialize?$AA@ 10066aec     xpcruntime:xpcimports.obj
 0002:00003b00       ??_C@_0BM@LAJFCCJH@slTestInitialize?5not?5found?6?$AA@ 10066b00     xpcruntime:xpcimports.obj
 0002:00003b24       ??_C@_0BF@OOMPMEBC@slTestLogAssessments?$AA@ 10066b24     xpcruntime:xpcimports.obj
 0002:00003b40       ??_C@_0CA@FGJCEBAG@slTestLogAssessments?5not?5found?6?$AA@ 10066b40     xpcruntime:xpcimports.obj
 0002:00003b68       ??_C@_0BB@HJHKONHO@slTestEvalOnFail?$AA@ 10066b68     xpcruntime:xpcimports.obj
 0002:00003b7c       ??_C@_0BM@JIKCFFNJ@slTestEvalOnFail?5not?5found?6?$AA@ 10066b7c     xpcruntime:xpcimports.obj
 0002:00003ba0       ??_C@_0BA@LBHLABFP@slTestTerminate?$AA@ 10066ba0     xpcruntime:xpcimports.obj
 0002:00003bb4       ??_C@_0BL@EMFGKAPA@slTestTerminate?5not?5found?6?$AA@ 10066bb4     xpcruntime:xpcimports.obj
 0002:00003bd4       ??_C@_0BE@JPNPBBEO@slTestRegAssessment?$AA@ 10066bd4     xpcruntime:xpcimports.obj
 0002:00003bec       ??_C@_0BP@FBDEJJJH@slTestRegAssessment?5not?5found?6?$AA@ 10066bec     xpcruntime:xpcimports.obj
 0002:00003c14       ??_C@_0O@NCLGDNIB@slrteSetupMSI?$AA@ 10066c14     xpcruntime:xpcimports.obj
 0002:00003c24       ??_C@_0BJ@HEFMECLM@slrteSetupMSI?5not?5found?6?$AA@ 10066c24     xpcruntime:xpcimports.obj
 0002:00003c44       ??_C@_0BH@BPOLALHD@slrtGetCRBScratchSpace?$AA@ 10066c44     xpcruntime:xpcimports.obj
 0002:00003c60       ??_C@_0CC@KCKAJKKJ@slrtGetCRBScratchSpace?5not?5found@ 10066c60     xpcruntime:xpcimports.obj
 0002:00003c88       ??_C@_0BC@MKFDAKOL@slrtGetSgCRBSpace?$AA@ 10066c88     xpcruntime:xpcimports.obj
 0002:00003ca0       ??_C@_0BN@JDPHPLHL@slrtGetSgCRBSpace?5not?5found?6?$AA@ 10066ca0     xpcruntime:xpcimports.obj
 0002:00003cc4       ??_C@_0P@EPAPKLIF@slrtfsOpenFile?$AA@ 10066cc4     xpcruntime:xpcimports.obj
 0002:00003cd8       ??_C@_0BK@FIHCBOHG@slrtfsOpenFile?5not?5found?6?$AA@ 10066cd8     xpcruntime:xpcimports.obj
 0002:00003cf8       ??_C@_0BA@LILAFDDL@slrtfsCloseFile?$AA@ 10066cf8     xpcruntime:xpcimports.obj
 0002:00003d0c       ??_C@_0BL@DEGHJFIB@slrtfsCloseFile?5not?5found?6?$AA@ 10066d0c     xpcruntime:xpcimports.obj
 0002:00003d2c       ??_C@_0BC@OKMJDIEH@slrtfsWriteToFile?$AA@ 10066d2c     xpcruntime:xpcimports.obj
 0002:00003d44       ??_C@_0BN@KCFLCLAH@slrtfsWriteToFile?5not?5found?6?$AA@ 10066d44     xpcruntime:xpcimports.obj
 0002:00003d68       ??_C@_0BK@GIPNFFFF@slrtfsGetFileErrorMessage?$AA@ 10066d68     xpcruntime:xpcimports.obj
 0002:00003d88       ??_C@_0CF@BCBLMKLE@slrtfsGetFileErrorMessage?5not?5fo@ 10066d88     xpcruntime:xpcimports.obj
 0002:00003db4       ??_C@_0BD@ICBOKMK@slrtfsGetFileError?$AA@ 10066db4     xpcruntime:xpcimports.obj
 0002:00003dcc       ??_C@_0BO@FNBANAE@slrtfsGetFileError?5not?5found?6?$AA@ 10066dcc     xpcruntime:xpcimports.obj
 0002:00003df0       ??_C@_0BE@PPAJMHJP@slrtfsOpenFileAsync?$AA@ 10066df0     xpcruntime:xpcimports.obj
 0002:00003e08       ??_C@_0BP@HKBMMJOK@slrtfsOpenFileAsync?5not?5found?6?$AA@ 10066e08     xpcruntime:xpcimports.obj
 0002:00003e30       ??_C@_0BF@IGNDIBPF@slrtfsCloseFileAsync?$AA@ 10066e30     xpcruntime:xpcimports.obj
 0002:00003e4c       ??_C@_0CA@GJPFDBKN@slrtfsCloseFileAsync?5not?5found?6?$AA@ 10066e4c     xpcruntime:xpcimports.obj
 0002:00003e74       ??_C@_0BE@IOLEBNB@slrtfsGetFileStatus?$AA@ 10066e74     xpcruntime:xpcimports.obj
 0002:00003e8c       ??_C@_0BP@PEFHDGHL@slrtfsGetFileStatus?5not?5found?6?$AA@ 10066e8c     xpcruntime:xpcimports.obj
 0002:00003eb4       ??_C@_0M@HKIJIMG@slrtfsFread?$AA@ 10066eb4     xpcruntime:xpcimports.obj
 0002:00003ec4       ??_C@_0BH@OOKBGONO@slrtfsFread?5not?5found?6?$AA@ 10066ec4     xpcruntime:xpcimports.obj
 0002:00003ee0       ??_C@_0BE@OGCMPLAP@slrtGetDefaultDrive?$AA@ 10066ee0     xpcruntime:xpcimports.obj
 0002:00003ef8       ??_C@_0BP@HKFGLHOE@slrtGetDefaultDrive?5not?5found?6?$AA@ 10066ef8     xpcruntime:xpcimports.obj
 0002:00003f20       ??_C@_0N@NAJIKFFI@slrtLogEvent?$AA@ 10066f20     xpcruntime:xpcimports.obj
 0002:00003f30       ??_C@_0BI@NKCEACND@slrtLogEvent?5not?5found?6?$AA@ 10066f30     xpcruntime:xpcimports.obj
 0002:00003f4c       ??_C@_0N@IDKFJOHI@getlasterror?$AA@ 10066f4c     xpcruntime:xpcimports.obj
 0002:00003f5c       ??_C@_0BI@MIHMCHGL@getlasterror?5not?5found?6?$AA@ 10066f5c     xpcruntime:xpcimports.obj
 0002:00003f78       ??_C@_0P@OKHGKJKN@geterrorstring?$AA@ 10066f78     xpcruntime:xpcimports.obj
 0002:00003f8c       ??_C@_0BK@NOHFDMLP@geterrorstring?5not?5found?6?$AA@ 10066f8c     xpcruntime:xpcimports.obj
 0002:00003fac       ??_C@_0BD@HNFFKMGJ@slrtGetCPUTCelsius?$AA@ 10066fac     xpcruntime:xpcimports.obj
 0002:00003fc4       ??_C@_0BO@LHBFKLIH@slrtGetCPUTCelsius?5not?5found?6?$AA@ 10066fc4     xpcruntime:xpcimports.obj
 0002:00003fe8       ??_C@_0M@OONCNCLM@slrtWarning?$AA@ 10066fe8     xpcruntime:xpcimports.obj
 0002:00003ff8       ??_C@_0BH@ICKGIEMB@slrtWarning?5not?5found?6?$AA@ 10066ff8     xpcruntime:xpcimports.obj
 0002:00004014       ??_C@_0N@EAAOMIIE@isUsedByRTIP?$AA@ 10067014     xpcruntime:xpcimports.obj
 0002:00004024       ??_C@_0BI@GNHHHICK@isUsedByRTIP?5not?5found?6?$AA@ 10067024     xpcruntime:xpcimports.obj
 0002:00004040       ??_C@_0BC@HLDKJAG@SetIPTASKPriority?$AA@ 10067040     xpcruntime:xpcimports.obj
 0002:00004058       ??_C@_0BN@OGKMHHAE@SetIPTASKPriority?5not?5found?6?$AA@ 10067058     xpcruntime:xpcimports.obj
 0002:0000407c       ??_C@_0O@LHENMBDD@OpenInterface?$AA@ 1006707c     xpcruntime:xpcimports.obj
 0002:0000408c       ??_C@_0BJ@PFGDBKHB@OpenInterface?5not?5found?6?$AA@ 1006708c     xpcruntime:xpcimports.obj
 0002:000040ac       ??_C@_0P@IINFELKD@CloseInterface?$AA@ 100670ac     xpcruntime:xpcimports.obj
 0002:000040c0       ??_C@_0BK@PAPDNDBK@CloseInterface?5not?5found?6?$AA@ 100670c0     xpcruntime:xpcimports.obj
 0002:000040e0       ??_C@_05LEFIAAOI@SetIP?$AA@ 100670e0     xpcruntime:xpcimports.obj
 0002:000040e8       ??_C@_0BB@CGLIBAMM@SetIP?5not?5found?6?$AA@ 100670e8     xpcruntime:xpcimports.obj
 0002:000040fc       ??_C@_0BA@HIJJHHMD@AddGatewayRoute?$AA@ 100670fc     xpcruntime:xpcimports.obj
 0002:00004110       ??_C@_0BL@BFCFMDMN@AddGatewayRoute?5not?5found?6?$AA@ 10067110     xpcruntime:xpcimports.obj
 0002:00004130       ??_C@_0M@PHMABFPI@DeleteRoute?$AA@ 10067130     xpcruntime:xpcimports.obj
 0002:00004140       ??_C@_0BH@JPJGLLID@DeleteRoute?5not?5found?6?$AA@ 10067140     xpcruntime:xpcimports.obj
 0002:0000415c       ??_C@_0BA@FCDIMKIJ@GetHostTarIPAdd?$AA@ 1006715c     xpcruntime:xpcimports.obj
 0002:00004170       ??_C@_0BL@MBKDGKBO@GetHostTarIPAdd?5not?5found?6?$AA@ 10067170     xpcruntime:xpcimports.obj
 0002:00004190       ??_C@_0M@HPMIPIBI@GetDCUUsage?$AA@ 10067190     xpcruntime:xpcimports.obj
 0002:000041a0       ??_C@_0BH@EBLJKCJC@GetDCUUsage?5not?5found?6?$AA@ 100671a0     xpcruntime:xpcimports.obj
 0002:000041bc       ??_C@_06MPKMECK@accept?$AA@ 100671bc     xpcruntime:xpcimports.obj
 0002:000041c4       ??_C@_0BC@GBGIEMNO@accept?5not?5found?6?$AA@ 100671c4     xpcruntime:xpcimports.obj
 0002:000041dc       ??_C@_04NPNJNMMP@bind?$AA@ 100671dc     xpcruntime:xpcimports.obj
 0002:000041e4       ??_C@_0BA@DAJNENLO@bind?5not?5found?6?$AA@ 100671e4     xpcruntime:xpcimports.obj
 0002:000041f8       ??_C@_0L@CKHNIFCM@setsockopt?$AA@ 100671f8     xpcruntime:xpcimports.obj
 0002:00004208       ??_C@_0BG@MFIIOMFE@setsockopt?5not?5found?6?$AA@ 10067208     xpcruntime:xpcimports.obj
 0002:00004224       ??_C@_0M@ODDJDCDK@closesocket?$AA@ 10067224     xpcruntime:xpcimports.obj
 0002:00004234       ??_C@_0BH@JHGHMIL@closesocket?5not?5found?6?$AA@ 10067234     xpcruntime:xpcimports.obj
 0002:00004250       ??_C@_07KAIBNCHO@connect?$AA@ 10067250     xpcruntime:xpcimports.obj
 0002:0000425c       ??_C@_0BD@MKLLMBM@connect?5not?5found?6?$AA@ 1006725c     xpcruntime:xpcimports.obj
 0002:00004274       ??_C@_0M@PBPOCKDG@ioctlsocket?$AA@ 10067274     xpcruntime:xpcimports.obj
 0002:00004284       ??_C@_0BH@NFCNHHIH@ioctlsocket?5not?5found?6?$AA@ 10067284     xpcruntime:xpcimports.obj
 0002:000042a0       ??_C@_06OODDLKLE@listen?$AA@ 100672a0     xpcruntime:xpcimports.obj
 0002:000042a8       ??_C@_0BC@NHBILEKI@listen?5not?5found?6?$AA@ 100672a8     xpcruntime:xpcimports.obj
 0002:000042c0       ??_C@_08HMBBGFHE@recvfrom?$AA@ 100672c0     xpcruntime:xpcimports.obj
 0002:000042cc       ??_C@_0BE@BJAJFFLF@recvfrom?5not?5found?6?$AA@ 100672cc     xpcruntime:xpcimports.obj
 0002:000042e4       ??_C@_06MEPBGKEC@sendto?$AA@ 100672e4     xpcruntime:xpcimports.obj
 0002:000042ec       ??_C@_0BC@BHPIMDJO@sendto?5not?5found?6?$AA@ 100672ec     xpcruntime:xpcimports.obj
 0002:00004304       ??_C@_09JKBDEEOB@inet_addr?$AA@ 10067304     xpcruntime:xpcimports.obj
 0002:00004310       ??_C@_0BF@HKJPGECN@inet_addr?5not?5found?6?$AA@ 10067310     xpcruntime:xpcimports.obj
 0002:0000432c       ??_C@_06HBELJPBO@socket?$AA@ 1006732c     xpcruntime:xpcimports.obj
 0002:00004334       ??_C@_0BC@NAGFFJGA@socket?5not?5found?6?$AA@ 10067334     xpcruntime:xpcimports.obj
 0002:0000434c       ??_C@_09ICJIFGNC@GetSocket?$AA@ 1006734c     xpcruntime:xpcimports.obj
 0002:00004358       ??_C@_0BF@KDBCKMOJ@GetSocket?5not?5found?6?$AA@ 10067358     xpcruntime:xpcimports.obj
 0002:00004374       ??_C@_0P@KJEGJMJI@GetSocketState?$AA@ 10067374     xpcruntime:xpcimports.obj
 0002:00004388       ??_C@_0BK@IALBJHEB@GetSocketState?5not?5found?6?$AA@ 10067388     xpcruntime:xpcimports.obj
 0002:000043a8       ??_C@_0L@MEAJHNHB@SocketSend?$AA@ 100673a8     xpcruntime:xpcimports.obj
 0002:000043b8       ??_C@_0BG@EOCMBFJA@SocketSend?5not?5found?6?$AA@ 100673b8     xpcruntime:xpcimports.obj
 0002:000043d4       ??_C@_0O@PFPCLEMF@SocketReceive?$AA@ 100673d4     xpcruntime:xpcimports.obj
 0002:000043e4       ??_C@_0BJ@HIBADDFO@SocketReceive?5not?5found?6?$AA@ 100673e4     xpcruntime:xpcimports.obj
 0002:00004404       ??_C@_0BD@OOGFNAIK@CreateServerSocket?$AA@ 10067404     xpcruntime:xpcimports.obj
 0002:0000441c       ??_C@_0BO@GKIJHIPH@CreateServerSocket?5not?5found?6?$AA@ 1006741c     xpcruntime:xpcimports.obj
 0002:00004440       ??_C@_0BB@KGHJGFFO@OpenServerListen?$AA@ 10067440     xpcruntime:xpcimports.obj
 0002:00004454       ??_C@_0BM@NFMMLIO@OpenServerListen?5not?5found?6?$AA@ 10067454     xpcruntime:xpcimports.obj
 0002:00004478       ??_C@_0BE@BAJLDJAH@ConnectServerSocket?$AA@ 10067478     xpcruntime:xpcimports.obj
 0002:00004490       ??_C@_0BP@KJNODIKE@ConnectServerSocket?5not?5found?6?$AA@ 10067490     xpcruntime:xpcimports.obj
 0002:000044b8       ??_C@_0BC@PLKKJDIM@CloseServerSocket?$AA@ 100674b8     xpcruntime:xpcimports.obj
 0002:000044d0       ??_C@_0BN@KEJEPNMB@CloseServerSocket?5not?5found?6?$AA@ 100674d0     xpcruntime:xpcimports.obj
 0002:000044f4       ??_C@_0BD@MCLPKCPP@CreateClientSocket?$AA@ 100674f4     xpcruntime:xpcimports.obj
 0002:0000450c       ??_C@_0BO@DILAGPFN@CreateClientSocket?5not?5found?6?$AA@ 1006750c     xpcruntime:xpcimports.obj
 0002:00004530       ??_C@_0BB@DAPKNNLG@BindClientSocket?$AA@ 10067530     xpcruntime:xpcimports.obj
 0002:00004544       ??_C@_0BM@LLLMMDFN@BindClientSocket?5not?5found?6?$AA@ 10067544     xpcruntime:xpcimports.obj
 0002:00004568       ??_C@_0BE@DMEBELHC@ConnectClientSocket?$AA@ 10067568     xpcruntime:xpcimports.obj
 0002:00004580       ??_C@_0BP@PLOHCPAO@ConnectClientSocket?5not?5found?6?$AA@ 10067580     xpcruntime:xpcimports.obj
 0002:000045a8       ??_C@_0BC@NHHAOBPJ@CloseClientSocket?$AA@ 100675a8     xpcruntime:xpcimports.obj
 0002:000045c0       ??_C@_0BN@PGKNOKGL@CloseClientSocket?5not?5found?6?$AA@ 100675c0     xpcruntime:xpcimports.obj
 0002:00004698       __pRawDllMain              10067698     LIBCMT:dll_dllmain.obj
 0002:00004698       __pDefaultRawDllMain       10067698     LIBCMT:dll_dllmain.obj
 0002:000046b0       ??_C@_1BC@DNHGCMLG@?$AAa?$AAd?$AAv?$AAa?$AAp?$AAi?$AA3?$AA2?$AA?$AA@ 100676b0     libvcruntime:winapi_downlevel.obj
 0002:000046c8       ??_C@_1DM@KHCHBNEB@?$AAa?$AAp?$AAi?$AA?9?$AAm?$AAs?$AA?9?$AAw?$AAi?$AAn?$AA?9?$AAc?$AAo?$AAr?$AAe?$AA?9?$AAf?$AAi?$AAb?$AAe?$AAr?$AAs?$AA?9?$AAl?$AA1?$AA?9?$AA1?$AA?9?$AA1?$AA?$AA@ 100676c8     libvcruntime:winapi_downlevel.obj
 0002:00004710       ??_C@_1DK@LPPGFMPP@?$AAa?$AAp?$AAi?$AA?9?$AAm?$AAs?$AA?9?$AAw?$AAi?$AAn?$AA?9?$AAc?$AAo?$AAr?$AAe?$AA?9?$AAs?$AAy?$AAn?$AAc?$AAh?$AA?9?$AAl?$AA1?$AA?9?$AA2?$AA?9?$AA0?$AA?$AA@ 10067710     libvcruntime:winapi_downlevel.obj
 0002:00004758       ??_C@_1BC@GDMECMAK@?$AAk?$AAe?$AAr?$AAn?$AAe?$AAl?$AA3?$AA2?$AA?$AA@ 10067758     libvcruntime:winapi_downlevel.obj
 0002:00004774       ??_C@_0O@BAMBGLIE@EventRegister?$AA@ 10067774     libvcruntime:winapi_downlevel.obj
 0002:00004788       ??_C@_0BE@BJEEGHGK@EventSetInformation?$AA@ 10067788     libvcruntime:winapi_downlevel.obj
 0002:000047a4       ??_C@_0BA@FAKLIPIC@EventUnregister?$AA@ 100677a4     libvcruntime:winapi_downlevel.obj
 0002:000047bc       ??_C@_0BD@PKLHJPHD@EventWriteTransfer?$AA@ 100677bc     libvcruntime:winapi_downlevel.obj
 0002:000047e0       ??_C@_08KNHFBNJ@FlsAlloc?$AA@ 100677e0     libvcruntime:winapi_downlevel.obj
 0002:000047f8       ??_C@_07PEJMOBNF@FlsFree?$AA@ 100677f8     libvcruntime:winapi_downlevel.obj
 0002:00004810       ??_C@_0M@GDNOONDI@FlsGetValue?$AA@ 10067810     libvcruntime:winapi_downlevel.obj
 0002:0000482c       ??_C@_0M@JCPCPOEF@FlsSetValue?$AA@ 1006782c     libvcruntime:winapi_downlevel.obj
 0002:00004848       ??_C@_0BM@HCFOFFN@InitializeCriticalSectionEx?$AA@ 10067848     libvcruntime:winapi_downlevel.obj
 0002:00004a50       ??_C@_08EHJDFFNH@__based?$CI?$AA@ 10067a50     libvcruntime:undname.obj
 0002:00004a5c       ??_C@_07KOLFKCDI@__cdecl?$AA@ 10067a5c     libvcruntime:undname.obj
 0002:00004a68       ??_C@_08GHMPAG@__pascal?$AA@ 10067a68     libvcruntime:undname.obj
 0002:00004a74       ??_C@_09IFJBGAPI@__stdcall?$AA@ 10067a74     libvcruntime:undname.obj
 0002:00004a80       ??_C@_0L@NPHFGOKO@__thiscall?$AA@ 10067a80     libvcruntime:undname.obj
 0002:00004a90       ??_C@_0L@JMKHOMEK@__fastcall?$AA@ 10067a90     libvcruntime:undname.obj
 0002:00004aa0       ??_C@_0N@BCKKPABJ@__vectorcall?$AA@ 10067aa0     libvcruntime:undname.obj
 0002:00004ab0       ??_C@_09HIJEGCPM@__clrcall?$AA@ 10067ab0     libvcruntime:undname.obj
 0002:00004abc       ??_C@_06GHPCKEAG@__eabi?$AA@ 10067abc     libvcruntime:undname.obj
 0002:00004ac4       ??_C@_07JOMMBBKO@__ptr64?$AA@ 10067ac4     libvcruntime:undname.obj
 0002:00004ad0       ??_C@_0L@PILCLIHE@__restrict?$AA@ 10067ad0     libvcruntime:undname.obj
 0002:00004ae0       ??_C@_0M@GFIIJFMG@__unaligned?$AA@ 10067ae0     libvcruntime:undname.obj
 0002:00004af0       ??_C@_09DHDLOLLB@restrict?$CI?$AA@ 10067af0     libvcruntime:undname.obj
 0002:00004afc       ??_C@_04NIHEBCM@?5new?$AA@ 10067afc     libvcruntime:undname.obj
 0002:00004b04       ??_C@_07FPCDHGMM@?5delete?$AA@ 10067b04     libvcruntime:undname.obj
 0002:00004b10       ??_C@_01NEMOKFLO@?$DN?$AA@ 10067b10     libvcruntime:undname.obj
 0002:00004b14       ??_C@_02GPIOPFAK@?$DO?$DO?$AA@ 10067b14     libvcruntime:undname.obj
 0002:00004b18       ??_C@_02FODMEDOG@?$DM?$DM?$AA@ 10067b18     libvcruntime:undname.obj
 0002:00004b1c       ??_C@_01DCLJPIOD@?$CB?$AA@ 10067b1c     libvcruntime:undname.obj
 0002:00004b20       ??_C@_02EGOFBIJA@?$DN?$DN?$AA@ 10067b20     libvcruntime:undname.obj
 0002:00004b24       ??_C@_02FDNJECIE@?$CB?$DN?$AA@ 10067b24     libvcruntime:undname.obj
 0002:00004b28       ??_C@_02GPECMEKF@?$FL?$FN?$AA@ 10067b28     libvcruntime:undname.obj
 0002:00004b2c       ??_C@_08LHJFAFGD@operator?$AA@ 10067b2c     libvcruntime:undname.obj
 0002:00004b38       ??_C@_02HBOOOICD@?9?$DO?$AA@ 10067b38     libvcruntime:undname.obj
 0002:00004b3c       ??_C@_01NBENCBCI@?$CK?$AA@ 10067b3c     libvcruntime:undname.obj
 0002:00004b40       ??_C@_02ECNGHCIF@?$CL?$CL?$AA@ 10067b40     libvcruntime:undname.obj
 0002:00004b44       ??_C@_02BAABKJLB@?9?9?$AA@ 10067b44     libvcruntime:undname.obj
 0002:00004b48       ??_C@_01JOAMLHOP@?9?$AA@   10067b48     libvcruntime:undname.obj
 0002:00004b4c       ??_C@_01MIFGBAGJ@?$CL?$AA@ 10067b4c     libvcruntime:undname.obj
 0002:00004b50       ??_C@_01HNPIGOCE@?$CG?$AA@ 10067b50     libvcruntime:undname.obj
 0002:00004b54       ??_C@_03MNHNFDLC@?9?$DO?$CK?$AA@ 10067b54     libvcruntime:undname.obj
 0002:00004b58       ??_C@_01KMDKNFGN@?1?$AA@   10067b58     libvcruntime:undname.obj
 0002:00004b5c       ??_C@_01FGNFDNOH@?$CF?$AA@ 10067b5c     libvcruntime:undname.obj
 0002:00004b60       ??_C@_01MNNFJEPP@?$DM?$AA@ 10067b60     libvcruntime:undname.obj
 0002:00004b64       ??_C@_02EHCHHCKH@?$DM?$DN?$AA@ 10067b64     libvcruntime:undname.obj
 0002:00004b68       ??_C@_01PPODPGHN@?$DO?$AA@ 10067b68     libvcruntime:undname.obj
 0002:00004b6c       ??_C@_02EEKDKGMJ@?$DO?$DN?$AA@ 10067b6c     libvcruntime:undname.obj
 0002:00004b70       ??_C@_01IHBHIGKO@?0?$AA@   10067b70     libvcruntime:undname.obj
 0002:00004b74       ??_C@_02HCKGKOFO@?$CI?$CJ?$AA@ 10067b74     libvcruntime:undname.obj
 0002:00004b78       ??_C@_01PJKLJHI@?$HO?$AA@  10067b78     libvcruntime:undname.obj
 0002:00004b7c       ??_C@_01JKBOJNNK@?$FO?$AA@ 10067b7c     libvcruntime:undname.obj
 0002:00004b80       ??_C@_01DNKMNLPK@?$HM?$AA@ 10067b80     libvcruntime:undname.obj
 0002:00004b84       ??_C@_02PPKAJPJL@?$CG?$CG?$AA@ 10067b84     libvcruntime:undname.obj
 0002:00004b88       ??_C@_02NONPIBCD@?$HM?$HM?$AA@ 10067b88     libvcruntime:undname.obj
 0002:00004b8c       ??_C@_02FPIMKNGF@?$CK?$DN?$AA@ 10067b8c     libvcruntime:undname.obj
 0002:00004b90       ??_C@_02FOEOMHFC@?$CL?$DN?$AA@ 10067b90     libvcruntime:undname.obj
 0002:00004b94       ??_C@_02FKMDLLOA@?9?$DN?$AA@ 10067b94     libvcruntime:undname.obj
 0002:00004b98       ??_C@_02FJEHGPIO@?1?$DN?$AA@ 10067b98     libvcruntime:undname.obj
 0002:00004b9c       ??_C@_02FENAOKFI@?$CF?$DN?$AA@ 10067b9c     libvcruntime:undname.obj
 0002:00004ba0       ??_C@_03IKFCCPFF@?$DO?$DO?$DN?$AA@ 10067ba0     libvcruntime:undname.obj
 0002:00004ba4       ??_C@_03CDNPDDLA@?$DM?$DM?$DN?$AA@ 10067ba4     libvcruntime:undname.obj
 0002:00004ba8       ??_C@_02FGJGFEAB@?$CG?$DN?$AA@ 10067ba8     libvcruntime:undname.obj
 0002:00004bac       ??_C@_02DHLNPPGH@?$HM?$DN?$AA@ 10067bac     libvcruntime:undname.obj
 0002:00004bb0       ??_C@_02MHEGNOJ@?$FO?$DN?$AA@ 10067bb0     libvcruntime:undname.obj
 0002:00004bb4       ??_C@_09IFPLHPGF@?$GAvftable?8?$AA@ 10067bb4     libvcruntime:undname.obj
 0002:00004bc0       ??_C@_09BLBHBJP@?$GAvbtable?8?$AA@ 10067bc0     libvcruntime:undname.obj
 0002:00004bcc       ??_C@_07FEEIOKP@?$GAvcall?8?$AA@ 10067bcc     libvcruntime:undname.obj
 0002:00004bd8       ??_C@_08LLFFHHDJ@?$GAtypeof?8?$AA@ 10067bd8     libvcruntime:undname.obj
 0002:00004be4       ??_C@_0BF@KDPPACIK@?$GAlocal?5static?5guard?8?$AA@ 10067be4     libvcruntime:undname.obj
 0002:00004c00       ??_C@_08OBABFOLI@?$GAstring?8?$AA@ 10067c00     libvcruntime:undname.obj
 0002:00004c0c       ??_C@_0BD@JDLKDPAB@?$GAvbase?5destructor?8?$AA@ 10067c0c     libvcruntime:undname.obj
 0002:00004c24       ??_C@_0BN@DEGPLNFK@?$GAvector?5deleting?5destructor?8?$AA@ 10067c24     libvcruntime:undname.obj
 0002:00004c48       ??_C@_0BO@OBMKPJIG@?$GAdefault?5constructor?5closure?8?$AA@ 10067c48     libvcruntime:undname.obj
 0002:00004c6c       ??_C@_0BN@IMDCHIKM@?$GAscalar?5deleting?5destructor?8?$AA@ 10067c6c     libvcruntime:undname.obj
 0002:00004c90       ??_C@_0BO@PFGOCPJJ@?$GAvector?5constructor?5iterator?8?$AA@ 10067c90     libvcruntime:undname.obj
 0002:00004cb4       ??_C@_0BN@LFPFMEDL@?$GAvector?5destructor?5iterator?8?$AA@ 10067cb4     libvcruntime:undname.obj
 0002:00004cd8       ??_C@_0CE@IKBNEHA@?$GAvector?5vbase?5constructor?5iterat@ 10067cd8     libvcruntime:undname.obj
 0002:00004d04       ??_C@_0BL@NILFHHPC@?$GAvirtual?5displacement?5map?8?$AA@ 10067d04     libvcruntime:undname.obj
 0002:00004d24       ??_C@_0CB@JONCMFFK@?$GAeh?5vector?5constructor?5iterator?8@ 10067d24     libvcruntime:undname.obj
 0002:00004d4c       ??_C@_0CA@GCEOPDGL@?$GAeh?5vector?5destructor?5iterator?8?$AA@ 10067d4c     libvcruntime:undname.obj
 0002:00004d74       ??_C@_0CH@OOJPLCPH@?$GAeh?5vector?5vbase?5constructor?5ite@ 10067d74     libvcruntime:undname.obj
 0002:00004da4       ??_C@_0BL@LLKPOHJI@?$GAcopy?5constructor?5closure?8?$AA@ 10067da4     libvcruntime:undname.obj
 0002:00004dc4       ??_C@_0BA@KBCDOMBN@?$GAudt?5returning?8?$AA@ 10067dc4     libvcruntime:undname.obj
 0002:00004dd8       ??_C@_03KLGMFNMG@?$GAEH?$AA@ 10067dd8     libvcruntime:undname.obj
 0002:00004ddc       ??_C@_05KHLCHHI@?$GARTTI?$AA@ 10067ddc     libvcruntime:undname.obj
 0002:00004de4       ??_C@_0BA@KKLDJDLB@?$GAlocal?5vftable?8?$AA@ 10067de4     libvcruntime:undname.obj
 0002:00004df8       ??_C@_0CE@IIHCMGGL@?$GAlocal?5vftable?5constructor?5closu@ 10067df8     libvcruntime:undname.obj
 0002:00004e24       ??_C@_06FHBGPFGH@?5new?$FL?$FN?$AA@ 10067e24     libvcruntime:undname.obj
 0002:00004e2c       ??_C@_09LBNFPBCA@?5delete?$FL?$FN?$AA@ 10067e2c     libvcruntime:undname.obj
 0002:00004e38       ??_C@_0P@HJKNJFNN@?$GAomni?5callsig?8?$AA@ 10067e38     libvcruntime:undname.obj
 0002:00004e4c       ??_C@_0BL@CNOONJFP@?$GAplacement?5delete?5closure?8?$AA@ 10067e4c     libvcruntime:undname.obj
 0002:00004e6c       ??_C@_0BN@CKNJLHMB@?$GAplacement?5delete?$FL?$FN?5closure?8?$AA@ 10067e6c     libvcruntime:undname.obj
 0002:00004e90       ??_C@_0CG@CFDHKGGD@?$GAmanaged?5vector?5constructor?5iter@ 10067e90     libvcruntime:undname.obj
 0002:00004ec0       ??_C@_0CF@IMGKMJNO@?$GAmanaged?5vector?5destructor?5itera@ 10067ec0     libvcruntime:undname.obj
 0002:00004eec       ??_C@_0CG@HLDDJMAG@?$GAeh?5vector?5copy?5constructor?5iter@ 10067eec     libvcruntime:undname.obj
 0002:00004f1c       ??_C@_0CM@FCBBDIGB@?$GAeh?5vector?5vbase?5copy?5constructo@ 10067f1c     libvcruntime:undname.obj
 0002:00004f50       ??_C@_0BL@CLIPGLGB@?$GAdynamic?5initializer?5for?5?8?$AA@ 10067f50     libvcruntime:undname.obj
 0002:00004f70       ??_C@_0CB@PDBIFEP@?$GAdynamic?5atexit?5destructor?5for?5?8@ 10067f70     libvcruntime:undname.obj
 0002:00004f98       ??_C@_0CD@CGAJBKEJ@?$GAvector?5copy?5constructor?5iterato@ 10067f98     libvcruntime:undname.obj
 0002:00004fc4       ??_C@_0CJ@GJELGAMM@?$GAvector?5vbase?5copy?5constructor?5i@ 10067fc4     libvcruntime:undname.obj
 0002:00004ff8       ??_C@_0CL@FGIJHLCE@?$GAmanaged?5vector?5copy?5constructor@ 10067ff8     libvcruntime:undname.obj
 0002:0000502c       ??_C@_0BM@PMGGMLDN@?$GAlocal?5static?5thread?5guard?8?$AA@ 1006802c     libvcruntime:undname.obj
 0002:00005050       ??_C@_0N@BDNMDMOL@operator?5?$CC?$CC?5?$AA@ 10068050     libvcruntime:undname.obj
 0002:00005060       ??_C@_0BC@DAFEJGAK@?5Type?5Descriptor?8?$AA@ 10068060     libvcruntime:undname.obj
 0002:00005078       ??_C@_0BM@LDKODKLH@?5Base?5Class?5Descriptor?5at?5?$CI?$AA@ 10068078     libvcruntime:undname.obj
 0002:0000509c       ??_C@_0BD@LGICGFMM@?5Base?5Class?5Array?8?$AA@ 1006809c     libvcruntime:undname.obj
 0002:000050b4       ??_C@_0BN@MECKDCOJ@?5Class?5Hierarchy?5Descriptor?8?$AA@ 100680b4     libvcruntime:undname.obj
 0002:000050d8       ??_C@_0BK@CFCOFLF@?5Complete?5Object?5Locator?8?$AA@ 100680d8     libvcruntime:undname.obj
 0002:000050f8       ??_C@_04HEJADOOB@CV?3?5?$AA@ 100680f8     libvcruntime:undname.obj
 0002:00005100       ??_C@_02MOLJINC@?3?3?$AA@  10068100     libvcruntime:undname.obj
 0002:00005104       ??_C@_0BE@JAEOCHPE@template?9parameter?9?$AA@ 10068104     libvcruntime:undname.obj
 0002:0000511c       ??_C@_0O@KHGCOMHP@generic?9type?9?$AA@ 1006811c     libvcruntime:undname.obj
 0002:0000512c       ??_C@_01NLNLIGKH@?$GA?$AA@ 1006812c     libvcruntime:undname.obj
 0002:00005130       ??_C@_01GEODFPGF@?8?$AA@   10068130     libvcruntime:undname.obj
 0002:00005134       ??_C@_0BG@JNJLAMPM@?$GAanonymous?5namespace?8?$AA@ 10068134     libvcruntime:undname.obj
 0002:00005150       ??_C@_02OHHJMEON@?8?8?$AA@ 10068150     libvcruntime:undname.obj
 0002:00005154       ??_C@_0BN@IBLMMFAP@?$GAnon?9type?9template?9parameter?$AA@ 10068154     libvcruntime:undname.obj
 0002:00005178       ??_C@_04GKJNKENE@void?$AA@ 10068178     libvcruntime:undname.obj
 0002:00005180       ??_C@_0BE@EODMJLIF@?$GAtemplate?9parameter?$AA@ 10068180     libvcruntime:undname.obj
 0002:00005198       ??_C@_03KHICJKCI@?4?4?4?$AA@ 10068198     libvcruntime:undname.obj
 0002:0000519c       ??_C@_04HIBGFPH@NULL?$AA@  1006819c     libvcruntime:undname.obj
 0002:000051a4       ??_C@_02DPKJAMEF@?$CFd?$AA@ 100681a4     libvcruntime:undname.obj
 0002:000051a8       ??_C@_0BK@IHCCFNEL@?$GAtemplate?9type?9parameter?9?$AA@ 100681a8     libvcruntime:undname.obj
 0002:000051c8       ??_C@_0BK@OFCNNNKO@?$GAgeneric?9class?9parameter?9?$AA@ 100681c8     libvcruntime:undname.obj
 0002:000051e8       ??_C@_0BL@NGJBLFIL@?$GAgeneric?9method?9parameter?9?$AA@ 100681e8     libvcruntime:undname.obj
 0002:00005208       ??_C@_03OPGICMGF@?$HN?8?5?$AA@ 10068208     libvcruntime:undname.obj
 0002:0000520c       ??_C@_02IGFCGPIL@?$HN?8?$AA@ 1006820c     libvcruntime:undname.obj
 0002:00005210       ??_C@_01CLKCMJKC@?5?$AA@   10068210     libvcruntime:undname.obj
 0002:00005214       ??_C@_0N@CBHHHENL@?$GAvtordispex?$HL?$AA@ 10068214     libvcruntime:undname.obj
 0002:00005224       ??_C@_0L@GHPFDFH@?$GAvtordisp?$HL?$AA@ 10068224     libvcruntime:undname.obj
 0002:00005234       ??_C@_0L@HNGCOGAE@?$GAadjustor?$HL?$AA@ 10068234     libvcruntime:undname.obj
 0002:00005244       ??_C@_0CB@KJDOOODE@?$GAlocal?5static?5destructor?5helper?8@ 10068244     libvcruntime:undname.obj
 0002:0000526c       ??_C@_0DB@ILEFOCIJ@?$GAtemplate?5static?5data?5member?5con@ 1006826c     libvcruntime:undname.obj
 0002:000052a8       ??_C@_0DA@HGFJFBBE@?$GAtemplate?5static?5data?5member?5des@ 100682a8     libvcruntime:undname.obj
 0002:000052e4       ??_C@_07PGOEDBHP@static?5?$AA@ 100682e4     libvcruntime:undname.obj
 0002:000052f0       ??_C@_08NIEOINHE@virtual?5?$AA@ 100682f0     libvcruntime:undname.obj
 0002:000052fc       ??_C@_09LAPHOOG@private?3?5?$AA@ 100682fc     libvcruntime:undname.obj
 0002:00005308       ??_C@_0M@GAIFPFIP@protected?3?5?$AA@ 10068308     libvcruntime:undname.obj
 0002:00005318       ??_C@_08GPDDCMKI@public?3?5?$AA@ 10068318     libvcruntime:undname.obj
 0002:00005324       ??_C@_08KJLFOPNE@?$FLthunk?$FN?3?$AA@ 10068324     libvcruntime:undname.obj
 0002:00005330       ??_C@_0M@DHNBOJMP@extern?5?$CCC?$CC?5?$AA@ 10068330     libvcruntime:undname.obj
 0002:00005340       ??_C@_02KCKGHPCA@?$CJ?5?$AA@ 10068340     libvcruntime:undname.obj
 0002:00005344       ??_C@_05CIHEBHNO@char?5?$AA@ 10068344     libvcruntime:undname.obj
 0002:0000534c       ??_C@_06EHJMALKF@short?5?$AA@ 1006834c     libvcruntime:undname.obj
 0002:00005354       ??_C@_04LAHKHJMA@int?5?$AA@ 10068354     libvcruntime:undname.obj
 0002:0000535c       ??_C@_05CJIMAING@long?5?$AA@ 1006835c     libvcruntime:undname.obj
 0002:00005364       ??_C@_09EBBEKKIH@unsigned?5?$AA@ 10068364     libvcruntime:undname.obj
 0002:00005370       ??_C@_05BEFAKPML@void?5?$AA@ 10068370     libvcruntime:undname.obj
 0002:00005378       ??_C@_08PABEKFH@volatile?$AA@ 10068378     libvcruntime:undname.obj
 0002:00005384       ??_C@_0BA@LKIJLKPP@std?3?3nullptr_t?5?$AA@ 10068384     libvcruntime:undname.obj
 0002:00005398       ??_C@_0P@GCOCNKDM@std?3?3nullptr_t?$AA@ 10068398     libvcruntime:undname.obj
 0002:000053ac       ??_C@_0L@EGPHHEKN@?$DMellipsis?$DO?$AA@ 100683ac     libvcruntime:undname.obj
 0002:000053bc       ??_C@_04EENFHACM@?0?4?4?4?$AA@ 100683bc     libvcruntime:undname.obj
 0002:000053c4       ??_C@_0M@ELJOJFFH@?0?$DMellipsis?$DO?$AA@ 100683c4     libvcruntime:undname.obj
 0002:000053d4       ??_C@_07HDJPLPEK@?5throw?$CI?$AA@ 100683d4     libvcruntime:undname.obj
 0002:000053e0       ??_C@_03PBJBJNON@cpu?$AA@  100683e0     libvcruntime:undname.obj
 0002:000053e4       ??_C@_03DCBBJBAA@amp?$AA@  100683e4     libvcruntime:undname.obj
 0002:000053e8       ??_C@_02KEGNLNML@?0?5?$AA@ 100683e8     libvcruntime:undname.obj
 0002:000053ec       ??_C@_04ENMBGAPA@char?$AA@ 100683ec     libvcruntime:undname.obj
 0002:000053f4       ??_C@_05BFKKPKCG@short?$AA@ 100683f4     libvcruntime:undname.obj
 0002:000053fc       ??_C@_03JBIPMCLC@int?$AA@  100683fc     libvcruntime:undname.obj
 0002:00005400       ??_C@_04GOKPGOLB@long?$AA@ 10068400     libvcruntime:undname.obj
 0002:00005408       ??_C@_04DDKJGDCM@bool?$AA@ 10068408     libvcruntime:undname.obj
 0002:00005410       ??_C@_06EBGKOKIG@__int8?$AA@ 10068410     libvcruntime:undname.obj
 0002:00005418       ??_C@_07ICFHOGAF@__int16?$AA@ 10068418     libvcruntime:undname.obj
 0002:00005424       ??_C@_07OFLPPHGP@__int32?$AA@ 10068424     libvcruntime:undname.obj
 0002:00005430       ??_C@_07LFCOJCAC@__int64?$AA@ 10068430     libvcruntime:undname.obj
 0002:0000543c       ??_C@_08GAHOLHEO@__int128?$AA@ 1006843c     libvcruntime:undname.obj
 0002:00005448       ??_C@_09EEKGDCPH@?$DMunknown?$DO?$AA@ 10068448     libvcruntime:undname.obj
 0002:00005454       ??_C@_08HBIPOFJB@char16_t?$AA@ 10068454     libvcruntime:undname.obj
 0002:00005460       ??_C@_08IECNCBKG@char32_t?$AA@ 10068460     libvcruntime:undname.obj
 0002:0000546c       ??_C@_07CLGGIAMF@wchar_t?$AA@ 1006846c     libvcruntime:undname.obj
 0002:00005478       ??_C@_06GCICPBLB@__w64?5?$AA@ 10068478     libvcruntime:undname.obj
 0002:00005480       ??_C@_07NFANNNEC@UNKNOWN?$AA@ 10068480     libvcruntime:undname.obj
 0002:0000548c       ??_C@_07EDHNAJHC@signed?5?$AA@ 1006848c     libvcruntime:undname.obj
 0002:00005498       ??_C@_05BNCCCJPP@const?$AA@ 10068498     libvcruntime:undname.obj
 0002:000054a0       ??_C@_09EFNPDFFP@?5volatile?$AA@ 100684a0     libvcruntime:undname.obj
 0002:000054ac       ??_C@_0P@GCIFDJCJ@?$GAunknown?5ecsu?8?$AA@ 100684ac     libvcruntime:undname.obj
 0002:000054c0       ??_C@_06MOJHIBMG@union?5?$AA@ 100684c0     libvcruntime:undname.obj
 0002:000054c8       ??_C@_07DIBCDNGL@struct?5?$AA@ 100684c8     libvcruntime:undname.obj
 0002:000054d4       ??_C@_06LJBABKPM@class?5?$AA@ 100684d4     libvcruntime:undname.obj
 0002:000054dc       ??_C@_08KOFANOFK@coclass?5?$AA@ 100684dc     libvcruntime:undname.obj
 0002:000054e8       ??_C@_0N@DLIEFKNA@cointerface?5?$AA@ 100684e8     libvcruntime:undname.obj
 0002:000054f8       ??_C@_05LJGMCFOG@enum?5?$AA@ 100684f8     libvcruntime:undname.obj
 0002:00005500       ??_C@_09GAIEOBLP@volatile?5?$AA@ 10068500     libvcruntime:undname.obj
 0002:0000550c       ??_C@_06LIJLOJAG@const?5?$AA@ 1006850c     libvcruntime:undname.obj
 0002:00005514       ??_C@_02KJPKDIBN@?$CG?5?$AA@ 10068514     libvcruntime:undname.obj
 0002:00005518       ??_C@_03PCKGMOPB@?$CG?$CG?5?$AA@ 10068518     libvcruntime:undname.obj
 0002:0000551c       ??_C@_0M@EALIELKG@cli?3?3array?$DM?$AA@ 1006851c     libvcruntime:undname.obj
 0002:0000552c       ??_C@_0O@GKABPPIF@cli?3?3pin_ptr?$DM?$AA@ 1006852c     libvcruntime:undname.obj
 0002:0000553c       ??_C@_02GOGNNPBN@?$CJ?$FL?$AA@ 1006853c     libvcruntime:undname.obj
 0002:00005540       ??_C@_06EEGAIFAK@?$HLflat?$HN?$AA@ 10068540     libvcruntime:undname.obj
 0002:00005548       ??_C@_05JIBOFOHK@?$HLfor?5?$AA@ 10068548     libvcruntime:undname.obj
 0002:00005550       ??_C@_02MDINNEEG@s?5?$AA@  10068550     libvcruntime:undname.obj
 0002:00005558       ??_7DNameNode@@6B@         10068558     libvcruntime:undname.obj
 0002:0000556c       ??_7charNode@@6B@          1006856c     libvcruntime:undname.obj
 0002:00005580       ??_7pcharNode@@6B@         10068580     libvcruntime:undname.obj
 0002:00005594       ??_7pDNameNode@@6B@        10068594     libvcruntime:undname.obj
 0002:000055a8       ??_7DNameStatusNode@@6B@   100685a8     libvcruntime:undname.obj
 0002:000055bc       ??_7pairNode@@6B@          100685bc     libvcruntime:undname.obj
 0002:000055cc       ??_C@_04OKOHEJBO@?5?$DP?$DP?5?$AA@ 100685cc     libvcruntime:undname.obj
 0002:000055d8       _standard_lookup_table     100685d8     libucrt:output.obj
 0002:00005648       _format_validation_lookup_table 10068648     libucrt:output.obj
 0002:000056b8       ??_C@_06OJHGLDPL@?$CInull?$CJ?$AA@ 100686b8     libucrt:output.obj
 0002:000056c0       ??_C@_1O@CEDCILHN@?$AA?$CI?$AAn?$AAu?$AAl?$AAl?$AA?$CJ?$AA?$AA@ 100686c0     libucrt:output.obj
 0002:000056d0       ??_C@_0CF@GOGNBNAK@Microsoft?5Visual?5C?$CL?$CL?5Runtime?5Lib@ 100686d0     libucrt:assert.obj
 0002:00005700       ??_C@_1EK@MBDPDCGA@?$AAM?$AAi?$AAc?$AAr?$AAo?$AAs?$AAo?$AAf?$AAt?$AA?5?$AAV?$AAi?$AAs?$AAu?$AAa?$AAl?$AA?5?$AAC?$AA?$CL?$AA?$CL?$AA?5?$AAR?$AAu?$AAn?$AAt?$AAi?$AAm?$AAe?$AA?5?$AAL?$AAi?$AAb@ 10068700     libucrt:assert.obj
 0002:00005758       ??_C@_0CK@CFPGFGGO@Assertion?5failed?3?5?$CFTs?0?5file?5?$CFTs?0@ 10068758     libucrt:assert.obj
 0002:00005790       ??_C@_1FE@LHBLIKM@?$AAA?$AAs?$AAs?$AAe?$AAr?$AAt?$AAi?$AAo?$AAn?$AA?5?$AAf?$AAa?$AAi?$AAl?$AAe?$AAd?$AA?3?$AA?5?$AA?$CF?$AAT?$AAs?$AA?0?$AA?5?$AAf?$AAi?$AAl?$AAe?$AA?5?$AA?$CF?$AAT?$AAs?$AA?0@ 10068790     libucrt:assert.obj
 0002:000057f4       ??_C@_0BC@LAIDCHCH@Assertion?5failed?$CB?$AA@ 100687f4     libucrt:assert.obj
 0002:0000580c       ??_C@_1CE@OJBNHDMO@?$AAA?$AAs?$AAs?$AAe?$AAr?$AAt?$AAi?$AAo?$AAn?$AA?5?$AAf?$AAa?$AAi?$AAl?$AAe?$AAd?$AA?$CB?$AA?$AA@ 1006880c     libucrt:assert.obj
 0002:00005838       ??_C@_09KLGCKDOD@Program?3?5?$AA@ 10068838     libucrt:assert.obj
 0002:00005844       ??_C@_1BE@PHKBBGE@?$AAP?$AAr?$AAo?$AAg?$AAr?$AAa?$AAm?$AA?3?$AA?5?$AA?$AA@ 10068844     libucrt:assert.obj
 0002:0000585c       ??_C@_06IGPBOHMJ@File?3?5?$AA@ 1006885c     libucrt:assert.obj
 0002:00005864       ??_C@_1O@HEMHKNDC@?$AAF?$AAi?$AAl?$AAe?$AA?3?$AA?5?$AA?$AA@ 10068864     libucrt:assert.obj
 0002:00005874       ??_C@_06FIEBOLOH@Line?3?5?$AA@ 10068874     libucrt:assert.obj
 0002:0000587c       ??_C@_1O@KCAFKHJE@?$AAL?$AAi?$AAn?$AAe?$AA?3?$AA?5?$AA?$AA@ 1006887c     libucrt:assert.obj
 0002:0000588c       ??_C@_0N@MEECIJGN@Expression?3?5?$AA@ 1006888c     libucrt:assert.obj
 0002:0000589c       ??_C@_1BK@PEDCIPMA@?$AAE?$AAx?$AAp?$AAr?$AAe?$AAs?$AAs?$AAi?$AAo?$AAn?$AA?3?$AA?5?$AA?$AA@ 1006889c     libucrt:assert.obj
 0002:000058c0       ??_C@_0HA@OJHAGA@For?5information?5on?5how?5your?5prog@ 100688c0     libucrt:assert.obj
 0002:00005948       ??_C@_1OA@EGMLFBHJ@?$AAF?$AAo?$AAr?$AA?5?$AAi?$AAn?$AAf?$AAo?$AAr?$AAm?$AAa?$AAt?$AAi?$AAo?$AAn?$AA?5?$AAo?$AAn?$AA?5?$AAh?$AAo?$AAw?$AA?5?$AAy?$AAo?$AAu?$AAr?$AA?5?$AAp?$AAr?$AAo?$AAg@ 10068948     libucrt:assert.obj
 0002:00005a54       ??_C@_0DN@EBBNMLME@?$CIPress?5Retry?5to?5debug?5the?5applic@ 10068a54     libucrt:assert.obj
 0002:00005aa0       ??_C@_1HK@POCJMFGK@?$AA?$CI?$AAP?$AAr?$AAe?$AAs?$AAs?$AA?5?$AAR?$AAe?$AAt?$AAr?$AAy?$AA?5?$AAt?$AAo?$AA?5?$AAd?$AAe?$AAb?$AAu?$AAg?$AA?5?$AAt?$AAh?$AAe?$AA?5?$AAa?$AAp?$AAp?$AAl?$AAi?$AAc@ 10068aa0     libucrt:assert.obj
 0002:00005b34       ??_C@_17LGKOMLJ@?$AA?4?$AA?4?$AA?4?$AA?$AA@ 10068b34     libucrt:assert.obj
 0002:00005b40       ??_C@_01EEMJAFIK@?6?$AA@   10068b40     libucrt:assert.obj
 0002:00005b44       ??_C@_13LBAGMAIH@?$AA?6?$AA?$AA@ 10068b44     libucrt:assert.obj
 0002:00005b48       ??_C@_02PHMGELLB@?6?6?$AA@ 10068b48     libucrt:assert.obj
 0002:00005b4c       ??_C@_15IABLJNFO@?$AA?6?$AA?6?$AA?$AA@ 10068b4c     libucrt:assert.obj
 0002:00005b54       ??_C@_0BH@DNAGHKFM@?$DMprogram?5name?5unknown?$DO?$AA@ 10068b54     libucrt:assert.obj
 0002:00005b70       ??_C@_1CO@EAEJAADC@?$AA?$DM?$AAp?$AAr?$AAo?$AAg?$AAr?$AAa?$AAm?$AA?5?$AAn?$AAa?$AAm?$AAe?$AA?5?$AAu?$AAn?$AAk?$AAn?$AAo?$AAw?$AAn?$AA?$DO?$AA?$AA@ 10068b70     libucrt:assert.obj
 0002:00005ba8       _RtlNtPathSeperatorString  10068ba8     libucrt:exit.obj
 0002:00005bb4       ??_C@_13FPGAJAPJ@?$AA?2?$AA?$AA@ 10068bb4     libucrt:exit.obj
 0002:00005bb8       _RtlDosPathSeperatorsString 10068bb8     libucrt:exit.obj
 0002:00005bc4       ??_C@_15MNCACJLI@?$AA?2?$AA?1?$AA?$AA@ 10068bc4     libucrt:exit.obj
 0002:00005bcc       _RtlAlternateDosPathSeperatorString 10068bcc     libucrt:exit.obj
 0002:00005bd8       ??_C@_13CGOKJPIL@?$AA?1?$AA?$AA@ 10068bd8     libucrt:exit.obj
 0002:00005bdc       ??_C@_1BI@BGOHAHKC@?$AAm?$AAs?$AAc?$AAo?$AAr?$AAe?$AAe?$AA?4?$AAd?$AAl?$AAl?$AA?$AA@ 10068bdc     libucrt:exit.obj
 0002:00005bf8       ??_C@_0P@MIGLKIOC@CorExitProcess?$AA@ 10068bf8     libucrt:exit.obj
 0002:00005c0c       ??_C@_04FJHINJAO@tanh?$AA@ 10068c0c     libucrt:fpexcept.obj
 0002:00005c14       ??_C@_04FIHNOPOL@asin?$AA@ 10068c14     libucrt:fpexcept.obj
 0002:00005c1c       ??_C@_04PDIFKINK@acos?$AA@ 10068c1c     libucrt:fpexcept.obj
 0002:00005c24       ??_C@_04MLLJIGOK@atan?$AA@ 10068c24     libucrt:fpexcept.obj
 0002:00005c2c       ??_C@_05KNGEOGJB@atan2?$AA@ 10068c2c     libucrt:fpexcept.obj
 0002:00005c34       ??_C@_04EIAKFFMI@sqrt?$AA@ 10068c34     libucrt:fpexcept.obj
 0002:00005c3c       ??_C@_03BLEJJJBH@sin?$AA@  10068c3c     libucrt:fpexcept.obj
 0002:00005c40       ??_C@_03LALBNOCG@cos?$AA@  10068c40     libucrt:fpexcept.obj
 0002:00005c44       ??_C@_03IIINPABG@tan?$AA@  10068c44     libucrt:fpexcept.obj
 0002:00005c48       ??_C@_04GFPJNGEK@ceil?$AA@ 10068c48     libucrt:fpexcept.obj
 0002:00005c50       ??_C@_05PBJFFIGL@floor?$AA@ 10068c50     libucrt:fpexcept.obj
 0002:00005c58       ??_C@_04ODHECPBC@fabs?$AA@ 10068c58     libucrt:fpexcept.obj
 0002:00005c60       ??_C@_04EHEDPDJG@modf?$AA@ 10068c60     libucrt:fpexcept.obj
 0002:00005c68       ??_C@_05CEJMAHNP@ldexp?$AA@ 10068c68     libucrt:fpexcept.obj
 0002:00005c70       ??_C@_05KBKMEMPO@_cabs?$AA@ 10068c70     libucrt:fpexcept.obj
 0002:00005c78       ??_C@_06MEIMCGCF@_hypot?$AA@ 10068c78     libucrt:fpexcept.obj
 0002:00005c80       ??_C@_04KEPJIHGP@fmod?$AA@ 10068c80     libucrt:fpexcept.obj
 0002:00005c88       ??_C@_05GKKHEGJL@frexp?$AA@ 10068c88     libucrt:fpexcept.obj
 0002:00005c90       ??_C@_03MJLDFKDL@_y0?$AA@  10068c90     libucrt:fpexcept.obj
 0002:00005c94       ??_C@_03NAKIGLHK@_y1?$AA@  10068c94     libucrt:fpexcept.obj
 0002:00005c98       ??_C@_03ONILCKOB@_yn?$AA@  10068c98     libucrt:fpexcept.obj
 0002:00005c9c       ??_C@_05JGDBENOH@_logb?$AA@ 10068c9c     libucrt:fpexcept.obj
 0002:00005ca4       ??_C@_0L@KDOEJCKC@_nextafter?$AA@ 10068ca4     libucrt:fpexcept.obj
 0002:00005dd0       ??_C@_03KHJOGHMM@exp?$AA@  10068dd0     libucrt:fpexcept.obj
 0002:00005dd4       ??_C@_03JGHBODFD@pow?$AA@  10068dd4     libucrt:fpexcept.obj
 0002:00005dd8       ??_C@_03MGHMBJCF@log?$AA@  10068dd8     libucrt:fpexcept.obj
 0002:00005ddc       ??_C@_05HGHHAHAP@log10?$AA@ 10068ddc     libucrt:fpexcept.obj
 0002:00005de4       ??_C@_04COOMCNPB@sinh?$AA@ 10068de4     libucrt:fpexcept.obj
 0002:00005dec       ??_C@_04HPJJNFIM@cosh?$AA@ 10068dec     libucrt:fpexcept.obj
 0002:00005df8       ___acrt_exception_action_table 10068df8     libucrt:exception_filter.obj
 0002:00005ea4       ___acrt_signal_action_table_count 10068ea4     libucrt:exception_filter.obj
 0002:00005ea8       ___acrt_signal_action_table_size 10068ea8     libucrt:exception_filter.obj
 0002:00005eac       ___acrt_signal_action_first_fpe_index 10068eac     libucrt:exception_filter.obj
 0002:00005eb0       ___acrt_signal_action_fpe_count 10068eb0     libucrt:exception_filter.obj
 0002:00005f48       ??_C@_1BG@HHIFPOEK@?$AAm?$AAs?$AAv?$AAc?$AAr?$AAt?$AA?4?$AAd?$AAl?$AAl?$AA?$AA@ 10068f48     libucrt:free_base.obj
 0002:00005f64       __Fenv0                    10068f64     libucrt:atox.obj
 0002:00006180       ??_C@_1EG@CNNIPFIM@?$AAa?$AAp?$AAi?$AA?9?$AAm?$AAs?$AA?9?$AAw?$AAi?$AAn?$AA?9?$AAa?$AAp?$AAp?$AAm?$AAo?$AAd?$AAe?$AAl?$AA?9?$AAr?$AAu?$AAn?$AAt?$AAi?$AAm?$AAe?$AA?9?$AAl?$AA1?$AA?9?$AA1@ 10069180     libucrt:winapi_thunks.obj
 0002:000061d8       ??_C@_1EA@JGEFHKEI@?$AAa?$AAp?$AAi?$AA?9?$AAm?$AAs?$AA?9?$AAw?$AAi?$AAn?$AA?9?$AAc?$AAo?$AAr?$AAe?$AA?9?$AAd?$AAa?$AAt?$AAe?$AAt?$AAi?$AAm?$AAe?$AA?9?$AAl?$AA1?$AA?9?$AA1?$AA?9?$AA1?$AA?$AA@ 100691d8     libucrt:winapi_thunks.obj
 0002:00006224       ??_C@_1DI@GCIAAENM@?$AAa?$AAp?$AAi?$AA?9?$AAm?$AAs?$AA?9?$AAw?$AAi?$AAn?$AA?9?$AAc?$AAo?$AAr?$AAe?$AA?9?$AAf?$AAi?$AAl?$AAe?$AA?9?$AAl?$AA2?$AA?9?$AA1?$AA?9?$AA1?$AA?$AA@ 10069224     libucrt:winapi_thunks.obj
 0002:00006268       ??_C@_1EI@MPIAOHOC@?$AAa?$AAp?$AAi?$AA?9?$AAm?$AAs?$AA?9?$AAw?$AAi?$AAn?$AA?9?$AAc?$AAo?$AAr?$AAe?$AA?9?$AAl?$AAo?$AAc?$AAa?$AAl?$AAi?$AAz?$AAa?$AAt?$AAi?$AAo?$AAn?$AA?9?$AAl?$AA1?$AA?9@ 10069268     libucrt:winapi_thunks.obj
 0002:000062c0       ??_C@_1FK@FPHCKFIE@?$AAa?$AAp?$AAi?$AA?9?$AAm?$AAs?$AA?9?$AAw?$AAi?$AAn?$AA?9?$AAc?$AAo?$AAr?$AAe?$AA?9?$AAl?$AAo?$AAc?$AAa?$AAl?$AAi?$AAz?$AAa?$AAt?$AAi?$AAo?$AAn?$AA?9?$AAo?$AAb?$AAs@ 100692c0     libucrt:winapi_thunks.obj
 0002:00006330       ??_C@_1EM@DILCGIIO@?$AAa?$AAp?$AAi?$AA?9?$AAm?$AAs?$AA?9?$AAw?$AAi?$AAn?$AA?9?$AAc?$AAo?$AAr?$AAe?$AA?9?$AAp?$AAr?$AAo?$AAc?$AAe?$AAs?$AAs?$AAt?$AAh?$AAr?$AAe?$AAa?$AAd?$AAs?$AA?9?$AAl@ 10069330     libucrt:winapi_thunks.obj
 0002:0000638c       ??_C@_1DM@LNCGDDPN@?$AAa?$AAp?$AAi?$AA?9?$AAm?$AAs?$AA?9?$AAw?$AAi?$AAn?$AA?9?$AAc?$AAo?$AAr?$AAe?$AA?9?$AAs?$AAt?$AAr?$AAi?$AAn?$AAg?$AA?9?$AAl?$AA1?$AA?9?$AA1?$AA?9?$AA0?$AA?$AA@ 1006938c     libucrt:winapi_thunks.obj
 0002:000063d4       ??_C@_1DO@FPAPJEMD@?$AAa?$AAp?$AAi?$AA?9?$AAm?$AAs?$AA?9?$AAw?$AAi?$AAn?$AA?9?$AAc?$AAo?$AAr?$AAe?$AA?9?$AAs?$AAy?$AAs?$AAi?$AAn?$AAf?$AAo?$AA?9?$AAl?$AA1?$AA?9?$AA2?$AA?9?$AA1?$AA?$AA@ 100693d4     libucrt:winapi_thunks.obj
 0002:00006420       ??_C@_1DK@NDHNAHIO@?$AAa?$AAp?$AAi?$AA?9?$AAm?$AAs?$AA?9?$AAw?$AAi?$AAn?$AA?9?$AAc?$AAo?$AAr?$AAe?$AA?9?$AAw?$AAi?$AAn?$AAr?$AAt?$AA?9?$AAl?$AA1?$AA?9?$AA1?$AA?9?$AA0?$AA?$AA@ 10069420     libucrt:winapi_thunks.obj
 0002:00006468       ??_C@_1DM@KGHDGBCM@?$AAa?$AAp?$AAi?$AA?9?$AAm?$AAs?$AA?9?$AAw?$AAi?$AAn?$AA?9?$AAc?$AAo?$AAr?$AAe?$AA?9?$AAx?$AAs?$AAt?$AAa?$AAt?$AAe?$AA?9?$AAl?$AA2?$AA?9?$AA1?$AA?9?$AA0?$AA?$AA@ 10069468     libucrt:winapi_thunks.obj
 0002:000064b0       ??_C@_1EO@IJIOEFOH@?$AAa?$AAp?$AAi?$AA?9?$AAm?$AAs?$AA?9?$AAw?$AAi?$AAn?$AA?9?$AAr?$AAt?$AAc?$AAo?$AAr?$AAe?$AA?9?$AAn?$AAt?$AAu?$AAs?$AAe?$AAr?$AA?9?$AAw?$AAi?$AAn?$AAd?$AAo?$AAw?$AA?9@ 100694b0     libucrt:winapi_thunks.obj
 0002:00006510       ??_C@_1FG@HHGEKANL@?$AAa?$AAp?$AAi?$AA?9?$AAm?$AAs?$AA?9?$AAw?$AAi?$AAn?$AA?9?$AAs?$AAe?$AAc?$AAu?$AAr?$AAi?$AAt?$AAy?$AA?9?$AAs?$AAy?$AAs?$AAt?$AAe?$AAm?$AAf?$AAu?$AAn?$AAc?$AAt?$AAi@ 10069510     libucrt:winapi_thunks.obj
 0002:00006578       ??_C@_1FG@NCKKOLKO@?$AAe?$AAx?$AAt?$AA?9?$AAm?$AAs?$AA?9?$AAw?$AAi?$AAn?$AA?9?$AAk?$AAe?$AAr?$AAn?$AAe?$AAl?$AA3?$AA2?$AA?9?$AAp?$AAa?$AAc?$AAk?$AAa?$AAg?$AAe?$AA?9?$AAc?$AAu?$AAr?$AAr@ 10069578     libucrt:winapi_thunks.obj
 0002:000065e0       ??_C@_1EG@DBIOJECG@?$AAe?$AAx?$AAt?$AA?9?$AAm?$AAs?$AA?9?$AAw?$AAi?$AAn?$AA?9?$AAn?$AAt?$AAu?$AAs?$AAe?$AAr?$AA?9?$AAd?$AAi?$AAa?$AAl?$AAo?$AAg?$AAb?$AAo?$AAx?$AA?9?$AAl?$AA1?$AA?9?$AA1@ 100695e0     libucrt:winapi_thunks.obj
 0002:00006638       ??_C@_1EO@FIHMJCLF@?$AAe?$AAx?$AAt?$AA?9?$AAm?$AAs?$AA?9?$AAw?$AAi?$AAn?$AA?9?$AAn?$AAt?$AAu?$AAs?$AAe?$AAr?$AA?9?$AAw?$AAi?$AAn?$AAd?$AAo?$AAw?$AAs?$AAt?$AAa?$AAt?$AAi?$AAo?$AAn?$AA?9@ 10069638     libucrt:winapi_thunks.obj
 0002:00006698       ??_C@_1O@BCCLBEOE@?$AAu?$AAs?$AAe?$AAr?$AA3?$AA2?$AA?$AA@ 10069698     libucrt:winapi_thunks.obj
 0002:000066ac       ??_C@_0BA@FHFNEAED@AreFileApisANSI?$AA@ 100696ac     libucrt:winapi_thunks.obj
 0002:000066cc       ??_C@_0BA@IHGNDAEB@CompareStringEx?$AA@ 100696cc     libucrt:winapi_thunks.obj
 0002:000066ec       ??_C@_0BE@LJANKFHF@EnumSystemLocalesEx?$AA@ 100696ec     libucrt:winapi_thunks.obj
 0002:00006740       ??_C@_0BA@HNOPNCHB@GetActiveWindow?$AA@ 10069740     libucrt:winapi_thunks.obj
 0002:00006760       ??_C@_0BE@JOGNEJCI@GetCurrentPackageId?$AA@ 10069760     libucrt:winapi_thunks.obj
 0002:00006784       ??_C@_0BA@EPCJIIPD@GetDateFormatEx?$AA@ 10069784     libucrt:winapi_thunks.obj
 0002:000067a4       ??_C@_0BJ@DIBIJBHA@GetEnabledXStateFeatures?$AA@ 100697a4     libucrt:winapi_thunks.obj
 0002:000067d0       ??_C@_0BN@NEEHBBPO@GetFileInformationByHandleEx?$AA@ 100697d0     libucrt:winapi_thunks.obj
 0002:00006800       ??_C@_0BD@HHGDFDBJ@GetLastActivePopup?$AA@ 10069800     libucrt:winapi_thunks.obj
 0002:00006824       ??_C@_0BA@ONOKGCMP@GetLocaleInfoEx?$AA@ 10069824     libucrt:winapi_thunks.obj
 0002:00006844       ??_C@_0BI@DFKBFLJE@GetProcessWindowStation?$AA@ 10069844     libucrt:winapi_thunks.obj
 0002:00006864       ??_C@_0BP@FPNJPEJC@GetSystemTimePreciseAsFileTime?$AA@ 10069864     libucrt:winapi_thunks.obj
 0002:00006898       ??_C@_0BA@CIJJKCJJ@GetTimeFormatEx?$AA@ 10069898     libucrt:winapi_thunks.obj
 0002:000068b8       ??_C@_0BJ@PBCCBIPI@GetUserDefaultLocaleName?$AA@ 100698b8     libucrt:winapi_thunks.obj
 0002:000068e4       ??_C@_0BK@DEKFELLI@GetUserObjectInformationW?$AA@ 100698e4     libucrt:winapi_thunks.obj
 0002:00006910       ??_C@_0BG@IKLDMBLM@GetXStateFeaturesMask?$AA@ 10069910     libucrt:winapi_thunks.obj
 0002:00006944       ??_C@_0BC@CELBKLLA@IsValidLocaleName?$AA@ 10069944     libucrt:winapi_thunks.obj
 0002:00006968       ??_C@_0O@KKBNKAPF@LCMapStringEx?$AA@ 10069968     libucrt:winapi_thunks.obj
 0002:00006984       ??_C@_0BB@CDHDDLLP@LCIDToLocaleName?$AA@ 10069984     libucrt:winapi_thunks.obj
 0002:000069a4       ??_C@_0BB@HBDEELFH@LocaleNameToLCID?$AA@ 100699a4     libucrt:winapi_thunks.obj
 0002:000069c4       ??_C@_0BE@KINNKFDA@LocateXStateFeature?$AA@ 100699c4     libucrt:winapi_thunks.obj
 0002:000069e8       ??_C@_0M@CHKKJDAI@MessageBoxA?$AA@ 100699e8     libucrt:winapi_thunks.obj
 0002:00006a04       ??_C@_0M@DLDCCGNP@MessageBoxW?$AA@ 10069a04     libucrt:winapi_thunks.obj
 0002:00006a18       ??_C@_0N@PPOMPGGK@RoInitialize?$AA@ 10069a18     libucrt:winapi_thunks.obj
 0002:00006a2c       ??_C@_0P@LLFHBIJD@RoUninitialize?$AA@ 10069a2c     libucrt:winapi_thunks.obj
 0002:00006a4c       ??_C@_0BI@BKLFFAPO@SetThreadStackGuarantee?$AA@ 10069a4c     libucrt:winapi_thunks.obj
 0002:00006a74       ??_C@_0BC@JEAENNKH@SystemFunction036?$AA@ 10069a74     libucrt:winapi_thunks.obj
 0002:00006a8c       ??_C@_03OEIAHPBN@INF?$AA@  10069a8c     libucrt:cvt.obj
 0002:00006a90       ??_C@_03OJHLLCGB@inf?$AA@  10069a90     libucrt:cvt.obj
 0002:00006a94       ??_C@_03LKNCIKJB@NAN?$AA@  10069a94     libucrt:cvt.obj
 0002:00006a98       ??_C@_03LHCJEHON@nan?$AA@  10069a98     libucrt:cvt.obj
 0002:00006a9c       ??_C@_09OFJJIMPC@NAN?$CISNAN?$CJ?$AA@ 10069a9c     libucrt:cvt.obj
 0002:00006aa8       ??_C@_09IPFBKMDL@nan?$CIsnan?$CJ?$AA@ 10069aa8     libucrt:cvt.obj
 0002:00006ab4       ??_C@_08IKHNHAJ@NAN?$CIIND?$CJ?$AA@ 10069ab4     libucrt:cvt.obj
 0002:00006ac0       ??_C@_08OFCDMILK@nan?$CIind?$CJ?$AA@ 10069ac0     libucrt:cvt.obj
 0002:00006acc       ??_C@_05KLBDPFGC@e?$CL000?$AA@ 10069acc     libucrt:cvt.obj
 0002:00006ad8       ___lc_category             10069ad8     libucrt:wsetlocale.obj
 0002:00006b30       ??_C@_1O@GIFLHMA@?$AAL?$AAC?$AA_?$AAA?$AAL?$AAL?$AA?$AA@ 10069b30     libucrt:wsetlocale.obj
 0002:00006b40       ??_C@_1BG@PPOMIBNJ@?$AAL?$AAC?$AA_?$AAC?$AAO?$AAL?$AAL?$AAA?$AAT?$AAE?$AA?$AA@ 10069b40     libucrt:wsetlocale.obj
 0002:00006b5c       ??_C@_1BC@FFJGAPJM@?$AAL?$AAC?$AA_?$AAC?$AAT?$AAY?$AAP?$AAE?$AA?$AA@ 10069b5c     libucrt:wsetlocale.obj
 0002:00006b74       ??_C@_1BI@PCKFNJFB@?$AAL?$AAC?$AA_?$AAM?$AAO?$AAN?$AAE?$AAT?$AAA?$AAR?$AAY?$AA?$AA@ 10069b74     libucrt:wsetlocale.obj
 0002:00006b90       ??_C@_1BG@ENIEDKID@?$AAL?$AAC?$AA_?$AAN?$AAU?$AAM?$AAE?$AAR?$AAI?$AAC?$AA?$AA@ 10069b90     libucrt:wsetlocale.obj
 0002:00006bac       ??_C@_1BA@HAAOMIIG@?$AAL?$AAC?$AA_?$AAT?$AAI?$AAM?$AAE?$AA?$AA@ 10069bac     libucrt:wsetlocale.obj
 0002:00006c58       ??_C@_15NBPDDFIP@?$AA?$DN?$AA?$DL?$AA?$AA@ 10069c58     libucrt:wsetlocale.obj
 0002:00006c60       ??_C@_13PJJBFPED@?$AA?$DL?$AA?$AA@ 10069c60     libucrt:wsetlocale.obj
 0002:00006c64       ??_C@_13NMPKAAJP@?$AA?$DN?$AA?$AA@ 10069c64     libucrt:wsetlocale.obj
 0002:00006c68       ??_C@_13FHBKNHDA@?$AAC?$AA?$AA@ 10069c68     libucrt:wsetlocale.obj
 0002:00006c6c       ??_C@_17MBJJLFDM@?$AA_?$AA?4?$AA?0?$AA?$AA@ 10069c6c     libucrt:wsetlocale.obj
 0002:00006c78       ??_C@_13ENNFDPBH@?$AA_?$AA?$AA@ 10069c78     libucrt:wsetlocale.obj
 0002:00006c7c       ??_C@_13JOFGPIOO@?$AA?4?$AA?$AA@ 10069c7c     libucrt:wsetlocale.obj
 0002:00006c80       ??_C@_03KOEHGMDN@Sun?$AA@  10069c80     libucrt:nlsdata.obj
 0002:00006c84       ??_C@_03PDAGKDH@Mon?$AA@   10069c84     libucrt:nlsdata.obj
 0002:00006c88       ??_C@_03NAGEINEP@Tue?$AA@  10069c88     libucrt:nlsdata.obj
 0002:00006c8c       ??_C@_03MHOMLAJA@Wed?$AA@  10069c8c     libucrt:nlsdata.obj
 0002:00006c90       ??_C@_03IOFIKPDN@Thu?$AA@  10069c90     libucrt:nlsdata.obj
 0002:00006c94       ??_C@_03IDIOELNC@Fri?$AA@  10069c94     libucrt:nlsdata.obj
 0002:00006c98       ??_C@_03FEFJNEK@Sat?$AA@   10069c98     libucrt:nlsdata.obj
 0002:00006c9c       ??_C@_06OOPIFAJ@Sunday?$AA@ 10069c9c     libucrt:nlsdata.obj
 0002:00006ca4       ??_C@_06JLEDEDGH@Monday?$AA@ 10069ca4     libucrt:nlsdata.obj
 0002:00006cac       ??_C@_07BAAGCFCM@Tuesday?$AA@ 10069cac     libucrt:nlsdata.obj
 0002:00006cb8       ??_C@_09DLIGFAKA@Wednesday?$AA@ 10069cb8     libucrt:nlsdata.obj
 0002:00006cc4       ??_C@_08HACCIKIA@Thursday?$AA@ 10069cc4     libucrt:nlsdata.obj
 0002:00006cd0       ??_C@_06JECMNKMI@Friday?$AA@ 10069cd0     libucrt:nlsdata.obj
 0002:00006cd8       ??_C@_08INBOOONO@Saturday?$AA@ 10069cd8     libucrt:nlsdata.obj
 0002:00006ce4       ??_C@_03JIHJHPIE@Jan?$AA@  10069ce4     libucrt:nlsdata.obj
 0002:00006ce8       ??_C@_03HJBDCHOM@Feb?$AA@  10069ce8     libucrt:nlsdata.obj
 0002:00006cec       ??_C@_03ODNJBKGA@Mar?$AA@  10069cec     libucrt:nlsdata.obj
 0002:00006cf0       ??_C@_03LEOLGMJP@Apr?$AA@  10069cf0     libucrt:nlsdata.obj
 0002:00006cf4       ??_C@_03CNMDKL@May?$AA@    10069cf4     libucrt:nlsdata.obj
 0002:00006cf8       ??_C@_03IDFGHECI@Jun?$AA@  10069cf8     libucrt:nlsdata.obj
 0002:00006cfc       ??_C@_03LBGABGKK@Jul?$AA@  10069cfc     libucrt:nlsdata.obj
 0002:00006d00       ??_C@_03IFJFEIGA@Aug?$AA@  10069d00     libucrt:nlsdata.obj
 0002:00006d04       ??_C@_03GGCAPAJC@Sep?$AA@  10069d04     libucrt:nlsdata.obj
 0002:00006d08       ??_C@_03BMAOKBAD@Oct?$AA@  10069d08     libucrt:nlsdata.obj
 0002:00006d0c       ??_C@_03JPJOFNIA@Nov?$AA@  10069d0c     libucrt:nlsdata.obj
 0002:00006d10       ??_C@_03MKABNOCG@Dec?$AA@  10069d10     libucrt:nlsdata.obj
 0002:00006d14       ??_C@_07CGJPFGJA@January?$AA@ 10069d14     libucrt:nlsdata.obj
 0002:00006d20       ??_C@_08GNJGEPFN@February?$AA@ 10069d20     libucrt:nlsdata.obj
 0002:00006d2c       ??_C@_05HPCKOFNC@March?$AA@ 10069d2c     libucrt:nlsdata.obj
 0002:00006d34       ??_C@_05DMJDNLEJ@April?$AA@ 10069d34     libucrt:nlsdata.obj
 0002:00006d3c       ??_C@_04CNLMGBGM@June?$AA@ 10069d3c     libucrt:nlsdata.obj
 0002:00006d44       ??_C@_04MIEPOIFP@July?$AA@ 10069d44     libucrt:nlsdata.obj
 0002:00006d4c       ??_C@_06LBBHFDDG@August?$AA@ 10069d4c     libucrt:nlsdata.obj
 0002:00006d54       ??_C@_09BHHEALKD@September?$AA@ 10069d54     libucrt:nlsdata.obj
 0002:00006d60       ??_C@_07JJNFCEND@October?$AA@ 10069d60     libucrt:nlsdata.obj
 0002:00006d6c       ??_C@_08HCHEGEOA@November?$AA@ 10069d6c     libucrt:nlsdata.obj
 0002:00006d78       ??_C@_08EDHMEBNP@December?$AA@ 10069d78     libucrt:nlsdata.obj
 0002:00006d84       ??_C@_02DEDBPAFC@AM?$AA@   10069d84     libucrt:nlsdata.obj
 0002:00006d88       ??_C@_02CJNFDJBF@PM?$AA@   10069d88     libucrt:nlsdata.obj
 0002:00006d8c       ??_C@_08BPBNCDIB@MM?1dd?1yy?$AA@ 10069d8c     libucrt:nlsdata.obj
 0002:00006d98       ??_C@_0BE@CKGJFCPC@dddd?0?5MMMM?5dd?0?5yyyy?$AA@ 10069d98     libucrt:nlsdata.obj
 0002:00006db0       ??_C@_08JCCMCCIL@HH?3mm?3ss?$AA@ 10069db0     libucrt:nlsdata.obj
 0002:00006dbc       ??_C@_17MBGCMIPB@?$AAS?$AAu?$AAn?$AA?$AA@ 10069dbc     libucrt:nlsdata.obj
 0002:00006dc8       ??_C@_17KBOMKBF@?$AAM?$AAo?$AAn?$AA?$AA@ 10069dc8     libucrt:nlsdata.obj
 0002:00006dd4       ??_C@_17BMKGEGOJ@?$AAT?$AAu?$AAe?$AA?$AA@ 10069dd4     libucrt:nlsdata.obj
 0002:00006de0       ??_C@_17CJEDCEPE@?$AAW?$AAe?$AAd?$AA?$AA@ 10069de0     libucrt:nlsdata.obj
 0002:00006dec       ??_C@_17PDPHAADD@?$AAT?$AAh?$AAu?$AA?$AA@ 10069dec     libucrt:nlsdata.obj
 0002:00006df8       ??_C@_17HFOLPPLP@?$AAF?$AAr?$AAi?$AA?$AA@ 10069df8     libucrt:nlsdata.obj
 0002:00006e04       ??_C@_17GGIBDPIH@?$AAS?$AAa?$AAt?$AA?$AA@ 10069e04     libucrt:nlsdata.obj
 0002:00006e10       ??_C@_1O@IHNHDHPB@?$AAS?$AAu?$AAn?$AAd?$AAa?$AAy?$AA?$AA@ 10069e10     libucrt:nlsdata.obj
 0002:00006e20       ??_C@_1O@MMNBFLIA@?$AAM?$AAo?$AAn?$AAd?$AAa?$AAy?$AA?$AA@ 10069e20     libucrt:nlsdata.obj
 0002:00006e30       ??_C@_1BA@ENFBFFEK@?$AAT?$AAu?$AAe?$AAs?$AAd?$AAa?$AAy?$AA?$AA@ 10069e30     libucrt:nlsdata.obj
 0002:00006e44       ??_C@_1BE@EBOGMDOH@?$AAW?$AAe?$AAd?$AAn?$AAe?$AAs?$AAd?$AAa?$AAy?$AA?$AA@ 10069e44     libucrt:nlsdata.obj
 0002:00006e5c       ??_C@_1BC@HHMNLIHE@?$AAT?$AAh?$AAu?$AAr?$AAs?$AAd?$AAa?$AAy?$AA?$AA@ 10069e5c     libucrt:nlsdata.obj
 0002:00006e74       ??_C@_1O@PDICJHAG@?$AAF?$AAr?$AAi?$AAd?$AAa?$AAy?$AA?$AA@ 10069e74     libucrt:nlsdata.obj
 0002:00006e84       ??_C@_1BC@ENMNNPAJ@?$AAS?$AAa?$AAt?$AAu?$AAr?$AAd?$AAa?$AAy?$AA?$AA@ 10069e84     libucrt:nlsdata.obj
 0002:00006e9c       ??_C@_17DKNBKCHM@?$AAJ?$AAa?$AAn?$AA?$AA@ 10069e9c     libucrt:nlsdata.obj
 0002:00006ea8       ??_C@_17LMDJEKJN@?$AAF?$AAe?$AAb?$AA?$AA@ 10069ea8     libucrt:nlsdata.obj
 0002:00006eb4       ??_C@_17CKNLEDEC@?$AAM?$AAa?$AAr?$AA?$AA@ 10069eb4     libucrt:nlsdata.obj
 0002:00006ec0       ??_C@_17LFPOIHDD@?$AAA?$AAp?$AAr?$AA?$AA@ 10069ec0     libucrt:nlsdata.obj
 0002:00006ecc       ??_C@_17PNNKMEED@?$AAM?$AAa?$AAy?$AA?$AA@ 10069ecc     libucrt:nlsdata.obj
 0002:00006ed8       ??_C@_17KCJGOCPB@?$AAJ?$AAu?$AAn?$AA?$AA@ 10069ed8     libucrt:nlsdata.obj
 0002:00006ee4       ??_C@_17IJPCKHK@?$AAJ?$AAu?$AAl?$AA?$AA@ 10069ee4     libucrt:nlsdata.obj
 0002:00006ef0       ??_C@_17ICPELBCN@?$AAA?$AAu?$AAg?$AA?$AA@ 10069ef0     libucrt:nlsdata.obj
 0002:00006efc       ??_C@_17HCHCOKMG@?$AAS?$AAe?$AAp?$AA?$AA@ 10069efc     libucrt:nlsdata.obj
 0002:00006f08       ??_C@_17FNLKOI@?$AAO?$AAc?$AAt?$AA?$AA@ 10069f08     libucrt:nlsdata.obj
 0002:00006f14       ??_C@_17BBDMLCIG@?$AAN?$AAo?$AAv?$AA?$AA@ 10069f14     libucrt:nlsdata.obj
 0002:00006f20       ??_C@_17EGKACKIF@?$AAD?$AAe?$AAc?$AA?$AA@ 10069f20     libucrt:nlsdata.obj
 0002:00006f2c       ??_C@_1BA@EFMEIEBA@?$AAJ?$AAa?$AAn?$AAu?$AAa?$AAr?$AAy?$AA?$AA@ 10069f2c     libucrt:nlsdata.obj
 0002:00006f40       ??_C@_1BC@JGDDFFAM@?$AAF?$AAe?$AAb?$AAr?$AAu?$AAa?$AAr?$AAy?$AA?$AA@ 10069f40     libucrt:nlsdata.obj
 0002:00006f58       ??_C@_1M@IKEENEDF@?$AAM?$AAa?$AAr?$AAc?$AAh?$AA?$AA@ 10069f58     libucrt:nlsdata.obj
 0002:00006f68       ??_C@_1M@GJNLMHFD@?$AAA?$AAp?$AAr?$AAi?$AAl?$AA?$AA@ 10069f68     libucrt:nlsdata.obj
 0002:00006f78       ??_C@_19EPFLPGAP@?$AAJ?$AAu?$AAn?$AAe?$AA?$AA@ 10069f78     libucrt:nlsdata.obj
 0002:00006f84       ??_C@_19BIFMLPCD@?$AAJ?$AAu?$AAl?$AAy?$AA?$AA@ 10069f84     libucrt:nlsdata.obj
 0002:00006f90       ??_C@_1O@PAHLKOAC@?$AAA?$AAu?$AAg?$AAu?$AAs?$AAt?$AA?$AA@ 10069f90     libucrt:nlsdata.obj
 0002:00006fa0       ??_C@_1BE@DKAAMBJL@?$AAS?$AAe?$AAp?$AAt?$AAe?$AAm?$AAb?$AAe?$AAr?$AA?$AA@ 10069fa0     libucrt:nlsdata.obj
 0002:00006fb8       ??_C@_1BA@EPANDLNG@?$AAO?$AAc?$AAt?$AAo?$AAb?$AAe?$AAr?$AA?$AA@ 10069fb8     libucrt:nlsdata.obj
 0002:00006fcc       ??_C@_1BC@BGLIFPF@?$AAN?$AAo?$AAv?$AAe?$AAm?$AAb?$AAe?$AAr?$AA?$AA@ 10069fcc     libucrt:nlsdata.obj
 0002:00006fe4       ??_C@_1BC@FEMKIFH@?$AAD?$AAe?$AAc?$AAe?$AAm?$AAb?$AAe?$AAr?$AA?$AA@ 10069fe4     libucrt:nlsdata.obj
 0002:00006ffc       ??_C@_15ODEHAHHF@?$AAA?$AAM?$AA?$AA@ 10069ffc     libucrt:nlsdata.obj
 0002:00007004       ??_C@_15CLMNNGEL@?$AAP?$AAM?$AA?$AA@ 1006a004     libucrt:nlsdata.obj
 0002:0000700c       ??_C@_1BC@IEBCMHCM@?$AAM?$AAM?$AA?1?$AAd?$AAd?$AA?1?$AAy?$AAy?$AA?$AA@ 1006a00c     libucrt:nlsdata.obj
 0002:00007024       ??_C@_1CI@KNAKOEBC@?$AAd?$AAd?$AAd?$AAd?$AA?0?$AA?5?$AAM?$AAM?$AAM?$AAM?$AA?5?$AAd?$AAd?$AA?0?$AA?5?$AAy?$AAy?$AAy?$AAy?$AA?$AA@ 1006a024     libucrt:nlsdata.obj
 0002:00007054       ??_C@_1BC@GDGBMEMK@?$AAH?$AAH?$AA?3?$AAm?$AAm?$AA?3?$AAs?$AAs?$AA?$AA@ 1006a054     libucrt:nlsdata.obj
 0002:0000706c       ??_C@_1M@BMHNFIME@?$AAe?$AAn?$AA?9?$AAU?$AAS?$AA?$AA@ 1006a06c     libucrt:nlsdata.obj
 0002:00007080       ___lc_time_c               1006a080     libucrt:nlsdata.obj
 0002:0000722c       ??_C@_1DE@JNGNBFGO@?$AAR?$AAu?$AAn?$AAt?$AAi?$AAm?$AAe?$AA?5?$AAE?$AAr?$AAr?$AAo?$AAr?$AA?$CB?$AA?6?$AA?6?$AAP?$AAr?$AAo?$AAg?$AAr?$AAa?$AAm?$AA?3?$AA?5?$AA?$AA@ 1006a22c     libucrt:report_runtime_error.obj
 0002:0000726c       ?ccs@?BL@???$__acrt_stdio_parse_mode@D@@YA?AU__acrt_stdio_stream_mode@@QBD@Z@4QBDB 1006a26c     libucrt:openfile.obj
 0002:00007270       ?utf8_encoding@?BL@???$__acrt_stdio_parse_mode@D@@YA?AU__acrt_stdio_stream_mode@@QBD@Z@4QBDB 1006a270     libucrt:openfile.obj
 0002:00007278       ?utf16_encoding@?BL@???$__acrt_stdio_parse_mode@D@@YA?AU__acrt_stdio_stream_mode@@QBD@Z@4QBDB 1006a278     libucrt:openfile.obj
 0002:00007284       ?unicode_encoding@?BL@???$__acrt_stdio_parse_mode@D@@YA?AU__acrt_stdio_stream_mode@@QBD@Z@4QBDB 1006a284     libucrt:openfile.obj
 0002:0000728c       ?ccs@?BL@???$__acrt_stdio_parse_mode@_W@@YA?AU__acrt_stdio_stream_mode@@QB_W@Z@4QB_WB 1006a28c     libucrt:openfile.obj
 0002:00007294       ?utf8_encoding@?BL@???$__acrt_stdio_parse_mode@_W@@YA?AU__acrt_stdio_stream_mode@@QB_W@Z@4QB_WB 1006a294     libucrt:openfile.obj
 0002:000072a0       ?utf16_encoding@?BL@???$__acrt_stdio_parse_mode@_W@@YA?AU__acrt_stdio_stream_mode@@QB_W@Z@4QB_WB 1006a2a0     libucrt:openfile.obj
 0002:000072b4       ?unicode_encoding@?BL@???$__acrt_stdio_parse_mode@_W@@YA?AU__acrt_stdio_stream_mode@@QB_W@Z@4QB_WB 1006a2b4     libucrt:openfile.obj
 0002:000072c8       __d_inf                    1006a2c8     libucrt:util.obj
 0002:000072d8       __d_ind                    1006a2d8     libucrt:util.obj
 0002:000072e8       __d_max                    1006a2e8     libucrt:util.obj
 0002:000072f8       __d_min                    1006a2f8     libucrt:util.obj
 0002:00007308       __d_mzero                  1006a308     libucrt:util.obj
 0002:00007348       ??_C@_1M@HPNHIDJI@?$AAj?$AAa?$AA?9?$AAJ?$AAP?$AA?$AA@ 1006a348     libucrt:mbctype.obj
 0002:00007358       ??_C@_1M@BIBDDEMK@?$AAz?$AAh?$AA?9?$AAC?$AAN?$AA?$AA@ 1006a358     libucrt:mbctype.obj
 0002:00007368       ??_C@_1M@JLOOOEGK@?$AAk?$AAo?$AA?9?$AAK?$AAR?$AA?$AA@ 1006a368     libucrt:mbctype.obj
 0002:00007378       ??_C@_1M@CLNBBOPM@?$AAz?$AAh?$AA?9?$AAT?$AAW?$AA?$AA@ 1006a378     libucrt:mbctype.obj
 0002:00007388       __wctype                   1006a388     libucrt:ctype.obj
 0002:000075f8       ___newctype                1006a5f8     libucrt:ctype.obj
 0002:00007998       ___newclmap                1006a998     libucrt:ctype.obj
 0002:00007b68       ___newcumap                1006ab68     libucrt:ctype.obj
 0002:000085c4       ??_C@_15EMKDOKLE@?$AAa?$AAr?$AA?$AA@ 1006b5c4     libucrt:lcidtoname_downlevel.obj
 0002:000085cc       ??_C@_15KNPADPLH@?$AAb?$AAg?$AA?$AA@ 1006b5cc     libucrt:lcidtoname_downlevel.obj
 0002:000085d4       ??_C@_15EDMHLDMO@?$AAc?$AAa?$AA?$AA@ 1006b5d4     libucrt:lcidtoname_downlevel.obj
 0002:000085dc       ??_C@_1O@BPEAJADD@?$AAz?$AAh?$AA?9?$AAC?$AAH?$AAS?$AA?$AA@ 1006b5dc     libucrt:lcidtoname_downlevel.obj
 0002:000085ec       ??_C@_15LJNHCMNK@?$AAc?$AAs?$AA?$AA@ 1006b5ec     libucrt:lcidtoname_downlevel.obj
 0002:000085f4       ??_C@_15FOMCIDHG@?$AAd?$AAa?$AA?$AA@ 1006b5f4     libucrt:lcidtoname_downlevel.obj
 0002:000085fc       ??_C@_15NBKABECB@?$AAd?$AAe?$AA?$AA@ 1006b5fc     libucrt:lcidtoname_downlevel.obj
 0002:00008604       ??_C@_15GHPEIIAO@?$AAe?$AAl?$AA?$AA@ 1006b604     libucrt:lcidtoname_downlevel.obj
 0002:0000860c       ??_C@_15MNPNEAIF@?$AAe?$AAn?$AA?$AA@ 1006b60c     libucrt:lcidtoname_downlevel.obj
 0002:00008614       ??_C@_15GPIOMPMH@?$AAe?$AAs?$AA?$AA@ 1006b614     libucrt:lcidtoname_downlevel.obj
 0002:0000861c       ??_C@_15NGLOAKJC@?$AAf?$AAi?$AA?$AA@ 1006b61c     libucrt:lcidtoname_downlevel.obj
 0002:00008624       ??_C@_15FBKGNKAM@?$AAf?$AAr?$AA?$AA@ 1006b624     libucrt:lcidtoname_downlevel.obj
 0002:0000862c       ??_C@_15KGGCNEFK@?$AAh?$AAe?$AA?$AA@ 1006b62c     libucrt:lcidtoname_downlevel.obj
 0002:00008634       ??_C@_15PGHLIDMF@?$AAh?$AAu?$AA?$AA@ 1006b634     libucrt:lcidtoname_downlevel.obj
 0002:0000863c       ??_C@_15BIEMAPLM@?$AAi?$AAs?$AA?$AA@ 1006b63c     libucrt:lcidtoname_downlevel.obj
 0002:00008644       ??_C@_15IFJLDHAF@?$AAi?$AAt?$AA?$AA@ 1006b644     libucrt:lcidtoname_downlevel.obj
 0002:0000864c       ??_C@_15GEMIOCAG@?$AAj?$AAa?$AA?$AA@ 1006b64c     libucrt:lcidtoname_downlevel.obj
 0002:00008654       ??_C@_15EPELEGJA@?$AAk?$AAo?$AA?$AA@ 1006b654     libucrt:lcidtoname_downlevel.obj
 0002:0000865c       ??_C@_15NDDHIMN@?$AAn?$AAl?$AA?$AA@ 1006b65c     libucrt:lcidtoname_downlevel.obj
 0002:00008664       ??_C@_15BPIGNHCD@?$AAn?$AAo?$AA?$AA@ 1006b664     libucrt:lcidtoname_downlevel.obj
 0002:0000866c       ??_C@_15DEOPBLCG@?$AAp?$AAl?$AA?$AA@ 1006b66c     libucrt:lcidtoname_downlevel.obj
 0002:00008674       ??_C@_15KBECGEFG@?$AAp?$AAt?$AA?$AA@ 1006b674     libucrt:lcidtoname_downlevel.obj
 0002:0000867c       ??_C@_15GLJCBFMD@?$AAr?$AAo?$AA?$AA@ 1006b67c     libucrt:lcidtoname_downlevel.obj
 0002:00008684       ??_C@_15FEDGKCDI@?$AAr?$AAu?$AA?$AA@ 1006b684     libucrt:lcidtoname_downlevel.obj
 0002:0000868c       ??_C@_15GLKMLLHM@?$AAh?$AAr?$AA?$AA@ 1006b68c     libucrt:lcidtoname_downlevel.obj
 0002:00008694       ??_C@_15CPKMFBDB@?$AAs?$AAk?$AA?$AA@ 1006b694     libucrt:lcidtoname_downlevel.obj
 0002:0000869c       ??_C@_15BAAIOGMK@?$AAs?$AAq?$AA?$AA@ 1006b69c     libucrt:lcidtoname_downlevel.obj
 0002:000086a4       ??_C@_15INNPNOHD@?$AAs?$AAv?$AA?$AA@ 1006b6a4     libucrt:lcidtoname_downlevel.obj
 0002:000086ac       ??_C@_15CABMMOGH@?$AAt?$AAh?$AA?$AA@ 1006b6ac     libucrt:lcidtoname_downlevel.obj
 0002:000086b4       ??_C@_15BPLIHJJM@?$AAt?$AAr?$AA?$AA@ 1006b6b4     libucrt:lcidtoname_downlevel.obj
 0002:000086bc       ??_C@_15NEOEKKDJ@?$AAu?$AAr?$AA?$AA@ 1006b6bc     libucrt:lcidtoname_downlevel.obj
 0002:000086c4       ??_C@_15NFICGAJK@?$AAi?$AAd?$AA?$AA@ 1006b6c4     libucrt:lcidtoname_downlevel.obj
 0002:000086cc       ??_C@_15PJPFLCCM@?$AAu?$AAk?$AA?$AA@ 1006b6cc     libucrt:lcidtoname_downlevel.obj
 0002:000086d4       ??_C@_15HPJPHDM@?$AAb?$AAe?$AA?$AA@ 1006b6d4     libucrt:lcidtoname_downlevel.obj
 0002:000086dc       ??_C@_15LCHLGJII@?$AAs?$AAl?$AA?$AA@ 1006b6dc     libucrt:lcidtoname_downlevel.obj
 0002:000086e4       ??_C@_15PCFJPHHO@?$AAe?$AAt?$AA?$AA@ 1006b6e4     libucrt:lcidtoname_downlevel.obj
 0002:000086ec       ??_C@_15HPFPGODN@?$AAl?$AAv?$AA?$AA@ 1006b6ec     libucrt:lcidtoname_downlevel.obj
 0002:000086f4       ??_C@_15NFFGKGLG@?$AAl?$AAt?$AA?$AA@ 1006b6f4     libucrt:lcidtoname_downlevel.obj
 0002:000086fc       ??_C@_15BDAKCCHN@?$AAf?$AAa?$AA?$AA@ 1006b6fc     libucrt:lcidtoname_downlevel.obj
 0002:00008704       ??_C@_15NFGIAIAJ@?$AAv?$AAi?$AA?$AA@ 1006b704     libucrt:lcidtoname_downlevel.obj
 0002:0000870c       ??_C@_15LMKNDMHN@?$AAh?$AAy?$AA?$AA@ 1006b70c     libucrt:lcidtoname_downlevel.obj
 0002:00008714       ??_C@_15IJBHMCFL@?$AAa?$AAz?$AA?$AA@ 1006b714     libucrt:lcidtoname_downlevel.obj
 0002:0000871c       ??_C@_15EKOFJABL@?$AAe?$AAu?$AA?$AA@ 1006b71c     libucrt:lcidtoname_downlevel.obj
 0002:00008724       ??_C@_15BGHADCNK@?$AAm?$AAk?$AA?$AA@ 1006b724     libucrt:lcidtoname_downlevel.obj
 0002:0000872c       ??_C@_15JDNICKHM@?$AAa?$AAf?$AA?$AA@ 1006b72c     libucrt:lcidtoname_downlevel.obj
 0002:00008734       ??_C@_15KPJEDBKD@?$AAk?$AAa?$AA?$AA@ 1006b734     libucrt:lcidtoname_downlevel.obj
 0002:0000873c       ??_C@_15PDNFFFEO@?$AAf?$AAo?$AA?$AA@ 1006b73c     libucrt:lcidtoname_downlevel.obj
 0002:00008744       ??_C@_15OMLEGLOC@?$AAh?$AAi?$AA?$AA@ 1006b744     libucrt:lcidtoname_downlevel.obj
 0002:0000874c       ??_C@_15IDNNENKK@?$AAm?$AAs?$AA?$AA@ 1006b74c     libucrt:lcidtoname_downlevel.obj
 0002:00008754       ??_C@_15MACJNBMH@?$AAk?$AAk?$AA?$AA@ 1006b754     libucrt:lcidtoname_downlevel.obj
 0002:0000875c       ??_C@_15DKDJEOND@?$AAk?$AAy?$AA?$AA@ 1006b75c     libucrt:lcidtoname_downlevel.obj
 0002:00008764       ??_C@_15DFGDLJBG@?$AAs?$AAw?$AA?$AA@ 1006b764     libucrt:lcidtoname_downlevel.obj
 0002:0000876c       ??_C@_15BBFAICNG@?$AAu?$AAz?$AA?$AA@ 1006b76c     libucrt:lcidtoname_downlevel.obj
 0002:00008774       ??_C@_15DKNDCGEA@?$AAt?$AAt?$AA?$AA@ 1006b774     libucrt:lcidtoname_downlevel.obj
 0002:0000877c       ??_C@_15MGIFMDPL@?$AAp?$AAa?$AA?$AA@ 1006b77c     libucrt:lcidtoname_downlevel.obj
 0002:00008784       ??_C@_15HCNDBBA@?$AAg?$AAu?$AA?$AA@ 1006b784     libucrt:lcidtoname_downlevel.obj
 0002:0000878c       ??_C@_15FNBEIBON@?$AAt?$AAa?$AA?$AA@ 1006b78c     libucrt:lcidtoname_downlevel.obj
 0002:00008794       ??_C@_15NCHGBGLK@?$AAt?$AAe?$AA?$AA@ 1006b794     libucrt:lcidtoname_downlevel.obj
 0002:0000879c       ??_C@_15PHPHCBPF@?$AAk?$AAn?$AA?$AA@ 1006b79c     libucrt:lcidtoname_downlevel.obj
 0002:000087a4       ??_C@_15DLGBCKMP@?$AAm?$AAr?$AA?$AA@ 1006b7a4     libucrt:lcidtoname_downlevel.obj
 0002:000087ac       ??_C@_15EABBLBFF@?$AAs?$AAa?$AA?$AA@ 1006b7ac     libucrt:lcidtoname_downlevel.obj
 0002:000087b4       ??_C@_15CBKOMCOI@?$AAm?$AAn?$AA?$AA@ 1006b7b4     libucrt:lcidtoname_downlevel.obj
 0002:000087bc       ??_C@_15CKDMCJAF@?$AAg?$AAl?$AA?$AA@ 1006b7bc     libucrt:lcidtoname_downlevel.obj
 0002:000087c4       ??_C@_17CNJFBPG@?$AAk?$AAo?$AAk?$AA?$AA@ 1006b7c4     libucrt:lcidtoname_downlevel.obj
 0002:000087d0       ??_C@_17FFBJICPL@?$AAs?$AAy?$AAr?$AA?$AA@ 1006b7d0     libucrt:lcidtoname_downlevel.obj
 0002:000087dc       ??_C@_17KPNDCPAF@?$AAd?$AAi?$AAv?$AA?$AA@ 1006b7dc     libucrt:lcidtoname_downlevel.obj
 0002:000087e8       ??_C@_11LOCGONAA@?$AA?$AA@ 1006b7e8     libucrt:lcidtoname_downlevel.obj
 0002:000087ec       ??_C@_1M@OKAHONE@?$AAa?$AAr?$AA?9?$AAS?$AAA?$AA?$AA@ 1006b7ec     libucrt:lcidtoname_downlevel.obj
 0002:000087fc       ??_C@_1M@FFFIGIGK@?$AAb?$AAg?$AA?9?$AAB?$AAG?$AA?$AA@ 1006b7fc     libucrt:lcidtoname_downlevel.obj
 0002:0000880c       ??_C@_1M@BJNKEDC@?$AAc?$AAa?$AA?9?$AAE?$AAS?$AA?$AA@ 1006b80c     libucrt:lcidtoname_downlevel.obj
 0002:0000881c       ??_C@_1M@IJJHFJHA@?$AAc?$AAs?$AA?9?$AAC?$AAZ?$AA?$AA@ 1006b81c     libucrt:lcidtoname_downlevel.obj
 0002:0000882c       ??_C@_1M@CLPEOBGI@?$AAd?$AAa?$AA?9?$AAD?$AAK?$AA?$AA@ 1006b82c     libucrt:lcidtoname_downlevel.obj
 0002:0000883c       ??_C@_1M@MCMADGCB@?$AAd?$AAe?$AA?9?$AAD?$AAE?$AA?$AA@ 1006b83c     libucrt:lcidtoname_downlevel.obj
 0002:0000884c       ??_C@_1M@OOCKEMAM@?$AAe?$AAl?$AA?9?$AAG?$AAR?$AA?$AA@ 1006b84c     libucrt:lcidtoname_downlevel.obj
 0002:0000885c       ??_C@_1M@DDNJFGID@?$AAf?$AAi?$AA?9?$AAF?$AAI?$AA?$AA@ 1006b85c     libucrt:lcidtoname_downlevel.obj
 0002:0000886c       ??_C@_1M@GLIPPMAC@?$AAf?$AAr?$AA?9?$AAF?$AAR?$AA?$AA@ 1006b86c     libucrt:lcidtoname_downlevel.obj
 0002:0000887c       ??_C@_1M@GFMCHPE@?$AAh?$AAe?$AA?9?$AAI?$AAL?$AA?$AA@ 1006b87c     libucrt:lcidtoname_downlevel.obj
 0002:0000888c       ??_C@_1M@MHLPGNKM@?$AAh?$AAu?$AA?9?$AAH?$AAU?$AA?$AA@ 1006b88c     libucrt:lcidtoname_downlevel.obj
 0002:0000889c       ??_C@_1M@LPDDNNPN@?$AAi?$AAs?$AA?9?$AAI?$AAS?$AA?$AA@ 1006b89c     libucrt:lcidtoname_downlevel.obj
 0002:000088ac       ??_C@_1M@MADIPODN@?$AAi?$AAt?$AA?9?$AAI?$AAT?$AA?$AA@ 1006b8ac     libucrt:lcidtoname_downlevel.obj
 0002:000088bc       ??_C@_1M@IHBJJGG@?$AAn?$AAl?$AA?9?$AAN?$AAL?$AA?$AA@ 1006b8bc     libucrt:lcidtoname_downlevel.obj
 0002:000088cc       ??_C@_1M@EANAGDL@?$AAn?$AAb?$AA?9?$AAN?$AAO?$AA?$AA@ 1006b8cc     libucrt:lcidtoname_downlevel.obj
 0002:000088dc       ??_C@_1M@NEIEMEGP@?$AAp?$AAl?$AA?9?$AAP?$AAL?$AA?$AA@ 1006b8dc     libucrt:lcidtoname_downlevel.obj
 0002:000088ec       ??_C@_1M@BOCFIGEP@?$AAp?$AAt?$AA?9?$AAB?$AAR?$AA?$AA@ 1006b8ec     libucrt:lcidtoname_downlevel.obj
 0002:000088fc       ??_C@_1M@IMPFOPBG@?$AAr?$AAo?$AA?9?$AAR?$AAO?$AA?$AA@ 1006b8fc     libucrt:lcidtoname_downlevel.obj
 0002:0000890c       ??_C@_1M@IDNNEJMM@?$AAr?$AAu?$AA?9?$AAR?$AAU?$AA?$AA@ 1006b90c     libucrt:lcidtoname_downlevel.obj
 0002:0000891c       ??_C@_1M@LILEEOGM@?$AAh?$AAr?$AA?9?$AAH?$AAR?$AA?$AA@ 1006b91c     libucrt:lcidtoname_downlevel.obj
 0002:0000892c       ??_C@_1M@FKIFEHPB@?$AAs?$AAk?$AA?9?$AAS?$AAK?$AA?$AA@ 1006b92c     libucrt:lcidtoname_downlevel.obj
 0002:0000893c       ??_C@_1M@LJMAMNPJ@?$AAs?$AAq?$AA?9?$AAA?$AAL?$AA?$AA@ 1006b93c     libucrt:lcidtoname_downlevel.obj
 0002:0000894c       ??_C@_1M@GIAKDKJK@?$AAs?$AAv?$AA?9?$AAS?$AAE?$AA?$AA@ 1006b94c     libucrt:lcidtoname_downlevel.obj
 0002:0000895c       ??_C@_1M@MKJKIKCL@?$AAt?$AAh?$AA?9?$AAT?$AAH?$AA?$AA@ 1006b95c     libucrt:lcidtoname_downlevel.obj
 0002:0000896c       ??_C@_1M@MFLCCMPB@?$AAt?$AAr?$AA?9?$AAT?$AAR?$AA?$AA@ 1006b96c     libucrt:lcidtoname_downlevel.obj
 0002:0000897c       ??_C@_1M@OIJHDKJN@?$AAu?$AAr?$AA?9?$AAP?$AAK?$AA?$AA@ 1006b97c     libucrt:lcidtoname_downlevel.obj
 0002:0000898c       ??_C@_1M@LHIPCIEK@?$AAi?$AAd?$AA?9?$AAI?$AAD?$AA?$AA@ 1006b98c     libucrt:lcidtoname_downlevel.obj
 0002:0000899c       ??_C@_1M@MFMOBGI@?$AAu?$AAk?$AA?9?$AAU?$AAA?$AA?$AA@ 1006b99c     libucrt:lcidtoname_downlevel.obj
 0002:000089ac       ??_C@_1M@OBGLJIPL@?$AAb?$AAe?$AA?9?$AAB?$AAY?$AA?$AA@ 1006b9ac     libucrt:lcidtoname_downlevel.obj
 0002:000089bc       ??_C@_1M@BCFAJEAD@?$AAs?$AAl?$AA?9?$AAS?$AAI?$AA?$AA@ 1006b9bc     libucrt:lcidtoname_downlevel.obj
 0002:000089cc       ??_C@_1M@FKFFEDDN@?$AAe?$AAt?$AA?9?$AAE?$AAE?$AA?$AA@ 1006b9cc     libucrt:lcidtoname_downlevel.obj
 0002:000089dc       ??_C@_1M@KGKKAACI@?$AAl?$AAv?$AA?9?$AAL?$AAV?$AA?$AA@ 1006b9dc     libucrt:lcidtoname_downlevel.obj
 0002:000089ec       ??_C@_1M@IFGBIJO@?$AAl?$AAt?$AA?9?$AAL?$AAT?$AA?$AA@ 1006b9ec     libucrt:lcidtoname_downlevel.obj
 0002:000089fc       ??_C@_1M@FGEAHEDM@?$AAf?$AAa?$AA?9?$AAI?$AAR?$AA?$AA@ 1006b9fc     libucrt:lcidtoname_downlevel.obj
 0002:00008a0c       ??_C@_1M@KBMAIBFN@?$AAv?$AAi?$AA?9?$AAV?$AAN?$AA?$AA@ 1006ba0c     libucrt:lcidtoname_downlevel.obj
 0002:00008a1c       ??_C@_1M@GPCBKDJK@?$AAh?$AAy?$AA?9?$AAA?$AAM?$AA?$AA@ 1006ba1c     libucrt:lcidtoname_downlevel.obj
 0002:00008a2c       ??_C@_1BG@BECMDDJB@?$AAa?$AAz?$AA?9?$AAA?$AAZ?$AA?9?$AAL?$AAa?$AAt?$AAn?$AA?$AA@ 1006ba2c     libucrt:lcidtoname_downlevel.obj
 0002:00008a48       ??_C@_1M@MAOFCAEA@?$AAe?$AAu?$AA?9?$AAE?$AAS?$AA?$AA@ 1006ba48     libucrt:lcidtoname_downlevel.obj
 0002:00008a58       ??_C@_1M@IGHABKPI@?$AAm?$AAk?$AA?9?$AAM?$AAK?$AA?$AA@ 1006ba58     libucrt:lcidtoname_downlevel.obj
 0002:00008a68       ??_C@_1M@IAIGNEJG@?$AAt?$AAn?$AA?9?$AAZ?$AAA?$AA?$AA@ 1006ba68     libucrt:lcidtoname_downlevel.obj
 0002:00008a78       ??_C@_1M@IIJCOJFA@?$AAx?$AAh?$AA?9?$AAZ?$AAA?$AA?$AA@ 1006ba78     libucrt:lcidtoname_downlevel.obj
 0002:00008a88       ??_C@_1M@LGPJHNJH@?$AAz?$AAu?$AA?9?$AAZ?$AAA?$AA?$AA@ 1006ba88     libucrt:lcidtoname_downlevel.obj
 0002:00008a98       ??_C@_1M@HOKAOIO@?$AAa?$AAf?$AA?9?$AAZ?$AAA?$AA?$AA@ 1006ba98     libucrt:lcidtoname_downlevel.obj
 0002:00008aa8       ??_C@_1M@DPCLHLIE@?$AAk?$AAa?$AA?9?$AAG?$AAE?$AA?$AA@ 1006baa8     libucrt:lcidtoname_downlevel.obj
 0002:00008ab8       ??_C@_1M@BLKMHJBI@?$AAf?$AAo?$AA?9?$AAF?$AAO?$AA?$AA@ 1006bab8     libucrt:lcidtoname_downlevel.obj
 0002:00008ac8       ??_C@_1M@LGGJAPPB@?$AAh?$AAi?$AA?9?$AAI?$AAN?$AA?$AA@ 1006bac8     libucrt:lcidtoname_downlevel.obj
 0002:00008ad8       ??_C@_1M@FIKPIHFE@?$AAm?$AAt?$AA?9?$AAM?$AAT?$AA?$AA@ 1006bad8     libucrt:lcidtoname_downlevel.obj
 0002:00008ae8       ??_C@_1M@HEGGPBFA@?$AAs?$AAe?$AA?9?$AAN?$AAO?$AA?$AA@ 1006bae8     libucrt:lcidtoname_downlevel.obj
 0002:00008af8       ??_C@_1M@EIBJEEPA@?$AAm?$AAs?$AA?9?$AAM?$AAY?$AA?$AA@ 1006baf8     libucrt:lcidtoname_downlevel.obj
 0002:00008b08       ??_C@_1M@FHLBGMPP@?$AAk?$AAk?$AA?9?$AAK?$AAZ?$AA?$AA@ 1006bb08     libucrt:lcidtoname_downlevel.obj
 0002:00008b18       ??_C@_1M@NGJJLCGI@?$AAk?$AAy?$AA?9?$AAK?$AAG?$AA?$AA@ 1006bb18     libucrt:lcidtoname_downlevel.obj
 0002:00008b28       ??_C@_1M@GIENNBFC@?$AAs?$AAw?$AA?9?$AAK?$AAE?$AA?$AA@ 1006bb28     libucrt:lcidtoname_downlevel.obj
 0002:00008b38       ??_C@_1BG@NDGMJIMJ@?$AAu?$AAz?$AA?9?$AAU?$AAZ?$AA?9?$AAL?$AAa?$AAt?$AAn?$AA?$AA@ 1006bb38     libucrt:lcidtoname_downlevel.obj
 0002:00008b54       ??_C@_1M@IDCCIHBC@?$AAt?$AAt?$AA?9?$AAR?$AAU?$AA?$AA@ 1006bb54     libucrt:lcidtoname_downlevel.obj
 0002:00008b64       ??_C@_1M@LOICPMOJ@?$AAb?$AAn?$AA?9?$AAI?$AAN?$AA?$AA@ 1006bb64     libucrt:lcidtoname_downlevel.obj
 0002:00008b74       ??_C@_1M@KPKKNEAH@?$AAp?$AAa?$AA?9?$AAI?$AAN?$AA?$AA@ 1006bb74     libucrt:lcidtoname_downlevel.obj
 0002:00008b84       ??_C@_1M@PJGPPBOG@?$AAg?$AAu?$AA?9?$AAI?$AAN?$AA?$AA@ 1006bb84     libucrt:lcidtoname_downlevel.obj
 0002:00008b94       ??_C@_1M@KMKMOPHI@?$AAt?$AAa?$AA?9?$AAI?$AAN?$AA?$AA@ 1006bb94     libucrt:lcidtoname_downlevel.obj
 0002:00008ba4       ??_C@_1M@KFEHEPAC@?$AAt?$AAe?$AA?9?$AAI?$AAN?$AA?$AA@ 1006bba4     libucrt:lcidtoname_downlevel.obj
 0002:00008bb4       ??_C@_1M@CDCLMGHI@?$AAk?$AAn?$AA?9?$AAI?$AAN?$AA?$AA@ 1006bbb4     libucrt:lcidtoname_downlevel.obj
 0002:00008bc4       ??_C@_1M@MIODLDKF@?$AAm?$AAl?$AA?9?$AAI?$AAN?$AA?$AA@ 1006bbc4     libucrt:lcidtoname_downlevel.obj
 0002:00008bd4       ??_C@_1M@PBIEACPO@?$AAm?$AAr?$AA?9?$AAI?$AAN?$AA?$AA@ 1006bbd4     libucrt:lcidtoname_downlevel.obj
 0002:00008be4       ??_C@_1M@NIDEAGPH@?$AAs?$AAa?$AA?9?$AAI?$AAN?$AA?$AA@ 1006bbe4     libucrt:lcidtoname_downlevel.obj
 0002:00008bf4       ??_C@_1M@FHIHCBIO@?$AAm?$AAn?$AA?9?$AAM?$AAN?$AA?$AA@ 1006bbf4     libucrt:lcidtoname_downlevel.obj
 0002:00008c04       ??_C@_1M@JAIJPENP@?$AAc?$AAy?$AA?9?$AAG?$AAB?$AA?$AA@ 1006bc04     libucrt:lcidtoname_downlevel.obj
 0002:00008c14       ??_C@_1M@PHGFBEPN@?$AAg?$AAl?$AA?9?$AAE?$AAS?$AA?$AA@ 1006bc14     libucrt:lcidtoname_downlevel.obj
 0002:00008c24       ??_C@_1O@KPIPDNCP@?$AAk?$AAo?$AAk?$AA?9?$AAI?$AAN?$AA?$AA@ 1006bc24     libucrt:lcidtoname_downlevel.obj
 0002:00008c34       ??_C@_1O@KNHJLDJA@?$AAs?$AAy?$AAr?$AA?9?$AAS?$AAY?$AA?$AA@ 1006bc34     libucrt:lcidtoname_downlevel.obj
 0002:00008c44       ??_C@_1O@MKEKBLAH@?$AAd?$AAi?$AAv?$AA?9?$AAM?$AAV?$AA?$AA@ 1006bc44     libucrt:lcidtoname_downlevel.obj
 0002:00008c54       ??_C@_1O@OHDCKDDF@?$AAq?$AAu?$AAz?$AA?9?$AAB?$AAO?$AA?$AA@ 1006bc54     libucrt:lcidtoname_downlevel.obj
 0002:00008c64       ??_C@_1M@LEPJNLFD@?$AAn?$AAs?$AA?9?$AAZ?$AAA?$AA?$AA@ 1006bc64     libucrt:lcidtoname_downlevel.obj
 0002:00008c74       ??_C@_1M@OMLEIIJB@?$AAm?$AAi?$AA?9?$AAN?$AAZ?$AA?$AA@ 1006bc74     libucrt:lcidtoname_downlevel.obj
 0002:00008c84       ??_C@_1M@PMPEAILG@?$AAa?$AAr?$AA?9?$AAI?$AAQ?$AA?$AA@ 1006bc84     libucrt:lcidtoname_downlevel.obj
 0002:00008c94       ??_C@_1M@CNKPNOEE@?$AAd?$AAe?$AA?9?$AAC?$AAH?$AA?$AA@ 1006bc94     libucrt:lcidtoname_downlevel.obj
 0002:00008ca4       ??_C@_1M@LKMGMLKO@?$AAe?$AAn?$AA?9?$AAG?$AAB?$AA?$AA@ 1006bca4     libucrt:lcidtoname_downlevel.obj
 0002:00008cb4       ??_C@_1M@PGKJFFGL@?$AAe?$AAs?$AA?9?$AAM?$AAX?$AA?$AA@ 1006bcb4     libucrt:lcidtoname_downlevel.obj
 0002:00008cc4       ??_C@_1M@DNNANBDC@?$AAf?$AAr?$AA?9?$AAB?$AAE?$AA?$AA@ 1006bcc4     libucrt:lcidtoname_downlevel.obj
 0002:00008cd4       ??_C@_1M@HLGMDFHM@?$AAi?$AAt?$AA?9?$AAC?$AAH?$AA?$AA@ 1006bcd4     libucrt:lcidtoname_downlevel.obj
 0002:00008ce4       ??_C@_1M@CLLBGJH@?$AAn?$AAl?$AA?9?$AAB?$AAE?$AA?$AA@ 1006bce4     libucrt:lcidtoname_downlevel.obj
 0002:00008cf4       ??_C@_1M@BODBOGLF@?$AAn?$AAn?$AA?9?$AAN?$AAO?$AA?$AA@ 1006bcf4     libucrt:lcidtoname_downlevel.obj
 0002:00008d04       ??_C@_1M@HFFAHKAD@?$AAp?$AAt?$AA?9?$AAP?$AAT?$AA?$AA@ 1006bd04     libucrt:lcidtoname_downlevel.obj
 0002:00008d14       ??_C@_1BG@LNOAKHIE@?$AAs?$AAr?$AA?9?$AAS?$AAP?$AA?9?$AAL?$AAa?$AAt?$AAn?$AA?$AA@ 1006bd14     libucrt:lcidtoname_downlevel.obj
 0002:00008d30       ??_C@_1M@HBMHBGAK@?$AAs?$AAv?$AA?9?$AAF?$AAI?$AA?$AA@ 1006bd30     libucrt:lcidtoname_downlevel.obj
 0002:00008d40       ??_C@_1BG@DGCJGJBE@?$AAa?$AAz?$AA?9?$AAA?$AAZ?$AA?9?$AAC?$AAy?$AAr?$AAl?$AA?$AA@ 1006bd40     libucrt:lcidtoname_downlevel.obj
 0002:00008d5c       ??_C@_1M@KEJDAAHB@?$AAs?$AAe?$AA?9?$AAS?$AAE?$AA?$AA@ 1006bd5c     libucrt:lcidtoname_downlevel.obj
 0002:00008d6c       ??_C@_1M@HEIBJJAD@?$AAm?$AAs?$AA?9?$AAB?$AAN?$AA?$AA@ 1006bd6c     libucrt:lcidtoname_downlevel.obj
 0002:00008d7c       ??_C@_1BG@PBGJMCEM@?$AAu?$AAz?$AA?9?$AAU?$AAZ?$AA?9?$AAC?$AAy?$AAr?$AAl?$AA?$AA@ 1006bd7c     libucrt:lcidtoname_downlevel.obj
 0002:00008d98       ??_C@_1O@LAOBCMDF@?$AAq?$AAu?$AAz?$AA?9?$AAE?$AAC?$AA?$AA@ 1006bd98     libucrt:lcidtoname_downlevel.obj
 0002:00008da8       ??_C@_1M@POEEMAIO@?$AAa?$AAr?$AA?9?$AAE?$AAG?$AA?$AA@ 1006bda8     libucrt:lcidtoname_downlevel.obj
 0002:00008db8       ??_C@_1M@EFAKDEDL@?$AAz?$AAh?$AA?9?$AAH?$AAK?$AA?$AA@ 1006bdb8     libucrt:lcidtoname_downlevel.obj
 0002:00008dc8       ??_C@_1M@HKKIJHGI@?$AAd?$AAe?$AA?9?$AAA?$AAT?$AA?$AA@ 1006bdc8     libucrt:lcidtoname_downlevel.obj
 0002:00008dd8       ??_C@_1M@KBFBEHJF@?$AAe?$AAn?$AA?9?$AAA?$AAU?$AA?$AA@ 1006bdd8     libucrt:lcidtoname_downlevel.obj
 0002:00008de8       ??_C@_1M@MNPLFAAH@?$AAe?$AAs?$AA?9?$AAE?$AAS?$AA?$AA@ 1006bde8     libucrt:lcidtoname_downlevel.obj
 0002:00008df8       ??_C@_1M@HJOOJFMA@?$AAf?$AAr?$AA?9?$AAC?$AAA?$AA?$AA@ 1006bdf8     libucrt:lcidtoname_downlevel.obj
 0002:00008e08       ??_C@_1BG@JPOFPNAB@?$AAs?$AAr?$AA?9?$AAS?$AAP?$AA?9?$AAC?$AAy?$AAr?$AAl?$AA?$AA@ 1006be08     libucrt:lcidtoname_downlevel.obj
 0002:00008e24       ??_C@_1M@LNFOCMOB@?$AAs?$AAe?$AA?9?$AAF?$AAI?$AA?$AA@ 1006be24     libucrt:lcidtoname_downlevel.obj
 0002:00008e34       ??_C@_1O@MGJBOAMB@?$AAq?$AAu?$AAz?$AA?9?$AAP?$AAE?$AA?$AA@ 1006be34     libucrt:lcidtoname_downlevel.obj
 0002:00008e44       ??_C@_1M@GJINLBOK@?$AAa?$AAr?$AA?9?$AAL?$AAY?$AA?$AA@ 1006be44     libucrt:lcidtoname_downlevel.obj
 0002:00008e54       ??_C@_1M@GGMNHJNL@?$AAz?$AAh?$AA?9?$AAS?$AAG?$AA?$AA@ 1006be54     libucrt:lcidtoname_downlevel.obj
 0002:00008e64       ??_C@_1M@HOIKODND@?$AAd?$AAe?$AA?9?$AAL?$AAU?$AA?$AA@ 1006be64     libucrt:lcidtoname_downlevel.obj
 0002:00008e74       ??_C@_1M@DDOCCGFG@?$AAe?$AAn?$AA?9?$AAC?$AAA?$AA?$AA@ 1006be74     libucrt:lcidtoname_downlevel.obj
 0002:00008e84       ??_C@_1M@BNOEMJLF@?$AAe?$AAs?$AA?9?$AAG?$AAT?$AA?$AA@ 1006be84     libucrt:lcidtoname_downlevel.obj
 0002:00008e94       ??_C@_1M@EOGNKEK@?$AAf?$AAr?$AA?9?$AAC?$AAH?$AA?$AA@ 1006be94     libucrt:lcidtoname_downlevel.obj
 0002:00008ea4       ??_C@_1M@FLIDJFHL@?$AAh?$AAr?$AA?9?$AAB?$AAA?$AA?$AA@ 1006bea4     libucrt:lcidtoname_downlevel.obj
 0002:00008eb4       ??_C@_1O@FMCELNAJ@?$AAs?$AAm?$AAj?$AA?9?$AAN?$AAO?$AA?$AA@ 1006beb4     libucrt:lcidtoname_downlevel.obj
 0002:00008ec4       ??_C@_1M@JHGLJMGJ@?$AAa?$AAr?$AA?9?$AAD?$AAZ?$AA?$AA@ 1006bec4     libucrt:lcidtoname_downlevel.obj
 0002:00008ed4       ??_C@_1M@JKKFDCNP@?$AAz?$AAh?$AA?9?$AAM?$AAO?$AA?$AA@ 1006bed4     libucrt:lcidtoname_downlevel.obj
 0002:00008ee4       ??_C@_1M@GEEFALPE@?$AAd?$AAe?$AA?9?$AAL?$AAI?$AA?$AA@ 1006bee4     libucrt:lcidtoname_downlevel.obj
 0002:00008ef4       ??_C@_1M@IGEOFBG@?$AAe?$AAn?$AA?9?$AAN?$AAZ?$AA?$AA@ 1006bef4     libucrt:lcidtoname_downlevel.obj
 0002:00008f04       ??_C@_1M@KDBONEHP@?$AAe?$AAs?$AA?9?$AAC?$AAR?$AA?$AA@ 1006bf04     libucrt:lcidtoname_downlevel.obj
 0002:00008f14       ??_C@_1M@FHMDOHNN@?$AAf?$AAr?$AA?9?$AAL?$AAU?$AA?$AA@ 1006bf14     libucrt:lcidtoname_downlevel.obj
 0002:00008f24       ??_C@_1BG@NFKKMAFG@?$AAb?$AAs?$AA?9?$AAB?$AAA?$AA?9?$AAL?$AAa?$AAt?$AAn?$AA?$AA@ 1006bf24     libucrt:lcidtoname_downlevel.obj
 0002:00008f40       ??_C@_1O@IMNBEMCI@?$AAs?$AAm?$AAj?$AA?9?$AAS?$AAE?$AA?$AA@ 1006bf40     libucrt:lcidtoname_downlevel.obj
 0002:00008f50       ??_C@_1M@DHHMBNDP@?$AAa?$AAr?$AA?9?$AAM?$AAA?$AA?$AA@ 1006bf50     libucrt:lcidtoname_downlevel.obj
 0002:00008f60       ??_C@_1M@BNBLJCGH@?$AAe?$AAn?$AA?9?$AAI?$AAE?$AA?$AA@ 1006bf60     libucrt:lcidtoname_downlevel.obj
 0002:00008f70       ??_C@_1M@GEPAFMDL@?$AAe?$AAs?$AA?9?$AAP?$AAA?$AA?$AA@ 1006bf70     libucrt:lcidtoname_downlevel.obj
 0002:00008f80       ??_C@_1M@OJONDMDL@?$AAf?$AAr?$AA?9?$AAM?$AAC?$AA?$AA@ 1006bf80     libucrt:lcidtoname_downlevel.obj
 0002:00008f90       ??_C@_1BG@OBCNFJB@?$AAs?$AAr?$AA?9?$AAB?$AAA?$AA?9?$AAL?$AAa?$AAt?$AAn?$AA?$AA@ 1006bf90     libucrt:lcidtoname_downlevel.obj
 0002:00008fac       ??_C@_1O@KEMEEGPO@?$AAs?$AAm?$AAa?$AA?9?$AAN?$AAO?$AA?$AA@ 1006bfac     libucrt:lcidtoname_downlevel.obj
 0002:00008fbc       ??_C@_1M@ELMGFODK@?$AAa?$AAr?$AA?9?$AAT?$AAN?$AA?$AA@ 1006bfbc     libucrt:lcidtoname_downlevel.obj
 0002:00008fcc       ??_C@_1M@BHDLHFAF@?$AAe?$AAn?$AA?9?$AAZ?$AAA?$AA?$AA@ 1006bfcc     libucrt:lcidtoname_downlevel.obj
 0002:00008fdc       ??_C@_1M@BMGIGLIF@?$AAe?$AAs?$AA?9?$AAD?$AAO?$AA?$AA@ 1006bfdc     libucrt:lcidtoname_downlevel.obj
 0002:00008fec       ??_C@_1BG@CMBHIPBE@?$AAs?$AAr?$AA?9?$AAB?$AAA?$AA?9?$AAC?$AAy?$AAr?$AAl?$AA?$AA@ 1006bfec     libucrt:lcidtoname_downlevel.obj
 0002:00009008       ??_C@_1O@HEDBLHNP@?$AAs?$AAm?$AAa?$AA?9?$AAS?$AAE?$AA?$AA@ 1006c008     libucrt:lcidtoname_downlevel.obj
 0002:00009018       ??_C@_1M@DAGCADIM@?$AAa?$AAr?$AA?9?$AAO?$AAM?$AA?$AA@ 1006c018     libucrt:lcidtoname_downlevel.obj
 0002:00009028       ??_C@_1M@FODLMICG@?$AAe?$AAn?$AA?9?$AAJ?$AAM?$AA?$AA@ 1006c028     libucrt:lcidtoname_downlevel.obj
 0002:00009038       ??_C@_1M@DNMLCIHB@?$AAe?$AAs?$AA?9?$AAV?$AAE?$AA?$AA@ 1006c038     libucrt:lcidtoname_downlevel.obj
 0002:00009048       ??_C@_1O@EOKHMKJK@?$AAs?$AAm?$AAs?$AA?9?$AAF?$AAI?$AA?$AA@ 1006c048     libucrt:lcidtoname_downlevel.obj
 0002:00009058       ??_C@_1M@CAFJMKOF@?$AAa?$AAr?$AA?9?$AAY?$AAE?$AA?$AA@ 1006c058     libucrt:lcidtoname_downlevel.obj
 0002:00009068       ??_C@_1M@CBFHIJLI@?$AAe?$AAn?$AA?9?$AAC?$AAB?$AA?$AA@ 1006c068     libucrt:lcidtoname_downlevel.obj
 0002:00009078       ??_C@_1M@BGNFLDN@?$AAe?$AAs?$AA?9?$AAC?$AAO?$AA?$AA@ 1006c078     libucrt:lcidtoname_downlevel.obj
 0002:00009088       ??_C@_1O@JMPHMAMC@?$AAs?$AAm?$AAn?$AA?9?$AAF?$AAI?$AA?$AA@ 1006c088     libucrt:lcidtoname_downlevel.obj
 0002:00009098       ??_C@_1M@JLANABKE@?$AAa?$AAr?$AA?9?$AAS?$AAY?$AA?$AA@ 1006c098     libucrt:lcidtoname_downlevel.obj
 0002:000090a8       ??_C@_1M@HPKGCFGN@?$AAe?$AAn?$AA?9?$AAB?$AAZ?$AA?$AA@ 1006c0a8     libucrt:lcidtoname_downlevel.obj
 0002:000090b8       ??_C@_1M@OLJCMLGM@?$AAe?$AAs?$AA?9?$AAP?$AAE?$AA?$AA@ 1006c0b8     libucrt:lcidtoname_downlevel.obj
 0002:000090c8       ??_C@_1M@MKKGFKLE@?$AAa?$AAr?$AA?9?$AAJ?$AAO?$AA?$AA@ 1006c0c8     libucrt:lcidtoname_downlevel.obj
 0002:000090d8       ??_C@_1M@EKPGLDNI@?$AAe?$AAn?$AA?9?$AAT?$AAT?$AA?$AA@ 1006c0d8     libucrt:lcidtoname_downlevel.obj
 0002:000090e8       ??_C@_1M@OONGHFHE@?$AAe?$AAs?$AA?9?$AAA?$AAR?$AA?$AA@ 1006c0e8     libucrt:lcidtoname_downlevel.obj
 0002:000090f8       ??_C@_1M@OOJFGBHE@?$AAa?$AAr?$AA?9?$AAL?$AAB?$AA?$AA@ 1006c0f8     libucrt:lcidtoname_downlevel.obj
 0002:00009108       ??_C@_1M@GCEJHNEG@?$AAe?$AAn?$AA?9?$AAZ?$AAW?$AA?$AA@ 1006c108     libucrt:lcidtoname_downlevel.obj
 0002:00009118       ??_C@_1M@JNOCAHJI@?$AAe?$AAs?$AA?9?$AAE?$AAC?$AA?$AA@ 1006c118     libucrt:lcidtoname_downlevel.obj
 0002:00009128       ??_C@_1M@JEFHPGGB@?$AAa?$AAr?$AA?9?$AAK?$AAW?$AA?$AA@ 1006c128     libucrt:lcidtoname_downlevel.obj
 0002:00009138       ??_C@_1M@MLKIBJOJ@?$AAe?$AAn?$AA?9?$AAP?$AAH?$AA?$AA@ 1006c138     libucrt:lcidtoname_downlevel.obj
 0002:00009148       ??_C@_1M@BDNIPEND@?$AAe?$AAs?$AA?9?$AAC?$AAL?$AA?$AA@ 1006c148     libucrt:lcidtoname_downlevel.obj
 0002:00009158       ??_C@_1M@MPNMEKBD@?$AAa?$AAr?$AA?9?$AAA?$AAE?$AA?$AA@ 1006c158     libucrt:lcidtoname_downlevel.obj
 0002:00009168       ??_C@_1M@KBJALCPI@?$AAe?$AAs?$AA?9?$AAU?$AAY?$AA?$AA@ 1006c168     libucrt:lcidtoname_downlevel.obj
 0002:00009178       ??_C@_1M@LLCCOAGA@?$AAa?$AAr?$AA?9?$AAB?$AAH?$AA?$AA@ 1006c178     libucrt:lcidtoname_downlevel.obj
 0002:00009188       ??_C@_1M@PBFNCDEL@?$AAe?$AAs?$AA?9?$AAP?$AAY?$AA?$AA@ 1006c188     libucrt:lcidtoname_downlevel.obj
 0002:00009198       ??_C@_1M@EDGINPNP@?$AAa?$AAr?$AA?9?$AAQ?$AAA?$AA?$AA@ 1006c198     libucrt:lcidtoname_downlevel.obj
 0002:000091a8       ??_C@_1M@MKDBIIJI@?$AAe?$AAs?$AA?9?$AAB?$AAO?$AA?$AA@ 1006c1a8     libucrt:lcidtoname_downlevel.obj
 0002:000091b8       ??_C@_1M@CPKKEBLD@?$AAe?$AAs?$AA?9?$AAS?$AAV?$AA?$AA@ 1006c1b8     libucrt:lcidtoname_downlevel.obj
 0002:000091c8       ??_C@_1M@NDBGMMJL@?$AAe?$AAs?$AA?9?$AAH?$AAN?$AA?$AA@ 1006c1c8     libucrt:lcidtoname_downlevel.obj
 0002:000091d8       ??_C@_1M@JIJIBHDP@?$AAe?$AAs?$AA?9?$AAN?$AAI?$AA?$AA@ 1006c1d8     libucrt:lcidtoname_downlevel.obj
 0002:000091e8       ??_C@_1M@CGFMKEEK@?$AAe?$AAs?$AA?9?$AAP?$AAR?$AA?$AA@ 1006c1e8     libucrt:lcidtoname_downlevel.obj
 0002:000091f8       ??_C@_1O@ICJHKIIK@?$AAz?$AAh?$AA?9?$AAC?$AAH?$AAT?$AA?$AA@ 1006c1f8     libucrt:lcidtoname_downlevel.obj
 0002:00009208       ??_C@_15CLNEJCE@?$AAs?$AAr?$AA?$AA@ 1006c208     libucrt:lcidtoname_downlevel.obj
 0002:00009a9c       ??_C@_1M@KAHEKEIG@?$AAa?$AAf?$AA?9?$AAz?$AAa?$AA?$AA@ 1006ca9c     libucrt:lcidtoname_downlevel.obj
 0002:00009aac       ??_C@_1M@GIECOABL@?$AAa?$AAr?$AA?9?$AAa?$AAe?$AA?$AA@ 1006caac     libucrt:lcidtoname_downlevel.obj
 0002:00009abc       ??_C@_1M@BMLMEKGI@?$AAa?$AAr?$AA?9?$AAb?$AAh?$AA?$AA@ 1006cabc     libucrt:lcidtoname_downlevel.obj
 0002:00009acc       ??_C@_1M@DAPFDGGB@?$AAa?$AAr?$AA?9?$AAd?$AAz?$AA?$AA@ 1006cacc     libucrt:lcidtoname_downlevel.obj
 0002:00009adc       ??_C@_1M@FJNKGKIG@?$AAa?$AAr?$AA?9?$AAe?$AAg?$AA?$AA@ 1006cadc     libucrt:lcidtoname_downlevel.obj
 0002:00009aec       ??_C@_1M@FLGKKCLO@?$AAa?$AAr?$AA?9?$AAi?$AAq?$AA?$AA@ 1006caec     libucrt:lcidtoname_downlevel.obj
 0002:00009afc       ??_C@_1M@GNDIPALM@?$AAa?$AAr?$AA?9?$AAj?$AAo?$AA?$AA@ 1006cafc     libucrt:lcidtoname_downlevel.obj
 0002:00009b0c       ??_C@_1M@DDMJFMGJ@?$AAa?$AAr?$AA?9?$AAk?$AAw?$AA?$AA@ 1006cb0c     libucrt:lcidtoname_downlevel.obj
 0002:00009b1c       ??_C@_1M@EJALMLHM@?$AAa?$AAr?$AA?9?$AAl?$AAb?$AA?$AA@ 1006cb1c     libucrt:lcidtoname_downlevel.obj
 0002:00009b2c       ??_C@_1M@MOBDBLOC@?$AAa?$AAr?$AA?9?$AAl?$AAy?$AA?$AA@ 1006cb2c     libucrt:lcidtoname_downlevel.obj
 0002:00009b3c       ??_C@_1M@JAOCLHDH@?$AAa?$AAr?$AA?9?$AAm?$AAa?$AA?$AA@ 1006cb3c     libucrt:lcidtoname_downlevel.obj
 0002:00009b4c       ??_C@_1M@JHPMKJIE@?$AAa?$AAr?$AA?9?$AAo?$AAm?$AA?$AA@ 1006cb4c     libucrt:lcidtoname_downlevel.obj
 0002:00009b5c       ??_C@_1M@OEPGHFNH@?$AAa?$AAr?$AA?9?$AAq?$AAa?$AA?$AA@ 1006cb5c     libucrt:lcidtoname_downlevel.obj
 0002:00009b6c       ??_C@_1M@KJDONENM@?$AAa?$AAr?$AA?9?$AAs?$AAa?$AA?$AA@ 1006cb6c     libucrt:lcidtoname_downlevel.obj
 0002:00009b7c       ??_C@_1M@DMJDKLKM@?$AAa?$AAr?$AA?9?$AAs?$AAy?$AA?$AA@ 1006cb7c     libucrt:lcidtoname_downlevel.obj
 0002:00009b8c       ??_C@_1M@OMFIPEDC@?$AAa?$AAr?$AA?9?$AAt?$AAn?$AA?$AA@ 1006cb8c     libucrt:lcidtoname_downlevel.obj
 0002:00009b9c       ??_C@_1M@IHMHGAON@?$AAa?$AAr?$AA?9?$AAy?$AAe?$AA?$AA@ 1006cb9c     libucrt:lcidtoname_downlevel.obj
 0002:00009bac       ??_C@_1BG@KDCPGJGB@?$AAa?$AAz?$AA?9?$AAa?$AAz?$AA?9?$AAc?$AAy?$AAr?$AAl?$AA?$AA@ 1006cbac     libucrt:lcidtoname_downlevel.obj
 0002:00009bc8       ??_C@_1BG@IBCKDDOE@?$AAa?$AAz?$AA?9?$AAa?$AAz?$AA?9?$AAl?$AAa?$AAt?$AAn?$AA?$AA@ 1006cbc8     libucrt:lcidtoname_downlevel.obj
 0002:00009be4       ??_C@_1M@EGPFDCPD@?$AAb?$AAe?$AA?9?$AAb?$AAy?$AA?$AA@ 1006cbe4     libucrt:lcidtoname_downlevel.obj
 0002:00009bf4       ??_C@_1M@PCMGMCGC@?$AAb?$AAg?$AA?9?$AAb?$AAg?$AA?$AA@ 1006cbf4     libucrt:lcidtoname_downlevel.obj
 0002:00009c04       ??_C@_1M@BJBMFGOB@?$AAb?$AAn?$AA?9?$AAi?$AAn?$AA?$AA@ 1006cc04     libucrt:lcidtoname_downlevel.obj
 0002:00009c14       ??_C@_1BG@EAKMMACD@?$AAb?$AAs?$AA?9?$AAb?$AAa?$AA?9?$AAl?$AAa?$AAt?$AAn?$AA?$AA@ 1006cc14     libucrt:lcidtoname_downlevel.obj
 0002:00009c30       ??_C@_1M@KGADAODK@?$AAc?$AAa?$AA?9?$AAe?$AAs?$AA?$AA@ 1006cc30     libucrt:lcidtoname_downlevel.obj
 0002:00009c40       ??_C@_1M@COAJPDHI@?$AAc?$AAs?$AA?9?$AAc?$AAz?$AA?$AA@ 1006cc40     libucrt:lcidtoname_downlevel.obj
 0002:00009c50       ??_C@_1M@DHBHFONH@?$AAc?$AAy?$AA?9?$AAg?$AAb?$AA?$AA@ 1006cc50     libucrt:lcidtoname_downlevel.obj
 0002:00009c60       ??_C@_1M@IMGKELGA@?$AAd?$AAa?$AA?9?$AAd?$AAk?$AA?$AA@ 1006cc60     libucrt:lcidtoname_downlevel.obj
 0002:00009c70       ??_C@_1M@NNDGDNGA@?$AAd?$AAe?$AA?9?$AAa?$AAt?$AA?$AA@ 1006cc70     libucrt:lcidtoname_downlevel.obj
 0002:00009c80       ??_C@_1M@IKDBHEEM@?$AAd?$AAe?$AA?9?$AAc?$AAh?$AA?$AA@ 1006cc80     libucrt:lcidtoname_downlevel.obj
 0002:00009c90       ??_C@_1M@GFFOJMCJ@?$AAd?$AAe?$AA?9?$AAd?$AAe?$AA?$AA@ 1006cc90     libucrt:lcidtoname_downlevel.obj
 0002:00009ca0       ??_C@_1M@MDNLKBPM@?$AAd?$AAe?$AA?9?$AAl?$AAi?$AA?$AA@ 1006cca0     libucrt:lcidtoname_downlevel.obj
 0002:00009cb0       ??_C@_1M@NJBEEJNL@?$AAd?$AAe?$AA?9?$AAl?$AAu?$AA?$AA@ 1006ccb0     libucrt:lcidtoname_downlevel.obj
 0002:00009cc0       ??_C@_1O@GNNELBAP@?$AAd?$AAi?$AAv?$AA?9?$AAm?$AAv?$AA?$AA@ 1006ccc0     libucrt:lcidtoname_downlevel.obj
 0002:00009cd0       ??_C@_1M@EJLEOGAE@?$AAe?$AAl?$AA?9?$AAg?$AAr?$AA?$AA@ 1006ccd0     libucrt:lcidtoname_downlevel.obj
 0002:00009ce0       ??_C@_1M@GMPONJN@?$AAe?$AAn?$AA?9?$AAa?$AAu?$AA?$AA@ 1006cce0     libucrt:lcidtoname_downlevel.obj
 0002:00009cf0       ??_C@_1M@NIDIIPGF@?$AAe?$AAn?$AA?9?$AAb?$AAz?$AA?$AA@ 1006ccf0     libucrt:lcidtoname_downlevel.obj
 0002:00009d00       ??_C@_1M@JEHMIMFO@?$AAe?$AAn?$AA?9?$AAc?$AAa?$AA?$AA@ 1006cd00     libucrt:lcidtoname_downlevel.obj
 0002:00009d10       ??_C@_1M@IGMJCDLA@?$AAe?$AAn?$AA?9?$AAc?$AAb?$AA?$AA@ 1006cd10     libucrt:lcidtoname_downlevel.obj
 0002:00009d20       ??_C@_1M@BNFIGBKG@?$AAe?$AAn?$AA?9?$AAg?$AAb?$AA?$AA@ 1006cd20     libucrt:lcidtoname_downlevel.obj
 0002:00009d30       ??_C@_1M@LKIFDIGP@?$AAe?$AAn?$AA?9?$AAi?$AAe?$AA?$AA@ 1006cd30     libucrt:lcidtoname_downlevel.obj
 0002:00009d40       ??_C@_1M@PJKFGCCO@?$AAe?$AAn?$AA?9?$AAj?$AAm?$AA?$AA@ 1006cd40     libucrt:lcidtoname_downlevel.obj
 0002:00009d50       ??_C@_1M@KPPKEPBO@?$AAe?$AAn?$AA?9?$AAn?$AAz?$AA?$AA@ 1006cd50     libucrt:lcidtoname_downlevel.obj
 0002:00009d60       ??_C@_1M@GMDGLDOB@?$AAe?$AAn?$AA?9?$AAp?$AAh?$AA?$AA@ 1006cd60     libucrt:lcidtoname_downlevel.obj
 0002:00009d70       ??_C@_1M@ONGIBJNA@?$AAe?$AAn?$AA?9?$AAt?$AAt?$AA?$AA@ 1006cd70     libucrt:lcidtoname_downlevel.obj
 0002:00009d80       ??_C@_1M@LLODPCMM@?$AAe?$AAn?$AA?9?$AAu?$AAs?$AA?$AA@ 1006cd80     libucrt:lcidtoname_downlevel.obj
 0002:00009d90       ??_C@_1M@LAKFNPAN@?$AAe?$AAn?$AA?9?$AAz?$AAa?$AA?$AA@ 1006cd90     libucrt:lcidtoname_downlevel.obj
 0002:00009da0       ??_C@_1M@MFNHNHEO@?$AAe?$AAn?$AA?9?$AAz?$AAw?$AA?$AA@ 1006cda0     libucrt:lcidtoname_downlevel.obj
 0002:00009db0       ??_C@_1M@EJEINPHM@?$AAe?$AAs?$AA?9?$AAa?$AAr?$AA?$AA@ 1006cdb0     libucrt:lcidtoname_downlevel.obj
 0002:00009dc0       ??_C@_1M@GNKPCCJA@?$AAe?$AAs?$AA?9?$AAb?$AAo?$AA?$AA@ 1006cdc0     libucrt:lcidtoname_downlevel.obj
 0002:00009dd0       ??_C@_1M@LEEGFONL@?$AAe?$AAs?$AA?9?$AAc?$AAl?$AA?$AA@ 1006cdd0     libucrt:lcidtoname_downlevel.obj
 0002:00009de0       ??_C@_1M@KGPDPBDF@?$AAe?$AAs?$AA?9?$AAc?$AAo?$AA?$AA@ 1006cde0     libucrt:lcidtoname_downlevel.obj
 0002:00009df0       ??_C@_1M@EIAHOHH@?$AAe?$AAs?$AA?9?$AAc?$AAr?$AA?$AA@ 1006cdf0     libucrt:lcidtoname_downlevel.obj
 0002:00009e00       ??_C@_1M@LLPGMBIN@?$AAe?$AAs?$AA?9?$AAd?$AAo?$AA?$AA@ 1006ce00     libucrt:lcidtoname_downlevel.obj
 0002:00009e10       ??_C@_1M@DKHMKNJA@?$AAe?$AAs?$AA?9?$AAe?$AAc?$AA?$AA@ 1006ce10     libucrt:lcidtoname_downlevel.obj
 0002:00009e20       ??_C@_1M@GKGFPKAP@?$AAe?$AAs?$AA?9?$AAe?$AAs?$AA?$AA@ 1006ce20     libucrt:lcidtoname_downlevel.obj
 0002:00009e30       ??_C@_1M@LKHKGDLN@?$AAe?$AAs?$AA?9?$AAg?$AAt?$AA?$AA@ 1006ce30     libucrt:lcidtoname_downlevel.obj
 0002:00009e40       ??_C@_1M@HEIIGGJD@?$AAe?$AAs?$AA?9?$AAh?$AAn?$AA?$AA@ 1006ce40     libucrt:lcidtoname_downlevel.obj
 0002:00009e50       ??_C@_1M@FBDHPPGD@?$AAe?$AAs?$AA?9?$AAm?$AAx?$AA?$AA@ 1006ce50     libucrt:lcidtoname_downlevel.obj
 0002:00009e60       ??_C@_1M@DPAGLNDH@?$AAe?$AAs?$AA?9?$AAn?$AAi?$AA?$AA@ 1006ce60     libucrt:lcidtoname_downlevel.obj
 0002:00009e70       ??_C@_1M@MDGOPGDD@?$AAe?$AAs?$AA?9?$AAp?$AAa?$AA?$AA@ 1006ce70     libucrt:lcidtoname_downlevel.obj
 0002:00009e80       ??_C@_1M@EMAMGBGE@?$AAe?$AAs?$AA?9?$AAp?$AAe?$AA?$AA@ 1006ce80     libucrt:lcidtoname_downlevel.obj
 0002:00009e90       ??_C@_1M@IBMCAOEC@?$AAe?$AAs?$AA?9?$AAp?$AAr?$AA?$AA@ 1006ce90     libucrt:lcidtoname_downlevel.obj
 0002:00009ea0       ??_C@_1M@FGMDIJED@?$AAe?$AAs?$AA?9?$AAp?$AAy?$AA?$AA@ 1006cea0     libucrt:lcidtoname_downlevel.obj
 0002:00009eb0       ??_C@_1M@IIDEOLLL@?$AAe?$AAs?$AA?9?$AAs?$AAv?$AA?$AA@ 1006ceb0     libucrt:lcidtoname_downlevel.obj
 0002:00009ec0       ??_C@_1M@GAOBIPA@?$AAe?$AAs?$AA?9?$AAu?$AAy?$AA?$AA@ 1006cec0     libucrt:lcidtoname_downlevel.obj
 0002:00009ed0       ??_C@_1M@JKFFICHJ@?$AAe?$AAs?$AA?9?$AAv?$AAe?$AA?$AA@ 1006ced0     libucrt:lcidtoname_downlevel.obj
 0002:00009ee0       ??_C@_1M@PNMLOJDF@?$AAe?$AAt?$AA?9?$AAe?$AAe?$AA?$AA@ 1006cee0     libucrt:lcidtoname_downlevel.obj
 0002:00009ef0       ??_C@_1M@GHHLIKEI@?$AAe?$AAu?$AA?9?$AAe?$AAs?$AA?$AA@ 1006cef0     libucrt:lcidtoname_downlevel.obj
 0002:00009f00       ??_C@_1M@PBNONODE@?$AAf?$AAa?$AA?9?$AAi?$AAr?$AA?$AA@ 1006cf00     libucrt:lcidtoname_downlevel.obj
 0002:00009f10       ??_C@_1M@JEEHPMIL@?$AAf?$AAi?$AA?9?$AAf?$AAi?$AA?$AA@ 1006cf10     libucrt:lcidtoname_downlevel.obj
 0002:00009f20       ??_C@_1M@LMDCNDBA@?$AAf?$AAo?$AA?9?$AAf?$AAo?$AA?$AA@ 1006cf20     libucrt:lcidtoname_downlevel.obj
 0002:00009f30       ??_C@_1M@JKEOHLDK@?$AAf?$AAr?$AA?9?$AAb?$AAe?$AA?$AA@ 1006cf30     libucrt:lcidtoname_downlevel.obj
 0002:00009f40       ??_C@_1M@NOHADPMI@?$AAf?$AAr?$AA?9?$AAc?$AAa?$AA?$AA@ 1006cf40     libucrt:lcidtoname_downlevel.obj
 0002:00009f50       ??_C@_1M@KDHIHAEC@?$AAf?$AAr?$AA?9?$AAc?$AAh?$AA?$AA@ 1006cf50     libucrt:lcidtoname_downlevel.obj
 0002:00009f60       ??_C@_1M@MMBBFGAK@?$AAf?$AAr?$AA?9?$AAf?$AAr?$AA?$AA@ 1006cf60     libucrt:lcidtoname_downlevel.obj
 0002:00009f70       ??_C@_1M@PAFNENNF@?$AAf?$AAr?$AA?9?$AAl?$AAu?$AA?$AA@ 1006cf70     libucrt:lcidtoname_downlevel.obj
 0002:00009f80       ??_C@_1M@EOHDJGDD@?$AAf?$AAr?$AA?9?$AAm?$AAc?$AA?$AA@ 1006cf80     libucrt:lcidtoname_downlevel.obj
 0002:00009f90       ??_C@_1M@FAPLLOPF@?$AAg?$AAl?$AA?9?$AAe?$AAs?$AA?$AA@ 1006cf90     libucrt:lcidtoname_downlevel.obj
 0002:00009fa0       ??_C@_1M@FOPBFLOO@?$AAg?$AAu?$AA?9?$AAi?$AAn?$AA?$AA@ 1006cfa0     libucrt:lcidtoname_downlevel.obj
 0002:00009fb0       ??_C@_1M@KBMCINPM@?$AAh?$AAe?$AA?9?$AAi?$AAl?$AA?$AA@ 1006cfb0     libucrt:lcidtoname_downlevel.obj
 0002:00009fc0       ??_C@_1M@BBPHKFPJ@?$AAh?$AAi?$AA?9?$AAi?$AAn?$AA?$AA@ 1006cfc0     libucrt:lcidtoname_downlevel.obj
 0002:00009fd0       ??_C@_1M@PMBNDPHD@?$AAh?$AAr?$AA?9?$AAb?$AAa?$AA?$AA@ 1006cfd0     libucrt:lcidtoname_downlevel.obj
 0002:00009fe0       ??_C@_1M@BPCKOEGE@?$AAh?$AAr?$AA?9?$AAh?$AAr?$AA?$AA@ 1006cfe0     libucrt:lcidtoname_downlevel.obj
