 E_stopnew_slrt

 Timestamp is 5ad75237 (Wed Apr 18 10:12:07 2018)

 Preferred load address is 10000000

 Start         Length     Name                   Class
 0001:00000000 00061be8H .text$mn                CODE
 0002:00000000 00000104H .CRT$XCA                DATA
 0002:00000104 00000104H .CRT$XCZ                DATA
 0002:00000208 00000104H .CRT$XIA                DATA
 0002:0000030c 00000110H .CRT$XIC                DATA
 0002:0000041c 00000104H .CRT$XIZ                DATA
 0002:00000520 00000104H .CRT$XPA                DATA
 0002:00000624 0000010cH .CRT$XPX                DATA
 0002:00000730 00000104H .CRT$XPXA               DATA
 0002:00000834 00000104H .CRT$XPZ                DATA
 0002:00000938 00000104H .CRT$XTA                DATA
 0002:00000a3c 00000104H .CRT$XTZ                DATA
 0002:00000b40 0000ca74H .rdata                  DATA
 0002:0000d5b4 0000038cH .rdata$r                DATA
 0002:0000d940 00000110H .rdata$sxdata           DATA
 0002:0000da50 000001a0H .rdata$zzzdbg           DATA
 0002:0000dbf0 00000104H .rtc$IAA                DATA
 0002:0000dcf4 00000104H .rtc$IZZ                DATA
 0002:0000ddf8 00000104H .rtc$TAA                DATA
 0002:0000defc 00000104H .rtc$TZZ                DATA
 0002:0000e000 00000ac0H .xdata$x                DATA
 0002:0000eac0 000001e2H .edata                  DATA
 0003:00000000 00000fa0H .data                   DATA
 0003:00000fa0 000001e0H .data$r                 DATA
 0003:00001180 00013f88H .bss                    DATA
 0004:00000000 000001d4H .idata$5                DATA
 0004:000001d4 00000014H .idata$2                DATA
 0004:000001e8 00000014H .idata$3                DATA
 0004:000001fc 000001d4H .idata$4                DATA
 0004:000003d0 00000843H .idata$6                DATA
 0005:00000000 00000224H .gfids$x                DATA
 0005:00000224 000001a5H .gfids$y                DATA
 0006:00000000 00000104H .00cfg                  DATA

  Address         Publics by Value              Rva+Base       Lib:Object

 0000:00000000       ___guard_iat_count         00000000     <absolute>
 0000:00000000       ___guard_fids_count        00000000     <absolute>
 0000:00000000       __except_list              00000000     <absolute>
 0000:00000000       ___guard_longjmp_count     00000000     <absolute>
 0000:00000000       ___guard_longjmp_table     00000000     <absolute>
 0000:00000000       ___guard_iat_table         00000000     <absolute>
 0000:00000000       ___dynamic_value_reloc_table 00000000     <absolute>
 0000:00000000       ___guard_fids_table        00000000     <absolute>
 0000:00000003       ___safe_se_handler_count   00000003     <absolute>
 0000:00000100       ___guard_flags             00000100     <absolute>
 0000:00000000       ___ImageBase               10000000     <linker-defined>
 0001:00005ed0       _E_stopnew                 10006ed0 f   E_stopnew.obj
 0001:00006cc0       _MdlInitialize             10007cc0 f   E_stopnew.obj
 0001:00006cd0       _MdlInitializeSampleTimes  10007cd0 f   E_stopnew.obj
 0001:00006ce0       _MdlInitializeSizes        10007ce0 f   E_stopnew.obj
 0001:00006cf0       _MdlOutputs                10007cf0 f   E_stopnew.obj
 0001:00006d60       _MdlStart                  10007d60 f   E_stopnew.obj
 0001:00006d70       _MdlTerminate              10007d70 f   E_stopnew.obj
 0001:00006da0       _MdlUpdate                 10007da0 f   E_stopnew.obj
 0001:00006dd0       ___local_stdio_printf_options 10007dd0 f i E_stopnew.obj
 0001:00006de0       __vfprintf_l               10007de0 f i E_stopnew.obj
 0001:00006e10       _printf                    10007e10 f i E_stopnew.obj
 0001:00006e70       _rt_SimUpdateDiscreteEvents 10007e70 f   E_stopnew.obj
 0001:00006ea0       _rt_mxCreateCharMatrixFromStrings 10007ea0 f   rt_matrx.obj
 0001:00007000       _rt_mxCreateDoubleMatrix   10008000 f   rt_matrx.obj
 0001:00007060       _rt_mxCreateNumericArray   10008060 f   rt_matrx.obj
 0001:000070e0       _rt_mxCreateString         100080e0 f   rt_matrx.obj
 0001:00007170       _rt_mxDuplicateArray       10008170 f   rt_matrx.obj
 0001:000071d0       _rt_mxGetDimensions        100081d0 f   rt_matrx.obj
 0001:00007210       _rt_mxGetEps               10008210 f   rt_matrx.obj
 0001:00007220       _rt_mxGetString            10008220 f   rt_matrx.obj
 0001:000072a0       _rtPrintfNoOp              100082a0 f   rt_printf.obj
 0001:000072b0       _E_stopnew_GetCAPIStaticMap 100082b0 f   E_stopnew_capi.obj
 0001:000072c0       _E_stopnew_InitializeDataMapInfo 100082c0 f   E_stopnew_capi.obj
 0001:00007350       _rtGetInf                  10008350 f   rtGetInf.obj
 0001:00007380       _rtGetInfF                 10008380 f   rtGetInf.obj
 0001:000073a0       _rtGetMinusInf             100083a0 f   rtGetInf.obj
 0001:000073d0       _rtGetMinusInfF            100083d0 f   rtGetInf.obj
 0001:000073f0       _rtGetNaN                  100083f0 f   rtGetNaN.obj
 0001:00007420       _rtGetNaNF                 10008420 f   rtGetNaN.obj
 0001:00007440       _rtIsInf                   10008440 f   rt_nonfinite.obj
 0001:00007480       _rtIsInfF                  10008480 f   rt_nonfinite.obj
 0001:000074c0       _rtIsNaN                   100084c0 f   rt_nonfinite.obj
 0001:000074e0       _rtIsNaNF                  100084e0 f   rt_nonfinite.obj
 0001:00007500       _rt_InitInfAndNaN          10008500 f   rt_nonfinite.obj
 0001:00007560       _rt_CleanUpForStateLogWithMMI 10008560 f   rt_logging_mmi.obj
 0001:00007670       _rt_FillStateSigInfoFromMMI 10008670 f   rt_logging_mmi.obj
 0001:00007a10       _rtwCAPI_CountSysRan       10008a10 f   rtw_modelmap_utils.obj
 0001:00007ab0       _rtwCAPI_EncodePath        10008ab0 f   rtw_modelmap_utils.obj
 0001:00007bb0       _rtwCAPI_FillSysRan        10008bb0 f   rtw_modelmap_utils.obj
 0001:00007ca0       _rtwCAPI_FreeFullPaths     10008ca0 f   rtw_modelmap_utils.obj
 0001:00007d30       _rtwCAPI_GetFullStateBlockPath 10008d30 f   rtw_modelmap_utils.obj
 0001:00007ee0       _rtwCAPI_GetNumContStateRecords 10008ee0 f   rtw_modelmap_utils.obj
 0001:00007fa0       _rtwCAPI_GetNumSigLogRecords 10008fa0 f   rtw_modelmap_utils.obj
 0001:00007ff0       _rtwCAPI_GetNumSigLogRecordsForRTWLogging 10008ff0 f   rtw_modelmap_utils.obj
 0001:00008090       _rtwCAPI_GetNumStateRecords 10009090 f   rtw_modelmap_utils.obj
 0001:000080e0       _rtwCAPI_GetNumStateRecordsForRTWLogging 100090e0 f   rtw_modelmap_utils.obj
 0001:00008180       _rtwCAPI_GetSigAddrFromMap 10009180 f   rtw_modelmap_utils.obj
 0001:00008240       _rtwCAPI_GetSigLogRecordInfo 10009240 f   rtw_modelmap_utils.obj
 0001:00008670       _rtwCAPI_GetStateRecordInfo 10009670 f   rtw_modelmap_utils.obj
 0001:00008b20       _rtwCAPI_GetStateWidth     10009b20 f   rtw_modelmap_utils.obj
 0001:00008b80       _rtwCAPI_HasStates         10009b80 f   rtw_modelmap_utils.obj
 0001:00008bf0       _rtwCAPI_UpdateFullPaths   10009bf0 f   rtw_modelmap_utils.obj
 0001:00008dd0       __vsnprintf_l              10009dd0 f i rt_logging.obj
 0001:00008e10       __vsprintf_l               10009e10 f i rt_logging.obj
 0001:00008e50       _fprintf                   10009e50 f i rt_logging.obj
 0001:00009760       _rt_CreateLogVar           1000a760 f   rt_logging.obj
 0001:000097f0       _rt_CreateLogVarWithConvert 1000a7f0 f   rt_logging.obj
 0001:0000a170       _rt_CreateStructLogVar     1000b170 f   rt_logging.obj
 0001:0000aed0       _rt_GetMxIdFromDTypeId     1000bed0 f   rt_logging.obj
 0001:0000af00       _rt_GetMxIdFromDTypeIdForRSim 1000bf00 f   rt_logging.obj
 0001:0000d7d0       _rt_StartDataLogging       1000e7d0 f   rt_logging.obj
 0001:0000dc90       _rt_StartDataLoggingWithStartTime 1000ec90 f   rt_logging.obj
 0001:0000e5f0       _rt_StopDataLogging        1000f5f0 f   rt_logging.obj
 0001:0000e610       _rt_StopDataLoggingImpl    1000f610 f   rt_logging.obj
 0001:0000e940       _rt_UpdateLogVar           1000f940 f   rt_logging.obj
 0001:0000fa60       _rt_UpdateStructLogVar     10010a60 f   rt_logging.obj
 0001:0000faf0       _rt_UpdateTXXFYLogVars     10010af0 f   rt_logging.obj
 0001:0000fe20       _rt_UpdateTXYLogVars       10010e20 f   rt_logging.obj
 0001:00010070       _sprintf                   10011070 f i rt_logging.obj
 0001:000100b0       _DllMain@12                100110b0 f   xpctarget.obj
 0001:000100c0       _E_stopnew_ChangeStepSize  100110c0 f   xpctarget.obj
 0001:00010130       _SLRTSetErrorStatus        10011130 f   xpctarget.obj
 0001:00010150       _changeStepSize            10011150 f   xpctarget.obj
 0001:000101c0       _getDLMVersion             100111c0 f   xpctarget.obj
 0001:000101d0       _getRefMdlPath             100111d0 f   xpctarget.obj
 0001:00010250       _getRefMdlSignalNumber     10011250 f   xpctarget.obj
 0001:00010300       _getrlmdlinfo              10011300 f   xpctarget.obj
 0001:000104e0       _updateDiscreteEvents      100114e0 f   xpctarget.obj
 0001:00010540       _getNumRef                 10011540 f   appmappingData.obj
 0001:00010550       _vprintf                   10011550 f i legacy_stdio.obj
 0001:00010590       _adquanserq8               10011590 f   adquanserq8.obj
 0001:00010cb0       _daquanserq8               10011cb0 f   daquanserq8.obj
 0001:00011620       _GetPCIDeviceFull          10012620 f   xpcruntime:xpcimports.obj
 0001:00011660       _ShowPCIDevice             10012660 f   xpcruntime:xpcimports.obj
 0001:00011e20       _xpcGetPciConfigAtSlot     10012e20 f   xpcruntime:xpcimports.obj
 0001:00012130       _xpcInitProcs              10013130 f   xpcruntime:xpcimports.obj
 0001:00013490       _xpceuploadevent           10014490 f   xpcruntime:xpcimports.obj
 0001:000134a0       __ftoui3                   100144a0 f   LIBCMT:_ftol3_.obj
 0001:000134af       __ftoul3                   100144af f   LIBCMT:_ftol3_.obj
 0001:000134be       __ftol3                    100144be f   LIBCMT:_ftol3_.obj
 0001:000134cb       __ftol3_NaN                100144cb f   LIBCMT:_ftol3_.obj
 0001:000134e3       __ftol3_work               100144e3 f   LIBCMT:_ftol3_.obj
 0001:00013569       __ftol3_common             10014569 f   LIBCMT:_ftol3_.obj
 0001:0001362b       __ftol3_arg_error          1001462b f   LIBCMT:_ftol3_.obj
 0001:0001363d       __ftol3_except             1001463d f   LIBCMT:_ftol3_.obj
 0001:00013681       __dtoui3                   10014681 f   LIBCMT:_ftol3_.obj
 0001:00013690       __dtoul3                   10014690 f   LIBCMT:_ftol3_.obj
 0001:0001369f       __dtol3                    1001469f f   LIBCMT:_ftol3_.obj
 0001:000136ac       __dtol3_NaN                100146ac f   LIBCMT:_ftol3_.obj
 0001:000136c9       __dtol3_work               100146c9 f   LIBCMT:_ftol3_.obj
 0001:000137b0       __ultod3                   100147b0 f   LIBCMT:_ftol3_.obj
 0001:000137f0       __ltod3                    100147f0 f   LIBCMT:_ftol3_.obj
 0001:000138f4       ___raise_securityfailure   100148f4 f   LIBCMT:gs_report.obj
 0001:00013926       ___report_gsfailure        10014926 f   LIBCMT:gs_report.obj
 0001:00013a5f       ___report_rangecheckfailure 10014a5f f   LIBCMT:gs_report.obj
 0001:00013a6e       ___report_securityfailure  10014a6e f   LIBCMT:gs_report.obj
 0001:00013b72       ___report_securityfailureEx 10014b72 f   LIBCMT:gs_report.obj
 0001:00013ccd       @__security_check_cookie@4 10014ccd f   LIBCMT:_secchk_.obj
 0001:00013ce2       ___isa_available_init      10014ce2 f   LIBCMT:_cpu_disp_.obj
 0001:000142aa       __CRT_INIT@12              100152aa f   LIBCMT:dll_dllmain.obj
 0001:000142b5       __DllMainCRTStartup@12     100152b5 f   LIBCMT:dll_dllmain.obj
 0001:000142e0       ??$__crt_fast_decode_pointer@PAP6AXXZ@@YAPAP6AXXZQAP6AXXZ@Z 100152e0 f i LIBCMT:utility.obj
 0001:000142f9       ??$__crt_fast_encode_pointer@PAP6AXXZ@@YAPAP6AXXZQAP6AXXZ@Z 100152f9 f i LIBCMT:utility.obj
 0001:0001431d       ?__crt_rotate_pointer_value@@YAIIH@Z 1001531d f i LIBCMT:utility.obj
 0001:0001432d       ?configure_argv@__scrt_narrow_argv_policy@@SAHXZ 1001532d f i LIBCMT:utility.obj
 0001:000143d1       _NtCurrentTeb              100153d1 f i LIBCMT:utility.obj
 0001:000143d8       ___scrt_acquire_startup_lock 100153d8 f   LIBCMT:utility.obj
 0001:0001441a       ___scrt_dllmain_after_initialize_c 1001541a f   LIBCMT:utility.obj
 0001:0001444f       ___scrt_dllmain_before_initialize_c 1001544f f   LIBCMT:utility.obj
 0001:00014460       ___scrt_dllmain_crt_thread_attach 10015460 f   LIBCMT:utility.obj
 0001:00014486       ___scrt_dllmain_crt_thread_detach 10015486 f   LIBCMT:utility.obj
 0001:00014496       ___scrt_dllmain_exception_filter 10015496 f   LIBCMT:utility.obj
 0001:000144d5       ___scrt_dllmain_uninitialize_c 100154d5 f   LIBCMT:utility.obj
 0001:00014500       ___scrt_dllmain_uninitialize_critical 10015500 f   LIBCMT:utility.obj
 0001:00014510       ___scrt_initialize_crt     10015510 f   LIBCMT:utility.obj
 0001:00014557       ___scrt_initialize_onexit_tables 10015557 f   LIBCMT:utility.obj
 0001:00014613       ___scrt_is_nonwritable_in_current_image 10015613 f   LIBCMT:utility.obj
 0001:000146bf       ___scrt_release_startup_lock 100156bf f   LIBCMT:utility.obj
 0001:000146e3       ___scrt_uninitialize_crt   100156e3 f   LIBCMT:utility.obj
 0001:00014715       __onexit                   10015715 f   LIBCMT:utility.obj
 0001:0001475e       _at_quick_exit             1001575e f   LIBCMT:utility.obj
 0001:0001479b       _atexit                    1001579b f   LIBCMT:utility.obj
 0001:000147b5       ___security_init_cookie    100157b5 f   LIBCMT:gs_support.obj
 0001:00014878       ?__scrt_initialize_type_info@@YAXXZ 10015878 f   LIBCMT:tncleanup.obj
 0001:00014887       ?__scrt_uninitialize_type_info@@YAXXZ 10015887 f   LIBCMT:tncleanup.obj
 0001:00014896       ___local_stdio_scanf_options 10015896 f i LIBCMT:default_local_stdio_options.obj
 0001:0001489c       ___scrt_initialize_default_local_stdio_options 1001589c f   LIBCMT:default_local_stdio_options.obj
 0001:000148c0       ___scrt_get_dyn_tls_init_callback 100158c0 f   LIBCMT:dyn_tls_init.obj
 0001:000148c6       ___scrt_fastfail           100158c6 f   LIBCMT:utility_desktop.obj
 0001:00014a27       ___scrt_get_show_window_mode 10015a27 f   LIBCMT:utility_desktop.obj
 0001:00014a66       ___scrt_initialize_winrt   10015a66 f   LIBCMT:utility_desktop.obj
 0001:00014a69       ___scrt_is_managed_app     10015a69 f   LIBCMT:utility_desktop.obj
 0001:00014abe       ___scrt_set_unhandled_exception_filter 10015abe f   LIBCMT:utility_desktop.obj
 0001:00014acd       ___scrt_unhandled_exception_filter@4 10015acd f   LIBCMT:utility_desktop.obj
 0001:00014b1e       __crt_debugger_hook        10015b1e f   LIBCMT:utility_desktop.obj
 0001:00014b28       __RTC_Initialize           10015b28 f   LIBCMT:_initsect_.obj
 0001:00014b5d       __RTC_Terminate            10015b5d f   LIBCMT:_initsect_.obj
 0001:00014b92       @_guard_check_icall@4      10015b92 f i LIBCMT:checkcfg.obj
 0001:00014ba0       __SEH_prolog4              10015ba0 f   LIBCMT:_sehprolg4_.obj
 0001:00014be6       __SEH_epilog4              10015be6 f   LIBCMT:_sehprolg4_.obj
 0001:00014c11       __get_startup_argv_mode    10015c11 f   LIBCMT:argv_mode.obj
 0001:00014c15       ___scrt_is_ucrt_dll_in_use 10015c15 f   LIBCMT:ucrt_detection.obj
 0001:00014c24       @_guard_check_icall_nop@4  10015c24 f i LIBCMT:guard_support.obj
 0001:00014c25       __guard_icall_checks_enforced 10015c25 f i LIBCMT:guard_support.obj
 0001:00014c3c       _GetModuleHandleA@4        10015c3c f   kernel32:KERNEL32.dll
 0001:00014c42       _GetProcAddress@8          10015c42 f   kernel32:KERNEL32.dll
 0001:00014c48       _UnhandledExceptionFilter@4 10015c48 f   kernel32:KERNEL32.dll
 0001:00014c4e       _SetUnhandledExceptionFilter@4 10015c4e f   kernel32:KERNEL32.dll
 0001:00014c54       _GetCurrentProcess@0       10015c54 f   kernel32:KERNEL32.dll
 0001:00014c5a       _TerminateProcess@8        10015c5a f   kernel32:KERNEL32.dll
 0001:00014c60       _IsProcessorFeaturePresent@4 10015c60 f   kernel32:KERNEL32.dll
 0001:00014c66       _QueryPerformanceCounter@4 10015c66 f   kernel32:KERNEL32.dll
 0001:00014c6c       _GetCurrentProcessId@0     10015c6c f   kernel32:KERNEL32.dll
 0001:00014c72       _GetCurrentThreadId@0      10015c72 f   kernel32:KERNEL32.dll
 0001:00014c78       _GetSystemTimeAsFileTime@4 10015c78 f   kernel32:KERNEL32.dll
 0001:00014c7e       _InitializeSListHead@4     10015c7e f   kernel32:KERNEL32.dll
 0001:00014c84       _IsDebuggerPresent@0       10015c84 f   kernel32:KERNEL32.dll
 0001:00014c8a       _GetStartupInfoW@4         10015c8a f   kernel32:KERNEL32.dll
 0001:00014c90       _GetModuleHandleW@4        10015c90 f   kernel32:KERNEL32.dll
 0001:00014ca0       _memset                    10015ca0 f   libvcruntime:memset.obj
 0001:00014e50       _memcpy                    10015e50 f   libvcruntime:memcpy.obj
 0001:00015530       _memmove                   10016530 f   libvcruntime:memmove.obj
 0001:00015c10       _strchr                    10016c10 f   libvcruntime:strchr.obj
 0001:00015c7e       ___from_strstr_to_strchr   10016c7e     libvcruntime:strchr.obj
 0001:00015dd0       __except_handler4          10016dd0 f   libvcruntime:_chandler4_.obj
 0001:00015f8f       ___vcrt_initialize         10016f8f f   libvcruntime:initialization.obj
 0001:00015fc2       ___vcrt_thread_attach      10016fc2 f   libvcruntime:initialization.obj
 0001:00015fcf       ___vcrt_thread_detach      10016fcf f   libvcruntime:initialization.obj
 0001:00015fdc       ___vcrt_uninitialize       10016fdc f   libvcruntime:initialization.obj
 0001:00016002       ___vcrt_uninitialize_critical 10017002 f   libvcruntime:initialization.obj
 0001:0001601d       ??$?RD@__crt_internal_free_policy@@QBEXQBD@Z 1001701d f i libvcruntime:std_type_info.obj
 0001:00016031       ??$?RX@__crt_internal_free_policy@@QBEXQBX@Z 10017031 f i libvcruntime:std_type_info.obj
 0001:00016045       ??$__crt_interlocked_compare_exchange_pointer@$$CBD$$T$$T@@YAPBDPDSBD$$T1@Z 10017045 f i libvcruntime:std_type_info.obj
 0001:0001605b       ??$__crt_interlocked_compare_exchange_pointer@$$CBDPAD$$T@@YAPBDPDSBDQAD$$T@Z 1001705b f i libvcruntime:std_type_info.obj
 0001:00016071       ??$__crt_interlocked_read_pointer@$$CBD@@YAPBDPDSBD@Z 10017071 f i libvcruntime:std_type_info.obj
 0001:00016085       ??0?$__crt_unique_heap_ptr@DU__crt_internal_free_policy@@@@QAE@QAD@Z 10017085 f i libvcruntime:std_type_info.obj
 0001:00016096       ??0?$__crt_unique_heap_ptr@XU__crt_internal_free_policy@@@@QAE@QAX@Z 10017096 f i libvcruntime:std_type_info.obj
 0001:000160a7       ??1?$__crt_unique_heap_ptr@DU__crt_internal_free_policy@@@@QAE@XZ 100170a7 f i libvcruntime:std_type_info.obj
 0001:000160bb       ??1?$__crt_unique_heap_ptr@XU__crt_internal_free_policy@@@@QAE@XZ 100170bb f i libvcruntime:std_type_info.obj
 0001:000160db       ??B?$__crt_unique_heap_ptr@DU__crt_internal_free_policy@@@@QBE_NXZ 100170db f i libvcruntime:std_type_info.obj
 0001:000160e2       ??B?$__crt_unique_heap_ptr@XU__crt_internal_free_policy@@@@QBE_NXZ 100170e2 f i libvcruntime:std_type_info.obj
 0001:00016111       ?detach@?$__crt_unique_heap_ptr@XU__crt_internal_free_policy@@@@QAEPAXXZ 10017111 f i libvcruntime:std_type_info.obj
 0001:00016117       ?get@?$__crt_unique_heap_ptr@DU__crt_internal_free_policy@@@@QBEPADXZ 10017117 f i libvcruntime:std_type_info.obj
 0001:0001611a       ?get@?$__crt_unique_heap_ptr@XU__crt_internal_free_policy@@@@QBEPAXXZ 1001711a f i libvcruntime:std_type_info.obj
 0001:0001611d       ?is_valid@?$__crt_unique_heap_ptr@DU__crt_internal_free_policy@@@@QBE_NXZ 1001711d f i libvcruntime:std_type_info.obj
 0001:00016124       ?is_valid@?$__crt_unique_heap_ptr@XU__crt_internal_free_policy@@@@QBE_NXZ 10017124 f i libvcruntime:std_type_info.obj
 0001:0001612b       ?release@?$__crt_unique_heap_ptr@DU__crt_internal_free_policy@@@@QAEXXZ 1001712b f i libvcruntime:std_type_info.obj
 0001:0001613f       ?release@?$__crt_unique_heap_ptr@XU__crt_internal_free_policy@@@@QAEXXZ 1001713f f i libvcruntime:std_type_info.obj
 0001:00016153       ___std_type_info_compare   10017153 f   libvcruntime:std_type_info.obj
 0001:0001619e       ___std_type_info_destroy_list 1001719e f   libvcruntime:std_type_info.obj
 0001:000161c9       ___std_type_info_hash      100171c9 f   libvcruntime:std_type_info.obj
 0001:000161f8       ___std_type_info_name      100171f8 f   libvcruntime:std_type_info.obj
 0001:00016300       __local_unwind4            10017300 f   libvcruntime:_exsup4_.obj
 0001:000163d6       __seh_longjmp_unwind4@4    100173d6 f   libvcruntime:_exsup4_.obj
 0001:000163fe       @_EH4_CallFilterFunc@8     100173fe f   libvcruntime:_exsup4_.obj
 0001:00016415       @_EH4_TransferToHandler@8  10017415 f   libvcruntime:_exsup4_.obj
 0001:0001642e       @_EH4_GlobalUnwind2@8      1001742e f   libvcruntime:_exsup4_.obj
 0001:00016447       @_EH4_LocalUnwind@16       10017447 f   libvcruntime:_exsup4_.obj
 0001:000164b5       ___except_validate_context_record 100174b5 f   libvcruntime:jbcxrval.obj
 0001:000164b6       ___except_validate_jump_buffer 100174b6 f   libvcruntime:jbcxrval.obj
 0001:000164b7       ??$?RU__vcrt_ptd@@@__crt_internal_free_policy@@QBEXQBU__vcrt_ptd@@@Z 100174b7 f i libvcruntime:per_thread_data.obj
 0001:000164cb       ??0?$__crt_unique_heap_ptr@U__vcrt_ptd@@U__crt_internal_free_policy@@@@QAE@QAU__vcrt_ptd@@@Z 100174cb f i libvcruntime:per_thread_data.obj
 0001:000164ee       ??1?$__crt_unique_heap_ptr@U__vcrt_ptd@@U__crt_internal_free_policy@@@@QAE@XZ 100174ee f i libvcruntime:per_thread_data.obj
 0001:0001650d       ??B?$__crt_unique_heap_ptr@U__vcrt_ptd@@U__crt_internal_free_policy@@@@QBE_NXZ 1001750d f i libvcruntime:per_thread_data.obj
 0001:00016514       ?detach@?$__crt_unique_heap_ptr@U__vcrt_ptd@@U__crt_internal_free_policy@@@@QAEPAU__vcrt_ptd@@XZ 10017514 f i libvcruntime:per_thread_data.obj
 0001:0001651a       ?get@?$__crt_unique_heap_ptr@U__vcrt_ptd@@U__crt_internal_free_policy@@@@QBEPAU__vcrt_ptd@@XZ 1001751a f i libvcruntime:per_thread_data.obj
 0001:0001651d       ?is_valid@?$__crt_unique_heap_ptr@U__vcrt_ptd@@U__crt_internal_free_policy@@@@QBE_NXZ 1001751d f i libvcruntime:per_thread_data.obj
 0001:00016524       ?release@?$__crt_unique_heap_ptr@U__vcrt_ptd@@U__crt_internal_free_policy@@@@QAEXXZ 10017524 f i libvcruntime:per_thread_data.obj
 0001:00016558       ___vcrt_freefls@4          10017558 f   libvcruntime:per_thread_data.obj
 0001:0001657b       ___vcrt_freeptd            1001757b f   libvcruntime:per_thread_data.obj
 0001:000165be       ___vcrt_getptd             100175be f   libvcruntime:per_thread_data.obj
 0001:000165cf       ___vcrt_getptd_noexit      100175cf f   libvcruntime:per_thread_data.obj
 0001:00016685       ___vcrt_initialize_ptd     10017685 f   libvcruntime:per_thread_data.obj
 0001:000166c4       ___vcrt_uninitialize_ptd   100176c4 f   libvcruntime:per_thread_data.obj
 0001:000166e5       ___vcrt_initialize_locks   100176e5 f   libvcruntime:locks.obj
 0001:00016730       ___vcrt_lock               10017730 f   libvcruntime:locks.obj
 0001:0001674a       ___vcrt_uninitialize_locks 1001774a f   libvcruntime:locks.obj
 0001:00016784       ___vcrt_unlock             10017784 f   libvcruntime:locks.obj
 0001:0001679e       ??$?BX@__crt_fast_encoded_nullptr_t@@QBEPAXXZ 1001779e f i libvcruntime:winapi_downlevel.obj
 0001:000167bc       ??$__crt_fast_decode_pointer@PAX@@YAPAXQAX@Z 100177bc f i libvcruntime:winapi_downlevel.obj
 0001:000167d5       ??$__crt_fast_encode_pointer@PAX@@YAPAXQAX@Z 100177d5 f i libvcruntime:winapi_downlevel.obj
 0001:000167f9       ??$__crt_interlocked_compare_exchange_pointer@UHINSTANCE__@@$$T$$T@@YAPAUHINSTANCE__@@PDSAU0@$$T1@Z 100177f9 f i libvcruntime:winapi_downlevel.obj
 0001:0001680f       ??$__crt_interlocked_compare_exchange_pointer@X$$T$$T@@YAPAXPDSAX$$T1@Z 1001780f f i libvcruntime:winapi_downlevel.obj
 0001:00016825       ??$__crt_interlocked_exchange_pointer@UHINSTANCE__@@PAU1@@@YAPAUHINSTANCE__@@PDSAU0@QAU0@@Z 10017825 f i libvcruntime:winapi_downlevel.obj
 0001:00016835       ??$__crt_interlocked_exchange_pointer@UHINSTANCE__@@PAX@@YAPAUHINSTANCE__@@PDSAU0@QAX@Z 10017835 f i libvcruntime:winapi_downlevel.obj
 0001:00016845       ??$__crt_interlocked_exchange_pointer@XPAX@@YAPAXPDSAXQAX@Z 10017845 f i libvcruntime:winapi_downlevel.obj
 0001:00016855       ??$__crt_interlocked_read_pointer@UHINSTANCE__@@@@YAPAUHINSTANCE__@@PDSAU0@@Z 10017855 f i libvcruntime:winapi_downlevel.obj
 0001:00016869       ??$__crt_interlocked_read_pointer@X@@YAPAXPDSAX@Z 10017869 f i libvcruntime:winapi_downlevel.obj
 0001:0001687d       ?__crt_fast_encode_pointer@@YA?AU__crt_fast_encoded_nullptr_t@@$$T@Z 1001787d f i libvcruntime:winapi_downlevel.obj
 0001:00016bc1       ___vcrt_EventRegister      10017bc1 f   libvcruntime:winapi_downlevel.obj
 0001:00016c11       ___vcrt_EventSetInformation 10017c11 f   libvcruntime:winapi_downlevel.obj
 0001:00016c64       ___vcrt_EventUnregister    10017c64 f   libvcruntime:winapi_downlevel.obj
 0001:00016cac       ___vcrt_EventWriteTransfer 10017cac f   libvcruntime:winapi_downlevel.obj
 0001:00016d07       ___vcrt_FlsAlloc           10017d07 f   libvcruntime:winapi_downlevel.obj
 0001:00016d4f       ___vcrt_FlsFree            10017d4f f   libvcruntime:winapi_downlevel.obj
 0001:00016d97       ___vcrt_FlsGetValue        10017d97 f   libvcruntime:winapi_downlevel.obj
 0001:00016ddf       ___vcrt_FlsSetValue        10017ddf f   libvcruntime:winapi_downlevel.obj
 0001:00016e2b       ___vcrt_InitializeCriticalSectionEx 10017e2b f   libvcruntime:winapi_downlevel.obj
 0001:00016e82       ___vcrt_initialize_winapi_thunks 10017e82 f   libvcruntime:winapi_downlevel.obj
 0001:00016eca       ___vcrt_uninitialize_winapi_thunks 10017eca f   libvcruntime:winapi_downlevel.obj
 0001:00016f08       ??$?B$$A6AXXZ@__crt_fast_encoded_nullptr_t@@QBEP6AXXZXZ 10017f08 f i libvcruntime:purevirt_data.obj
 0001:00016f26       ??$__crt_fast_encode_pointer@P6AXXZ@@YAP6AXXZQ6AXXZ@Z 10017f26 f i libvcruntime:purevirt_data.obj
 0001:00016f4a       ___vcrt_initialize_pure_virtual_call_handler 10017f4a f   libvcruntime:purevirt_data.obj
 0001:00016f6e       ??$__vcrt_va_start_verify_argument_type@QBD@@YAXXZ 10017f6e f i libvcruntime:undname.obj
 0001:00016f6f       ??0Block@_HeapManager@@QAE@XZ 10017f6f f i libvcruntime:undname.obj
 0001:00016f75       ??0DName@@QAE@AAPBDD@Z     10017f75 f   libvcruntime:undname.obj
 0001:0001705c       ??0DName@@QAE@ABV0@@Z      1001805c f i libvcruntime:undname.obj
 0001:00017077       ??0DName@@QAE@D@Z          10018077 f   libvcruntime:undname.obj
 0001:000170ae       ??0DName@@QAE@PAV0@@Z      100180ae f   libvcruntime:undname.obj
 0001:0001710e       ??0DName@@QAE@PBD@Z        1001810e f   libvcruntime:undname.obj
 0001:00017156       ??0DName@@QAE@W4DNameStatus@@@Z 10018156 f   libvcruntime:undname.obj
 0001:000171a9       ??0DName@@QAE@XZ           100181a9 f i libvcruntime:undname.obj
 0001:000171be       ??0DName@@QAE@_J@Z         100181be f   libvcruntime:undname.obj
 0001:00017278       ??0DName@@QAE@_K@Z         10018278 f   libvcruntime:undname.obj
 0001:00017302       ??0DNameNode@@IAE@XZ       10018302 f   libvcruntime:undname.obj
 0001:0001730d       ??0DNameStatusNode@@AAE@W4DNameStatus@@@Z 1001830d f   libvcruntime:undname.obj
 0001:00017338       ??0Replicator@@QAE@XZ      10018338 f i libvcruntime:undname.obj
 0001:0001733e       ??0UnDecorator@@QAE@PADPBDHP6APADJ@ZK@Z 1001833e f i libvcruntime:undname.obj
 0001:000173c1       ??0charNode@@QAE@D@Z       100183c1 f   libvcruntime:undname.obj
 0001:000173db       ??0pDNameNode@@QAE@PAVDName@@@Z 100183db f   libvcruntime:undname.obj
 0001:0001740d       ??0pairNode@@QAE@PAVDNameNode@@0@Z 1001840d f   libvcruntime:undname.obj
 0001:00017433       ??0pcharNode@@QAE@PBDH@Z   10018433 f   libvcruntime:undname.obj
 0001:000174a2       ??2@YAPAXIAAV_HeapManager@@H@Z 100184a2 f i libvcruntime:undname.obj
 0001:000174bc       ??4DName@@QAEAAV0@ABV0@@Z  100184bc f   libvcruntime:undname.obj
 0001:000174d7       ??4DName@@QAEAAV0@D@Z      100184d7 f i libvcruntime:undname.obj
 0001:0001750e       ??4DName@@QAEAAV0@PAV0@@Z  1001850e f   libvcruntime:undname.obj
 0001:00017569       ??4DName@@QAEAAV0@PBD@Z    10018569 f   libvcruntime:undname.obj
 0001:000175a7       ??4DName@@QAEAAV0@W4DNameStatus@@@Z 100185a7 f   libvcruntime:undname.obj
 0001:000175e9       ??AReplicator@@QBE?AVDName@@H@Z 100185e9 f   libvcruntime:undname.obj
 0001:00017634       ??BUnDecorator@@QAEPADXZ   10018634 f i libvcruntime:undname.obj
 0001:0001780b       ??H@YA?AVDName@@DABV0@@Z   1001880b f i libvcruntime:undname.obj
 0001:00017838       ??H@YA?AVDName@@PBDABV0@@Z 10018838 f i libvcruntime:undname.obj
 0001:00017865       ??H@YA?AVDName@@W4DNameStatus@@ABV0@@Z 10018865 f i libvcruntime:undname.obj
 0001:00017892       ??HDName@@QBE?AV0@ABV0@@Z  10018892 f   libvcruntime:undname.obj
 0001:000178bc       ??HDName@@QBE?AV0@D@Z      100188bc f   libvcruntime:undname.obj
 0001:000178e6       ??HDName@@QBE?AV0@PAV0@@Z  100188e6 f   libvcruntime:undname.obj
 0001:00017910       ??HDName@@QBE?AV0@PBD@Z    10018910 f   libvcruntime:undname.obj
 0001:0001793a       ??HDName@@QBE?AV0@W4DNameStatus@@@Z 1001893a f   libvcruntime:undname.obj
 0001:00017964       ??YDName@@QAEAAV0@ABV0@@Z  10018964 f   libvcruntime:undname.obj
 0001:000179b7       ??YDName@@QAEAAV0@D@Z      100189b7 f   libvcruntime:undname.obj
 0001:00017a1b       ??YDName@@QAEAAV0@PAV0@@Z  10018a1b f   libvcruntime:undname.obj
 0001:00017a99       ??YDName@@QAEAAV0@PBD@Z    10018a99 f   libvcruntime:undname.obj
 0001:00017b12       ??YDName@@QAEAAV0@W4DNameStatus@@@Z 10018b12 f   libvcruntime:undname.obj
 0001:00017b62       ??YReplicator@@QAEAAV0@ABVDName@@@Z 10018b62 f   libvcruntime:undname.obj
 0001:00017bbe       ??_5DName@@QAEAAV0@ABV0@@Z 10018bbe f   libvcruntime:undname.obj
 0001:00017be1       ?Constructor@_HeapManager@@QAEXP6APAXI@ZP6AXPAX@Z@Z 10018be1 f i libvcruntime:undname.obj
 0001:00017c05       ?Destructor@_HeapManager@@QAEXXZ 10018c05 f i libvcruntime:undname.obj
 0001:00017c4c       ?UScore@UnDecorator@@SAPBDW4Tokens@@@Z 10018c4c f   libvcruntime:undname.obj
 0001:00017c70       ?append@DName@@AAEXPAVDNameNode@@@Z 10018c70 f   libvcruntime:undname.obj
 0001:00017cc7       ?composeDeclaration@UnDecorator@@CA?AVDName@@ABV2@@Z 10018cc7 f i libvcruntime:undname.obj
 0001:00018d02       ?doAccessSpecifiers@UnDecorator@@SAHXZ 10019d02 f i libvcruntime:undname.obj
 0001:00018d13       ?doAllocationLanguage@UnDecorator@@SAHXZ 10019d13 f i libvcruntime:undname.obj
 0001:00018d24       ?doAllocationModel@UnDecorator@@SAHXZ 10019d24 f i libvcruntime:undname.obj
 0001:00018d35       ?doEcsu@UnDecorator@@SAHXZ 10019d35 f i libvcruntime:undname.obj
 0001:00018d46       ?doEllipsis@UnDecorator@@SAHXZ 10019d46 f i libvcruntime:undname.obj
 0001:00018d57       ?doFunctionReturns@UnDecorator@@SAHXZ 10019d57 f i libvcruntime:undname.obj
 0001:00018d68       ?doMSKeywords@UnDecorator@@SAHXZ 10019d68 f i libvcruntime:undname.obj
 0001:00018d78       ?doMemberTypes@UnDecorator@@SAHXZ 10019d78 f i libvcruntime:undname.obj
 0001:00018d89       ?doNameOnly@UnDecorator@@SAHXZ 10019d89 f i libvcruntime:undname.obj
 0001:00018d96       ?doNoIdentCharCheck@UnDecorator@@SAHXZ 10019d96 f i libvcruntime:undname.obj
 0001:00018da3       ?doPchar@DName@@AAEXPBDH@Z 10019da3 f   libvcruntime:undname.obj
 0001:00018e4f       ?doPtr64@UnDecorator@@SAHXZ 10019e4f f i libvcruntime:undname.obj
 0001:00018e60       ?doRestrictionSpec@UnDecorator@@SAHXZ 10019e60 f i libvcruntime:undname.obj
 0001:00018e71       ?doThisTypes@UnDecorator@@SAHXZ 10019e71 f i libvcruntime:undname.obj
 0001:00018e87       ?doThrowTypes@UnDecorator@@SAHXZ 10019e87 f i libvcruntime:undname.obj
 0001:00018e98       ?doTypeOnly@UnDecorator@@SAHXZ 10019e98 f i libvcruntime:undname.obj
 0001:00018ea5       ?doUnderScore@UnDecorator@@SAHXZ 10019ea5 f i libvcruntime:undname.obj
 0001:00018eb2       ?getArgumentList@UnDecorator@@CA?AVDName@@XZ 10019eb2 f   libvcruntime:undname.obj
 0001:00019001       ?getArgumentTypes@UnDecorator@@CA?AVDName@@XZ 1001a001 f   libvcruntime:undname.obj
 0001:00019119       ?getArrayType@UnDecorator@@CA?AVDName@@ABV2@@Z 1001a119 f i libvcruntime:undname.obj
 0001:0001939b       ?getBasedType@UnDecorator@@CA?AVDName@@XZ 1001a39b f   libvcruntime:undname.obj
 0001:0001945a       ?getBasicDataType@UnDecorator@@CA?AVDName@@ABV2@@Z 1001a45a f   libvcruntime:undname.obj
 0001:00019944       ?getCallIndex@UnDecorator@@CA?AVDName@@XZ 1001a944 f i libvcruntime:undname.obj
 0001:0001995d       ?getCallingConvention@UnDecorator@@CA?AVDName@@XZ 1001a95d f   libvcruntime:undname.obj
 0001:00019a4b       ?getDataIndirectType@UnDecorator@@CA?AVDName@@ABV2@PBD0H@Z 1001aa4b f   libvcruntime:undname.obj
 0001:0001a1f6       ?getDataIndirectType@UnDecorator@@CA?AVDName@@XZ 1001b1f6 f i libvcruntime:undname.obj
 0001:0001a23d       ?getDataType@UnDecorator@@CA?AVDName@@PAV2@@Z 1001b23d f   libvcruntime:undname.obj
 0001:0001a343       ?getDecoratedName@UnDecorator@@CA?AVDName@@XZ 1001b343 f   libvcruntime:undname.obj
 0001:0001a622       ?getDimension@UnDecorator@@CA?AVDName@@_N@Z 1001b622 f   libvcruntime:undname.obj
 0001:0001a7a6       ?getDispatchTarget@UnDecorator@@CA?AVDName@@XZ 1001b7a6 f   libvcruntime:undname.obj
 0001:0001a817       ?getDisplacement@UnDecorator@@CA?AVDName@@XZ 1001b817 f i libvcruntime:undname.obj
 0001:0001a830       ?getECSUDataType@UnDecorator@@CA?AVDName@@XZ 1001b830 f   libvcruntime:undname.obj
 0001:0001a994       ?getECSUName@UnDecorator@@CA?AVDName@@XZ 1001b994 f i libvcruntime:undname.obj
 0001:0001a9a9       ?getEnumType@UnDecorator@@CA?AVDName@@XZ 1001b9a9 f i libvcruntime:undname.obj
 0001:0001aad0       ?getExtendedDataIndirectType@UnDecorator@@CA?AVDName@@AAPBDAA_NH@Z 1001bad0 f   libvcruntime:undname.obj
 0001:0001ace3       ?getExternalDataType@UnDecorator@@CA?AVDName@@ABV2@@Z 1001bce3 f i libvcruntime:undname.obj
 0001:0001ad7a       ?getFunctionIndirectType@UnDecorator@@CA?AVDName@@ABV2@@Z 1001bd7a f   libvcruntime:undname.obj
 0001:0001b285       ?getGuardNumber@UnDecorator@@CA?AVDName@@XZ 1001c285 f i libvcruntime:undname.obj
 0001:0001b29e       ?getLastChar@DName@@QBEDXZ 1001c29e f i libvcruntime:undname.obj
 0001:0001b2c4       ?getLastChar@DNameStatusNode@@UBEDXZ 1001c2c4 f i libvcruntime:undname.obj
 0001:0001b2d3       ?getLastChar@charNode@@UBEDXZ 1001c2d3 f i libvcruntime:undname.obj
 0001:0001b2d7       ?getLastChar@pDNameNode@@UBEDXZ 1001c2d7 f i libvcruntime:undname.obj
 0001:0001b2e8       ?getLastChar@pairNode@@UBEDXZ 1001c2e8 f i libvcruntime:undname.obj
 0001:0001b327       ?getLastChar@pcharNode@@UBEDXZ 1001c327 f i libvcruntime:undname.obj
 0001:0001b33d       ?getLexicalFrame@UnDecorator@@CA?AVDName@@XZ 1001c33d f i libvcruntime:undname.obj
 0001:0001b389       ?getMemory@_HeapManager@@QAEPAXIH@Z 1001c389 f   libvcruntime:undname.obj
 0001:0001b43a       ?getNumberOfDimensions@UnDecorator@@CAHXZ 1001c43a f   libvcruntime:undname.obj
 0001:0001b4b3       ?getOperatorName@UnDecorator@@CA?AVDName@@_NPA_N@Z 1001c4b3 f i libvcruntime:undname.obj
 0001:0001bc63       ?getPointerType@UnDecorator@@CA?AVDName@@ABV2@0@Z 1001cc63 f i libvcruntime:undname.obj
 0001:0001bc88       ?getPointerTypeArray@UnDecorator@@CA?AVDName@@ABV2@0@Z 1001cc88 f i libvcruntime:undname.obj
 0001:0001bcad       ?getPrimaryDataType@UnDecorator@@CA?AVDName@@ABV2@@Z 1001ccad f   libvcruntime:undname.obj
 0001:0001bf1e       ?getPtrRefDataType@UnDecorator@@CA?AVDName@@ABV2@H@Z 1001cf1e f   libvcruntime:undname.obj
 0001:0001c060       ?getPtrRefType@UnDecorator@@CA?AVDName@@ABV2@0PBD@Z 1001d060 f   libvcruntime:undname.obj
 0001:0001c19b       ?getReferenceType@UnDecorator@@CA?AVDName@@ABV2@0PBD@Z 1001d19b f i libvcruntime:undname.obj
 0001:0001c1be       ?getRestrictionSpec@UnDecorator@@CA?AVDName@@XZ 1001d1be f   libvcruntime:undname.obj
 0001:0001c2ec       ?getReturnType@UnDecorator@@CA?AVDName@@PAV2@@Z 1001d2ec f   libvcruntime:undname.obj
 0001:0001c326       ?getScope@UnDecorator@@CA?AVDName@@XZ 1001d326 f   libvcruntime:undname.obj
 0001:0001c7fb       ?getScopedName@UnDecorator@@CA?AVDName@@XZ 1001d7fb f   libvcruntime:undname.obj
 0001:0001c934       ?getSignedDimension@UnDecorator@@CA?AVDName@@XZ 1001d934 f   libvcruntime:undname.obj
 0001:0001c99b       ?getStorageConvention@UnDecorator@@CA?AVDName@@XZ 1001d99b f i libvcruntime:undname.obj
 0001:0001c9b0       ?getString@DName@@QBEPADPAD0@Z 1001d9b0 f i libvcruntime:undname.obj
 0001:0001c9e7       ?getString@DName@@QBEPADPADH@Z 1001d9e7 f i libvcruntime:undname.obj
 0001:0001ca52       ?getString@DNameStatusNode@@UBEPADPAD0@Z 1001da52 f i libvcruntime:undname.obj
 0001:0001ca82       ?getString@charNode@@UBEPADPAD0@Z 1001da82 f i libvcruntime:undname.obj
 0001:0001ca9c       ?getString@pDNameNode@@UBEPADPAD0@Z 1001da9c f i libvcruntime:undname.obj
 0001:0001cab8       ?getString@pairNode@@UBEPADPAD0@Z 1001dab8 f i libvcruntime:undname.obj
 0001:0001cb0d       ?getString@pcharNode@@UBEPADPAD0@Z 1001db0d f i libvcruntime:undname.obj
 0001:0001cb2e       ?getStringEncoding@UnDecorator@@CA?AVDName@@PADH@Z 1001db2e f   libvcruntime:undname.obj
 0001:0001cbf9       ?getStringHelper@@YAPADPAD00H@Z 1001dbf9 f i libvcruntime:undname.obj
 0001:0001cc3d       ?getSymbolName@UnDecorator@@CA?AVDName@@XZ 1001dc3d f i libvcruntime:undname.obj
 0001:0001cc97       ?getTemplateArgumentList@UnDecorator@@CA?AVDName@@XZ 1001dc97 f   libvcruntime:undname.obj
 0001:0001cfe4       ?getTemplateConstant@UnDecorator@@CA?AVDName@@XZ 1001dfe4 f   libvcruntime:undname.obj
 0001:0001d3f9       ?getTemplateName@UnDecorator@@CA?AVDName@@_N@Z 1001e3f9 f   libvcruntime:undname.obj
 0001:0001d5a4       ?getThisType@UnDecorator@@CA?AVDName@@XZ 1001e5a4 f i libvcruntime:undname.obj
 0001:0001d5ec       ?getThrowTypes@UnDecorator@@CA?AVDName@@XZ 1001e5ec f   libvcruntime:undname.obj
 0001:0001d698       ?getTypeEncoding@UnDecorator@@CAHXZ 1001e698 f i libvcruntime:undname.obj
 0001:0001da94       ?getVCallThunkType@UnDecorator@@CA?AVDName@@XZ 1001ea94 f i libvcruntime:undname.obj
 0001:0001dadd       ?getVbTableType@UnDecorator@@CA?AVDName@@ABV2@@Z 1001eadd f i libvcruntime:undname.obj
 0001:0001daf7       ?getVdispMapType@UnDecorator@@CA?AVDName@@ABV2@@Z 1001eaf7 f i libvcruntime:undname.obj
 0001:0001db62       ?getVfTableType@UnDecorator@@CA?AVDName@@ABV2@@Z 1001eb62 f i libvcruntime:undname.obj
 0001:0001dd20       ?getZName@UnDecorator@@CA?AVDName@@_N0@Z 1001ed20 f   libvcruntime:undname.obj
 0001:0001dff0       ?haveTemplateParameters@UnDecorator@@SAHXZ 1001eff0 f i libvcruntime:undname.obj
 0001:0001dffd       ?isArray@DName@@QBEHXZ     1001effd f i libvcruntime:undname.obj
 0001:0001e009       ?isComArray@DName@@QBEHXZ  1001f009 f i libvcruntime:undname.obj
 0001:0001e015       ?isEmpty@DName@@QBEHXZ     1001f015 f i libvcruntime:undname.obj
 0001:0001e01f       ?isFull@Replicator@@QBEHXZ 1001f01f f i libvcruntime:undname.obj
 0001:0001e02a       ?isNoTE@DName@@QBEHXZ      1001f02a f i libvcruntime:undname.obj
 0001:0001e036       ?isPinPtr@DName@@QBEHXZ    1001f036 f i libvcruntime:undname.obj
 0001:0001e042       ?isPtrRef@DName@@QBEHXZ    1001f042 f i libvcruntime:undname.obj
 0001:0001e04e       ?isUDC@DName@@QBEHXZ       1001f04e f i libvcruntime:undname.obj
 0001:0001e063       ?isUDTThunk@DName@@QBEHXZ  1001f063 f i libvcruntime:undname.obj
 0001:0001e078       ?isVCallThunk@DName@@QBEHXZ 1001f078 f i libvcruntime:undname.obj
 0001:0001e084       ?isValid@DName@@QBEHXZ     1001f084 f i libvcruntime:undname.obj
 0001:0001e090       ?length@DName@@QBEHXZ      1001f090 f i libvcruntime:undname.obj
 0001:0001e0b5       ?length@DNameStatusNode@@UBEHXZ 1001f0b5 f i libvcruntime:undname.obj
 0001:0001e0b9       ?length@charNode@@UBEHXZ   1001f0b9 f i libvcruntime:undname.obj
 0001:0001e0bd       ?length@pDNameNode@@UBEHXZ 1001f0bd f i libvcruntime:undname.obj
 0001:0001e0ce       ?length@pairNode@@UBEHXZ   1001f0ce f i libvcruntime:undname.obj
 0001:0001e12a       ?length@pcharNode@@UBEHXZ  1001f12a f i libvcruntime:undname.obj
 0001:0001e12e       ?make@DNameStatusNode@@SAPAV1@W4DNameStatus@@@Z 1001f12e f i libvcruntime:undname.obj
 0001:0001e1d5       ?setIsArray@DName@@QAEXXZ  1001f1d5 f i libvcruntime:undname.obj
 0001:0001e1df       ?setIsComArray@DName@@QAEXXZ 1001f1df f i libvcruntime:undname.obj
 0001:0001e1e9       ?setIsNoTE@DName@@QAEXXZ   1001f1e9 f i libvcruntime:undname.obj
 0001:0001e1f3       ?setIsPinPtr@DName@@QAEXXZ 1001f1f3 f i libvcruntime:undname.obj
 0001:0001e1fd       ?setIsUDC@DName@@QAEXXZ    1001f1fd f i libvcruntime:undname.obj
 0001:0001e20d       ?setIsVCallThunk@DName@@QAEXXZ 1001f20d f i libvcruntime:undname.obj
 0001:0001e217       ?setPtrRef@DName@@QAEAAV1@XZ 1001f217 f i libvcruntime:undname.obj
 0001:0001e223       ?status@DName@@QBE?AW4DNameStatus@@XZ 1001f223 f i libvcruntime:undname.obj
 0001:0001e2a8       ___unDName                 1001f2a8 f   libvcruntime:undname.obj
 0001:0001e362       ___unDNameEx               1001f362 f   libvcruntime:undname.obj
 0001:0001e41c       __vsprintf_s_l             1001f41c f i libvcruntime:undname.obj
 0001:0001e454       _sprintf_s                 1001f454 f i libvcruntime:undname.obj
 0001:0001e480       __global_unwind2           1001f480 f   libvcruntime:_exsup_.obj
 0001:0001e4e5       __local_unwind2            1001f4e5 f   libvcruntime:_exsup_.obj
 0001:0001e569       __abnormal_termination     1001f569 f   libvcruntime:_exsup_.obj
 0001:0001e58c       __NLG_Notify1              1001f58c f   libvcruntime:_exsup_.obj
 0001:0001e595       __NLG_Notify               1001f595 f   libvcruntime:_exsup_.obj
 0001:0001e5ac       __NLG_Dispatch2            1001f5ac     libvcruntime:_exsup_.obj
 0001:0001e5ac       __NLG_Dispatch             1001f5ac     libvcruntime:_exsup_.obj
 0001:0001e5b4       __NLG_Call                 1001f5b4 f   libvcruntime:_exsup_.obj
 0001:0001e5b6       __NLG_Return2              1001f5b6     libvcruntime:_exsup_.obj
 0001:0001e604       ??$__crt_fast_decode_pointer@P6AXXZ@@YAP6AXXZQ6AXXZ@Z 1001f604 f i libvcruntime:purevirt.obj
 0001:0001e61d       ??$__crt_interlocked_compare_exchange_pointer@$$A6AXXZ$$T$$T@@YAP6AXXZPDS6AXXZ$$T1@Z 1001f61d f i libvcruntime:purevirt.obj
 0001:0001e633       ??$__crt_interlocked_exchange_pointer@$$A6AXXZP6AXXZ@@YAP6AXXZPDS6AXXZQ6AXXZ@Z 1001f633 f i libvcruntime:purevirt.obj
 0001:0001e643       ??$__crt_interlocked_read_pointer@$$A6AXXZ@@YAP6AXXZPDS6AXXZ@Z 1001f643 f i libvcruntime:purevirt.obj
 0001:0001e657       __get_purecall_handler     1001f657 f   libvcruntime:purevirt.obj
 0001:0001e67d       __purecall                 1001f67d f   libvcruntime:purevirt.obj
 0001:0001e69e       __set_purecall_handler     1001f69e f   libvcruntime:purevirt.obj
 0001:0001e6cc       _malloc                    1001f6cc f   libucrt:malloc.obj
 0001:0001e6d9       ??$?RPAU__crt_stdio_stream_data@@@__crt_internal_free_policy@@QBEXQBQAU__crt_stdio_stream_data@@@Z 1001f6d9 f i libucrt:_file.obj
 0001:0001e6ef       ??0?$__crt_unique_heap_ptr@PAU__crt_stdio_stream_data@@U__crt_internal_free_policy@@@@QAE@QAPAU__crt_stdio_stream_data@@@Z 1001f6ef f i libucrt:_file.obj
 0001:0001e703       ??0__crt_stdio_stream@@QAE@QAU_iobuf@@@Z 1001f703 f i libucrt:_file.obj
 0001:0001e717       ??1?$__crt_unique_heap_ptr@PAU__crt_stdio_stream_data@@U__crt_internal_free_policy@@@@QAE@XZ 1001f717 f i libucrt:_file.obj
 0001:0001e72d       ??C__crt_stdio_stream@@QBEPAU__crt_stdio_stream_data@@XZ 1001f72d f i libucrt:_file.obj
 0001:0001e730       ?detach@?$__crt_unique_heap_ptr@PAU__crt_stdio_stream_data@@U__crt_internal_free_policy@@@@QAEPAPAU__crt_stdio_stream_data@@XZ 1001f730 f i libucrt:_file.obj
 0001:0001e736       ?release@?$__crt_unique_heap_ptr@PAU__crt_stdio_stream_data@@U__crt_internal_free_policy@@@@QAEXXZ 1001f736 f i libucrt:_file.obj
 0001:0001e74c       ___acrt_initialize_stdio   1001f74c f   libucrt:_file.obj
 0001:0001e846       ___acrt_iob_func           1001f846 f   libucrt:_file.obj
 0001:0001e85a       ___acrt_uninitialize_stdio 1001f85a f   libucrt:_file.obj
 0001:0001e8b9       __get_stream_buffer_pointers 1001f8b9 f   libucrt:_file.obj
 0001:0001e910       __lock_file                1001f910 f   libucrt:_file.obj
 0001:0001e929       __unlock_file              1001f929 f   libucrt:_file.obj
 0001:0001e942       ??$?0ABV?$stream_output_adapter@D@__crt_stdio_output@@AB_KABQBDABQAU__crt_locale_pointers@@ABQAD@?$format_validation_base@DV?$stream_output_adapter@D@__crt_stdio_output@@@__crt_stdio_output@@IAE@ABV?$stream_output_adapter@D@1@AB_KABQBDABQAU__crt_locale_pointers@@ABQAD@Z 1001f942 f i libucrt:output.obj
 0001:0001e96d       ??$?0ABV?$stream_output_adapter@D@__crt_stdio_output@@AB_KABQBDABQAU__crt_locale_pointers@@ABQAD@?$positional_parameter_base@DV?$stream_output_adapter@D@__crt_stdio_output@@@__crt_stdio_output@@IAE@ABV?$stream_output_adapter@D@1@AB_KABQBDABQAU__crt_locale_pointers@@ABQAD@Z 1001f96d f i libucrt:output.obj
 0001:0001e9c7       ??$?0ABV?$stream_output_adapter@D@__crt_stdio_output@@AB_KABQBDABQAU__crt_locale_pointers@@ABQAD@?$standard_base@DV?$stream_output_adapter@D@__crt_stdio_output@@@__crt_stdio_output@@IAE@ABV?$stream_output_adapter@D@1@AB_KABQBDABQAU__crt_locale_pointers@@ABQAD@Z 1001f9c7 f i libucrt:output.obj
 0001:0001ea09       ??$?0ABV?$stream_output_adapter@_W@__crt_stdio_output@@AB_KABQB_WABQAU__crt_locale_pointers@@ABQAD@?$format_validation_base@_WV?$stream_output_adapter@_W@__crt_stdio_output@@@__crt_stdio_output@@IAE@ABV?$stream_output_adapter@_W@1@AB_KABQB_WABQAU__crt_locale_pointers@@ABQAD@Z 1001fa09 f i libucrt:output.obj
 0001:0001ea34       ??$?0ABV?$stream_output_adapter@_W@__crt_stdio_output@@AB_KABQB_WABQAU__crt_locale_pointers@@ABQAD@?$positional_parameter_base@_WV?$stream_output_adapter@_W@__crt_stdio_output@@@__crt_stdio_output@@IAE@ABV?$stream_output_adapter@_W@1@AB_KABQB_WABQAU__crt_locale_pointers@@ABQAD@Z 1001fa34 f i libucrt:output.obj
 0001:0001ea8e       ??$?0ABV?$stream_output_adapter@_W@__crt_stdio_output@@AB_KABQB_WABQAU__crt_locale_pointers@@ABQAD@?$standard_base@_WV?$stream_output_adapter@_W@__crt_stdio_output@@@__crt_stdio_output@@IAE@ABV?$stream_output_adapter@_W@1@AB_KABQB_WABQAU__crt_locale_pointers@@ABQAD@Z 1001fa8e f i libucrt:output.obj
 0001:0001ead0       ??$?0ABV?$string_output_adapter@D@__crt_stdio_output@@AB_KABQBDABQAU__crt_locale_pointers@@ABQAD@?$format_validation_base@DV?$string_output_adapter@D@__crt_stdio_output@@@__crt_stdio_output@@IAE@ABV?$string_output_adapter@D@1@AB_KABQBDABQAU__crt_locale_pointers@@ABQAD@Z 1001fad0 f i libucrt:output.obj
 0001:0001eafb       ??$?0ABV?$string_output_adapter@D@__crt_stdio_output@@AB_KABQBDABQAU__crt_locale_pointers@@ABQAD@?$positional_parameter_base@DV?$string_output_adapter@D@__crt_stdio_output@@@__crt_stdio_output@@IAE@ABV?$string_output_adapter@D@1@AB_KABQBDABQAU__crt_locale_pointers@@ABQAD@Z 1001fafb f i libucrt:output.obj
 0001:0001eb55       ??$?0ABV?$string_output_adapter@D@__crt_stdio_output@@AB_KABQBDABQAU__crt_locale_pointers@@ABQAD@?$standard_base@DV?$string_output_adapter@D@__crt_stdio_output@@@__crt_stdio_output@@IAE@ABV?$string_output_adapter@D@1@AB_KABQBDABQAU__crt_locale_pointers@@ABQAD@Z 1001fb55 f i libucrt:output.obj
 0001:0001eb97       ??$?0ABV?$string_output_adapter@_W@__crt_stdio_output@@AB_KABQB_WABQAU__crt_locale_pointers@@ABQAD@?$format_validation_base@_WV?$string_output_adapter@_W@__crt_stdio_output@@@__crt_stdio_output@@IAE@ABV?$string_output_adapter@_W@1@AB_KABQB_WABQAU__crt_locale_pointers@@ABQAD@Z 1001fb97 f i libucrt:output.obj
 0001:0001ebc2       ??$?0ABV?$string_output_adapter@_W@__crt_stdio_output@@AB_KABQB_WABQAU__crt_locale_pointers@@ABQAD@?$positional_parameter_base@_WV?$string_output_adapter@_W@__crt_stdio_output@@@__crt_stdio_output@@IAE@ABV?$string_output_adapter@_W@1@AB_KABQB_WABQAU__crt_locale_pointers@@ABQAD@Z 1001fbc2 f i libucrt:output.obj
 0001:0001ec1c       ??$?0ABV?$string_output_adapter@_W@__crt_stdio_output@@AB_KABQB_WABQAU__crt_locale_pointers@@ABQAD@?$standard_base@_WV?$string_output_adapter@_W@__crt_stdio_output@@@__crt_stdio_output@@IAE@ABV?$string_output_adapter@_W@1@AB_KABQB_WABQAU__crt_locale_pointers@@ABQAD@Z 1001fc1c f i libucrt:output.obj
 0001:0001ec5e       ??$?RV<lambda_2293f24e3ce1ad6fe22ccfb9dec07671>@@AAV<lambda_2565fc715a641e539f44ad02d6823606>@@V<lambda_d3217f279b832965d9ca670dc2993570>@@@?$__crt_seh_guarded_call@H@@QAEH$$QAV<lambda_2293f24e3ce1ad6fe22ccfb9dec07671>@@AAV<lambda_2565fc715a641e539f44ad02d6823606>@@$$QAV<lambda_d3217f279b832965d9ca670dc2993570>@@@Z 1001fc5e f i libucrt:output.obj
 0001:0001ecc3       ??$?RV<lambda_4d4ac866be0fa3c441830420fabdd2cb>@@AAV<lambda_63a10c2dc8dbb9e4dd1890be52af7c93>@@V<lambda_002af9fa0f8fe472b648c51882d4fc32>@@@?$__crt_seh_guarded_call@H@@QAEH$$QAV<lambda_4d4ac866be0fa3c441830420fabdd2cb>@@AAV<lambda_63a10c2dc8dbb9e4dd1890be52af7c93>@@$$QAV<lambda_002af9fa0f8fe472b648c51882d4fc32>@@@Z 1001fcc3 f i libucrt:output.obj
 0001:0001ed28       ??$?RV<lambda_5be909dfbae0a631386585770cd7b676>@@AAV<lambda_e516058a9c289d98c8ca9fea99247804>@@V<lambda_afe2e0cdc5e0ecf6f0d6f5e2f8985e38>@@@?$__crt_seh_guarded_call@H@@QAEH$$QAV<lambda_5be909dfbae0a631386585770cd7b676>@@AAV<lambda_e516058a9c289d98c8ca9fea99247804>@@$$QAV<lambda_afe2e0cdc5e0ecf6f0d6f5e2f8985e38>@@@Z 1001fd28 f i libucrt:output.obj
 0001:0001ed8d       ??$?RV<lambda_823d65812123d985753d53e2a8c25d20>@@AAV<lambda_0a97c9e57da7be065955385c79108ff2>@@V<lambda_4d2973f3ad2d226f00468307185dca1b>@@@?$__crt_seh_guarded_call@H@@QAEH$$QAV<lambda_823d65812123d985753d53e2a8c25d20>@@AAV<lambda_0a97c9e57da7be065955385c79108ff2>@@$$QAV<lambda_4d2973f3ad2d226f00468307185dca1b>@@@Z 1001fd8d f i libucrt:output.obj
 0001:0001edf2       ??$?RV<lambda_ab9923ffb5d694ec0d78876dd103e44f>@@AAV<lambda_481dd5778c961fbcd3b60b650e9b9dc4>@@V<lambda_7923d86c9e3f319b415918ec4b39749c>@@@?$__crt_seh_guarded_call@H@@QAEH$$QAV<lambda_ab9923ffb5d694ec0d78876dd103e44f>@@AAV<lambda_481dd5778c961fbcd3b60b650e9b9dc4>@@$$QAV<lambda_7923d86c9e3f319b415918ec4b39749c>@@@Z 1001fdf2 f i libucrt:output.obj
 0001:0001ee57       ??$?RV<lambda_db08b09ef7aa9d4f8620ce68402612bc>@@AAV<lambda_4f2c1eaeead2a5fc776db5b62ea0fb9b>@@V<lambda_3ae262bc35d4ba6a3825c4f6bcaaf95c>@@@?$__crt_seh_guarded_call@H@@QAEH$$QAV<lambda_db08b09ef7aa9d4f8620ce68402612bc>@@AAV<lambda_4f2c1eaeead2a5fc776db5b62ea0fb9b>@@$$QAV<lambda_3ae262bc35d4ba6a3825c4f6bcaaf95c>@@@Z 1001fe57 f i libucrt:output.obj
 0001:0001eebc       ??$__acrt_lock_stream_and_call@V<lambda_0a97c9e57da7be065955385c79108ff2>@@@@YAHQAU_iobuf@@$$QAV<lambda_0a97c9e57da7be065955385c79108ff2>@@@Z 1001febc f i libucrt:output.obj
 0001:0001eeee       ??$__acrt_lock_stream_and_call@V<lambda_2565fc715a641e539f44ad02d6823606>@@@@YAHQAU_iobuf@@$$QAV<lambda_2565fc715a641e539f44ad02d6823606>@@@Z 1001feee f i libucrt:output.obj
 0001:0001ef20       ??$__acrt_lock_stream_and_call@V<lambda_481dd5778c961fbcd3b60b650e9b9dc4>@@@@YAHQAU_iobuf@@$$QAV<lambda_481dd5778c961fbcd3b60b650e9b9dc4>@@@Z 1001ff20 f i libucrt:output.obj
 0001:0001ef52       ??$__acrt_lock_stream_and_call@V<lambda_4f2c1eaeead2a5fc776db5b62ea0fb9b>@@@@YAHQAU_iobuf@@$$QAV<lambda_4f2c1eaeead2a5fc776db5b62ea0fb9b>@@@Z 1001ff52 f i libucrt:output.obj
 0001:0001ef84       ??$__acrt_lock_stream_and_call@V<lambda_63a10c2dc8dbb9e4dd1890be52af7c93>@@@@YAHQAU_iobuf@@$$QAV<lambda_63a10c2dc8dbb9e4dd1890be52af7c93>@@@Z 1001ff84 f i libucrt:output.obj
 0001:0001efb6       ??$__acrt_lock_stream_and_call@V<lambda_e516058a9c289d98c8ca9fea99247804>@@@@YAHQAU_iobuf@@$$QAV<lambda_e516058a9c289d98c8ca9fea99247804>@@@Z 1001ffb6 f i libucrt:output.obj
 0001:0001efe8       ??$__crt_interlocked_read@J@@YAJPDJ@Z 1001ffe8 f i libucrt:output.obj
 0001:00020233       ??$count@D@formatting_buffer@__crt_stdio_output@@QBEIXZ 10021233 f i libucrt:output.obj
 0001:00020251       ??$data@D@formatting_buffer@__crt_stdio_output@@QAEPADXZ 10021251 f i libucrt:output.obj
 0001:00020261       ??$data@_W@formatting_buffer@__crt_stdio_output@@QAEPA_WXZ 10021261 f i libucrt:output.obj
 0001:00020271       ??$ensure_buffer_is_big_enough@D@formatting_buffer@__crt_stdio_output@@QAE_NI@Z 10021271 f i libucrt:output.obj
 0001:00020318       ??$extract_argument_from_va_list@C_J@?$positional_parameter_base@DV?$stream_output_adapter@D@__crt_stdio_output@@@__crt_stdio_output@@IAE_NAA_J@Z 10021318 f i libucrt:output.obj
 0001:000203b6       ??$extract_argument_from_va_list@C_J@?$positional_parameter_base@DV?$string_output_adapter@D@__crt_stdio_output@@@__crt_stdio_output@@IAE_NAA_J@Z 100213b6 f i libucrt:output.obj
 0001:00020454       ??$extract_argument_from_va_list@C_J@?$positional_parameter_base@_WV?$stream_output_adapter@_W@__crt_stdio_output@@@__crt_stdio_output@@IAE_NAA_J@Z 10021454 f i libucrt:output.obj
 0001:000204f2       ??$extract_argument_from_va_list@C_J@?$positional_parameter_base@_WV?$string_output_adapter@_W@__crt_stdio_output@@@__crt_stdio_output@@IAE_NAA_J@Z 100214f2 f i libucrt:output.obj
 0001:00020590       ??$extract_argument_from_va_list@C_J@?$standard_base@DV?$stream_output_adapter@D@__crt_stdio_output@@@__crt_stdio_output@@IAE_NAA_J@Z 10021590 f i libucrt:output.obj
 0001:000205b6       ??$extract_argument_from_va_list@C_J@?$standard_base@DV?$string_output_adapter@D@__crt_stdio_output@@@__crt_stdio_output@@IAE_NAA_J@Z 100215b6 f i libucrt:output.obj
 0001:000205dc       ??$extract_argument_from_va_list@C_J@?$standard_base@_WV?$stream_output_adapter@_W@__crt_stdio_output@@@__crt_stdio_output@@IAE_NAA_J@Z 100215dc f i libucrt:output.obj
 0001:00020602       ??$extract_argument_from_va_list@C_J@?$standard_base@_WV?$string_output_adapter@_W@__crt_stdio_output@@@__crt_stdio_output@@IAE_NAA_J@Z 10021602 f i libucrt:output.obj
 0001:00020628       ??$extract_argument_from_va_list@E_J@?$positional_parameter_base@DV?$stream_output_adapter@D@__crt_stdio_output@@@__crt_stdio_output@@IAE_NAA_J@Z 10021628 f i libucrt:output.obj
 0001:000206c6       ??$extract_argument_from_va_list@E_J@?$positional_parameter_base@DV?$string_output_adapter@D@__crt_stdio_output@@@__crt_stdio_output@@IAE_NAA_J@Z 100216c6 f i libucrt:output.obj
 0001:00020764       ??$extract_argument_from_va_list@E_J@?$positional_parameter_base@_WV?$stream_output_adapter@_W@__crt_stdio_output@@@__crt_stdio_output@@IAE_NAA_J@Z 10021764 f i libucrt:output.obj
 0001:00020802       ??$extract_argument_from_va_list@E_J@?$positional_parameter_base@_WV?$string_output_adapter@_W@__crt_stdio_output@@@__crt_stdio_output@@IAE_NAA_J@Z 10021802 f i libucrt:output.obj
 0001:000208a0       ??$extract_argument_from_va_list@E_J@?$standard_base@DV?$stream_output_adapter@D@__crt_stdio_output@@@__crt_stdio_output@@IAE_NAA_J@Z 100218a0 f i libucrt:output.obj
 0001:000208c6       ??$extract_argument_from_va_list@E_J@?$standard_base@DV?$string_output_adapter@D@__crt_stdio_output@@@__crt_stdio_output@@IAE_NAA_J@Z 100218c6 f i libucrt:output.obj
 0001:000208ec       ??$extract_argument_from_va_list@E_J@?$standard_base@_WV?$stream_output_adapter@_W@__crt_stdio_output@@@__crt_stdio_output@@IAE_NAA_J@Z 100218ec f i libucrt:output.obj
 0001:00020912       ??$extract_argument_from_va_list@E_J@?$standard_base@_WV?$string_output_adapter@_W@__crt_stdio_output@@@__crt_stdio_output@@IAE_NAA_J@Z 10021912 f i libucrt:output.obj
 0001:00020938       ??$extract_argument_from_va_list@F_J@?$positional_parameter_base@DV?$stream_output_adapter@D@__crt_stdio_output@@@__crt_stdio_output@@IAE_NAA_J@Z 10021938 f i libucrt:output.obj
 0001:000209d6       ??$extract_argument_from_va_list@F_J@?$positional_parameter_base@DV?$string_output_adapter@D@__crt_stdio_output@@@__crt_stdio_output@@IAE_NAA_J@Z 100219d6 f i libucrt:output.obj
 0001:00020a74       ??$extract_argument_from_va_list@F_J@?$positional_parameter_base@_WV?$stream_output_adapter@_W@__crt_stdio_output@@@__crt_stdio_output@@IAE_NAA_J@Z 10021a74 f i libucrt:output.obj
 0001:00020b12       ??$extract_argument_from_va_list@F_J@?$positional_parameter_base@_WV?$string_output_adapter@_W@__crt_stdio_output@@@__crt_stdio_output@@IAE_NAA_J@Z 10021b12 f i libucrt:output.obj
 0001:00020bb0       ??$extract_argument_from_va_list@F_J@?$standard_base@DV?$stream_output_adapter@D@__crt_stdio_output@@@__crt_stdio_output@@IAE_NAA_J@Z 10021bb0 f i libucrt:output.obj
 0001:00020bd6       ??$extract_argument_from_va_list@F_J@?$standard_base@DV?$string_output_adapter@D@__crt_stdio_output@@@__crt_stdio_output@@IAE_NAA_J@Z 10021bd6 f i libucrt:output.obj
 0001:00020bfc       ??$extract_argument_from_va_list@F_J@?$standard_base@_WV?$stream_output_adapter@_W@__crt_stdio_output@@@__crt_stdio_output@@IAE_NAA_J@Z 10021bfc f i libucrt:output.obj
 0001:00020c22       ??$extract_argument_from_va_list@F_J@?$standard_base@_WV?$string_output_adapter@_W@__crt_stdio_output@@@__crt_stdio_output@@IAE_NAA_J@Z 10021c22 f i libucrt:output.obj
 0001:00020c48       ??$extract_argument_from_va_list@GD@?$positional_parameter_base@DV?$stream_output_adapter@D@__crt_stdio_output@@@__crt_stdio_output@@IAE_NAAD@Z 10021c48 f i libucrt:output.obj
 0001:00020ce5       ??$extract_argument_from_va_list@GD@?$positional_parameter_base@DV?$string_output_adapter@D@__crt_stdio_output@@@__crt_stdio_output@@IAE_NAAD@Z 10021ce5 f i libucrt:output.obj
 0001:00020d82       ??$extract_argument_from_va_list@GD@?$standard_base@DV?$stream_output_adapter@D@__crt_stdio_output@@@__crt_stdio_output@@IAE_NAAD@Z 10021d82 f i libucrt:output.obj
 0001:00020da2       ??$extract_argument_from_va_list@GD@?$standard_base@DV?$string_output_adapter@D@__crt_stdio_output@@@__crt_stdio_output@@IAE_NAAD@Z 10021da2 f i libucrt:output.obj
 0001:00020dc2       ??$extract_argument_from_va_list@G_J@?$positional_parameter_base@DV?$stream_output_adapter@D@__crt_stdio_output@@@__crt_stdio_output@@IAE_NAA_J@Z 10021dc2 f i libucrt:output.obj
 0001:00020e60       ??$extract_argument_from_va_list@G_J@?$positional_parameter_base@DV?$string_output_adapter@D@__crt_stdio_output@@@__crt_stdio_output@@IAE_NAA_J@Z 10021e60 f i libucrt:output.obj
 0001:00020efe       ??$extract_argument_from_va_list@G_J@?$positional_parameter_base@_WV?$stream_output_adapter@_W@__crt_stdio_output@@@__crt_stdio_output@@IAE_NAA_J@Z 10021efe f i libucrt:output.obj
 0001:00020f9c       ??$extract_argument_from_va_list@G_J@?$positional_parameter_base@_WV?$string_output_adapter@_W@__crt_stdio_output@@@__crt_stdio_output@@IAE_NAA_J@Z 10021f9c f i libucrt:output.obj
 0001:0002103a       ??$extract_argument_from_va_list@G_J@?$standard_base@DV?$stream_output_adapter@D@__crt_stdio_output@@@__crt_stdio_output@@IAE_NAA_J@Z 1002203a f i libucrt:output.obj
 0001:00021060       ??$extract_argument_from_va_list@G_J@?$standard_base@DV?$string_output_adapter@D@__crt_stdio_output@@@__crt_stdio_output@@IAE_NAA_J@Z 10022060 f i libucrt:output.obj
 0001:00021086       ??$extract_argument_from_va_list@G_J@?$standard_base@_WV?$stream_output_adapter@_W@__crt_stdio_output@@@__crt_stdio_output@@IAE_NAA_J@Z 10022086 f i libucrt:output.obj
 0001:000210ac       ??$extract_argument_from_va_list@G_J@?$standard_base@_WV?$string_output_adapter@_W@__crt_stdio_output@@@__crt_stdio_output@@IAE_NAA_J@Z 100220ac f i libucrt:output.obj
 0001:000210d2       ??$extract_argument_from_va_list@H_J@?$positional_parameter_base@DV?$stream_output_adapter@D@__crt_stdio_output@@@__crt_stdio_output@@IAE_NAA_J@Z 100220d2 f i libucrt:output.obj
 0001:0002116e       ??$extract_argument_from_va_list@H_J@?$positional_parameter_base@DV?$string_output_adapter@D@__crt_stdio_output@@@__crt_stdio_output@@IAE_NAA_J@Z 1002216e f i libucrt:output.obj
 0001:0002120a       ??$extract_argument_from_va_list@H_J@?$positional_parameter_base@_WV?$stream_output_adapter@_W@__crt_stdio_output@@@__crt_stdio_output@@IAE_NAA_J@Z 1002220a f i libucrt:output.obj
 0001:000212a6       ??$extract_argument_from_va_list@H_J@?$positional_parameter_base@_WV?$string_output_adapter@_W@__crt_stdio_output@@@__crt_stdio_output@@IAE_NAA_J@Z 100222a6 f i libucrt:output.obj
 0001:00021342       ??$extract_argument_from_va_list@H_J@?$standard_base@DV?$stream_output_adapter@D@__crt_stdio_output@@@__crt_stdio_output@@IAE_NAA_J@Z 10022342 f i libucrt:output.obj
 0001:00021367       ??$extract_argument_from_va_list@H_J@?$standard_base@DV?$string_output_adapter@D@__crt_stdio_output@@@__crt_stdio_output@@IAE_NAA_J@Z 10022367 f i libucrt:output.obj
 0001:0002138c       ??$extract_argument_from_va_list@H_J@?$standard_base@_WV?$stream_output_adapter@_W@__crt_stdio_output@@@__crt_stdio_output@@IAE_NAA_J@Z 1002238c f i libucrt:output.obj
 0001:000213b1       ??$extract_argument_from_va_list@H_J@?$standard_base@_WV?$string_output_adapter@_W@__crt_stdio_output@@@__crt_stdio_output@@IAE_NAA_J@Z 100223b1 f i libucrt:output.obj
 0001:000213d6       ??$extract_argument_from_va_list@I_J@?$positional_parameter_base@DV?$stream_output_adapter@D@__crt_stdio_output@@@__crt_stdio_output@@IAE_NAA_J@Z 100223d6 f i libucrt:output.obj
 0001:0002147d       ??$extract_argument_from_va_list@I_J@?$positional_parameter_base@DV?$string_output_adapter@D@__crt_stdio_output@@@__crt_stdio_output@@IAE_NAA_J@Z 1002247d f i libucrt:output.obj
 0001:00021524       ??$extract_argument_from_va_list@I_J@?$positional_parameter_base@_WV?$stream_output_adapter@_W@__crt_stdio_output@@@__crt_stdio_output@@IAE_NAA_J@Z 10022524 f i libucrt:output.obj
 0001:000215cb       ??$extract_argument_from_va_list@I_J@?$positional_parameter_base@_WV?$string_output_adapter@_W@__crt_stdio_output@@@__crt_stdio_output@@IAE_NAA_J@Z 100225cb f i libucrt:output.obj
 0001:00021672       ??$extract_argument_from_va_list@I_J@?$standard_base@DV?$stream_output_adapter@D@__crt_stdio_output@@@__crt_stdio_output@@IAE_NAA_J@Z 10022672 f i libucrt:output.obj
 0001:00021697       ??$extract_argument_from_va_list@I_J@?$standard_base@DV?$string_output_adapter@D@__crt_stdio_output@@@__crt_stdio_output@@IAE_NAA_J@Z 10022697 f i libucrt:output.obj
 0001:000216bc       ??$extract_argument_from_va_list@I_J@?$standard_base@_WV?$stream_output_adapter@_W@__crt_stdio_output@@@__crt_stdio_output@@IAE_NAA_J@Z 100226bc f i libucrt:output.obj
 0001:000216e1       ??$extract_argument_from_va_list@I_J@?$standard_base@_WV?$string_output_adapter@_W@__crt_stdio_output@@@__crt_stdio_output@@IAE_NAA_J@Z 100226e1 f i libucrt:output.obj
 0001:00021706       ??$extract_argument_from_va_list@PADPAD@?$positional_parameter_base@DV?$stream_output_adapter@D@__crt_stdio_output@@@__crt_stdio_output@@IAE_NAAPAD@Z 10022706 f i libucrt:output.obj
 0001:000217a3       ??$extract_argument_from_va_list@PADPAD@?$positional_parameter_base@DV?$string_output_adapter@D@__crt_stdio_output@@@__crt_stdio_output@@IAE_NAAPAD@Z 100227a3 f i libucrt:output.obj
 0001:00021840       ??$extract_argument_from_va_list@PADPAD@?$positional_parameter_base@_WV?$stream_output_adapter@_W@__crt_stdio_output@@@__crt_stdio_output@@IAE_NAAPAD@Z 10022840 f i libucrt:output.obj
 0001:000218dd       ??$extract_argument_from_va_list@PADPAD@?$positional_parameter_base@_WV?$string_output_adapter@_W@__crt_stdio_output@@@__crt_stdio_output@@IAE_NAAPAD@Z 100228dd f i libucrt:output.obj
 0001:0002197a       ??$extract_argument_from_va_list@PADPAD@?$standard_base@DV?$stream_output_adapter@D@__crt_stdio_output@@@__crt_stdio_output@@IAE_NAAPAD@Z 1002297a f i libucrt:output.obj
 0001:0002199a       ??$extract_argument_from_va_list@PADPAD@?$standard_base@DV?$string_output_adapter@D@__crt_stdio_output@@@__crt_stdio_output@@IAE_NAAPAD@Z 1002299a f i libucrt:output.obj
 0001:000219ba       ??$extract_argument_from_va_list@PADPAD@?$standard_base@_WV?$stream_output_adapter@_W@__crt_stdio_output@@@__crt_stdio_output@@IAE_NAAPAD@Z 100229ba f i libucrt:output.obj
 0001:000219da       ??$extract_argument_from_va_list@PADPAD@?$standard_base@_WV?$string_output_adapter@_W@__crt_stdio_output@@@__crt_stdio_output@@IAE_NAAPAD@Z 100229da f i libucrt:output.obj
 0001:000219fa       ??$extract_argument_from_va_list@PAUansi_string@?1??type_case_Z@?$output_processor@DV?$stream_output_adapter@D@__crt_stdio_output@@V?$format_validation_base@DV?$stream_output_adapter@D@__crt_stdio_output@@@2@@__crt_stdio_output@@AAE_NXZ@PAU1?1??234@AAE_NXZ@@?$standard_base@DV?$stream_output_adapter@D@__crt_stdio_output@@@__crt_stdio_output@@IAE_NAAPAUansi_string@?1??type_case_Z@?$output_processor@DV?$stream_output_adapter@D@__crt_stdio_output@@V?$format_validation_base@DV?$stream_output_adapter@D@__crt_stdio_output@@@2@@1@AAE_NXZ@@Z 100229fa f i libucrt:output.obj
 0001:00021a1a       ??$extract_argument_from_va_list@PAUansi_string@?1??type_case_Z@?$output_processor@DV?$stream_output_adapter@D@__crt_stdio_output@@V?$positional_parameter_base@DV?$stream_output_adapter@D@__crt_stdio_output@@@2@@__crt_stdio_output@@AAE_NXZ@PAU1?1??234@AAE_NXZ@@?$positional_parameter_base@DV?$stream_output_adapter@D@__crt_stdio_output@@@__crt_stdio_output@@IAE_NAAPAUansi_string@?1??type_case_Z@?$output_processor@DV?$stream_output_adapter@D@__crt_stdio_output@@V?$positional_parameter_base@DV?$stream_output_adapter@D@__crt_stdio_output@@@2@@1@AAE_NXZ@@Z 10022a1a f i libucrt:output.obj
 0001:00021ab7       ??$extract_argument_from_va_list@PAUansi_string@?1??type_case_Z@?$output_processor@DV?$stream_output_adapter@D@__crt_stdio_output@@V?$positional_parameter_base@DV?$stream_output_adapter@D@__crt_stdio_output@@@2@@__crt_stdio_output@@AAE_NXZ@PAU1?1??234@AAE_NXZ@@?$standard_base@DV?$stream_output_adapter@D@__crt_stdio_output@@@__crt_stdio_output@@IAE_NAAPAUansi_string@?1??type_case_Z@?$output_processor@DV?$stream_output_adapter@D@__crt_stdio_output@@V?$positional_parameter_base@DV?$stream_output_adapter@D@__crt_stdio_output@@@2@@1@AAE_NXZ@@Z 10022ab7 f i libucrt:output.obj
 0001:00021ad7       ??$extract_argument_from_va_list@PAUansi_string@?1??type_case_Z@?$output_processor@DV?$stream_output_adapter@D@__crt_stdio_output@@V?$standard_base@DV?$stream_output_adapter@D@__crt_stdio_output@@@2@@__crt_stdio_output@@AAE_NXZ@PAU1?1??234@AAE_NXZ@@?$standard_base@DV?$stream_output_adapter@D@__crt_stdio_output@@@__crt_stdio_output@@IAE_NAAPAUansi_string@?1??type_case_Z@?$output_processor@DV?$stream_output_adapter@D@__crt_stdio_output@@V?$standard_base@DV?$stream_output_adapter@D@__crt_stdio_output@@@2@@1@AAE_NXZ@@Z 10022ad7 f i libucrt:output.obj
 0001:00021af7       ??$extract_argument_from_va_list@PAUansi_string@?1??type_case_Z@?$output_processor@DV?$string_output_adapter@D@__crt_stdio_output@@V?$format_validation_base@DV?$string_output_adapter@D@__crt_stdio_output@@@2@@__crt_stdio_output@@AAE_NXZ@PAU1?1??234@AAE_NXZ@@?$standard_base@DV?$string_output_adapter@D@__crt_stdio_output@@@__crt_stdio_output@@IAE_NAAPAUansi_string@?1??type_case_Z@?$output_processor@DV?$string_output_adapter@D@__crt_stdio_output@@V?$format_validation_base@DV?$string_output_adapter@D@__crt_stdio_output@@@2@@1@AAE_NXZ@@Z 10022af7 f i libucrt:output.obj
 0001:00021b17       ??$extract_argument_from_va_list@PAUansi_string@?1??type_case_Z@?$output_processor@DV?$string_output_adapter@D@__crt_stdio_output@@V?$positional_parameter_base@DV?$string_output_adapter@D@__crt_stdio_output@@@2@@__crt_stdio_output@@AAE_NXZ@PAU1?1??234@AAE_NXZ@@?$positional_parameter_base@DV?$string_output_adapter@D@__crt_stdio_output@@@__crt_stdio_output@@IAE_NAAPAUansi_string@?1??type_case_Z@?$output_processor@DV?$string_output_adapter@D@__crt_stdio_output@@V?$positional_parameter_base@DV?$string_output_adapter@D@__crt_stdio_output@@@2@@1@AAE_NXZ@@Z 10022b17 f i libucrt:output.obj
 0001:00021bb4       ??$extract_argument_from_va_list@PAUansi_string@?1??type_case_Z@?$output_processor@DV?$string_output_adapter@D@__crt_stdio_output@@V?$positional_parameter_base@DV?$string_output_adapter@D@__crt_stdio_output@@@2@@__crt_stdio_output@@AAE_NXZ@PAU1?1??234@AAE_NXZ@@?$standard_base@DV?$string_output_adapter@D@__crt_stdio_output@@@__crt_stdio_output@@IAE_NAAPAUansi_string@?1??type_case_Z@?$output_processor@DV?$string_output_adapter@D@__crt_stdio_output@@V?$positional_parameter_base@DV?$string_output_adapter@D@__crt_stdio_output@@@2@@1@AAE_NXZ@@Z 10022bb4 f i libucrt:output.obj
 0001:00021bd4       ??$extract_argument_from_va_list@PAUansi_string@?1??type_case_Z@?$output_processor@DV?$string_output_adapter@D@__crt_stdio_output@@V?$standard_base@DV?$string_output_adapter@D@__crt_stdio_output@@@2@@__crt_stdio_output@@AAE_NXZ@PAU1?1??234@AAE_NXZ@@?$standard_base@DV?$string_output_adapter@D@__crt_stdio_output@@@__crt_stdio_output@@IAE_NAAPAUansi_string@?1??type_case_Z@?$output_processor@DV?$string_output_adapter@D@__crt_stdio_output@@V?$standard_base@DV?$string_output_adapter@D@__crt_stdio_output@@@2@@1@AAE_NXZ@@Z 10022bd4 f i libucrt:output.obj
 0001:00021bf4       ??$extract_argument_from_va_list@PAUansi_string@?1??type_case_Z@?$output_processor@_WV?$stream_output_adapter@_W@__crt_stdio_output@@V?$format_validation_base@_WV?$stream_output_adapter@_W@__crt_stdio_output@@@2@@__crt_stdio_output@@AAE_NXZ@PAU1?1??234@AAE_NXZ@@?$standard_base@_WV?$stream_output_adapter@_W@__crt_stdio_output@@@__crt_stdio_output@@IAE_NAAPAUansi_string@?1??type_case_Z@?$output_processor@_WV?$stream_output_adapter@_W@__crt_stdio_output@@V?$format_validation_base@_WV?$stream_output_adapter@_W@__crt_stdio_output@@@2@@1@AAE_NXZ@@Z 10022bf4 f i libucrt:output.obj
 0001:00021c14       ??$extract_argument_from_va_list@PAUansi_string@?1??type_case_Z@?$output_processor@_WV?$stream_output_adapter@_W@__crt_stdio_output@@V?$positional_parameter_base@_WV?$stream_output_adapter@_W@__crt_stdio_output@@@2@@__crt_stdio_output@@AAE_NXZ@PAU1?1??234@AAE_NXZ@@?$positional_parameter_base@_WV?$stream_output_adapter@_W@__crt_stdio_output@@@__crt_stdio_output@@IAE_NAAPAUansi_string@?1??type_case_Z@?$output_processor@_WV?$stream_output_adapter@_W@__crt_stdio_output@@V?$positional_parameter_base@_WV?$stream_output_adapter@_W@__crt_stdio_output@@@2@@1@AAE_NXZ@@Z 10022c14 f i libucrt:output.obj
 0001:00021cb1       ??$extract_argument_from_va_list@PAUansi_string@?1??type_case_Z@?$output_processor@_WV?$stream_output_adapter@_W@__crt_stdio_output@@V?$positional_parameter_base@_WV?$stream_output_adapter@_W@__crt_stdio_output@@@2@@__crt_stdio_output@@AAE_NXZ@PAU1?1??234@AAE_NXZ@@?$standard_base@_WV?$stream_output_adapter@_W@__crt_stdio_output@@@__crt_stdio_output@@IAE_NAAPAUansi_string@?1??type_case_Z@?$output_processor@_WV?$stream_output_adapter@_W@__crt_stdio_output@@V?$positional_parameter_base@_WV?$stream_output_adapter@_W@__crt_stdio_output@@@2@@1@AAE_NXZ@@Z 10022cb1 f i libucrt:output.obj
 0001:00021cd1       ??$extract_argument_from_va_list@PAUansi_string@?1??type_case_Z@?$output_processor@_WV?$stream_output_adapter@_W@__crt_stdio_output@@V?$standard_base@_WV?$stream_output_adapter@_W@__crt_stdio_output@@@2@@__crt_stdio_output@@AAE_NXZ@PAU1?1??234@AAE_NXZ@@?$standard_base@_WV?$stream_output_adapter@_W@__crt_stdio_output@@@__crt_stdio_output@@IAE_NAAPAUansi_string@?1??type_case_Z@?$output_processor@_WV?$stream_output_adapter@_W@__crt_stdio_output@@V?$standard_base@_WV?$stream_output_adapter@_W@__crt_stdio_output@@@2@@1@AAE_NXZ@@Z 10022cd1 f i libucrt:output.obj
 0001:00021cf1       ??$extract_argument_from_va_list@PAUansi_string@?1??type_case_Z@?$output_processor@_WV?$string_output_adapter@_W@__crt_stdio_output@@V?$format_validation_base@_WV?$string_output_adapter@_W@__crt_stdio_output@@@2@@__crt_stdio_output@@AAE_NXZ@PAU1?1??234@AAE_NXZ@@?$standard_base@_WV?$string_output_adapter@_W@__crt_stdio_output@@@__crt_stdio_output@@IAE_NAAPAUansi_string@?1??type_case_Z@?$output_processor@_WV?$string_output_adapter@_W@__crt_stdio_output@@V?$format_validation_base@_WV?$string_output_adapter@_W@__crt_stdio_output@@@2@@1@AAE_NXZ@@Z 10022cf1 f i libucrt:output.obj
 0001:00021d11       ??$extract_argument_from_va_list@PAUansi_string@?1??type_case_Z@?$output_processor@_WV?$string_output_adapter@_W@__crt_stdio_output@@V?$positional_parameter_base@_WV?$string_output_adapter@_W@__crt_stdio_output@@@2@@__crt_stdio_output@@AAE_NXZ@PAU1?1??234@AAE_NXZ@@?$positional_parameter_base@_WV?$string_output_adapter@_W@__crt_stdio_output@@@__crt_stdio_output@@IAE_NAAPAUansi_string@?1??type_case_Z@?$output_processor@_WV?$string_output_adapter@_W@__crt_stdio_output@@V?$positional_parameter_base@_WV?$string_output_adapter@_W@__crt_stdio_output@@@2@@1@AAE_NXZ@@Z 10022d11 f i libucrt:output.obj
 0001:00021dae       ??$extract_argument_from_va_list@PAUansi_string@?1??type_case_Z@?$output_processor@_WV?$string_output_adapter@_W@__crt_stdio_output@@V?$positional_parameter_base@_WV?$string_output_adapter@_W@__crt_stdio_output@@@2@@__crt_stdio_output@@AAE_NXZ@PAU1?1??234@AAE_NXZ@@?$standard_base@_WV?$string_output_adapter@_W@__crt_stdio_output@@@__crt_stdio_output@@IAE_NAAPAUansi_string@?1??type_case_Z@?$output_processor@_WV?$string_output_adapter@_W@__crt_stdio_output@@V?$positional_parameter_base@_WV?$string_output_adapter@_W@__crt_stdio_output@@@2@@1@AAE_NXZ@@Z 10022dae f i libucrt:output.obj
 0001:00021dce       ??$extract_argument_from_va_list@PAUansi_string@?1??type_case_Z@?$output_processor@_WV?$string_output_adapter@_W@__crt_stdio_output@@V?$standard_base@_WV?$string_output_adapter@_W@__crt_stdio_output@@@2@@__crt_stdio_output@@AAE_NXZ@PAU1?1??234@AAE_NXZ@@?$standard_base@_WV?$string_output_adapter@_W@__crt_stdio_output@@@__crt_stdio_output@@IAE_NAAPAUansi_string@?1??type_case_Z@?$output_processor@_WV?$string_output_adapter@_W@__crt_stdio_output@@V?$standard_base@_WV?$string_output_adapter@_W@__crt_stdio_output@@@2@@1@AAE_NXZ@@Z 10022dce f i libucrt:output.obj
 0001:00021dee       ??$extract_argument_from_va_list@PAXPAX@?$positional_parameter_base@DV?$stream_output_adapter@D@__crt_stdio_output@@@__crt_stdio_output@@IAE_NAAPAX@Z 10022dee f i libucrt:output.obj
 0001:00021e8b       ??$extract_argument_from_va_list@PAXPAX@?$positional_parameter_base@DV?$string_output_adapter@D@__crt_stdio_output@@@__crt_stdio_output@@IAE_NAAPAX@Z 10022e8b f i libucrt:output.obj
 0001:00021f28       ??$extract_argument_from_va_list@PAXPAX@?$positional_parameter_base@_WV?$stream_output_adapter@_W@__crt_stdio_output@@@__crt_stdio_output@@IAE_NAAPAX@Z 10022f28 f i libucrt:output.obj
 0001:00021fc5       ??$extract_argument_from_va_list@PAXPAX@?$positional_parameter_base@_WV?$string_output_adapter@_W@__crt_stdio_output@@@__crt_stdio_output@@IAE_NAAPAX@Z 10022fc5 f i libucrt:output.obj
 0001:00022062       ??$extract_argument_from_va_list@PAXPAX@?$standard_base@DV?$stream_output_adapter@D@__crt_stdio_output@@@__crt_stdio_output@@IAE_NAAPAX@Z 10023062 f i libucrt:output.obj
 0001:00022082       ??$extract_argument_from_va_list@PAXPAX@?$standard_base@DV?$string_output_adapter@D@__crt_stdio_output@@@__crt_stdio_output@@IAE_NAAPAX@Z 10023082 f i libucrt:output.obj
 0001:000220a2       ??$extract_argument_from_va_list@PAXPAX@?$standard_base@_WV?$stream_output_adapter@_W@__crt_stdio_output@@@__crt_stdio_output@@IAE_NAAPAX@Z 100230a2 f i libucrt:output.obj
 0001:000220c2       ??$extract_argument_from_va_list@PAXPAX@?$standard_base@_WV?$string_output_adapter@_W@__crt_stdio_output@@@__crt_stdio_output@@IAE_NAAPAX@Z 100230c2 f i libucrt:output.obj
 0001:000220e2       ??$extract_argument_from_va_list@U_CRT_DOUBLE@@U1@@?$positional_parameter_base@DV?$stream_output_adapter@D@__crt_stdio_output@@@__crt_stdio_output@@IAE_NAAU_CRT_DOUBLE@@@Z 100230e2 f i libucrt:output.obj
 0001:00022193       ??$extract_argument_from_va_list@U_CRT_DOUBLE@@U1@@?$positional_parameter_base@DV?$string_output_adapter@D@__crt_stdio_output@@@__crt_stdio_output@@IAE_NAAU_CRT_DOUBLE@@@Z 10023193 f i libucrt:output.obj
 0001:00022244       ??$extract_argument_from_va_list@U_CRT_DOUBLE@@U1@@?$positional_parameter_base@_WV?$stream_output_adapter@_W@__crt_stdio_output@@@__crt_stdio_output@@IAE_NAAU_CRT_DOUBLE@@@Z 10023244 f i libucrt:output.obj
 0001:000222f5       ??$extract_argument_from_va_list@U_CRT_DOUBLE@@U1@@?$positional_parameter_base@_WV?$string_output_adapter@_W@__crt_stdio_output@@@__crt_stdio_output@@IAE_NAAU_CRT_DOUBLE@@@Z 100232f5 f i libucrt:output.obj
 0001:000223a6       ??$extract_argument_from_va_list@U_CRT_DOUBLE@@U1@@?$standard_base@DV?$stream_output_adapter@D@__crt_stdio_output@@@__crt_stdio_output@@IAE_NAAU_CRT_DOUBLE@@@Z 100233a6 f i libucrt:output.obj
 0001:000223ce       ??$extract_argument_from_va_list@U_CRT_DOUBLE@@U1@@?$standard_base@DV?$string_output_adapter@D@__crt_stdio_output@@@__crt_stdio_output@@IAE_NAAU_CRT_DOUBLE@@@Z 100233ce f i libucrt:output.obj
 0001:000223f6       ??$extract_argument_from_va_list@U_CRT_DOUBLE@@U1@@?$standard_base@_WV?$stream_output_adapter@_W@__crt_stdio_output@@@__crt_stdio_output@@IAE_NAAU_CRT_DOUBLE@@@Z 100233f6 f i libucrt:output.obj
 0001:0002241e       ??$extract_argument_from_va_list@U_CRT_DOUBLE@@U1@@?$standard_base@_WV?$string_output_adapter@_W@__crt_stdio_output@@@__crt_stdio_output@@IAE_NAAU_CRT_DOUBLE@@@Z 1002341e f i libucrt:output.obj
 0001:00022446       ??$extract_argument_from_va_list@_J_J@?$positional_parameter_base@DV?$stream_output_adapter@D@__crt_stdio_output@@@__crt_stdio_output@@IAE_NAA_J@Z 10023446 f i libucrt:output.obj
 0001:000224f7       ??$extract_argument_from_va_list@_J_J@?$positional_parameter_base@DV?$string_output_adapter@D@__crt_stdio_output@@@__crt_stdio_output@@IAE_NAA_J@Z 100234f7 f i libucrt:output.obj
 0001:000225a8       ??$extract_argument_from_va_list@_J_J@?$positional_parameter_base@_WV?$stream_output_adapter@_W@__crt_stdio_output@@@__crt_stdio_output@@IAE_NAA_J@Z 100235a8 f i libucrt:output.obj
 0001:00022659       ??$extract_argument_from_va_list@_J_J@?$positional_parameter_base@_WV?$string_output_adapter@_W@__crt_stdio_output@@@__crt_stdio_output@@IAE_NAA_J@Z 10023659 f i libucrt:output.obj
 0001:0002270a       ??$extract_argument_from_va_list@_J_J@?$standard_base@DV?$stream_output_adapter@D@__crt_stdio_output@@@__crt_stdio_output@@IAE_NAA_J@Z 1002370a f i libucrt:output.obj
 0001:00022732       ??$extract_argument_from_va_list@_J_J@?$standard_base@DV?$string_output_adapter@D@__crt_stdio_output@@@__crt_stdio_output@@IAE_NAA_J@Z 10023732 f i libucrt:output.obj
 0001:0002275a       ??$extract_argument_from_va_list@_J_J@?$standard_base@_WV?$stream_output_adapter@_W@__crt_stdio_output@@@__crt_stdio_output@@IAE_NAA_J@Z 1002375a f i libucrt:output.obj
 0001:00022782       ??$extract_argument_from_va_list@_J_J@?$standard_base@_WV?$string_output_adapter@_W@__crt_stdio_output@@@__crt_stdio_output@@IAE_NAA_J@Z 10023782 f i libucrt:output.obj
 0001:000227aa       ??$extract_argument_from_va_list@_K_J@?$positional_parameter_base@DV?$stream_output_adapter@D@__crt_stdio_output@@@__crt_stdio_output@@IAE_NAA_J@Z 100237aa f i libucrt:output.obj
 0001:0002285b       ??$extract_argument_from_va_list@_K_J@?$positional_parameter_base@DV?$string_output_adapter@D@__crt_stdio_output@@@__crt_stdio_output@@IAE_NAA_J@Z 1002385b f i libucrt:output.obj
 0001:0002290c       ??$extract_argument_from_va_list@_K_J@?$positional_parameter_base@_WV?$stream_output_adapter@_W@__crt_stdio_output@@@__crt_stdio_output@@IAE_NAA_J@Z 1002390c f i libucrt:output.obj
 0001:000229bd       ??$extract_argument_from_va_list@_K_J@?$positional_parameter_base@_WV?$string_output_adapter@_W@__crt_stdio_output@@@__crt_stdio_output@@IAE_NAA_J@Z 100239bd f i libucrt:output.obj
 0001:00022a6e       ??$extract_argument_from_va_list@_K_J@?$standard_base@DV?$stream_output_adapter@D@__crt_stdio_output@@@__crt_stdio_output@@IAE_NAA_J@Z 10023a6e f i libucrt:output.obj
 0001:00022a96       ??$extract_argument_from_va_list@_K_J@?$standard_base@DV?$string_output_adapter@D@__crt_stdio_output@@@__crt_stdio_output@@IAE_NAA_J@Z 10023a96 f i libucrt:output.obj
 0001:00022abe       ??$extract_argument_from_va_list@_K_J@?$standard_base@_WV?$stream_output_adapter@_W@__crt_stdio_output@@@__crt_stdio_output@@IAE_NAA_J@Z 10023abe f i libucrt:output.obj
 0001:00022ae6       ??$extract_argument_from_va_list@_K_J@?$standard_base@_WV?$string_output_adapter@_W@__crt_stdio_output@@@__crt_stdio_output@@IAE_NAA_J@Z 10023ae6 f i libucrt:output.obj
 0001:00022b0e       ??$extract_argument_from_va_list@_W_W@?$positional_parameter_base@DV?$stream_output_adapter@D@__crt_stdio_output@@@__crt_stdio_output@@IAE_NAA_W@Z 10023b0e f i libucrt:output.obj
 0001:00022bb0       ??$extract_argument_from_va_list@_W_W@?$positional_parameter_base@DV?$string_output_adapter@D@__crt_stdio_output@@@__crt_stdio_output@@IAE_NAA_W@Z 10023bb0 f i libucrt:output.obj
 0001:00022c52       ??$extract_argument_from_va_list@_W_W@?$positional_parameter_base@_WV?$stream_output_adapter@_W@__crt_stdio_output@@@__crt_stdio_output@@IAE_NAA_W@Z 10023c52 f i libucrt:output.obj
 0001:00022cf4       ??$extract_argument_from_va_list@_W_W@?$positional_parameter_base@_WV?$string_output_adapter@_W@__crt_stdio_output@@@__crt_stdio_output@@IAE_NAA_W@Z 10023cf4 f i libucrt:output.obj
 0001:00022d96       ??$extract_argument_from_va_list@_W_W@?$standard_base@DV?$stream_output_adapter@D@__crt_stdio_output@@@__crt_stdio_output@@IAE_NAA_W@Z 10023d96 f i libucrt:output.obj
 0001:00022db9       ??$extract_argument_from_va_list@_W_W@?$standard_base@DV?$string_output_adapter@D@__crt_stdio_output@@@__crt_stdio_output@@IAE_NAA_W@Z 10023db9 f i libucrt:output.obj
 0001:00022ddc       ??$extract_argument_from_va_list@_W_W@?$standard_base@_WV?$stream_output_adapter@_W@__crt_stdio_output@@@__crt_stdio_output@@IAE_NAA_W@Z 10023ddc f i libucrt:output.obj
 0001:00022dff       ??$extract_argument_from_va_list@_W_W@?$standard_base@_WV?$string_output_adapter@_W@__crt_stdio_output@@@__crt_stdio_output@@IAE_NAA_W@Z 10023dff f i libucrt:output.obj
 0001:00022e22       ??$get_parameter_type@D@?$positional_parameter_base@DV?$stream_output_adapter@D@__crt_stdio_output@@@__crt_stdio_output@@CA?AW4parameter_type@01@PAD@Z 10023e22 f i libucrt:output.obj
 0001:00022e26       ??$get_parameter_type@D@?$positional_parameter_base@DV?$string_output_adapter@D@__crt_stdio_output@@@__crt_stdio_output@@CA?AW4parameter_type@01@PAD@Z 10023e26 f i libucrt:output.obj
 0001:00022e2a       ??$get_parameter_type@D@?$positional_parameter_base@_WV?$stream_output_adapter@_W@__crt_stdio_output@@@__crt_stdio_output@@CA?AW4parameter_type@01@PAD@Z 10023e2a f i libucrt:output.obj
 0001:00022e2e       ??$get_parameter_type@D@?$positional_parameter_base@_WV?$string_output_adapter@_W@__crt_stdio_output@@@__crt_stdio_output@@CA?AW4parameter_type@01@PAD@Z 10023e2e f i libucrt:output.obj
 0001:00022e32       ??$get_parameter_type@Uansi_string@?1??type_case_Z@?$output_processor@DV?$stream_output_adapter@D@__crt_stdio_output@@V?$positional_parameter_base@DV?$stream_output_adapter@D@__crt_stdio_output@@@2@@__crt_stdio_output@@AAE_NXZ@@?$positional_parameter_base@DV?$stream_output_adapter@D@__crt_stdio_output@@@__crt_stdio_output@@CA?AW4parameter_type@01@PAUansi_string@?1??type_case_Z@?$output_processor@DV?$stream_output_adapter@D@__crt_stdio_output@@V?$positional_parameter_base@DV?$stream_output_adapter@D@__crt_stdio_output@@@2@@1@AAE_NXZ@@Z 10023e32 f i libucrt:output.obj
 0001:00022e36       ??$get_parameter_type@Uansi_string@?1??type_case_Z@?$output_processor@DV?$string_output_adapter@D@__crt_stdio_output@@V?$positional_parameter_base@DV?$string_output_adapter@D@__crt_stdio_output@@@2@@__crt_stdio_output@@AAE_NXZ@@?$positional_parameter_base@DV?$string_output_adapter@D@__crt_stdio_output@@@__crt_stdio_output@@CA?AW4parameter_type@01@PAUansi_string@?1??type_case_Z@?$output_processor@DV?$string_output_adapter@D@__crt_stdio_output@@V?$positional_parameter_base@DV?$string_output_adapter@D@__crt_stdio_output@@@2@@1@AAE_NXZ@@Z 10023e36 f i libucrt:output.obj
 0001:00022e3a       ??$get_parameter_type@Uansi_string@?1??type_case_Z@?$output_processor@_WV?$stream_output_adapter@_W@__crt_stdio_output@@V?$positional_parameter_base@_WV?$stream_output_adapter@_W@__crt_stdio_output@@@2@@__crt_stdio_output@@AAE_NXZ@@?$positional_parameter_base@_WV?$stream_output_adapter@_W@__crt_stdio_output@@@__crt_stdio_output@@CA?AW4parameter_type@01@PAUansi_string@?1??type_case_Z@?$output_processor@_WV?$stream_output_adapter@_W@__crt_stdio_output@@V?$positional_parameter_base@_WV?$stream_output_adapter@_W@__crt_stdio_output@@@2@@1@AAE_NXZ@@Z 10023e3a f i libucrt:output.obj
 0001:00022e3e       ??$get_parameter_type@Uansi_string@?1??type_case_Z@?$output_processor@_WV?$string_output_adapter@_W@__crt_stdio_output@@V?$positional_parameter_base@_WV?$string_output_adapter@_W@__crt_stdio_output@@@2@@__crt_stdio_output@@AAE_NXZ@@?$positional_parameter_base@_WV?$string_output_adapter@_W@__crt_stdio_output@@@__crt_stdio_output@@CA?AW4parameter_type@01@PAUansi_string@?1??type_case_Z@?$output_processor@_WV?$string_output_adapter@_W@__crt_stdio_output@@V?$positional_parameter_base@_WV?$string_output_adapter@_W@__crt_stdio_output@@@2@@1@AAE_NXZ@@Z 10023e3e f i libucrt:output.obj
 0001:00022e42       ??$get_parameter_type@X@?$positional_parameter_base@DV?$stream_output_adapter@D@__crt_stdio_output@@@__crt_stdio_output@@CA?AW4parameter_type@01@PAX@Z 10023e42 f i libucrt:output.obj
 0001:00022e46       ??$get_parameter_type@X@?$positional_parameter_base@DV?$string_output_adapter@D@__crt_stdio_output@@@__crt_stdio_output@@CA?AW4parameter_type@01@PAX@Z 10023e46 f i libucrt:output.obj
 0001:00022e4a       ??$get_parameter_type@X@?$positional_parameter_base@_WV?$stream_output_adapter@_W@__crt_stdio_output@@@__crt_stdio_output@@CA?AW4parameter_type@01@PAX@Z 10023e4a f i libucrt:output.obj
 0001:00022e4e       ??$get_parameter_type@X@?$positional_parameter_base@_WV?$string_output_adapter@_W@__crt_stdio_output@@@__crt_stdio_output@@CA?AW4parameter_type@01@PAX@Z 10023e4e f i libucrt:output.obj
 0001:00022e52       ??$is_character_specifier@D@?$positional_parameter_base@DV?$stream_output_adapter@D@__crt_stdio_output@@@__crt_stdio_output@@CA_ND@Z 10023e52 f i libucrt:output.obj
 0001:00022e71       ??$is_character_specifier@D@?$positional_parameter_base@DV?$string_output_adapter@D@__crt_stdio_output@@@__crt_stdio_output@@CA_ND@Z 10023e71 f i libucrt:output.obj
 0001:00022e90       ??$is_character_specifier@_W@?$positional_parameter_base@_WV?$stream_output_adapter@_W@__crt_stdio_output@@@__crt_stdio_output@@CA_N_W@Z 10023e90 f i libucrt:output.obj
 0001:00022eb3       ??$is_character_specifier@_W@?$positional_parameter_base@_WV?$string_output_adapter@_W@__crt_stdio_output@@@__crt_stdio_output@@CA_N_W@Z 10023eb3 f i libucrt:output.obj
 0001:00022ed6       ??$is_integral_specifier@D@?$positional_parameter_base@DV?$stream_output_adapter@D@__crt_stdio_output@@@__crt_stdio_output@@CA_ND@Z 10023ed6 f i libucrt:output.obj
 0001:00022f0e       ??$is_integral_specifier@D@?$positional_parameter_base@DV?$string_output_adapter@D@__crt_stdio_output@@@__crt_stdio_output@@CA_ND@Z 10023f0e f i libucrt:output.obj
 0001:00022f46       ??$is_integral_specifier@_W@?$positional_parameter_base@_WV?$stream_output_adapter@_W@__crt_stdio_output@@@__crt_stdio_output@@CA_N_W@Z 10023f46 f i libucrt:output.obj
 0001:00022f91       ??$is_integral_specifier@_W@?$positional_parameter_base@_WV?$string_output_adapter@_W@__crt_stdio_output@@@__crt_stdio_output@@CA_N_W@Z 10023f91 f i libucrt:output.obj
 0001:00022fdc       ??$is_pointer_specifier@D@?$positional_parameter_base@DV?$stream_output_adapter@D@__crt_stdio_output@@@__crt_stdio_output@@CA_ND@Z 10023fdc f i libucrt:output.obj
 0001:00022ff0       ??$is_pointer_specifier@D@?$positional_parameter_base@DV?$string_output_adapter@D@__crt_stdio_output@@@__crt_stdio_output@@CA_ND@Z 10023ff0 f i libucrt:output.obj
 0001:00023004       ??$is_pointer_specifier@_W@?$positional_parameter_base@_WV?$stream_output_adapter@_W@__crt_stdio_output@@@__crt_stdio_output@@CA_N_W@Z 10024004 f i libucrt:output.obj
 0001:00023019       ??$is_pointer_specifier@_W@?$positional_parameter_base@_WV?$string_output_adapter@_W@__crt_stdio_output@@@__crt_stdio_output@@CA_N_W@Z 10024019 f i libucrt:output.obj
 0001:0002302e       ??$is_string_specifier@D@?$positional_parameter_base@DV?$stream_output_adapter@D@__crt_stdio_output@@@__crt_stdio_output@@CA_ND@Z 1002402e f i libucrt:output.obj
 0001:0002304d       ??$is_string_specifier@D@?$positional_parameter_base@DV?$string_output_adapter@D@__crt_stdio_output@@@__crt_stdio_output@@CA_ND@Z 1002404d f i libucrt:output.obj
 0001:0002306c       ??$is_string_specifier@_W@?$positional_parameter_base@_WV?$stream_output_adapter@_W@__crt_stdio_output@@@__crt_stdio_output@@CA_N_W@Z 1002406c f i libucrt:output.obj
 0001:0002308f       ??$is_string_specifier@_W@?$positional_parameter_base@_WV?$string_output_adapter@_W@__crt_stdio_output@@@__crt_stdio_output@@CA_N_W@Z 1002408f f i libucrt:output.obj
 0001:000230b2       ??$is_wide_character_specifier@D@__crt_stdio_output@@YA_N_KDW4length_modifier@0@@Z 100240b2 f i libucrt:output.obj
 0001:00023102       ??$is_wide_character_specifier@_W@__crt_stdio_output@@YA_N_K_WW4length_modifier@0@@Z 10024102 f i libucrt:output.obj
 0001:00023164       ??$peek_va_arg@C@__crt_stdio_output@@YACPAD@Z 10024164 f i libucrt:output.obj
 0001:00023173       ??$peek_va_arg@E@__crt_stdio_output@@YAEPAD@Z 10024173 f i libucrt:output.obj
 0001:00023182       ??$peek_va_arg@F@__crt_stdio_output@@YAFPAD@Z 10024182 f i libucrt:output.obj
 0001:00023192       ??$peek_va_arg@G@__crt_stdio_output@@YAGPAD@Z 10024192 f i libucrt:output.obj
 0001:000231a2       ??$peek_va_arg@H@__crt_stdio_output@@YAHPAD@Z 100241a2 f i libucrt:output.obj
 0001:000231b1       ??$peek_va_arg@I@__crt_stdio_output@@YAIPAD@Z 100241b1 f i libucrt:output.obj
 0001:000231c0       ??$peek_va_arg@PAD@__crt_stdio_output@@YAPADPAD@Z 100241c0 f i libucrt:output.obj
 0001:000231cf       ??$peek_va_arg@PAUansi_string@?1??type_case_Z@?$output_processor@DV?$stream_output_adapter@D@__crt_stdio_output@@V?$positional_parameter_base@DV?$stream_output_adapter@D@__crt_stdio_output@@@2@@__crt_stdio_output@@AAE_NXZ@@__crt_stdio_output@@YAPAUansi_string@?1??type_case_Z@?$output_processor@DV?$stream_output_adapter@D@__crt_stdio_output@@V?$positional_parameter_base@DV?$stream_output_adapter@D@__crt_stdio_output@@@2@@0@AAE_NXZ@PAD@Z 100241cf f i libucrt:output.obj
 0001:000231de       ??$peek_va_arg@PAUansi_string@?1??type_case_Z@?$output_processor@DV?$string_output_adapter@D@__crt_stdio_output@@V?$positional_parameter_base@DV?$string_output_adapter@D@__crt_stdio_output@@@2@@__crt_stdio_output@@AAE_NXZ@@__crt_stdio_output@@YAPAUansi_string@?1??type_case_Z@?$output_processor@DV?$string_output_adapter@D@__crt_stdio_output@@V?$positional_parameter_base@DV?$string_output_adapter@D@__crt_stdio_output@@@2@@0@AAE_NXZ@PAD@Z 100241de f i libucrt:output.obj
 0001:000231ed       ??$peek_va_arg@PAUansi_string@?1??type_case_Z@?$output_processor@_WV?$stream_output_adapter@_W@__crt_stdio_output@@V?$positional_parameter_base@_WV?$stream_output_adapter@_W@__crt_stdio_output@@@2@@__crt_stdio_output@@AAE_NXZ@@__crt_stdio_output@@YAPAUansi_string@?1??type_case_Z@?$output_processor@_WV?$stream_output_adapter@_W@__crt_stdio_output@@V?$positional_parameter_base@_WV?$stream_output_adapter@_W@__crt_stdio_output@@@2@@0@AAE_NXZ@PAD@Z 100241ed f i libucrt:output.obj
 0001:000231fc       ??$peek_va_arg@PAUansi_string@?1??type_case_Z@?$output_processor@_WV?$string_output_adapter@_W@__crt_stdio_output@@V?$positional_parameter_base@_WV?$string_output_adapter@_W@__crt_stdio_output@@@2@@__crt_stdio_output@@AAE_NXZ@@__crt_stdio_output@@YAPAUansi_string@?1??type_case_Z@?$output_processor@_WV?$string_output_adapter@_W@__crt_stdio_output@@V?$positional_parameter_base@_WV?$string_output_adapter@_W@__crt_stdio_output@@@2@@0@AAE_NXZ@PAD@Z 100241fc f i libucrt:output.obj
 0001:0002320b       ??$peek_va_arg@PAX@__crt_stdio_output@@YAPAXPAD@Z 1002420b f i libucrt:output.obj
 0001:0002321a       ??$peek_va_arg@U_CRT_DOUBLE@@@__crt_stdio_output@@YA?AU_CRT_DOUBLE@@PAD@Z 1002421a f i libucrt:output.obj
 0001:0002322c       ??$peek_va_arg@_J@__crt_stdio_output@@YA_JPAD@Z 1002422c f i libucrt:output.obj
 0001:0002323e       ??$peek_va_arg@_K@__crt_stdio_output@@YA_KPAD@Z 1002423e f i libucrt:output.obj
 0001:00023250       ??$peek_va_arg@_W@__crt_stdio_output@@YA_WPAD@Z 10024250 f i libucrt:output.obj
 0001:00023260       ??$puttc_nolock@ABDPAU_iobuf@@@?$__crt_char_traits@D@@SAHABD$$QAPAU_iobuf@@@Z 10024260 f i libucrt:output.obj
 0001:00023280       ??$puttc_nolock@AB_WPAU_iobuf@@@?$__crt_char_traits@_W@@SAGAB_W$$QAPAU_iobuf@@@Z 10024280 f i libucrt:output.obj
 0001:000232a0       ??$read_va_arg@C@__crt_stdio_output@@YACAAPAD@Z 100242a0 f i libucrt:output.obj
 0001:000232b6       ??$read_va_arg@E@__crt_stdio_output@@YAEAAPAD@Z 100242b6 f i libucrt:output.obj
 0001:000232cc       ??$read_va_arg@F@__crt_stdio_output@@YAFAAPAD@Z 100242cc f i libucrt:output.obj
 0001:000232e3       ??$read_va_arg@G@__crt_stdio_output@@YAGAAPAD@Z 100242e3 f i libucrt:output.obj
 0001:000232fa       ??$read_va_arg@H@__crt_stdio_output@@YAHAAPAD@Z 100242fa f i libucrt:output.obj
 0001:00023310       ??$read_va_arg@I@__crt_stdio_output@@YAIAAPAD@Z 10024310 f i libucrt:output.obj
 0001:00023326       ??$read_va_arg@PAD@__crt_stdio_output@@YAPADAAPAD@Z 10024326 f i libucrt:output.obj
 0001:0002333c       ??$read_va_arg@PAUansi_string@?1??type_case_Z@?$output_processor@DV?$stream_output_adapter@D@__crt_stdio_output@@V?$format_validation_base@DV?$stream_output_adapter@D@__crt_stdio_output@@@2@@__crt_stdio_output@@AAE_NXZ@@__crt_stdio_output@@YAPAUansi_string@?1??type_case_Z@?$output_processor@DV?$stream_output_adapter@D@__crt_stdio_output@@V?$format_validation_base@DV?$stream_output_adapter@D@__crt_stdio_output@@@2@@0@AAE_NXZ@AAPAD@Z 1002433c f i libucrt:output.obj
 0001:00023352       ??$read_va_arg@PAUansi_string@?1??type_case_Z@?$output_processor@DV?$stream_output_adapter@D@__crt_stdio_output@@V?$positional_parameter_base@DV?$stream_output_adapter@D@__crt_stdio_output@@@2@@__crt_stdio_output@@AAE_NXZ@@__crt_stdio_output@@YAPAUansi_string@?1??type_case_Z@?$output_processor@DV?$stream_output_adapter@D@__crt_stdio_output@@V?$positional_parameter_base@DV?$stream_output_adapter@D@__crt_stdio_output@@@2@@0@AAE_NXZ@AAPAD@Z 10024352 f i libucrt:output.obj
 0001:00023368       ??$read_va_arg@PAUansi_string@?1??type_case_Z@?$output_processor@DV?$stream_output_adapter@D@__crt_stdio_output@@V?$standard_base@DV?$stream_output_adapter@D@__crt_stdio_output@@@2@@__crt_stdio_output@@AAE_NXZ@@__crt_stdio_output@@YAPAUansi_string@?1??type_case_Z@?$output_processor@DV?$stream_output_adapter@D@__crt_stdio_output@@V?$standard_base@DV?$stream_output_adapter@D@__crt_stdio_output@@@2@@0@AAE_NXZ@AAPAD@Z 10024368 f i libucrt:output.obj
 0001:0002337e       ??$read_va_arg@PAUansi_string@?1??type_case_Z@?$output_processor@DV?$string_output_adapter@D@__crt_stdio_output@@V?$format_validation_base@DV?$string_output_adapter@D@__crt_stdio_output@@@2@@__crt_stdio_output@@AAE_NXZ@@__crt_stdio_output@@YAPAUansi_string@?1??type_case_Z@?$output_processor@DV?$string_output_adapter@D@__crt_stdio_output@@V?$format_validation_base@DV?$string_output_adapter@D@__crt_stdio_output@@@2@@0@AAE_NXZ@AAPAD@Z 1002437e f i libucrt:output.obj
 0001:00023394       ??$read_va_arg@PAUansi_string@?1??type_case_Z@?$output_processor@DV?$string_output_adapter@D@__crt_stdio_output@@V?$positional_parameter_base@DV?$string_output_adapter@D@__crt_stdio_output@@@2@@__crt_stdio_output@@AAE_NXZ@@__crt_stdio_output@@YAPAUansi_string@?1??type_case_Z@?$output_processor@DV?$string_output_adapter@D@__crt_stdio_output@@V?$positional_parameter_base@DV?$string_output_adapter@D@__crt_stdio_output@@@2@@0@AAE_NXZ@AAPAD@Z 10024394 f i libucrt:output.obj
 0001:000233aa       ??$read_va_arg@PAUansi_string@?1??type_case_Z@?$output_processor@DV?$string_output_adapter@D@__crt_stdio_output@@V?$standard_base@DV?$string_output_adapter@D@__crt_stdio_output@@@2@@__crt_stdio_output@@AAE_NXZ@@__crt_stdio_output@@YAPAUansi_string@?1??type_case_Z@?$output_processor@DV?$string_output_adapter@D@__crt_stdio_output@@V?$standard_base@DV?$string_output_adapter@D@__crt_stdio_output@@@2@@0@AAE_NXZ@AAPAD@Z 100243aa f i libucrt:output.obj
 0001:000233c0       ??$read_va_arg@PAUansi_string@?1??type_case_Z@?$output_processor@_WV?$stream_output_adapter@_W@__crt_stdio_output@@V?$format_validation_base@_WV?$stream_output_adapter@_W@__crt_stdio_output@@@2@@__crt_stdio_output@@AAE_NXZ@@__crt_stdio_output@@YAPAUansi_string@?1??type_case_Z@?$output_processor@_WV?$stream_output_adapter@_W@__crt_stdio_output@@V?$format_validation_base@_WV?$stream_output_adapter@_W@__crt_stdio_output@@@2@@0@AAE_NXZ@AAPAD@Z 100243c0 f i libucrt:output.obj
 0001:000233d6       ??$read_va_arg@PAUansi_string@?1??type_case_Z@?$output_processor@_WV?$stream_output_adapter@_W@__crt_stdio_output@@V?$positional_parameter_base@_WV?$stream_output_adapter@_W@__crt_stdio_output@@@2@@__crt_stdio_output@@AAE_NXZ@@__crt_stdio_output@@YAPAUansi_string@?1??type_case_Z@?$output_processor@_WV?$stream_output_adapter@_W@__crt_stdio_output@@V?$positional_parameter_base@_WV?$stream_output_adapter@_W@__crt_stdio_output@@@2@@0@AAE_NXZ@AAPAD@Z 100243d6 f i libucrt:output.obj
 0001:000233ec       ??$read_va_arg@PAUansi_string@?1??type_case_Z@?$output_processor@_WV?$stream_output_adapter@_W@__crt_stdio_output@@V?$standard_base@_WV?$stream_output_adapter@_W@__crt_stdio_output@@@2@@__crt_stdio_output@@AAE_NXZ@@__crt_stdio_output@@YAPAUansi_string@?1??type_case_Z@?$output_processor@_WV?$stream_output_adapter@_W@__crt_stdio_output@@V?$standard_base@_WV?$stream_output_adapter@_W@__crt_stdio_output@@@2@@0@AAE_NXZ@AAPAD@Z 100243ec f i libucrt:output.obj
 0001:00023402       ??$read_va_arg@PAUansi_string@?1??type_case_Z@?$output_processor@_WV?$string_output_adapter@_W@__crt_stdio_output@@V?$format_validation_base@_WV?$string_output_adapter@_W@__crt_stdio_output@@@2@@__crt_stdio_output@@AAE_NXZ@@__crt_stdio_output@@YAPAUansi_string@?1??type_case_Z@?$output_processor@_WV?$string_output_adapter@_W@__crt_stdio_output@@V?$format_validation_base@_WV?$string_output_adapter@_W@__crt_stdio_output@@@2@@0@AAE_NXZ@AAPAD@Z 10024402 f i libucrt:output.obj
 0001:00023418       ??$read_va_arg@PAUansi_string@?1??type_case_Z@?$output_processor@_WV?$string_output_adapter@_W@__crt_stdio_output@@V?$positional_parameter_base@_WV?$string_output_adapter@_W@__crt_stdio_output@@@2@@__crt_stdio_output@@AAE_NXZ@@__crt_stdio_output@@YAPAUansi_string@?1??type_case_Z@?$output_processor@_WV?$string_output_adapter@_W@__crt_stdio_output@@V?$positional_parameter_base@_WV?$string_output_adapter@_W@__crt_stdio_output@@@2@@0@AAE_NXZ@AAPAD@Z 10024418 f i libucrt:output.obj
 0001:0002342e       ??$read_va_arg@PAUansi_string@?1??type_case_Z@?$output_processor@_WV?$string_output_adapter@_W@__crt_stdio_output@@V?$standard_base@_WV?$string_output_adapter@_W@__crt_stdio_output@@@2@@__crt_stdio_output@@AAE_NXZ@@__crt_stdio_output@@YAPAUansi_string@?1??type_case_Z@?$output_processor@_WV?$string_output_adapter@_W@__crt_stdio_output@@V?$standard_base@_WV?$string_output_adapter@_W@__crt_stdio_output@@@2@@0@AAE_NXZ@AAPAD@Z 1002442e f i libucrt:output.obj
 0001:00023444       ??$read_va_arg@PAX@__crt_stdio_output@@YAPAXAAPAD@Z 10024444 f i libucrt:output.obj
 0001:0002345a       ??$read_va_arg@U_CRT_DOUBLE@@@__crt_stdio_output@@YA?AU_CRT_DOUBLE@@AAPAD@Z 1002445a f i libucrt:output.obj
 0001:00023474       ??$read_va_arg@_J@__crt_stdio_output@@YA_JAAPAD@Z 10024474 f i libucrt:output.obj
 0001:0002348e       ??$read_va_arg@_K@__crt_stdio_output@@YA_KAAPAD@Z 1002448e f i libucrt:output.obj
 0001:000234a8       ??$read_va_arg@_W@__crt_stdio_output@@YA_WAAPAD@Z 100244a8 f i libucrt:output.obj
 0001:000234bf       ??$scratch_count@D@formatting_buffer@__crt_stdio_output@@QBEIXZ 100244bf f i libucrt:output.obj
 0001:000234c4       ??$scratch_data@D@formatting_buffer@__crt_stdio_output@@QAEPADXZ 100244c4 f i libucrt:output.obj
 0001:000234e9       ??$tcstol@AAPBDPAPADH@?$__crt_char_traits@D@@SAJAAPBD$$QAPAPAD$$QAH@Z 100244e9 f i libucrt:output.obj
 0001:0002350e       ??$tcstol@AAPB_WPAPA_WH@?$__crt_char_traits@_W@@SAJAAPB_W$$QAPAPA_W$$QAH@Z 1002450e f i libucrt:output.obj
 0001:00023533       ??$tcstol@PBDPAPADH@?$__crt_char_traits@D@@SAJ$$QAPBD$$QAPAPAD$$QAH@Z 10024533 f i libucrt:output.obj
 0001:00023558       ??$tcstol@PB_WPAPA_WH@?$__crt_char_traits@_W@@SAJ$$QAPB_W$$QAPAPA_W$$QAH@Z 10024558 f i libucrt:output.obj
 0001:0002357d       ??$type_case_integer_parse_into_buffer@I@?$output_processor@DV?$stream_output_adapter@D@__crt_stdio_output@@V?$format_validation_base@DV?$stream_output_adapter@D@__crt_stdio_output@@@2@@__crt_stdio_output@@AAEXII_N@Z 1002457d f i libucrt:output.obj
 0001:0002360f       ??$type_case_integer_parse_into_buffer@I@?$output_processor@DV?$stream_output_adapter@D@__crt_stdio_output@@V?$positional_parameter_base@DV?$stream_output_adapter@D@__crt_stdio_output@@@2@@__crt_stdio_output@@AAEXII_N@Z 1002460f f i libucrt:output.obj
 0001:000236a1       ??$type_case_integer_parse_into_buffer@I@?$output_processor@DV?$stream_output_adapter@D@__crt_stdio_output@@V?$standard_base@DV?$stream_output_adapter@D@__crt_stdio_output@@@2@@__crt_stdio_output@@AAEXII_N@Z 100246a1 f i libucrt:output.obj
 0001:00023733       ??$type_case_integer_parse_into_buffer@I@?$output_processor@DV?$string_output_adapter@D@__crt_stdio_output@@V?$format_validation_base@DV?$string_output_adapter@D@__crt_stdio_output@@@2@@__crt_stdio_output@@AAEXII_N@Z 10024733 f i libucrt:output.obj
 0001:000237c5       ??$type_case_integer_parse_into_buffer@I@?$output_processor@DV?$string_output_adapter@D@__crt_stdio_output@@V?$positional_parameter_base@DV?$string_output_adapter@D@__crt_stdio_output@@@2@@__crt_stdio_output@@AAEXII_N@Z 100247c5 f i libucrt:output.obj
 0001:00023857       ??$type_case_integer_parse_into_buffer@I@?$output_processor@DV?$string_output_adapter@D@__crt_stdio_output@@V?$standard_base@DV?$string_output_adapter@D@__crt_stdio_output@@@2@@__crt_stdio_output@@AAEXII_N@Z 10024857 f i libucrt:output.obj
 0001:000238e9       ??$type_case_integer_parse_into_buffer@I@?$output_processor@_WV?$stream_output_adapter@_W@__crt_stdio_output@@V?$format_validation_base@_WV?$stream_output_adapter@_W@__crt_stdio_output@@@2@@__crt_stdio_output@@AAEXII_N@Z 100248e9 f i libucrt:output.obj
 0001:0002397b       ??$type_case_integer_parse_into_buffer@I@?$output_processor@_WV?$stream_output_adapter@_W@__crt_stdio_output@@V?$positional_parameter_base@_WV?$stream_output_adapter@_W@__crt_stdio_output@@@2@@__crt_stdio_output@@AAEXII_N@Z 1002497b f i libucrt:output.obj
 0001:00023a0d       ??$type_case_integer_parse_into_buffer@I@?$output_processor@_WV?$stream_output_adapter@_W@__crt_stdio_output@@V?$standard_base@_WV?$stream_output_adapter@_W@__crt_stdio_output@@@2@@__crt_stdio_output@@AAEXII_N@Z 10024a0d f i libucrt:output.obj
 0001:00023a9f       ??$type_case_integer_parse_into_buffer@I@?$output_processor@_WV?$string_output_adapter@_W@__crt_stdio_output@@V?$format_validation_base@_WV?$string_output_adapter@_W@__crt_stdio_output@@@2@@__crt_stdio_output@@AAEXII_N@Z 10024a9f f i libucrt:output.obj
 0001:00023b31       ??$type_case_integer_parse_into_buffer@I@?$output_processor@_WV?$string_output_adapter@_W@__crt_stdio_output@@V?$positional_parameter_base@_WV?$string_output_adapter@_W@__crt_stdio_output@@@2@@__crt_stdio_output@@AAEXII_N@Z 10024b31 f i libucrt:output.obj
 0001:00023bc3       ??$type_case_integer_parse_into_buffer@I@?$output_processor@_WV?$string_output_adapter@_W@__crt_stdio_output@@V?$standard_base@_WV?$string_output_adapter@_W@__crt_stdio_output@@@2@@__crt_stdio_output@@AAEXII_N@Z 10024bc3 f i libucrt:output.obj
 0001:00023c55       ??$type_case_integer_parse_into_buffer@_K@?$output_processor@DV?$stream_output_adapter@D@__crt_stdio_output@@V?$format_validation_base@DV?$stream_output_adapter@D@__crt_stdio_output@@@2@@__crt_stdio_output@@AAEX_KI_N@Z 10024c55 f i libucrt:output.obj
 0001:00023cff       ??$type_case_integer_parse_into_buffer@_K@?$output_processor@DV?$stream_output_adapter@D@__crt_stdio_output@@V?$positional_parameter_base@DV?$stream_output_adapter@D@__crt_stdio_output@@@2@@__crt_stdio_output@@AAEX_KI_N@Z 10024cff f i libucrt:output.obj
 0001:00023da9       ??$type_case_integer_parse_into_buffer@_K@?$output_processor@DV?$stream_output_adapter@D@__crt_stdio_output@@V?$standard_base@DV?$stream_output_adapter@D@__crt_stdio_output@@@2@@__crt_stdio_output@@AAEX_KI_N@Z 10024da9 f i libucrt:output.obj
 0001:00023e53       ??$type_case_integer_parse_into_buffer@_K@?$output_processor@DV?$string_output_adapter@D@__crt_stdio_output@@V?$format_validation_base@DV?$string_output_adapter@D@__crt_stdio_output@@@2@@__crt_stdio_output@@AAEX_KI_N@Z 10024e53 f i libucrt:output.obj
 0001:00023efd       ??$type_case_integer_parse_into_buffer@_K@?$output_processor@DV?$string_output_adapter@D@__crt_stdio_output@@V?$positional_parameter_base@DV?$string_output_adapter@D@__crt_stdio_output@@@2@@__crt_stdio_output@@AAEX_KI_N@Z 10024efd f i libucrt:output.obj
 0001:00023fa7       ??$type_case_integer_parse_into_buffer@_K@?$output_processor@DV?$string_output_adapter@D@__crt_stdio_output@@V?$standard_base@DV?$string_output_adapter@D@__crt_stdio_output@@@2@@__crt_stdio_output@@AAEX_KI_N@Z 10024fa7 f i libucrt:output.obj
 0001:00024051       ??$type_case_integer_parse_into_buffer@_K@?$output_processor@_WV?$stream_output_adapter@_W@__crt_stdio_output@@V?$format_validation_base@_WV?$stream_output_adapter@_W@__crt_stdio_output@@@2@@__crt_stdio_output@@AAEX_KI_N@Z 10025051 f i libucrt:output.obj
 0001:000240fb       ??$type_case_integer_parse_into_buffer@_K@?$output_processor@_WV?$stream_output_adapter@_W@__crt_stdio_output@@V?$positional_parameter_base@_WV?$stream_output_adapter@_W@__crt_stdio_output@@@2@@__crt_stdio_output@@AAEX_KI_N@Z 100250fb f i libucrt:output.obj
 0001:000241a5       ??$type_case_integer_parse_into_buffer@_K@?$output_processor@_WV?$stream_output_adapter@_W@__crt_stdio_output@@V?$standard_base@_WV?$stream_output_adapter@_W@__crt_stdio_output@@@2@@__crt_stdio_output@@AAEX_KI_N@Z 100251a5 f i libucrt:output.obj
 0001:0002424f       ??$type_case_integer_parse_into_buffer@_K@?$output_processor@_WV?$string_output_adapter@_W@__crt_stdio_output@@V?$format_validation_base@_WV?$string_output_adapter@_W@__crt_stdio_output@@@2@@__crt_stdio_output@@AAEX_KI_N@Z 1002524f f i libucrt:output.obj
 0001:000242f9       ??$type_case_integer_parse_into_buffer@_K@?$output_processor@_WV?$string_output_adapter@_W@__crt_stdio_output@@V?$positional_parameter_base@_WV?$string_output_adapter@_W@__crt_stdio_output@@@2@@__crt_stdio_output@@AAEX_KI_N@Z 100252f9 f i libucrt:output.obj
 0001:000243a3       ??$type_case_integer_parse_into_buffer@_K@?$output_processor@_WV?$string_output_adapter@_W@__crt_stdio_output@@V?$standard_base@_WV?$string_output_adapter@_W@__crt_stdio_output@@@2@@__crt_stdio_output@@AAEX_KI_N@Z 100253a3 f i libucrt:output.obj
 0001:0002444d       ??$write_multiple_characters@V?$stream_output_adapter@D@__crt_stdio_output@@D@__crt_stdio_output@@YAXABV?$stream_output_adapter@D@0@DHQAH@Z 1002544d f i libucrt:output.obj
 0001:00024484       ??$write_multiple_characters@V?$stream_output_adapter@_W@__crt_stdio_output@@D@__crt_stdio_output@@YAXABV?$stream_output_adapter@_W@0@DHQAH@Z 10025484 f i libucrt:output.obj
 0001:000244c1       ??$write_multiple_characters@V?$string_output_adapter@D@__crt_stdio_output@@D@__crt_stdio_output@@YAXABV?$string_output_adapter@D@0@DHQAH@Z 100254c1 f i libucrt:output.obj
 0001:000244f8       ??$write_multiple_characters@V?$string_output_adapter@_W@__crt_stdio_output@@D@__crt_stdio_output@@YAXABV?$string_output_adapter@_W@0@DHQAH@Z 100254f8 f i libucrt:output.obj
 0001:00024769       ??0?$common_data@D@__crt_stdio_output@@IAE@XZ 10025769 f i libucrt:output.obj
 0001:000247c1       ??0?$common_data@_W@__crt_stdio_output@@IAE@XZ 100257c1 f i libucrt:output.obj
 0001:00024820       ??0?$output_adapter_data@DV?$stream_output_adapter@D@__crt_stdio_output@@@__crt_stdio_output@@IAE@ABV?$stream_output_adapter@D@1@_KQBDQAU__crt_locale_pointers@@QAD@Z 10025820 f i libucrt:output.obj
 0001:0002486b       ??0?$output_adapter_data@DV?$string_output_adapter@D@__crt_stdio_output@@@__crt_stdio_output@@IAE@ABV?$string_output_adapter@D@1@_KQBDQAU__crt_locale_pointers@@QAD@Z 1002586b f i libucrt:output.obj
 0001:000248b6       ??0?$output_adapter_data@_WV?$stream_output_adapter@_W@__crt_stdio_output@@@__crt_stdio_output@@IAE@ABV?$stream_output_adapter@_W@1@_KQB_WQAU__crt_locale_pointers@@QAD@Z 100258b6 f i libucrt:output.obj
 0001:00024901       ??0?$output_adapter_data@_WV?$string_output_adapter@_W@__crt_stdio_output@@@__crt_stdio_output@@IAE@ABV?$string_output_adapter@_W@1@_KQB_WQAU__crt_locale_pointers@@QAD@Z 10025901 f i libucrt:output.obj
 0001:0002494c       ??0?$output_processor@DV?$stream_output_adapter@D@__crt_stdio_output@@V?$format_validation_base@DV?$stream_output_adapter@D@__crt_stdio_output@@@2@@__crt_stdio_output@@QAE@ABV?$stream_output_adapter@D@1@_KQBDQAU__crt_locale_pointers@@QAD@Z 1002594c f i libucrt:output.obj
 0001:0002498e       ??0?$output_processor@DV?$stream_output_adapter@D@__crt_stdio_output@@V?$positional_parameter_base@DV?$stream_output_adapter@D@__crt_stdio_output@@@2@@__crt_stdio_output@@QAE@ABV?$stream_output_adapter@D@1@_KQBDQAU__crt_locale_pointers@@QAD@Z 1002598e f i libucrt:output.obj
 0001:000249c8       ??0?$output_processor@DV?$stream_output_adapter@D@__crt_stdio_output@@V?$standard_base@DV?$stream_output_adapter@D@__crt_stdio_output@@@2@@__crt_stdio_output@@QAE@ABV?$stream_output_adapter@D@1@_KQBDQAU__crt_locale_pointers@@QAD@Z 100259c8 f i libucrt:output.obj
 0001:00024a0a       ??0?$output_processor@DV?$string_output_adapter@D@__crt_stdio_output@@V?$format_validation_base@DV?$string_output_adapter@D@__crt_stdio_output@@@2@@__crt_stdio_output@@QAE@ABV?$string_output_adapter@D@1@_KQBDQAU__crt_locale_pointers@@QAD@Z 10025a0a f i libucrt:output.obj
 0001:00024a4c       ??0?$output_processor@DV?$string_output_adapter@D@__crt_stdio_output@@V?$positional_parameter_base@DV?$string_output_adapter@D@__crt_stdio_output@@@2@@__crt_stdio_output@@QAE@ABV?$string_output_adapter@D@1@_KQBDQAU__crt_locale_pointers@@QAD@Z 10025a4c f i libucrt:output.obj
 0001:00024a86       ??0?$output_processor@DV?$string_output_adapter@D@__crt_stdio_output@@V?$standard_base@DV?$string_output_adapter@D@__crt_stdio_output@@@2@@__crt_stdio_output@@QAE@ABV?$string_output_adapter@D@1@_KQBDQAU__crt_locale_pointers@@QAD@Z 10025a86 f i libucrt:output.obj
 0001:00024ac8       ??0?$output_processor@_WV?$stream_output_adapter@_W@__crt_stdio_output@@V?$format_validation_base@_WV?$stream_output_adapter@_W@__crt_stdio_output@@@2@@__crt_stdio_output@@QAE@ABV?$stream_output_adapter@_W@1@_KQB_WQAU__crt_locale_pointers@@QAD@Z 10025ac8 f i libucrt:output.obj
 0001:00024b0a       ??0?$output_processor@_WV?$stream_output_adapter@_W@__crt_stdio_output@@V?$positional_parameter_base@_WV?$stream_output_adapter@_W@__crt_stdio_output@@@2@@__crt_stdio_output@@QAE@ABV?$stream_output_adapter@_W@1@_KQB_WQAU__crt_locale_pointers@@QAD@Z 10025b0a f i libucrt:output.obj
 0001:00024b44       ??0?$output_processor@_WV?$stream_output_adapter@_W@__crt_stdio_output@@V?$standard_base@_WV?$stream_output_adapter@_W@__crt_stdio_output@@@2@@__crt_stdio_output@@QAE@ABV?$stream_output_adapter@_W@1@_KQB_WQAU__crt_locale_pointers@@QAD@Z 10025b44 f i libucrt:output.obj
 0001:00024b86       ??0?$output_processor@_WV?$string_output_adapter@_W@__crt_stdio_output@@V?$format_validation_base@_WV?$string_output_adapter@_W@__crt_stdio_output@@@2@@__crt_stdio_output@@QAE@ABV?$string_output_adapter@_W@1@_KQB_WQAU__crt_locale_pointers@@QAD@Z 10025b86 f i libucrt:output.obj
 0001:00024bc8       ??0?$output_processor@_WV?$string_output_adapter@_W@__crt_stdio_output@@V?$positional_parameter_base@_WV?$string_output_adapter@_W@__crt_stdio_output@@@2@@__crt_stdio_output@@QAE@ABV?$string_output_adapter@_W@1@_KQB_WQAU__crt_locale_pointers@@QAD@Z 10025bc8 f i libucrt:output.obj
 0001:00024c02       ??0?$output_processor@_WV?$string_output_adapter@_W@__crt_stdio_output@@V?$standard_base@_WV?$string_output_adapter@_W@__crt_stdio_output@@@2@@__crt_stdio_output@@QAE@ABV?$string_output_adapter@_W@1@_KQB_WQAU__crt_locale_pointers@@QAD@Z 10025c02 f i libucrt:output.obj
 0001:00024c44       ??0?$stream_output_adapter@D@__crt_stdio_output@@QAE@QAU_iobuf@@@Z 10025c44 f i libucrt:output.obj
 0001:00024c58       ??0?$stream_output_adapter@_W@__crt_stdio_output@@QAE@QAU_iobuf@@@Z 10025c58 f i libucrt:output.obj
 0001:00024c6c       ??0?$string_output_adapter@D@__crt_stdio_output@@QAE@QAU?$string_output_adapter_context@D@1@@Z 10025c6c f i libucrt:output.obj
 0001:00024c80       ??0?$string_output_adapter@_W@__crt_stdio_output@@QAE@QAU?$string_output_adapter_context@_W@1@@Z 10025c80 f i libucrt:output.obj
 0001:00024c94       ??0_LocaleUpdate@@QAE@QAU__crt_locale_pointers@@@Z 10025c94 f i libucrt:output.obj
 0001:00024d37       ??0__acrt_stdio_temporary_buffering_guard@@QAE@QAU_iobuf@@@Z 10025d37 f i libucrt:output.obj
 0001:00024d5c       ??0__crt_errno_guard@@QAE@QAH@Z 10025d5c f i libucrt:output.obj
 0001:00024d7a       ??0formatting_buffer@__crt_stdio_output@@QAE@XZ 10025d7a f i libucrt:output.obj
 0001:00024d8f       ??1?$common_data@D@__crt_stdio_output@@QAE@XZ 10025d8f f i libucrt:output.obj
 0001:00024d99       ??1?$common_data@_W@__crt_stdio_output@@QAE@XZ 10025d99 f i libucrt:output.obj
 0001:00024da3       ??1?$format_validation_base@DV?$stream_output_adapter@D@__crt_stdio_output@@@__crt_stdio_output@@QAE@XZ 10025da3 f i libucrt:output.obj
 0001:00024dad       ??1?$format_validation_base@DV?$string_output_adapter@D@__crt_stdio_output@@@__crt_stdio_output@@QAE@XZ 10025dad f i libucrt:output.obj
 0001:00024db7       ??1?$format_validation_base@_WV?$stream_output_adapter@_W@__crt_stdio_output@@@__crt_stdio_output@@QAE@XZ 10025db7 f i libucrt:output.obj
 0001:00024dc1       ??1?$format_validation_base@_WV?$string_output_adapter@_W@__crt_stdio_output@@@__crt_stdio_output@@QAE@XZ 10025dc1 f i libucrt:output.obj
 0001:00024dcb       ??1?$output_adapter_data@DV?$stream_output_adapter@D@__crt_stdio_output@@@__crt_stdio_output@@QAE@XZ 10025dcb f i libucrt:output.obj
 0001:00024dd5       ??1?$output_adapter_data@DV?$string_output_adapter@D@__crt_stdio_output@@@__crt_stdio_output@@QAE@XZ 10025dd5 f i libucrt:output.obj
 0001:00024ddf       ??1?$output_adapter_data@_WV?$stream_output_adapter@_W@__crt_stdio_output@@@__crt_stdio_output@@QAE@XZ 10025ddf f i libucrt:output.obj
 0001:00024de9       ??1?$output_adapter_data@_WV?$string_output_adapter@_W@__crt_stdio_output@@@__crt_stdio_output@@QAE@XZ 10025de9 f i libucrt:output.obj
 0001:00024df3       ??1?$output_processor@DV?$stream_output_adapter@D@__crt_stdio_output@@V?$format_validation_base@DV?$stream_output_adapter@D@__crt_stdio_output@@@2@@__crt_stdio_output@@QAE@XZ 10025df3 f i libucrt:output.obj
 0001:00024dfd       ??1?$output_processor@DV?$stream_output_adapter@D@__crt_stdio_output@@V?$positional_parameter_base@DV?$stream_output_adapter@D@__crt_stdio_output@@@2@@__crt_stdio_output@@QAE@XZ 10025dfd f i libucrt:output.obj
 0001:00024e07       ??1?$output_processor@DV?$stream_output_adapter@D@__crt_stdio_output@@V?$standard_base@DV?$stream_output_adapter@D@__crt_stdio_output@@@2@@__crt_stdio_output@@QAE@XZ 10025e07 f i libucrt:output.obj
 0001:00024e11       ??1?$output_processor@DV?$string_output_adapter@D@__crt_stdio_output@@V?$format_validation_base@DV?$string_output_adapter@D@__crt_stdio_output@@@2@@__crt_stdio_output@@QAE@XZ 10025e11 f i libucrt:output.obj
 0001:00024e1b       ??1?$output_processor@DV?$string_output_adapter@D@__crt_stdio_output@@V?$positional_parameter_base@DV?$string_output_adapter@D@__crt_stdio_output@@@2@@__crt_stdio_output@@QAE@XZ 10025e1b f i libucrt:output.obj
 0001:00024e25       ??1?$output_processor@DV?$string_output_adapter@D@__crt_stdio_output@@V?$standard_base@DV?$string_output_adapter@D@__crt_stdio_output@@@2@@__crt_stdio_output@@QAE@XZ 10025e25 f i libucrt:output.obj
 0001:00024e2f       ??1?$output_processor@_WV?$stream_output_adapter@_W@__crt_stdio_output@@V?$format_validation_base@_WV?$stream_output_adapter@_W@__crt_stdio_output@@@2@@__crt_stdio_output@@QAE@XZ 10025e2f f i libucrt:output.obj
 0001:00024e39       ??1?$output_processor@_WV?$stream_output_adapter@_W@__crt_stdio_output@@V?$positional_parameter_base@_WV?$stream_output_adapter@_W@__crt_stdio_output@@@2@@__crt_stdio_output@@QAE@XZ 10025e39 f i libucrt:output.obj
 0001:00024e43       ??1?$output_processor@_WV?$stream_output_adapter@_W@__crt_stdio_output@@V?$standard_base@_WV?$stream_output_adapter@_W@__crt_stdio_output@@@2@@__crt_stdio_output@@QAE@XZ 10025e43 f i libucrt:output.obj
 0001:00024e4d       ??1?$output_processor@_WV?$string_output_adapter@_W@__crt_stdio_output@@V?$format_validation_base@_WV?$string_output_adapter@_W@__crt_stdio_output@@@2@@__crt_stdio_output@@QAE@XZ 10025e4d f i libucrt:output.obj
 0001:00024e57       ??1?$output_processor@_WV?$string_output_adapter@_W@__crt_stdio_output@@V?$positional_parameter_base@_WV?$string_output_adapter@_W@__crt_stdio_output@@@2@@__crt_stdio_output@@QAE@XZ 10025e57 f i libucrt:output.obj
 0001:00024e61       ??1?$output_processor@_WV?$string_output_adapter@_W@__crt_stdio_output@@V?$standard_base@_WV?$string_output_adapter@_W@__crt_stdio_output@@@2@@__crt_stdio_output@@QAE@XZ 10025e61 f i libucrt:output.obj
 0001:00024e6b       ??1?$positional_parameter_base@DV?$stream_output_adapter@D@__crt_stdio_output@@@__crt_stdio_output@@QAE@XZ 10025e6b f i libucrt:output.obj
 0001:00024e75       ??1?$positional_parameter_base@DV?$string_output_adapter@D@__crt_stdio_output@@@__crt_stdio_output@@QAE@XZ 10025e75 f i libucrt:output.obj
 0001:00024e7f       ??1?$positional_parameter_base@_WV?$stream_output_adapter@_W@__crt_stdio_output@@@__crt_stdio_output@@QAE@XZ 10025e7f f i libucrt:output.obj
 0001:00024e89       ??1?$positional_parameter_base@_WV?$string_output_adapter@_W@__crt_stdio_output@@@__crt_stdio_output@@QAE@XZ 10025e89 f i libucrt:output.obj
 0001:00024e93       ??1?$standard_base@DV?$stream_output_adapter@D@__crt_stdio_output@@@__crt_stdio_output@@QAE@XZ 10025e93 f i libucrt:output.obj
 0001:00024e9d       ??1?$standard_base@DV?$string_output_adapter@D@__crt_stdio_output@@@__crt_stdio_output@@QAE@XZ 10025e9d f i libucrt:output.obj
 0001:00024ea7       ??1?$standard_base@_WV?$stream_output_adapter@_W@__crt_stdio_output@@@__crt_stdio_output@@QAE@XZ 10025ea7 f i libucrt:output.obj
 0001:00024eb1       ??1?$standard_base@_WV?$string_output_adapter@_W@__crt_stdio_output@@@__crt_stdio_output@@QAE@XZ 10025eb1 f i libucrt:output.obj
 0001:00024ebb       ??1_LocaleUpdate@@QAE@XZ   10025ebb f i libucrt:output.obj
 0001:00024ecf       ??1__acrt_stdio_temporary_buffering_guard@@QAE@XZ 10025ecf f i libucrt:output.obj
 0001:00024ee1       ??1__crt_errno_guard@@QAE@XZ 10025ee1 f i libucrt:output.obj
 0001:00024ef6       ??1formatting_buffer@__crt_stdio_output@@QAE@XZ 10025ef6 f i libucrt:output.obj
 0001:00024f16       ??4?$__crt_unique_heap_ptr@DU__crt_internal_free_policy@@@@QAEAAV0@$$QAV0@@Z 10025f16 f i libucrt:output.obj
 0001:000255f9       ?GetLocaleT@_LocaleUpdate@@QAEPAU__crt_locale_pointers@@XZ 100265f9 f i libucrt:output.obj
 0001:000255fd       ?__crt_interlocked_read_32@@YAHPDH@Z 100265fd f i libucrt:output.obj
 0001:0002560c       ?adjust_hexit@?$output_processor@DV?$stream_output_adapter@D@__crt_stdio_output@@V?$format_validation_base@DV?$stream_output_adapter@D@__crt_stdio_output@@@2@@__crt_stdio_output@@CADH_N@Z 1002660c f i libucrt:output.obj
 0001:00025631       ?adjust_hexit@?$output_processor@DV?$stream_output_adapter@D@__crt_stdio_output@@V?$positional_parameter_base@DV?$stream_output_adapter@D@__crt_stdio_output@@@2@@__crt_stdio_output@@CADH_N@Z 10026631 f i libucrt:output.obj
 0001:00025656       ?adjust_hexit@?$output_processor@DV?$stream_output_adapter@D@__crt_stdio_output@@V?$standard_base@DV?$stream_output_adapter@D@__crt_stdio_output@@@2@@__crt_stdio_output@@CADH_N@Z 10026656 f i libucrt:output.obj
 0001:0002567b       ?adjust_hexit@?$output_processor@DV?$string_output_adapter@D@__crt_stdio_output@@V?$format_validation_base@DV?$string_output_adapter@D@__crt_stdio_output@@@2@@__crt_stdio_output@@CADH_N@Z 1002667b f i libucrt:output.obj
 0001:000256a0       ?adjust_hexit@?$output_processor@DV?$string_output_adapter@D@__crt_stdio_output@@V?$positional_parameter_base@DV?$string_output_adapter@D@__crt_stdio_output@@@2@@__crt_stdio_output@@CADH_N@Z 100266a0 f i libucrt:output.obj
 0001:000256c5       ?adjust_hexit@?$output_processor@DV?$string_output_adapter@D@__crt_stdio_output@@V?$standard_base@DV?$string_output_adapter@D@__crt_stdio_output@@@2@@__crt_stdio_output@@CADH_N@Z 100266c5 f i libucrt:output.obj
 0001:000256ea       ?adjust_hexit@?$output_processor@_WV?$stream_output_adapter@_W@__crt_stdio_output@@V?$format_validation_base@_WV?$stream_output_adapter@_W@__crt_stdio_output@@@2@@__crt_stdio_output@@CADH_N@Z 100266ea f i libucrt:output.obj
 0001:0002570f       ?adjust_hexit@?$output_processor@_WV?$stream_output_adapter@_W@__crt_stdio_output@@V?$positional_parameter_base@_WV?$stream_output_adapter@_W@__crt_stdio_output@@@2@@__crt_stdio_output@@CADH_N@Z 1002670f f i libucrt:output.obj
 0001:00025734       ?adjust_hexit@?$output_processor@_WV?$stream_output_adapter@_W@__crt_stdio_output@@V?$standard_base@_WV?$stream_output_adapter@_W@__crt_stdio_output@@@2@@__crt_stdio_output@@CADH_N@Z 10026734 f i libucrt:output.obj
 0001:00025759       ?adjust_hexit@?$output_processor@_WV?$string_output_adapter@_W@__crt_stdio_output@@V?$format_validation_base@_WV?$string_output_adapter@_W@__crt_stdio_output@@@2@@__crt_stdio_output@@CADH_N@Z 10026759 f i libucrt:output.obj
 0001:0002577e       ?adjust_hexit@?$output_processor@_WV?$string_output_adapter@_W@__crt_stdio_output@@V?$positional_parameter_base@_WV?$string_output_adapter@_W@__crt_stdio_output@@@2@@__crt_stdio_output@@CADH_N@Z 1002677e f i libucrt:output.obj
 0001:000257a3       ?adjust_hexit@?$output_processor@_WV?$string_output_adapter@_W@__crt_stdio_output@@V?$standard_base@_WV?$string_output_adapter@_W@__crt_stdio_output@@@2@@__crt_stdio_output@@CADH_N@Z 100267a3 f i libucrt:output.obj
 0001:000257c8       ?advance_to_next_pass@?$positional_parameter_base@DV?$stream_output_adapter@D@__crt_stdio_output@@@__crt_stdio_output@@IAE_NXZ 100267c8 f i libucrt:output.obj
 0001:00025827       ?advance_to_next_pass@?$positional_parameter_base@DV?$string_output_adapter@D@__crt_stdio_output@@@__crt_stdio_output@@IAE_NXZ 10026827 f i libucrt:output.obj
 0001:00025886       ?advance_to_next_pass@?$positional_parameter_base@_WV?$stream_output_adapter@_W@__crt_stdio_output@@@__crt_stdio_output@@IAE_NXZ 10026886 f i libucrt:output.obj
 0001:000258e5       ?advance_to_next_pass@?$positional_parameter_base@_WV?$string_output_adapter@_W@__crt_stdio_output@@@__crt_stdio_output@@IAE_NXZ 100268e5 f i libucrt:output.obj
 0001:00025944       ?advance_to_next_pass@?$standard_base@DV?$stream_output_adapter@D@__crt_stdio_output@@@__crt_stdio_output@@IAE_NXZ 10026944 f i libucrt:output.obj
 0001:0002595b       ?advance_to_next_pass@?$standard_base@DV?$string_output_adapter@D@__crt_stdio_output@@@__crt_stdio_output@@IAE_NXZ 1002695b f i libucrt:output.obj
 0001:00025972       ?advance_to_next_pass@?$standard_base@_WV?$stream_output_adapter@_W@__crt_stdio_output@@@__crt_stdio_output@@IAE_NXZ 10026972 f i libucrt:output.obj
 0001:00025989       ?advance_to_next_pass@?$standard_base@_WV?$string_output_adapter@_W@__crt_stdio_output@@@__crt_stdio_output@@IAE_NXZ 10026989 f i libucrt:output.obj
 0001:000259a0       ?crop_zeroes@__crt_stdio_output@@YAXPADQAU__crt_locale_pointers@@@Z 100269a0 f i libucrt:output.obj
 0001:00025a0c       ?find_next_state@?$output_processor@DV?$stream_output_adapter@D@__crt_stdio_output@@V?$format_validation_base@DV?$stream_output_adapter@D@__crt_stdio_output@@@2@@__crt_stdio_output@@ABE?AW4state@2@DW432@@Z 10026a0c f i libucrt:output.obj
 0001:00025a4e       ?find_next_state@?$output_processor@DV?$stream_output_adapter@D@__crt_stdio_output@@V?$positional_parameter_base@DV?$stream_output_adapter@D@__crt_stdio_output@@@2@@__crt_stdio_output@@ABE?AW4state@2@DW432@@Z 10026a4e f i libucrt:output.obj
 0001:00025a90       ?find_next_state@?$output_processor@DV?$stream_output_adapter@D@__crt_stdio_output@@V?$standard_base@DV?$stream_output_adapter@D@__crt_stdio_output@@@2@@__crt_stdio_output@@ABE?AW4state@2@DW432@@Z 10026a90 f i libucrt:output.obj
 0001:00025ace       ?find_next_state@?$output_processor@DV?$string_output_adapter@D@__crt_stdio_output@@V?$format_validation_base@DV?$string_output_adapter@D@__crt_stdio_output@@@2@@__crt_stdio_output@@ABE?AW4state@2@DW432@@Z 10026ace f i libucrt:output.obj
 0001:00025b10       ?find_next_state@?$output_processor@DV?$string_output_adapter@D@__crt_stdio_output@@V?$positional_parameter_base@DV?$string_output_adapter@D@__crt_stdio_output@@@2@@__crt_stdio_output@@ABE?AW4state@2@DW432@@Z 10026b10 f i libucrt:output.obj
 0001:00025b52       ?find_next_state@?$output_processor@DV?$string_output_adapter@D@__crt_stdio_output@@V?$standard_base@DV?$string_output_adapter@D@__crt_stdio_output@@@2@@__crt_stdio_output@@ABE?AW4state@2@DW432@@Z 10026b52 f i libucrt:output.obj
 0001:00025b90       ?find_next_state@?$output_processor@_WV?$stream_output_adapter@_W@__crt_stdio_output@@V?$format_validation_base@_WV?$stream_output_adapter@_W@__crt_stdio_output@@@2@@__crt_stdio_output@@ABE?AW4state@2@_WW432@@Z 10026b90 f i libucrt:output.obj
 0001:00025bd4       ?find_next_state@?$output_processor@_WV?$stream_output_adapter@_W@__crt_stdio_output@@V?$positional_parameter_base@_WV?$stream_output_adapter@_W@__crt_stdio_output@@@2@@__crt_stdio_output@@ABE?AW4state@2@_WW432@@Z 10026bd4 f i libucrt:output.obj
 0001:00025c18       ?find_next_state@?$output_processor@_WV?$stream_output_adapter@_W@__crt_stdio_output@@V?$standard_base@_WV?$stream_output_adapter@_W@__crt_stdio_output@@@2@@__crt_stdio_output@@ABE?AW4state@2@_WW432@@Z 10026c18 f i libucrt:output.obj
 0001:00025c59       ?find_next_state@?$output_processor@_WV?$string_output_adapter@_W@__crt_stdio_output@@V?$format_validation_base@_WV?$string_output_adapter@_W@__crt_stdio_output@@@2@@__crt_stdio_output@@ABE?AW4state@2@_WW432@@Z 10026c59 f i libucrt:output.obj
 0001:00025c9d       ?find_next_state@?$output_processor@_WV?$string_output_adapter@_W@__crt_stdio_output@@V?$positional_parameter_base@_WV?$string_output_adapter@_W@__crt_stdio_output@@@2@@__crt_stdio_output@@ABE?AW4state@2@_WW432@@Z 10026c9d f i libucrt:output.obj
 0001:00025ce1       ?find_next_state@?$output_processor@_WV?$string_output_adapter@_W@__crt_stdio_output@@V?$standard_base@_WV?$string_output_adapter@_W@__crt_stdio_output@@@2@@__crt_stdio_output@@ABE?AW4state@2@_WW432@@Z 10026ce1 f i libucrt:output.obj
 0001:00025d22       ?force_decimal_point@__crt_stdio_output@@YAXPADQAU__crt_locale_pointers@@@Z 10026d22 f i libucrt:output.obj
 0001:00025d95       ?get_flags@__crt_stdio_stream@@QBEJXZ 10026d95 f i libucrt:output.obj
 0001:00025d9b       ?get_parameter_type@?$positional_parameter_base@DV?$stream_output_adapter@D@__crt_stdio_output@@@__crt_stdio_output@@CA?AW4parameter_type@12@F@Z 10026d9b f i libucrt:output.obj
 0001:00025d9f       ?get_parameter_type@?$positional_parameter_base@DV?$stream_output_adapter@D@__crt_stdio_output@@@__crt_stdio_output@@CA?AW4parameter_type@12@G@Z 10026d9f f i libucrt:output.obj
 0001:00025da3       ?get_parameter_type@?$positional_parameter_base@DV?$stream_output_adapter@D@__crt_stdio_output@@@__crt_stdio_output@@CA?AW4parameter_type@12@H@Z 10026da3 f i libucrt:output.obj
 0001:00025da7       ?get_parameter_type@?$positional_parameter_base@DV?$stream_output_adapter@D@__crt_stdio_output@@@__crt_stdio_output@@CA?AW4parameter_type@12@I@Z 10026da7 f i libucrt:output.obj
 0001:00025dab       ?get_parameter_type@?$positional_parameter_base@DV?$stream_output_adapter@D@__crt_stdio_output@@@__crt_stdio_output@@CA?AW4parameter_type@12@U_CRT_DOUBLE@@@Z 10026dab f i libucrt:output.obj
 0001:00025daf       ?get_parameter_type@?$positional_parameter_base@DV?$stream_output_adapter@D@__crt_stdio_output@@@__crt_stdio_output@@CA?AW4parameter_type@12@_J@Z 10026daf f i libucrt:output.obj
 0001:00025db3       ?get_parameter_type@?$positional_parameter_base@DV?$stream_output_adapter@D@__crt_stdio_output@@@__crt_stdio_output@@CA?AW4parameter_type@12@_K@Z 10026db3 f i libucrt:output.obj
 0001:00025db7       ?get_parameter_type@?$positional_parameter_base@DV?$stream_output_adapter@D@__crt_stdio_output@@@__crt_stdio_output@@CA?AW4parameter_type@12@_W@Z 10026db7 f i libucrt:output.obj
 0001:00025dbb       ?get_parameter_type@?$positional_parameter_base@DV?$string_output_adapter@D@__crt_stdio_output@@@__crt_stdio_output@@CA?AW4parameter_type@12@F@Z 10026dbb f i libucrt:output.obj
 0001:00025dbf       ?get_parameter_type@?$positional_parameter_base@DV?$string_output_adapter@D@__crt_stdio_output@@@__crt_stdio_output@@CA?AW4parameter_type@12@G@Z 10026dbf f i libucrt:output.obj
 0001:00025dc3       ?get_parameter_type@?$positional_parameter_base@DV?$string_output_adapter@D@__crt_stdio_output@@@__crt_stdio_output@@CA?AW4parameter_type@12@H@Z 10026dc3 f i libucrt:output.obj
 0001:00025dc7       ?get_parameter_type@?$positional_parameter_base@DV?$string_output_adapter@D@__crt_stdio_output@@@__crt_stdio_output@@CA?AW4parameter_type@12@I@Z 10026dc7 f i libucrt:output.obj
 0001:00025dcb       ?get_parameter_type@?$positional_parameter_base@DV?$string_output_adapter@D@__crt_stdio_output@@@__crt_stdio_output@@CA?AW4parameter_type@12@U_CRT_DOUBLE@@@Z 10026dcb f i libucrt:output.obj
 0001:00025dcf       ?get_parameter_type@?$positional_parameter_base@DV?$string_output_adapter@D@__crt_stdio_output@@@__crt_stdio_output@@CA?AW4parameter_type@12@_J@Z 10026dcf f i libucrt:output.obj
 0001:00025dd3       ?get_parameter_type@?$positional_parameter_base@DV?$string_output_adapter@D@__crt_stdio_output@@@__crt_stdio_output@@CA?AW4parameter_type@12@_K@Z 10026dd3 f i libucrt:output.obj
 0001:00025dd7       ?get_parameter_type@?$positional_parameter_base@DV?$string_output_adapter@D@__crt_stdio_output@@@__crt_stdio_output@@CA?AW4parameter_type@12@_W@Z 10026dd7 f i libucrt:output.obj
 0001:00025ddb       ?get_parameter_type@?$positional_parameter_base@_WV?$stream_output_adapter@_W@__crt_stdio_output@@@__crt_stdio_output@@CA?AW4parameter_type@12@F@Z 10026ddb f i libucrt:output.obj
 0001:00025ddf       ?get_parameter_type@?$positional_parameter_base@_WV?$stream_output_adapter@_W@__crt_stdio_output@@@__crt_stdio_output@@CA?AW4parameter_type@12@G@Z 10026ddf f i libucrt:output.obj
 0001:00025de3       ?get_parameter_type@?$positional_parameter_base@_WV?$stream_output_adapter@_W@__crt_stdio_output@@@__crt_stdio_output@@CA?AW4parameter_type@12@H@Z 10026de3 f i libucrt:output.obj
 0001:00025de7       ?get_parameter_type@?$positional_parameter_base@_WV?$stream_output_adapter@_W@__crt_stdio_output@@@__crt_stdio_output@@CA?AW4parameter_type@12@I@Z 10026de7 f i libucrt:output.obj
 0001:00025deb       ?get_parameter_type@?$positional_parameter_base@_WV?$stream_output_adapter@_W@__crt_stdio_output@@@__crt_stdio_output@@CA?AW4parameter_type@12@U_CRT_DOUBLE@@@Z 10026deb f i libucrt:output.obj
 0001:00025def       ?get_parameter_type@?$positional_parameter_base@_WV?$stream_output_adapter@_W@__crt_stdio_output@@@__crt_stdio_output@@CA?AW4parameter_type@12@_J@Z 10026def f i libucrt:output.obj
 0001:00025df3       ?get_parameter_type@?$positional_parameter_base@_WV?$stream_output_adapter@_W@__crt_stdio_output@@@__crt_stdio_output@@CA?AW4parameter_type@12@_K@Z 10026df3 f i libucrt:output.obj
 0001:00025df7       ?get_parameter_type@?$positional_parameter_base@_WV?$stream_output_adapter@_W@__crt_stdio_output@@@__crt_stdio_output@@CA?AW4parameter_type@12@_W@Z 10026df7 f i libucrt:output.obj
 0001:00025dfb       ?get_parameter_type@?$positional_parameter_base@_WV?$string_output_adapter@_W@__crt_stdio_output@@@__crt_stdio_output@@CA?AW4parameter_type@12@F@Z 10026dfb f i libucrt:output.obj
 0001:00025dff       ?get_parameter_type@?$positional_parameter_base@_WV?$string_output_adapter@_W@__crt_stdio_output@@@__crt_stdio_output@@CA?AW4parameter_type@12@G@Z 10026dff f i libucrt:output.obj
 0001:00025e03       ?get_parameter_type@?$positional_parameter_base@_WV?$string_output_adapter@_W@__crt_stdio_output@@@__crt_stdio_output@@CA?AW4parameter_type@12@H@Z 10026e03 f i libucrt:output.obj
 0001:00025e07       ?get_parameter_type@?$positional_parameter_base@_WV?$string_output_adapter@_W@__crt_stdio_output@@@__crt_stdio_output@@CA?AW4parameter_type@12@I@Z 10026e07 f i libucrt:output.obj
 0001:00025e0b       ?get_parameter_type@?$positional_parameter_base@_WV?$string_output_adapter@_W@__crt_stdio_output@@@__crt_stdio_output@@CA?AW4parameter_type@12@U_CRT_DOUBLE@@@Z 10026e0b f i libucrt:output.obj
 0001:00025e0f       ?get_parameter_type@?$positional_parameter_base@_WV?$string_output_adapter@_W@__crt_stdio_output@@@__crt_stdio_output@@CA?AW4parameter_type@12@_J@Z 10026e0f f i libucrt:output.obj
 0001:00025e13       ?get_parameter_type@?$positional_parameter_base@_WV?$string_output_adapter@_W@__crt_stdio_output@@@__crt_stdio_output@@CA?AW4parameter_type@12@_K@Z 10026e13 f i libucrt:output.obj
 0001:00025e17       ?get_parameter_type@?$positional_parameter_base@_WV?$string_output_adapter@_W@__crt_stdio_output@@@__crt_stdio_output@@CA?AW4parameter_type@12@_W@Z 10026e17 f i libucrt:output.obj
 0001:00025e1b       ?has_flag@?$output_processor@DV?$stream_output_adapter@D@__crt_stdio_output@@V?$format_validation_base@DV?$stream_output_adapter@D@__crt_stdio_output@@@2@@__crt_stdio_output@@ABE_NI@Z 10026e1b f i libucrt:output.obj
 0001:00025e35       ?has_flag@?$output_processor@DV?$stream_output_adapter@D@__crt_stdio_output@@V?$positional_parameter_base@DV?$stream_output_adapter@D@__crt_stdio_output@@@2@@__crt_stdio_output@@ABE_NI@Z 10026e35 f i libucrt:output.obj
 0001:00025e4f       ?has_flag@?$output_processor@DV?$stream_output_adapter@D@__crt_stdio_output@@V?$standard_base@DV?$stream_output_adapter@D@__crt_stdio_output@@@2@@__crt_stdio_output@@ABE_NI@Z 10026e4f f i libucrt:output.obj
 0001:00025e69       ?has_flag@?$output_processor@DV?$string_output_adapter@D@__crt_stdio_output@@V?$format_validation_base@DV?$string_output_adapter@D@__crt_stdio_output@@@2@@__crt_stdio_output@@ABE_NI@Z 10026e69 f i libucrt:output.obj
 0001:00025e83       ?has_flag@?$output_processor@DV?$string_output_adapter@D@__crt_stdio_output@@V?$positional_parameter_base@DV?$string_output_adapter@D@__crt_stdio_output@@@2@@__crt_stdio_output@@ABE_NI@Z 10026e83 f i libucrt:output.obj
 0001:00025e9d       ?has_flag@?$output_processor@DV?$string_output_adapter@D@__crt_stdio_output@@V?$standard_base@DV?$string_output_adapter@D@__crt_stdio_output@@@2@@__crt_stdio_output@@ABE_NI@Z 10026e9d f i libucrt:output.obj
 0001:00025eb7       ?has_flag@?$output_processor@_WV?$stream_output_adapter@_W@__crt_stdio_output@@V?$format_validation_base@_WV?$stream_output_adapter@_W@__crt_stdio_output@@@2@@__crt_stdio_output@@ABE_NI@Z 10026eb7 f i libucrt:output.obj
 0001:00025ed1       ?has_flag@?$output_processor@_WV?$stream_output_adapter@_W@__crt_stdio_output@@V?$positional_parameter_base@_WV?$stream_output_adapter@_W@__crt_stdio_output@@@2@@__crt_stdio_output@@ABE_NI@Z 10026ed1 f i libucrt:output.obj
 0001:00025eeb       ?has_flag@?$output_processor@_WV?$stream_output_adapter@_W@__crt_stdio_output@@V?$standard_base@_WV?$stream_output_adapter@_W@__crt_stdio_output@@@2@@__crt_stdio_output@@ABE_NI@Z 10026eeb f i libucrt:output.obj
 0001:00025f05       ?has_flag@?$output_processor@_WV?$string_output_adapter@_W@__crt_stdio_output@@V?$format_validation_base@_WV?$string_output_adapter@_W@__crt_stdio_output@@@2@@__crt_stdio_output@@ABE_NI@Z 10026f05 f i libucrt:output.obj
 0001:00025f1f       ?has_flag@?$output_processor@_WV?$string_output_adapter@_W@__crt_stdio_output@@V?$positional_parameter_base@_WV?$string_output_adapter@_W@__crt_stdio_output@@@2@@__crt_stdio_output@@ABE_NI@Z 10026f1f f i libucrt:output.obj
 0001:00025f39       ?has_flag@?$output_processor@_WV?$string_output_adapter@_W@__crt_stdio_output@@V?$standard_base@_WV?$string_output_adapter@_W@__crt_stdio_output@@@2@@__crt_stdio_output@@ABE_NI@Z 10026f39 f i libucrt:output.obj
 0001:00025f53       ?is_positional_parameter_reappearance_consistent@?$positional_parameter_base@DV?$stream_output_adapter@D@__crt_stdio_output@@@__crt_stdio_output@@AAE_NABUparameter_data@12@W4parameter_type@12@DW4length_modifier@2@@Z 10026f53 f i libucrt:output.obj
 0001:000260cc       ?is_positional_parameter_reappearance_consistent@?$positional_parameter_base@DV?$string_output_adapter@D@__crt_stdio_output@@@__crt_stdio_output@@AAE_NABUparameter_data@12@W4parameter_type@12@DW4length_modifier@2@@Z 100270cc f i libucrt:output.obj
 0001:00026245       ?is_positional_parameter_reappearance_consistent@?$positional_parameter_base@_WV?$stream_output_adapter@_W@__crt_stdio_output@@@__crt_stdio_output@@AAE_NABUparameter_data@12@W4parameter_type@12@_WW4length_modifier@2@@Z 10027245 f i libucrt:output.obj
 0001:000263b0       ?is_positional_parameter_reappearance_consistent@?$positional_parameter_base@_WV?$string_output_adapter@_W@__crt_stdio_output@@@__crt_stdio_output@@AAE_NABUparameter_data@12@W4parameter_type@12@_WW4length_modifier@2@@Z 100273b0 f i libucrt:output.obj
 0001:0002651b       ?is_string_backed@__crt_stdio_stream@@QBE_NXZ 1002751b f i libucrt:output.obj
 0001:0002652a       ?narrow_null_string@?$output_processor@DV?$stream_output_adapter@D@__crt_stdio_output@@V?$format_validation_base@DV?$stream_output_adapter@D@__crt_stdio_output@@@2@@__crt_stdio_output@@CAPADXZ 1002752a f i libucrt:output.obj
 0001:00026530       ?narrow_null_string@?$output_processor@DV?$stream_output_adapter@D@__crt_stdio_output@@V?$positional_parameter_base@DV?$stream_output_adapter@D@__crt_stdio_output@@@2@@__crt_stdio_output@@CAPADXZ 10027530 f i libucrt:output.obj
 0001:00026536       ?narrow_null_string@?$output_processor@DV?$stream_output_adapter@D@__crt_stdio_output@@V?$standard_base@DV?$stream_output_adapter@D@__crt_stdio_output@@@2@@__crt_stdio_output@@CAPADXZ 10027536 f i libucrt:output.obj
 0001:0002653c       ?narrow_null_string@?$output_processor@DV?$string_output_adapter@D@__crt_stdio_output@@V?$format_validation_base@DV?$string_output_adapter@D@__crt_stdio_output@@@2@@__crt_stdio_output@@CAPADXZ 1002753c f i libucrt:output.obj
 0001:00026542       ?narrow_null_string@?$output_processor@DV?$string_output_adapter@D@__crt_stdio_output@@V?$positional_parameter_base@DV?$string_output_adapter@D@__crt_stdio_output@@@2@@__crt_stdio_output@@CAPADXZ 10027542 f i libucrt:output.obj
 0001:00026548       ?narrow_null_string@?$output_processor@DV?$string_output_adapter@D@__crt_stdio_output@@V?$standard_base@DV?$string_output_adapter@D@__crt_stdio_output@@@2@@__crt_stdio_output@@CAPADXZ 10027548 f i libucrt:output.obj
 0001:0002654e       ?narrow_null_string@?$output_processor@_WV?$stream_output_adapter@_W@__crt_stdio_output@@V?$format_validation_base@_WV?$stream_output_adapter@_W@__crt_stdio_output@@@2@@__crt_stdio_output@@CAPADXZ 1002754e f i libucrt:output.obj
 0001:00026554       ?narrow_null_string@?$output_processor@_WV?$stream_output_adapter@_W@__crt_stdio_output@@V?$positional_parameter_base@_WV?$stream_output_adapter@_W@__crt_stdio_output@@@2@@__crt_stdio_output@@CAPADXZ 10027554 f i libucrt:output.obj
 0001:0002655a       ?narrow_null_string@?$output_processor@_WV?$stream_output_adapter@_W@__crt_stdio_output@@V?$standard_base@_WV?$stream_output_adapter@_W@__crt_stdio_output@@@2@@__crt_stdio_output@@CAPADXZ 1002755a f i libucrt:output.obj
 0001:00026560       ?narrow_null_string@?$output_processor@_WV?$string_output_adapter@_W@__crt_stdio_output@@V?$format_validation_base@_WV?$string_output_adapter@_W@__crt_stdio_output@@@2@@__crt_stdio_output@@CAPADXZ 10027560 f i libucrt:output.obj
 0001:00026566       ?narrow_null_string@?$output_processor@_WV?$string_output_adapter@_W@__crt_stdio_output@@V?$positional_parameter_base@_WV?$string_output_adapter@_W@__crt_stdio_output@@@2@@__crt_stdio_output@@CAPADXZ 10027566 f i libucrt:output.obj
 0001:0002656c       ?narrow_null_string@?$output_processor@_WV?$string_output_adapter@_W@__crt_stdio_output@@V?$standard_base@_WV?$string_output_adapter@_W@__crt_stdio_output@@@2@@__crt_stdio_output@@CAPADXZ 1002756c f i libucrt:output.obj
 0001:00026572       ?parse_int_from_format_string@?$output_processor@DV?$stream_output_adapter@D@__crt_stdio_output@@V?$format_validation_base@DV?$stream_output_adapter@D@__crt_stdio_output@@@2@@__crt_stdio_output@@AAE_NQAH@Z 10027572 f i libucrt:output.obj
 0001:000265e5       ?parse_int_from_format_string@?$output_processor@DV?$stream_output_adapter@D@__crt_stdio_output@@V?$positional_parameter_base@DV?$stream_output_adapter@D@__crt_stdio_output@@@2@@__crt_stdio_output@@AAE_NQAH@Z 100275e5 f i libucrt:output.obj
 0001:00026658       ?parse_int_from_format_string@?$output_processor@DV?$stream_output_adapter@D@__crt_stdio_output@@V?$standard_base@DV?$stream_output_adapter@D@__crt_stdio_output@@@2@@__crt_stdio_output@@AAE_NQAH@Z 10027658 f i libucrt:output.obj
 0001:000266cb       ?parse_int_from_format_string@?$output_processor@DV?$string_output_adapter@D@__crt_stdio_output@@V?$format_validation_base@DV?$string_output_adapter@D@__crt_stdio_output@@@2@@__crt_stdio_output@@AAE_NQAH@Z 100276cb f i libucrt:output.obj
 0001:0002673e       ?parse_int_from_format_string@?$output_processor@DV?$string_output_adapter@D@__crt_stdio_output@@V?$positional_parameter_base@DV?$string_output_adapter@D@__crt_stdio_output@@@2@@__crt_stdio_output@@AAE_NQAH@Z 1002773e f i libucrt:output.obj
 0001:000267b1       ?parse_int_from_format_string@?$output_processor@DV?$string_output_adapter@D@__crt_stdio_output@@V?$standard_base@DV?$string_output_adapter@D@__crt_stdio_output@@@2@@__crt_stdio_output@@AAE_NQAH@Z 100277b1 f i libucrt:output.obj
 0001:00026824       ?parse_int_from_format_string@?$output_processor@_WV?$stream_output_adapter@_W@__crt_stdio_output@@V?$format_validation_base@_WV?$stream_output_adapter@_W@__crt_stdio_output@@@2@@__crt_stdio_output@@AAE_NQAH@Z 10027824 f i libucrt:output.obj
 0001:00026899       ?parse_int_from_format_string@?$output_processor@_WV?$stream_output_adapter@_W@__crt_stdio_output@@V?$positional_parameter_base@_WV?$stream_output_adapter@_W@__crt_stdio_output@@@2@@__crt_stdio_output@@AAE_NQAH@Z 10027899 f i libucrt:output.obj
 0001:0002690e       ?parse_int_from_format_string@?$output_processor@_WV?$stream_output_adapter@_W@__crt_stdio_output@@V?$standard_base@_WV?$stream_output_adapter@_W@__crt_stdio_output@@@2@@__crt_stdio_output@@AAE_NQAH@Z 1002790e f i libucrt:output.obj
 0001:00026983       ?parse_int_from_format_string@?$output_processor@_WV?$string_output_adapter@_W@__crt_stdio_output@@V?$format_validation_base@_WV?$string_output_adapter@_W@__crt_stdio_output@@@2@@__crt_stdio_output@@AAE_NQAH@Z 10027983 f i libucrt:output.obj
 0001:000269f8       ?parse_int_from_format_string@?$output_processor@_WV?$string_output_adapter@_W@__crt_stdio_output@@V?$positional_parameter_base@_WV?$string_output_adapter@_W@__crt_stdio_output@@@2@@__crt_stdio_output@@AAE_NQAH@Z 100279f8 f i libucrt:output.obj
 0001:00026a6d       ?parse_int_from_format_string@?$output_processor@_WV?$string_output_adapter@_W@__crt_stdio_output@@V?$standard_base@_WV?$string_output_adapter@_W@__crt_stdio_output@@@2@@__crt_stdio_output@@AAE_NQAH@Z 10027a6d f i libucrt:output.obj
 0001:00026ae2       ?process@?$output_processor@DV?$stream_output_adapter@D@__crt_stdio_output@@V?$format_validation_base@DV?$stream_output_adapter@D@__crt_stdio_output@@@2@@__crt_stdio_output@@QAEHXZ 10027ae2 f i libucrt:output.obj
 0001:00026c54       ?process@?$output_processor@DV?$stream_output_adapter@D@__crt_stdio_output@@V?$positional_parameter_base@DV?$stream_output_adapter@D@__crt_stdio_output@@@2@@__crt_stdio_output@@QAEHXZ 10027c54 f i libucrt:output.obj
 0001:00026e07       ?process@?$output_processor@DV?$stream_output_adapter@D@__crt_stdio_output@@V?$standard_base@DV?$stream_output_adapter@D@__crt_stdio_output@@@2@@__crt_stdio_output@@QAEHXZ 10027e07 f i libucrt:output.obj
 0001:00026f6a       ?process@?$output_processor@DV?$string_output_adapter@D@__crt_stdio_output@@V?$format_validation_base@DV?$string_output_adapter@D@__crt_stdio_output@@@2@@__crt_stdio_output@@QAEHXZ 10027f6a f i libucrt:output.obj
 0001:000270dc       ?process@?$output_processor@DV?$string_output_adapter@D@__crt_stdio_output@@V?$positional_parameter_base@DV?$string_output_adapter@D@__crt_stdio_output@@@2@@__crt_stdio_output@@QAEHXZ 100280dc f i libucrt:output.obj
 0001:0002728f       ?process@?$output_processor@DV?$string_output_adapter@D@__crt_stdio_output@@V?$standard_base@DV?$string_output_adapter@D@__crt_stdio_output@@@2@@__crt_stdio_output@@QAEHXZ 1002828f f i libucrt:output.obj
 0001:000273f2       ?process@?$output_processor@_WV?$stream_output_adapter@_W@__crt_stdio_output@@V?$format_validation_base@_WV?$stream_output_adapter@_W@__crt_stdio_output@@@2@@__crt_stdio_output@@QAEHXZ 100283f2 f i libucrt:output.obj
 0001:0002756e       ?process@?$output_processor@_WV?$stream_output_adapter@_W@__crt_stdio_output@@V?$positional_parameter_base@_WV?$stream_output_adapter@_W@__crt_stdio_output@@@2@@__crt_stdio_output@@QAEHXZ 1002856e f i libucrt:output.obj
 0001:00027726       ?process@?$output_processor@_WV?$stream_output_adapter@_W@__crt_stdio_output@@V?$standard_base@_WV?$stream_output_adapter@_W@__crt_stdio_output@@@2@@__crt_stdio_output@@QAEHXZ 10028726 f i libucrt:output.obj
 0001:0002788e       ?process@?$output_processor@_WV?$string_output_adapter@_W@__crt_stdio_output@@V?$format_validation_base@_WV?$string_output_adapter@_W@__crt_stdio_output@@@2@@__crt_stdio_output@@QAEHXZ 1002888e f i libucrt:output.obj
 0001:00027a0a       ?process@?$output_processor@_WV?$string_output_adapter@_W@__crt_stdio_output@@V?$positional_parameter_base@_WV?$string_output_adapter@_W@__crt_stdio_output@@@2@@__crt_stdio_output@@QAEHXZ 10028a0a f i libucrt:output.obj
 0001:00027bc2       ?process@?$output_processor@_WV?$string_output_adapter@_W@__crt_stdio_output@@V?$standard_base@_WV?$string_output_adapter@_W@__crt_stdio_output@@@2@@__crt_stdio_output@@QAEHXZ 10028bc2 f i libucrt:output.obj
 0001:00027d2a       ?public_stream@__crt_stdio_stream@@QBEPAU_iobuf@@XZ 10028d2a f i libucrt:output.obj
 0001:00027d2d       ?set_flag@?$output_processor@DV?$stream_output_adapter@D@__crt_stdio_output@@V?$format_validation_base@DV?$stream_output_adapter@D@__crt_stdio_output@@@2@@__crt_stdio_output@@AAEXI@Z 10028d2d f i libucrt:output.obj
 0001:00027d3f       ?set_flag@?$output_processor@DV?$stream_output_adapter@D@__crt_stdio_output@@V?$positional_parameter_base@DV?$stream_output_adapter@D@__crt_stdio_output@@@2@@__crt_stdio_output@@AAEXI@Z 10028d3f f i libucrt:output.obj
 0001:00027d51       ?set_flag@?$output_processor@DV?$stream_output_adapter@D@__crt_stdio_output@@V?$standard_base@DV?$stream_output_adapter@D@__crt_stdio_output@@@2@@__crt_stdio_output@@AAEXI@Z 10028d51 f i libucrt:output.obj
 0001:00027d63       ?set_flag@?$output_processor@DV?$string_output_adapter@D@__crt_stdio_output@@V?$format_validation_base@DV?$string_output_adapter@D@__crt_stdio_output@@@2@@__crt_stdio_output@@AAEXI@Z 10028d63 f i libucrt:output.obj
 0001:00027d75       ?set_flag@?$output_processor@DV?$string_output_adapter@D@__crt_stdio_output@@V?$positional_parameter_base@DV?$string_output_adapter@D@__crt_stdio_output@@@2@@__crt_stdio_output@@AAEXI@Z 10028d75 f i libucrt:output.obj
 0001:00027d87       ?set_flag@?$output_processor@DV?$string_output_adapter@D@__crt_stdio_output@@V?$standard_base@DV?$string_output_adapter@D@__crt_stdio_output@@@2@@__crt_stdio_output@@AAEXI@Z 10028d87 f i libucrt:output.obj
 0001:00027d99       ?set_flag@?$output_processor@_WV?$stream_output_adapter@_W@__crt_stdio_output@@V?$format_validation_base@_WV?$stream_output_adapter@_W@__crt_stdio_output@@@2@@__crt_stdio_output@@AAEXI@Z 10028d99 f i libucrt:output.obj
 0001:00027dab       ?set_flag@?$output_processor@_WV?$stream_output_adapter@_W@__crt_stdio_output@@V?$positional_parameter_base@_WV?$stream_output_adapter@_W@__crt_stdio_output@@@2@@__crt_stdio_output@@AAEXI@Z 10028dab f i libucrt:output.obj
 0001:00027dbd       ?set_flag@?$output_processor@_WV?$stream_output_adapter@_W@__crt_stdio_output@@V?$standard_base@_WV?$stream_output_adapter@_W@__crt_stdio_output@@@2@@__crt_stdio_output@@AAEXI@Z 10028dbd f i libucrt:output.obj
 0001:00027dcf       ?set_flag@?$output_processor@_WV?$string_output_adapter@_W@__crt_stdio_output@@V?$format_validation_base@_WV?$string_output_adapter@_W@__crt_stdio_output@@@2@@__crt_stdio_output@@AAEXI@Z 10028dcf f i libucrt:output.obj
 0001:00027de1       ?set_flag@?$output_processor@_WV?$string_output_adapter@_W@__crt_stdio_output@@V?$positional_parameter_base@_WV?$string_output_adapter@_W@__crt_stdio_output@@@2@@__crt_stdio_output@@AAEXI@Z 10028de1 f i libucrt:output.obj
 0001:00027df3       ?set_flag@?$output_processor@_WV?$string_output_adapter@_W@__crt_stdio_output@@V?$standard_base@_WV?$string_output_adapter@_W@__crt_stdio_output@@@2@@__crt_stdio_output@@AAEXI@Z 10028df3 f i libucrt:output.obj
 0001:00027e05       ?should_format@?$positional_parameter_base@DV?$stream_output_adapter@D@__crt_stdio_output@@@__crt_stdio_output@@IAE_NXZ 10028e05 f i libucrt:output.obj
 0001:00027e20       ?should_format@?$positional_parameter_base@DV?$string_output_adapter@D@__crt_stdio_output@@@__crt_stdio_output@@IAE_NXZ 10028e20 f i libucrt:output.obj
 0001:00027e3b       ?should_format@?$positional_parameter_base@_WV?$stream_output_adapter@_W@__crt_stdio_output@@@__crt_stdio_output@@IAE_NXZ 10028e3b f i libucrt:output.obj
 0001:00027e56       ?should_format@?$positional_parameter_base@_WV?$string_output_adapter@_W@__crt_stdio_output@@@__crt_stdio_output@@IAE_NXZ 10028e56 f i libucrt:output.obj
 0001:00027e71       ?should_format@?$standard_base@DV?$stream_output_adapter@D@__crt_stdio_output@@@__crt_stdio_output@@IAE_NXZ 10028e71 f i libucrt:output.obj
 0001:00027e74       ?should_format@?$standard_base@DV?$string_output_adapter@D@__crt_stdio_output@@@__crt_stdio_output@@IAE_NXZ 10028e74 f i libucrt:output.obj
 0001:00027e77       ?should_format@?$standard_base@_WV?$stream_output_adapter@_W@__crt_stdio_output@@@__crt_stdio_output@@IAE_NXZ 10028e77 f i libucrt:output.obj
 0001:00027e7a       ?should_format@?$standard_base@_WV?$string_output_adapter@_W@__crt_stdio_output@@@__crt_stdio_output@@IAE_NXZ 10028e7a f i libucrt:output.obj
 0001:00027e7d       ?should_skip_normal_state_processing@?$positional_parameter_base@DV?$stream_output_adapter@D@__crt_stdio_output@@@__crt_stdio_output@@IAE_NXZ 10028e7d f i libucrt:output.obj
 0001:00027eaf       ?should_skip_normal_state_processing@?$positional_parameter_base@DV?$string_output_adapter@D@__crt_stdio_output@@@__crt_stdio_output@@IAE_NXZ 10028eaf f i libucrt:output.obj
 0001:00027ee1       ?should_skip_normal_state_processing@?$positional_parameter_base@_WV?$stream_output_adapter@_W@__crt_stdio_output@@@__crt_stdio_output@@IAE_NXZ 10028ee1 f i libucrt:output.obj
 0001:00027f13       ?should_skip_normal_state_processing@?$positional_parameter_base@_WV?$string_output_adapter@_W@__crt_stdio_output@@@__crt_stdio_output@@IAE_NXZ 10028f13 f i libucrt:output.obj
 0001:00027f45       ?should_skip_normal_state_processing@?$standard_base@DV?$stream_output_adapter@D@__crt_stdio_output@@@__crt_stdio_output@@IAE_NXZ 10028f45 f i libucrt:output.obj
 0001:00027f48       ?should_skip_normal_state_processing@?$standard_base@DV?$string_output_adapter@D@__crt_stdio_output@@@__crt_stdio_output@@IAE_NXZ 10028f48 f i libucrt:output.obj
 0001:00027f4b       ?should_skip_normal_state_processing@?$standard_base@_WV?$stream_output_adapter@_W@__crt_stdio_output@@@__crt_stdio_output@@IAE_NXZ 10028f4b f i libucrt:output.obj
 0001:00027f4e       ?should_skip_normal_state_processing@?$standard_base@_WV?$string_output_adapter@_W@__crt_stdio_output@@@__crt_stdio_output@@IAE_NXZ 10028f4e f i libucrt:output.obj
 0001:00027f51       ?should_skip_type_state_output@?$positional_parameter_base@DV?$stream_output_adapter@D@__crt_stdio_output@@@__crt_stdio_output@@IBE_NXZ 10028f51 f i libucrt:output.obj
 0001:00027f6d       ?should_skip_type_state_output@?$positional_parameter_base@DV?$string_output_adapter@D@__crt_stdio_output@@@__crt_stdio_output@@IBE_NXZ 10028f6d f i libucrt:output.obj
 0001:00027f89       ?should_skip_type_state_output@?$positional_parameter_base@_WV?$stream_output_adapter@_W@__crt_stdio_output@@@__crt_stdio_output@@IBE_NXZ 10028f89 f i libucrt:output.obj
 0001:00027fa5       ?should_skip_type_state_output@?$positional_parameter_base@_WV?$string_output_adapter@_W@__crt_stdio_output@@@__crt_stdio_output@@IBE_NXZ 10028fa5 f i libucrt:output.obj
 0001:00027fc1       ?should_skip_type_state_output@?$standard_base@DV?$stream_output_adapter@D@__crt_stdio_output@@@__crt_stdio_output@@IBE_NXZ 10028fc1 f i libucrt:output.obj
 0001:00027fc4       ?should_skip_type_state_output@?$standard_base@DV?$string_output_adapter@D@__crt_stdio_output@@@__crt_stdio_output@@IBE_NXZ 10028fc4 f i libucrt:output.obj
 0001:00027fc7       ?should_skip_type_state_output@?$standard_base@_WV?$stream_output_adapter@_W@__crt_stdio_output@@@__crt_stdio_output@@IBE_NXZ 10028fc7 f i libucrt:output.obj
 0001:00027fca       ?should_skip_type_state_output@?$standard_base@_WV?$string_output_adapter@_W@__crt_stdio_output@@@__crt_stdio_output@@IBE_NXZ 10028fca f i libucrt:output.obj
 0001:00027fcd       ?state_case_dot@?$output_processor@DV?$stream_output_adapter@D@__crt_stdio_output@@V?$format_validation_base@DV?$stream_output_adapter@D@__crt_stdio_output@@@2@@__crt_stdio_output@@AAE_NXZ 10028fcd f i libucrt:output.obj
 0001:00027fd4       ?state_case_dot@?$output_processor@DV?$stream_output_adapter@D@__crt_stdio_output@@V?$positional_parameter_base@DV?$stream_output_adapter@D@__crt_stdio_output@@@2@@__crt_stdio_output@@AAE_NXZ 10028fd4 f i libucrt:output.obj
 0001:00027fdb       ?state_case_dot@?$output_processor@DV?$stream_output_adapter@D@__crt_stdio_output@@V?$standard_base@DV?$stream_output_adapter@D@__crt_stdio_output@@@2@@__crt_stdio_output@@AAE_NXZ 10028fdb f i libucrt:output.obj
 0001:00027fe2       ?state_case_dot@?$output_processor@DV?$string_output_adapter@D@__crt_stdio_output@@V?$format_validation_base@DV?$string_output_adapter@D@__crt_stdio_output@@@2@@__crt_stdio_output@@AAE_NXZ 10028fe2 f i libucrt:output.obj
 0001:00027fe9       ?state_case_dot@?$output_processor@DV?$string_output_adapter@D@__crt_stdio_output@@V?$positional_parameter_base@DV?$string_output_adapter@D@__crt_stdio_output@@@2@@__crt_stdio_output@@AAE_NXZ 10028fe9 f i libucrt:output.obj
 0001:00027ff0       ?state_case_dot@?$output_processor@DV?$string_output_adapter@D@__crt_stdio_output@@V?$standard_base@DV?$string_output_adapter@D@__crt_stdio_output@@@2@@__crt_stdio_output@@AAE_NXZ 10028ff0 f i libucrt:output.obj
 0001:00027ff7       ?state_case_dot@?$output_processor@_WV?$stream_output_adapter@_W@__crt_stdio_output@@V?$format_validation_base@_WV?$stream_output_adapter@_W@__crt_stdio_output@@@2@@__crt_stdio_output@@AAE_NXZ 10028ff7 f i libucrt:output.obj
 0001:00027ffe       ?state_case_dot@?$output_processor@_WV?$stream_output_adapter@_W@__crt_stdio_output@@V?$positional_parameter_base@_WV?$stream_output_adapter@_W@__crt_stdio_output@@@2@@__crt_stdio_output@@AAE_NXZ 10028ffe f i libucrt:output.obj
 0001:00028005       ?state_case_dot@?$output_processor@_WV?$stream_output_adapter@_W@__crt_stdio_output@@V?$standard_base@_WV?$stream_output_adapter@_W@__crt_stdio_output@@@2@@__crt_stdio_output@@AAE_NXZ 10029005 f i libucrt:output.obj
 0001:0002800c       ?state_case_dot@?$output_processor@_WV?$string_output_adapter@_W@__crt_stdio_output@@V?$format_validation_base@_WV?$string_output_adapter@_W@__crt_stdio_output@@@2@@__crt_stdio_output@@AAE_NXZ 1002900c f i libucrt:output.obj
 0001:00028013       ?state_case_dot@?$output_processor@_WV?$string_output_adapter@_W@__crt_stdio_output@@V?$positional_parameter_base@_WV?$string_output_adapter@_W@__crt_stdio_output@@@2@@__crt_stdio_output@@AAE_NXZ 10029013 f i libucrt:output.obj
 0001:0002801a       ?state_case_dot@?$output_processor@_WV?$string_output_adapter@_W@__crt_stdio_output@@V?$standard_base@_WV?$string_output_adapter@_W@__crt_stdio_output@@@2@@__crt_stdio_output@@AAE_NXZ 1002901a f i libucrt:output.obj
 0001:00028021       ?state_case_flag@?$output_processor@DV?$stream_output_adapter@D@__crt_stdio_output@@V?$format_validation_base@DV?$stream_output_adapter@D@__crt_stdio_output@@@2@@__crt_stdio_output@@AAE_NXZ 10029021 f i libucrt:output.obj
 0001:0002806d       ?state_case_flag@?$output_processor@DV?$stream_output_adapter@D@__crt_stdio_output@@V?$positional_parameter_base@DV?$stream_output_adapter@D@__crt_stdio_output@@@2@@__crt_stdio_output@@AAE_NXZ 1002906d f i libucrt:output.obj
 0001:000280b9       ?state_case_flag@?$output_processor@DV?$stream_output_adapter@D@__crt_stdio_output@@V?$standard_base@DV?$stream_output_adapter@D@__crt_stdio_output@@@2@@__crt_stdio_output@@AAE_NXZ 100290b9 f i libucrt:output.obj
 0001:00028105       ?state_case_flag@?$output_processor@DV?$string_output_adapter@D@__crt_stdio_output@@V?$format_validation_base@DV?$string_output_adapter@D@__crt_stdio_output@@@2@@__crt_stdio_output@@AAE_NXZ 10029105 f i libucrt:output.obj
 0001:00028151       ?state_case_flag@?$output_processor@DV?$string_output_adapter@D@__crt_stdio_output@@V?$positional_parameter_base@DV?$string_output_adapter@D@__crt_stdio_output@@@2@@__crt_stdio_output@@AAE_NXZ 10029151 f i libucrt:output.obj
 0001:0002819d       ?state_case_flag@?$output_processor@DV?$string_output_adapter@D@__crt_stdio_output@@V?$standard_base@DV?$string_output_adapter@D@__crt_stdio_output@@@2@@__crt_stdio_output@@AAE_NXZ 1002919d f i libucrt:output.obj
 0001:000281e9       ?state_case_flag@?$output_processor@_WV?$stream_output_adapter@_W@__crt_stdio_output@@V?$format_validation_base@_WV?$stream_output_adapter@_W@__crt_stdio_output@@@2@@__crt_stdio_output@@AAE_NXZ 100291e9 f i libucrt:output.obj
 0001:00028235       ?state_case_flag@?$output_processor@_WV?$stream_output_adapter@_W@__crt_stdio_output@@V?$positional_parameter_base@_WV?$stream_output_adapter@_W@__crt_stdio_output@@@2@@__crt_stdio_output@@AAE_NXZ 10029235 f i libucrt:output.obj
 0001:00028281       ?state_case_flag@?$output_processor@_WV?$stream_output_adapter@_W@__crt_stdio_output@@V?$standard_base@_WV?$stream_output_adapter@_W@__crt_stdio_output@@@2@@__crt_stdio_output@@AAE_NXZ 10029281 f i libucrt:output.obj
 0001:000282cd       ?state_case_flag@?$output_processor@_WV?$string_output_adapter@_W@__crt_stdio_output@@V?$format_validation_base@_WV?$string_output_adapter@_W@__crt_stdio_output@@@2@@__crt_stdio_output@@AAE_NXZ 100292cd f i libucrt:output.obj
 0001:00028319       ?state_case_flag@?$output_processor@_WV?$string_output_adapter@_W@__crt_stdio_output@@V?$positional_parameter_base@_WV?$string_output_adapter@_W@__crt_stdio_output@@@2@@__crt_stdio_output@@AAE_NXZ 10029319 f i libucrt:output.obj
 0001:00028365       ?state_case_flag@?$output_processor@_WV?$string_output_adapter@_W@__crt_stdio_output@@V?$standard_base@_WV?$string_output_adapter@_W@__crt_stdio_output@@@2@@__crt_stdio_output@@AAE_NXZ 10029365 f i libucrt:output.obj
 0001:000283b1       ?state_case_normal@?$output_processor@DV?$stream_output_adapter@D@__crt_stdio_output@@V?$format_validation_base@DV?$stream_output_adapter@D@__crt_stdio_output@@@2@@__crt_stdio_output@@AAE_NXZ 100293b1 f i libucrt:output.obj
 0001:000283d7       ?state_case_normal@?$output_processor@DV?$stream_output_adapter@D@__crt_stdio_output@@V?$positional_parameter_base@DV?$stream_output_adapter@D@__crt_stdio_output@@@2@@__crt_stdio_output@@AAE_NXZ 100293d7 f i libucrt:output.obj
 0001:00028414       ?state_case_normal@?$output_processor@DV?$stream_output_adapter@D@__crt_stdio_output@@V?$standard_base@DV?$stream_output_adapter@D@__crt_stdio_output@@@2@@__crt_stdio_output@@AAE_NXZ 10029414 f i libucrt:output.obj
 0001:0002843a       ?state_case_normal@?$output_processor@DV?$string_output_adapter@D@__crt_stdio_output@@V?$format_validation_base@DV?$string_output_adapter@D@__crt_stdio_output@@@2@@__crt_stdio_output@@AAE_NXZ 1002943a f i libucrt:output.obj
 0001:00028460       ?state_case_normal@?$output_processor@DV?$string_output_adapter@D@__crt_stdio_output@@V?$positional_parameter_base@DV?$string_output_adapter@D@__crt_stdio_output@@@2@@__crt_stdio_output@@AAE_NXZ 10029460 f i libucrt:output.obj
 0001:0002849d       ?state_case_normal@?$output_processor@DV?$string_output_adapter@D@__crt_stdio_output@@V?$standard_base@DV?$string_output_adapter@D@__crt_stdio_output@@@2@@__crt_stdio_output@@AAE_NXZ 1002949d f i libucrt:output.obj
 0001:000284c3       ?state_case_normal@?$output_processor@_WV?$stream_output_adapter@_W@__crt_stdio_output@@V?$format_validation_base@_WV?$stream_output_adapter@_W@__crt_stdio_output@@@2@@__crt_stdio_output@@AAE_NXZ 100294c3 f i libucrt:output.obj
 0001:000284e9       ?state_case_normal@?$output_processor@_WV?$stream_output_adapter@_W@__crt_stdio_output@@V?$positional_parameter_base@_WV?$stream_output_adapter@_W@__crt_stdio_output@@@2@@__crt_stdio_output@@AAE_NXZ 100294e9 f i libucrt:output.obj
 0001:00028526       ?state_case_normal@?$output_processor@_WV?$stream_output_adapter@_W@__crt_stdio_output@@V?$standard_base@_WV?$stream_output_adapter@_W@__crt_stdio_output@@@2@@__crt_stdio_output@@AAE_NXZ 10029526 f i libucrt:output.obj
 0001:0002854c       ?state_case_normal@?$output_processor@_WV?$string_output_adapter@_W@__crt_stdio_output@@V?$format_validation_base@_WV?$string_output_adapter@_W@__crt_stdio_output@@@2@@__crt_stdio_output@@AAE_NXZ 1002954c f i libucrt:output.obj
 0001:00028572       ?state_case_normal@?$output_processor@_WV?$string_output_adapter@_W@__crt_stdio_output@@V?$positional_parameter_base@_WV?$string_output_adapter@_W@__crt_stdio_output@@@2@@__crt_stdio_output@@AAE_NXZ 10029572 f i libucrt:output.obj
 0001:000285af       ?state_case_normal@?$output_processor@_WV?$string_output_adapter@_W@__crt_stdio_output@@V?$standard_base@_WV?$string_output_adapter@_W@__crt_stdio_output@@@2@@__crt_stdio_output@@AAE_NXZ 100295af f i libucrt:output.obj
 0001:000285d5       ?state_case_normal_common@?$output_processor@DV?$stream_output_adapter@D@__crt_stdio_output@@V?$format_validation_base@DV?$stream_output_adapter@D@__crt_stdio_output@@@2@@__crt_stdio_output@@AAE_NXZ 100295d5 f i libucrt:output.obj
 0001:00028609       ?state_case_normal_common@?$output_processor@DV?$stream_output_adapter@D@__crt_stdio_output@@V?$positional_parameter_base@DV?$stream_output_adapter@D@__crt_stdio_output@@@2@@__crt_stdio_output@@AAE_NXZ 10029609 f i libucrt:output.obj
 0001:0002863d       ?state_case_normal_common@?$output_processor@DV?$stream_output_adapter@D@__crt_stdio_output@@V?$standard_base@DV?$stream_output_adapter@D@__crt_stdio_output@@@2@@__crt_stdio_output@@AAE_NXZ 1002963d f i libucrt:output.obj
 0001:00028671       ?state_case_normal_common@?$output_processor@DV?$string_output_adapter@D@__crt_stdio_output@@V?$format_validation_base@DV?$string_output_adapter@D@__crt_stdio_output@@@2@@__crt_stdio_output@@AAE_NXZ 10029671 f i libucrt:output.obj
 0001:000286a5       ?state_case_normal_common@?$output_processor@DV?$string_output_adapter@D@__crt_stdio_output@@V?$positional_parameter_base@DV?$string_output_adapter@D@__crt_stdio_output@@@2@@__crt_stdio_output@@AAE_NXZ 100296a5 f i libucrt:output.obj
 0001:000286d9       ?state_case_normal_common@?$output_processor@DV?$string_output_adapter@D@__crt_stdio_output@@V?$standard_base@DV?$string_output_adapter@D@__crt_stdio_output@@@2@@__crt_stdio_output@@AAE_NXZ 100296d9 f i libucrt:output.obj
 0001:0002870d       ?state_case_normal_common@?$output_processor@_WV?$stream_output_adapter@_W@__crt_stdio_output@@V?$format_validation_base@_WV?$stream_output_adapter@_W@__crt_stdio_output@@@2@@__crt_stdio_output@@AAE_NXZ 1002970d f i libucrt:output.obj
 0001:0002872e       ?state_case_normal_common@?$output_processor@_WV?$stream_output_adapter@_W@__crt_stdio_output@@V?$positional_parameter_base@_WV?$stream_output_adapter@_W@__crt_stdio_output@@@2@@__crt_stdio_output@@AAE_NXZ 1002972e f i libucrt:output.obj
 0001:0002874f       ?state_case_normal_common@?$output_processor@_WV?$stream_output_adapter@_W@__crt_stdio_output@@V?$standard_base@_WV?$stream_output_adapter@_W@__crt_stdio_output@@@2@@__crt_stdio_output@@AAE_NXZ 1002974f f i libucrt:output.obj
 0001:00028770       ?state_case_normal_common@?$output_processor@_WV?$string_output_adapter@_W@__crt_stdio_output@@V?$format_validation_base@_WV?$string_output_adapter@_W@__crt_stdio_output@@@2@@__crt_stdio_output@@AAE_NXZ 10029770 f i libucrt:output.obj
 0001:00028791       ?state_case_normal_common@?$output_processor@_WV?$string_output_adapter@_W@__crt_stdio_output@@V?$positional_parameter_base@_WV?$string_output_adapter@_W@__crt_stdio_output@@@2@@__crt_stdio_output@@AAE_NXZ 10029791 f i libucrt:output.obj
 0001:000287b2       ?state_case_normal_common@?$output_processor@_WV?$string_output_adapter@_W@__crt_stdio_output@@V?$standard_base@_WV?$string_output_adapter@_W@__crt_stdio_output@@@2@@__crt_stdio_output@@AAE_NXZ 100297b2 f i libucrt:output.obj
 0001:000287d3       ?state_case_normal_tchar@?$output_processor@DV?$stream_output_adapter@D@__crt_stdio_output@@V?$format_validation_base@DV?$stream_output_adapter@D@__crt_stdio_output@@@2@@__crt_stdio_output@@AAE_ND@Z 100297d3 f i libucrt:output.obj
 0001:0002884c       ?state_case_normal_tchar@?$output_processor@DV?$stream_output_adapter@D@__crt_stdio_output@@V?$positional_parameter_base@DV?$stream_output_adapter@D@__crt_stdio_output@@@2@@__crt_stdio_output@@AAE_ND@Z 1002984c f i libucrt:output.obj
 0001:000288c5       ?state_case_normal_tchar@?$output_processor@DV?$stream_output_adapter@D@__crt_stdio_output@@V?$standard_base@DV?$stream_output_adapter@D@__crt_stdio_output@@@2@@__crt_stdio_output@@AAE_ND@Z 100298c5 f i libucrt:output.obj
 0001:0002893e       ?state_case_normal_tchar@?$output_processor@DV?$string_output_adapter@D@__crt_stdio_output@@V?$format_validation_base@DV?$string_output_adapter@D@__crt_stdio_output@@@2@@__crt_stdio_output@@AAE_ND@Z 1002993e f i libucrt:output.obj
 0001:000289b7       ?state_case_normal_tchar@?$output_processor@DV?$string_output_adapter@D@__crt_stdio_output@@V?$positional_parameter_base@DV?$string_output_adapter@D@__crt_stdio_output@@@2@@__crt_stdio_output@@AAE_ND@Z 100299b7 f i libucrt:output.obj
 0001:00028a30       ?state_case_normal_tchar@?$output_processor@DV?$string_output_adapter@D@__crt_stdio_output@@V?$standard_base@DV?$string_output_adapter@D@__crt_stdio_output@@@2@@__crt_stdio_output@@AAE_ND@Z 10029a30 f i libucrt:output.obj
 0001:00028aa9       ?state_case_normal_tchar@?$output_processor@_WV?$stream_output_adapter@_W@__crt_stdio_output@@V?$format_validation_base@_WV?$stream_output_adapter@_W@__crt_stdio_output@@@2@@__crt_stdio_output@@AAE_N_W@Z 10029aa9 f i libucrt:output.obj
 0001:00028ab4       ?state_case_normal_tchar@?$output_processor@_WV?$stream_output_adapter@_W@__crt_stdio_output@@V?$positional_parameter_base@_WV?$stream_output_adapter@_W@__crt_stdio_output@@@2@@__crt_stdio_output@@AAE_N_W@Z 10029ab4 f i libucrt:output.obj
 0001:00028abf       ?state_case_normal_tchar@?$output_processor@_WV?$stream_output_adapter@_W@__crt_stdio_output@@V?$standard_base@_WV?$stream_output_adapter@_W@__crt_stdio_output@@@2@@__crt_stdio_output@@AAE_N_W@Z 10029abf f i libucrt:output.obj
 0001:00028aca       ?state_case_normal_tchar@?$output_processor@_WV?$string_output_adapter@_W@__crt_stdio_output@@V?$format_validation_base@_WV?$string_output_adapter@_W@__crt_stdio_output@@@2@@__crt_stdio_output@@AAE_N_W@Z 10029aca f i libucrt:output.obj
 0001:00028ad5       ?state_case_normal_tchar@?$output_processor@_WV?$string_output_adapter@_W@__crt_stdio_output@@V?$positional_parameter_base@_WV?$string_output_adapter@_W@__crt_stdio_output@@@2@@__crt_stdio_output@@AAE_N_W@Z 10029ad5 f i libucrt:output.obj
 0001:00028ae0       ?state_case_normal_tchar@?$output_processor@_WV?$string_output_adapter@_W@__crt_stdio_output@@V?$standard_base@_WV?$string_output_adapter@_W@__crt_stdio_output@@@2@@__crt_stdio_output@@AAE_N_W@Z 10029ae0 f i libucrt:output.obj
 0001:00028aeb       ?state_case_percent@?$output_processor@DV?$stream_output_adapter@D@__crt_stdio_output@@V?$format_validation_base@DV?$stream_output_adapter@D@__crt_stdio_output@@@2@@__crt_stdio_output@@AAE_NXZ 10029aeb f i libucrt:output.obj
 0001:00028b09       ?state_case_percent@?$output_processor@DV?$stream_output_adapter@D@__crt_stdio_output@@V?$positional_parameter_base@DV?$stream_output_adapter@D@__crt_stdio_output@@@2@@__crt_stdio_output@@AAE_NXZ 10029b09 f i libucrt:output.obj
 0001:00028b27       ?state_case_percent@?$output_processor@DV?$stream_output_adapter@D@__crt_stdio_output@@V?$standard_base@DV?$stream_output_adapter@D@__crt_stdio_output@@@2@@__crt_stdio_output@@AAE_NXZ 10029b27 f i libucrt:output.obj
 0001:00028b45       ?state_case_percent@?$output_processor@DV?$string_output_adapter@D@__crt_stdio_output@@V?$format_validation_base@DV?$string_output_adapter@D@__crt_stdio_output@@@2@@__crt_stdio_output@@AAE_NXZ 10029b45 f i libucrt:output.obj
 0001:00028b63       ?state_case_percent@?$output_processor@DV?$string_output_adapter@D@__crt_stdio_output@@V?$positional_parameter_base@DV?$string_output_adapter@D@__crt_stdio_output@@@2@@__crt_stdio_output@@AAE_NXZ 10029b63 f i libucrt:output.obj
 0001:00028b81       ?state_case_percent@?$output_processor@DV?$string_output_adapter@D@__crt_stdio_output@@V?$standard_base@DV?$string_output_adapter@D@__crt_stdio_output@@@2@@__crt_stdio_output@@AAE_NXZ 10029b81 f i libucrt:output.obj
 0001:00028b9f       ?state_case_percent@?$output_processor@_WV?$stream_output_adapter@_W@__crt_stdio_output@@V?$format_validation_base@_WV?$stream_output_adapter@_W@__crt_stdio_output@@@2@@__crt_stdio_output@@AAE_NXZ 10029b9f f i libucrt:output.obj
 0001:00028bbd       ?state_case_percent@?$output_processor@_WV?$stream_output_adapter@_W@__crt_stdio_output@@V?$positional_parameter_base@_WV?$stream_output_adapter@_W@__crt_stdio_output@@@2@@__crt_stdio_output@@AAE_NXZ 10029bbd f i libucrt:output.obj
 0001:00028bdb       ?state_case_percent@?$output_processor@_WV?$stream_output_adapter@_W@__crt_stdio_output@@V?$standard_base@_WV?$stream_output_adapter@_W@__crt_stdio_output@@@2@@__crt_stdio_output@@AAE_NXZ 10029bdb f i libucrt:output.obj
 0001:00028bf9       ?state_case_percent@?$output_processor@_WV?$string_output_adapter@_W@__crt_stdio_output@@V?$format_validation_base@_WV?$string_output_adapter@_W@__crt_stdio_output@@@2@@__crt_stdio_output@@AAE_NXZ 10029bf9 f i libucrt:output.obj
 0001:00028c17       ?state_case_percent@?$output_processor@_WV?$string_output_adapter@_W@__crt_stdio_output@@V?$positional_parameter_base@_WV?$string_output_adapter@_W@__crt_stdio_output@@@2@@__crt_stdio_output@@AAE_NXZ 10029c17 f i libucrt:output.obj
 0001:00028c35       ?state_case_percent@?$output_processor@_WV?$string_output_adapter@_W@__crt_stdio_output@@V?$standard_base@_WV?$string_output_adapter@_W@__crt_stdio_output@@@2@@__crt_stdio_output@@AAE_NXZ 10029c35 f i libucrt:output.obj
 0001:00028c53       ?state_case_precision@?$output_processor@DV?$stream_output_adapter@D@__crt_stdio_output@@V?$format_validation_base@DV?$stream_output_adapter@D@__crt_stdio_output@@@2@@__crt_stdio_output@@AAE_NXZ 10029c53 f i libucrt:output.obj
 0001:00028c85       ?state_case_precision@?$output_processor@DV?$stream_output_adapter@D@__crt_stdio_output@@V?$positional_parameter_base@DV?$stream_output_adapter@D@__crt_stdio_output@@@2@@__crt_stdio_output@@AAE_NXZ 10029c85 f i libucrt:output.obj
 0001:00028ccd       ?state_case_precision@?$output_processor@DV?$stream_output_adapter@D@__crt_stdio_output@@V?$standard_base@DV?$stream_output_adapter@D@__crt_stdio_output@@@2@@__crt_stdio_output@@AAE_NXZ 10029ccd f i libucrt:output.obj
 0001:00028cff       ?state_case_precision@?$output_processor@DV?$string_output_adapter@D@__crt_stdio_output@@V?$format_validation_base@DV?$string_output_adapter@D@__crt_stdio_output@@@2@@__crt_stdio_output@@AAE_NXZ 10029cff f i libucrt:output.obj
 0001:00028d31       ?state_case_precision@?$output_processor@DV?$string_output_adapter@D@__crt_stdio_output@@V?$positional_parameter_base@DV?$string_output_adapter@D@__crt_stdio_output@@@2@@__crt_stdio_output@@AAE_NXZ 10029d31 f i libucrt:output.obj
 0001:00028d79       ?state_case_precision@?$output_processor@DV?$string_output_adapter@D@__crt_stdio_output@@V?$standard_base@DV?$string_output_adapter@D@__crt_stdio_output@@@2@@__crt_stdio_output@@AAE_NXZ 10029d79 f i libucrt:output.obj
 0001:00028dab       ?state_case_precision@?$output_processor@_WV?$stream_output_adapter@_W@__crt_stdio_output@@V?$format_validation_base@_WV?$stream_output_adapter@_W@__crt_stdio_output@@@2@@__crt_stdio_output@@AAE_NXZ 10029dab f i libucrt:output.obj
 0001:00028dde       ?state_case_precision@?$output_processor@_WV?$stream_output_adapter@_W@__crt_stdio_output@@V?$positional_parameter_base@_WV?$stream_output_adapter@_W@__crt_stdio_output@@@2@@__crt_stdio_output@@AAE_NXZ 10029dde f i libucrt:output.obj
 0001:00028e27       ?state_case_precision@?$output_processor@_WV?$stream_output_adapter@_W@__crt_stdio_output@@V?$standard_base@_WV?$stream_output_adapter@_W@__crt_stdio_output@@@2@@__crt_stdio_output@@AAE_NXZ 10029e27 f i libucrt:output.obj
 0001:00028e5a       ?state_case_precision@?$output_processor@_WV?$string_output_adapter@_W@__crt_stdio_output@@V?$format_validation_base@_WV?$string_output_adapter@_W@__crt_stdio_output@@@2@@__crt_stdio_output@@AAE_NXZ 10029e5a f i libucrt:output.obj
 0001:00028e8d       ?state_case_precision@?$output_processor@_WV?$string_output_adapter@_W@__crt_stdio_output@@V?$positional_parameter_base@_WV?$string_output_adapter@_W@__crt_stdio_output@@@2@@__crt_stdio_output@@AAE_NXZ 10029e8d f i libucrt:output.obj
 0001:00028ed6       ?state_case_precision@?$output_processor@_WV?$string_output_adapter@_W@__crt_stdio_output@@V?$standard_base@_WV?$string_output_adapter@_W@__crt_stdio_output@@@2@@__crt_stdio_output@@AAE_NXZ 10029ed6 f i libucrt:output.obj
 0001:00028f09       ?state_case_size@?$output_processor@DV?$stream_output_adapter@D@__crt_stdio_output@@V?$format_validation_base@DV?$stream_output_adapter@D@__crt_stdio_output@@@2@@__crt_stdio_output@@AAE_NXZ 10029f09 f i libucrt:output.obj
 0001:000290cc       ?state_case_size@?$output_processor@DV?$stream_output_adapter@D@__crt_stdio_output@@V?$positional_parameter_base@DV?$stream_output_adapter@D@__crt_stdio_output@@@2@@__crt_stdio_output@@AAE_NXZ 1002a0cc f i libucrt:output.obj
 0001:0002928f       ?state_case_size@?$output_processor@DV?$stream_output_adapter@D@__crt_stdio_output@@V?$standard_base@DV?$stream_output_adapter@D@__crt_stdio_output@@@2@@__crt_stdio_output@@AAE_NXZ 1002a28f f i libucrt:output.obj
 0001:00029452       ?state_case_size@?$output_processor@DV?$string_output_adapter@D@__crt_stdio_output@@V?$format_validation_base@DV?$string_output_adapter@D@__crt_stdio_output@@@2@@__crt_stdio_output@@AAE_NXZ 1002a452 f i libucrt:output.obj
 0001:00029615       ?state_case_size@?$output_processor@DV?$string_output_adapter@D@__crt_stdio_output@@V?$positional_parameter_base@DV?$string_output_adapter@D@__crt_stdio_output@@@2@@__crt_stdio_output@@AAE_NXZ 1002a615 f i libucrt:output.obj
 0001:000297d8       ?state_case_size@?$output_processor@DV?$string_output_adapter@D@__crt_stdio_output@@V?$standard_base@DV?$string_output_adapter@D@__crt_stdio_output@@@2@@__crt_stdio_output@@AAE_NXZ 1002a7d8 f i libucrt:output.obj
 0001:0002999b       ?state_case_size@?$output_processor@_WV?$stream_output_adapter@_W@__crt_stdio_output@@V?$format_validation_base@_WV?$stream_output_adapter@_W@__crt_stdio_output@@@2@@__crt_stdio_output@@AAE_NXZ 1002a99b f i libucrt:output.obj
 0001:00029b76       ?state_case_size@?$output_processor@_WV?$stream_output_adapter@_W@__crt_stdio_output@@V?$positional_parameter_base@_WV?$stream_output_adapter@_W@__crt_stdio_output@@@2@@__crt_stdio_output@@AAE_NXZ 1002ab76 f i libucrt:output.obj
 0001:00029d51       ?state_case_size@?$output_processor@_WV?$stream_output_adapter@_W@__crt_stdio_output@@V?$standard_base@_WV?$stream_output_adapter@_W@__crt_stdio_output@@@2@@__crt_stdio_output@@AAE_NXZ 1002ad51 f i libucrt:output.obj
 0001:00029f2c       ?state_case_size@?$output_processor@_WV?$string_output_adapter@_W@__crt_stdio_output@@V?$format_validation_base@_WV?$string_output_adapter@_W@__crt_stdio_output@@@2@@__crt_stdio_output@@AAE_NXZ 1002af2c f i libucrt:output.obj
 0001:0002a107       ?state_case_size@?$output_processor@_WV?$string_output_adapter@_W@__crt_stdio_output@@V?$positional_parameter_base@_WV?$string_output_adapter@_W@__crt_stdio_output@@@2@@__crt_stdio_output@@AAE_NXZ 1002b107 f i libucrt:output.obj
 0001:0002a2e2       ?state_case_size@?$output_processor@_WV?$string_output_adapter@_W@__crt_stdio_output@@V?$standard_base@_WV?$string_output_adapter@_W@__crt_stdio_output@@@2@@__crt_stdio_output@@AAE_NXZ 1002b2e2 f i libucrt:output.obj
 0001:0002a4bd       ?state_case_type@?$output_processor@DV?$stream_output_adapter@D@__crt_stdio_output@@V?$format_validation_base@DV?$stream_output_adapter@D@__crt_stdio_output@@@2@@__crt_stdio_output@@AAE_NXZ 1002b4bd f i libucrt:output.obj
 0001:0002a777       ?state_case_type@?$output_processor@DV?$stream_output_adapter@D@__crt_stdio_output@@V?$positional_parameter_base@DV?$stream_output_adapter@D@__crt_stdio_output@@@2@@__crt_stdio_output@@AAE_NXZ 1002b777 f i libucrt:output.obj
 0001:0002aa3f       ?state_case_type@?$output_processor@DV?$stream_output_adapter@D@__crt_stdio_output@@V?$standard_base@DV?$stream_output_adapter@D@__crt_stdio_output@@@2@@__crt_stdio_output@@AAE_NXZ 1002ba3f f i libucrt:output.obj
 0001:0002acf9       ?state_case_type@?$output_processor@DV?$string_output_adapter@D@__crt_stdio_output@@V?$format_validation_base@DV?$string_output_adapter@D@__crt_stdio_output@@@2@@__crt_stdio_output@@AAE_NXZ 1002bcf9 f i libucrt:output.obj
 0001:0002afb3       ?state_case_type@?$output_processor@DV?$string_output_adapter@D@__crt_stdio_output@@V?$positional_parameter_base@DV?$string_output_adapter@D@__crt_stdio_output@@@2@@__crt_stdio_output@@AAE_NXZ 1002bfb3 f i libucrt:output.obj
 0001:0002b27b       ?state_case_type@?$output_processor@DV?$string_output_adapter@D@__crt_stdio_output@@V?$standard_base@DV?$string_output_adapter@D@__crt_stdio_output@@@2@@__crt_stdio_output@@AAE_NXZ 1002c27b f i libucrt:output.obj
 0001:0002b535       ?state_case_type@?$output_processor@_WV?$stream_output_adapter@_W@__crt_stdio_output@@V?$format_validation_base@_WV?$stream_output_adapter@_W@__crt_stdio_output@@@2@@__crt_stdio_output@@AAE_NXZ 1002c535 f i libucrt:output.obj
 0001:0002b829       ?state_case_type@?$output_processor@_WV?$stream_output_adapter@_W@__crt_stdio_output@@V?$positional_parameter_base@_WV?$stream_output_adapter@_W@__crt_stdio_output@@@2@@__crt_stdio_output@@AAE_NXZ 1002c829 f i libucrt:output.obj
 0001:0002bb30       ?state_case_type@?$output_processor@_WV?$stream_output_adapter@_W@__crt_stdio_output@@V?$standard_base@_WV?$stream_output_adapter@_W@__crt_stdio_output@@@2@@__crt_stdio_output@@AAE_NXZ 1002cb30 f i libucrt:output.obj
 0001:0002be24       ?state_case_type@?$output_processor@_WV?$string_output_adapter@_W@__crt_stdio_output@@V?$format_validation_base@_WV?$string_output_adapter@_W@__crt_stdio_output@@@2@@__crt_stdio_output@@AAE_NXZ 1002ce24 f i libucrt:output.obj
 0001:0002c118       ?state_case_type@?$output_processor@_WV?$string_output_adapter@_W@__crt_stdio_output@@V?$positional_parameter_base@_WV?$string_output_adapter@_W@__crt_stdio_output@@@2@@__crt_stdio_output@@AAE_NXZ 1002d118 f i libucrt:output.obj
 0001:0002c41f       ?state_case_type@?$output_processor@_WV?$string_output_adapter@_W@__crt_stdio_output@@V?$standard_base@_WV?$string_output_adapter@_W@__crt_stdio_output@@@2@@__crt_stdio_output@@AAE_NXZ 1002d41f f i libucrt:output.obj
 0001:0002c713       ?state_case_width@?$output_processor@DV?$stream_output_adapter@D@__crt_stdio_output@@V?$format_validation_base@DV?$stream_output_adapter@D@__crt_stdio_output@@@2@@__crt_stdio_output@@AAE_NXZ 1002d713 f i libucrt:output.obj
 0001:0002c748       ?state_case_width@?$output_processor@DV?$stream_output_adapter@D@__crt_stdio_output@@V?$positional_parameter_base@DV?$stream_output_adapter@D@__crt_stdio_output@@@2@@__crt_stdio_output@@AAE_NXZ 1002d748 f i libucrt:output.obj
 0001:0002c798       ?state_case_width@?$output_processor@DV?$stream_output_adapter@D@__crt_stdio_output@@V?$standard_base@DV?$stream_output_adapter@D@__crt_stdio_output@@@2@@__crt_stdio_output@@AAE_NXZ 1002d798 f i libucrt:output.obj
 0001:0002c7cd       ?state_case_width@?$output_processor@DV?$string_output_adapter@D@__crt_stdio_output@@V?$format_validation_base@DV?$string_output_adapter@D@__crt_stdio_output@@@2@@__crt_stdio_output@@AAE_NXZ 1002d7cd f i libucrt:output.obj
 0001:0002c802       ?state_case_width@?$output_processor@DV?$string_output_adapter@D@__crt_stdio_output@@V?$positional_parameter_base@DV?$string_output_adapter@D@__crt_stdio_output@@@2@@__crt_stdio_output@@AAE_NXZ 1002d802 f i libucrt:output.obj
 0001:0002c852       ?state_case_width@?$output_processor@DV?$string_output_adapter@D@__crt_stdio_output@@V?$standard_base@DV?$string_output_adapter@D@__crt_stdio_output@@@2@@__crt_stdio_output@@AAE_NXZ 1002d852 f i libucrt:output.obj
 0001:0002c887       ?state_case_width@?$output_processor@_WV?$stream_output_adapter@_W@__crt_stdio_output@@V?$format_validation_base@_WV?$stream_output_adapter@_W@__crt_stdio_output@@@2@@__crt_stdio_output@@AAE_NXZ 1002d887 f i libucrt:output.obj
 0001:0002c8be       ?state_case_width@?$output_processor@_WV?$stream_output_adapter@_W@__crt_stdio_output@@V?$positional_parameter_base@_WV?$stream_output_adapter@_W@__crt_stdio_output@@@2@@__crt_stdio_output@@AAE_NXZ 1002d8be f i libucrt:output.obj
 0001:0002c90f       ?state_case_width@?$output_processor@_WV?$stream_output_adapter@_W@__crt_stdio_output@@V?$standard_base@_WV?$stream_output_adapter@_W@__crt_stdio_output@@@2@@__crt_stdio_output@@AAE_NXZ 1002d90f f i libucrt:output.obj
 0001:0002c946       ?state_case_width@?$output_processor@_WV?$string_output_adapter@_W@__crt_stdio_output@@V?$format_validation_base@_WV?$string_output_adapter@_W@__crt_stdio_output@@@2@@__crt_stdio_output@@AAE_NXZ 1002d946 f i libucrt:output.obj
 0001:0002c97d       ?state_case_width@?$output_processor@_WV?$string_output_adapter@_W@__crt_stdio_output@@V?$positional_parameter_base@_WV?$string_output_adapter@_W@__crt_stdio_output@@@2@@__crt_stdio_output@@AAE_NXZ 1002d97d f i libucrt:output.obj
 0001:0002c9ce       ?state_case_width@?$output_processor@_WV?$string_output_adapter@_W@__crt_stdio_output@@V?$standard_base@_WV?$string_output_adapter@_W@__crt_stdio_output@@@2@@__crt_stdio_output@@AAE_NXZ 1002d9ce f i libucrt:output.obj
 0001:0002ca05       ?state_count@?$format_validation_base@DV?$stream_output_adapter@D@__crt_stdio_output@@@__crt_stdio_output@@KAIXZ 1002da05 f i libucrt:output.obj
 0001:0002ca09       ?state_count@?$format_validation_base@DV?$string_output_adapter@D@__crt_stdio_output@@@__crt_stdio_output@@KAIXZ 1002da09 f i libucrt:output.obj
 0001:0002ca0d       ?state_count@?$format_validation_base@_WV?$stream_output_adapter@_W@__crt_stdio_output@@@__crt_stdio_output@@KAIXZ 1002da0d f i libucrt:output.obj
 0001:0002ca11       ?state_count@?$format_validation_base@_WV?$string_output_adapter@_W@__crt_stdio_output@@@__crt_stdio_output@@KAIXZ 1002da11 f i libucrt:output.obj
 0001:0002ca15       ?state_count@?$standard_base@DV?$stream_output_adapter@D@__crt_stdio_output@@@__crt_stdio_output@@KAIXZ 1002da15 f i libucrt:output.obj
 0001:0002ca19       ?state_count@?$standard_base@DV?$string_output_adapter@D@__crt_stdio_output@@@__crt_stdio_output@@KAIXZ 1002da19 f i libucrt:output.obj
 0001:0002ca1d       ?state_count@?$standard_base@_WV?$stream_output_adapter@_W@__crt_stdio_output@@@__crt_stdio_output@@KAIXZ 1002da1d f i libucrt:output.obj
 0001:0002ca21       ?state_count@?$standard_base@_WV?$string_output_adapter@_W@__crt_stdio_output@@@__crt_stdio_output@@KAIXZ 1002da21 f i libucrt:output.obj
 0001:0002ca25       ?state_transition_table@?$format_validation_base@DV?$stream_output_adapter@D@__crt_stdio_output@@@__crt_stdio_output@@KAPBEXZ 1002da25 f i libucrt:output.obj
 0001:0002ca2b       ?state_transition_table@?$format_validation_base@DV?$string_output_adapter@D@__crt_stdio_output@@@__crt_stdio_output@@KAPBEXZ 1002da2b f i libucrt:output.obj
 0001:0002ca31       ?state_transition_table@?$format_validation_base@_WV?$stream_output_adapter@_W@__crt_stdio_output@@@__crt_stdio_output@@KAPBEXZ 1002da31 f i libucrt:output.obj
 0001:0002ca37       ?state_transition_table@?$format_validation_base@_WV?$string_output_adapter@_W@__crt_stdio_output@@@__crt_stdio_output@@KAPBEXZ 1002da37 f i libucrt:output.obj
 0001:0002ca3d       ?state_transition_table@?$standard_base@DV?$stream_output_adapter@D@__crt_stdio_output@@@__crt_stdio_output@@KAPBEXZ 1002da3d f i libucrt:output.obj
 0001:0002ca43       ?state_transition_table@?$standard_base@DV?$string_output_adapter@D@__crt_stdio_output@@@__crt_stdio_output@@KAPBEXZ 1002da43 f i libucrt:output.obj
 0001:0002ca49       ?state_transition_table@?$standard_base@_WV?$stream_output_adapter@_W@__crt_stdio_output@@@__crt_stdio_output@@KAPBEXZ 1002da49 f i libucrt:output.obj
 0001:0002ca4f       ?state_transition_table@?$standard_base@_WV?$string_output_adapter@_W@__crt_stdio_output@@@__crt_stdio_output@@KAPBEXZ 1002da4f f i libucrt:output.obj
 0001:0002ca55       ?to_integer_size@__crt_stdio_output@@YAIW4length_modifier@1@@Z 1002da55 f i libucrt:output.obj
 0001:0002cac8       ?type_case_X@?$output_processor@DV?$stream_output_adapter@D@__crt_stdio_output@@V?$format_validation_base@DV?$stream_output_adapter@D@__crt_stdio_output@@@2@@__crt_stdio_output@@AAE_NXZ 1002dac8 f i libucrt:output.obj
 0001:0002cad4       ?type_case_X@?$output_processor@DV?$stream_output_adapter@D@__crt_stdio_output@@V?$positional_parameter_base@DV?$stream_output_adapter@D@__crt_stdio_output@@@2@@__crt_stdio_output@@AAE_NXZ 1002dad4 f i libucrt:output.obj
 0001:0002cae0       ?type_case_X@?$output_processor@DV?$stream_output_adapter@D@__crt_stdio_output@@V?$standard_base@DV?$stream_output_adapter@D@__crt_stdio_output@@@2@@__crt_stdio_output@@AAE_NXZ 1002dae0 f i libucrt:output.obj
 0001:0002caec       ?type_case_X@?$output_processor@DV?$string_output_adapter@D@__crt_stdio_output@@V?$format_validation_base@DV?$string_output_adapter@D@__crt_stdio_output@@@2@@__crt_stdio_output@@AAE_NXZ 1002daec f i libucrt:output.obj
 0001:0002caf8       ?type_case_X@?$output_processor@DV?$string_output_adapter@D@__crt_stdio_output@@V?$positional_parameter_base@DV?$string_output_adapter@D@__crt_stdio_output@@@2@@__crt_stdio_output@@AAE_NXZ 1002daf8 f i libucrt:output.obj
 0001:0002cb04       ?type_case_X@?$output_processor@DV?$string_output_adapter@D@__crt_stdio_output@@V?$standard_base@DV?$string_output_adapter@D@__crt_stdio_output@@@2@@__crt_stdio_output@@AAE_NXZ 1002db04 f i libucrt:output.obj
 0001:0002cb10       ?type_case_X@?$output_processor@_WV?$stream_output_adapter@_W@__crt_stdio_output@@V?$format_validation_base@_WV?$stream_output_adapter@_W@__crt_stdio_output@@@2@@__crt_stdio_output@@AAE_NXZ 1002db10 f i libucrt:output.obj
 0001:0002cb1c       ?type_case_X@?$output_processor@_WV?$stream_output_adapter@_W@__crt_stdio_output@@V?$positional_parameter_base@_WV?$stream_output_adapter@_W@__crt_stdio_output@@@2@@__crt_stdio_output@@AAE_NXZ 1002db1c f i libucrt:output.obj
 0001:0002cb28       ?type_case_X@?$output_processor@_WV?$stream_output_adapter@_W@__crt_stdio_output@@V?$standard_base@_WV?$stream_output_adapter@_W@__crt_stdio_output@@@2@@__crt_stdio_output@@AAE_NXZ 1002db28 f i libucrt:output.obj
 0001:0002cb34       ?type_case_X@?$output_processor@_WV?$string_output_adapter@_W@__crt_stdio_output@@V?$format_validation_base@_WV?$string_output_adapter@_W@__crt_stdio_output@@@2@@__crt_stdio_output@@AAE_NXZ 1002db34 f i libucrt:output.obj
 0001:0002cb40       ?type_case_X@?$output_processor@_WV?$string_output_adapter@_W@__crt_stdio_output@@V?$positional_parameter_base@_WV?$string_output_adapter@_W@__crt_stdio_output@@@2@@__crt_stdio_output@@AAE_NXZ 1002db40 f i libucrt:output.obj
 0001:0002cb4c       ?type_case_X@?$output_processor@_WV?$string_output_adapter@_W@__crt_stdio_output@@V?$standard_base@_WV?$string_output_adapter@_W@__crt_stdio_output@@@2@@__crt_stdio_output@@AAE_NXZ 1002db4c f i libucrt:output.obj
 0001:0002cb58       ?type_case_Z@?$output_processor@DV?$stream_output_adapter@D@__crt_stdio_output@@V?$format_validation_base@DV?$stream_output_adapter@D@__crt_stdio_output@@@2@@__crt_stdio_output@@AAE_NXZ 1002db58 f i libucrt:output.obj
 0001:0002cbd3       ?type_case_Z@?$output_processor@DV?$stream_output_adapter@D@__crt_stdio_output@@V?$positional_parameter_base@DV?$stream_output_adapter@D@__crt_stdio_output@@@2@@__crt_stdio_output@@AAE_NXZ 1002dbd3 f i libucrt:output.obj
 0001:0002cc71       ?type_case_Z@?$output_processor@DV?$stream_output_adapter@D@__crt_stdio_output@@V?$standard_base@DV?$stream_output_adapter@D@__crt_stdio_output@@@2@@__crt_stdio_output@@AAE_NXZ 1002dc71 f i libucrt:output.obj
 0001:0002ccec       ?type_case_Z@?$output_processor@DV?$string_output_adapter@D@__crt_stdio_output@@V?$format_validation_base@DV?$string_output_adapter@D@__crt_stdio_output@@@2@@__crt_stdio_output@@AAE_NXZ 1002dcec f i libucrt:output.obj
 0001:0002cd67       ?type_case_Z@?$output_processor@DV?$string_output_adapter@D@__crt_stdio_output@@V?$positional_parameter_base@DV?$string_output_adapter@D@__crt_stdio_output@@@2@@__crt_stdio_output@@AAE_NXZ 1002dd67 f i libucrt:output.obj
 0001:0002ce05       ?type_case_Z@?$output_processor@DV?$string_output_adapter@D@__crt_stdio_output@@V?$standard_base@DV?$string_output_adapter@D@__crt_stdio_output@@@2@@__crt_stdio_output@@AAE_NXZ 1002de05 f i libucrt:output.obj
 0001:0002ce80       ?type_case_Z@?$output_processor@_WV?$stream_output_adapter@_W@__crt_stdio_output@@V?$format_validation_base@_WV?$stream_output_adapter@_W@__crt_stdio_output@@@2@@__crt_stdio_output@@AAE_NXZ 1002de80 f i libucrt:output.obj
 0001:0002cefb       ?type_case_Z@?$output_processor@_WV?$stream_output_adapter@_W@__crt_stdio_output@@V?$positional_parameter_base@_WV?$stream_output_adapter@_W@__crt_stdio_output@@@2@@__crt_stdio_output@@AAE_NXZ 1002defb f i libucrt:output.obj
 0001:0002cf99       ?type_case_Z@?$output_processor@_WV?$stream_output_adapter@_W@__crt_stdio_output@@V?$standard_base@_WV?$stream_output_adapter@_W@__crt_stdio_output@@@2@@__crt_stdio_output@@AAE_NXZ 1002df99 f i libucrt:output.obj
 0001:0002d014       ?type_case_Z@?$output_processor@_WV?$string_output_adapter@_W@__crt_stdio_output@@V?$format_validation_base@_WV?$string_output_adapter@_W@__crt_stdio_output@@@2@@__crt_stdio_output@@AAE_NXZ 1002e014 f i libucrt:output.obj
 0001:0002d08f       ?type_case_Z@?$output_processor@_WV?$string_output_adapter@_W@__crt_stdio_output@@V?$positional_parameter_base@_WV?$string_output_adapter@_W@__crt_stdio_output@@@2@@__crt_stdio_output@@AAE_NXZ 1002e08f f i libucrt:output.obj
 0001:0002d12d       ?type_case_Z@?$output_processor@_WV?$string_output_adapter@_W@__crt_stdio_output@@V?$standard_base@_WV?$string_output_adapter@_W@__crt_stdio_output@@@2@@__crt_stdio_output@@AAE_NXZ 1002e12d f i libucrt:output.obj
 0001:0002d1a8       ?type_case_a@?$output_processor@DV?$stream_output_adapter@D@__crt_stdio_output@@V?$format_validation_base@DV?$stream_output_adapter@D@__crt_stdio_output@@@2@@__crt_stdio_output@@AAE_NXZ 1002e1a8 f i libucrt:output.obj
 0001:0002d358       ?type_case_a@?$output_processor@DV?$stream_output_adapter@D@__crt_stdio_output@@V?$positional_parameter_base@DV?$stream_output_adapter@D@__crt_stdio_output@@@2@@__crt_stdio_output@@AAE_NXZ 1002e358 f i libucrt:output.obj
 0001:0002d52f       ?type_case_a@?$output_processor@DV?$stream_output_adapter@D@__crt_stdio_output@@V?$standard_base@DV?$stream_output_adapter@D@__crt_stdio_output@@@2@@__crt_stdio_output@@AAE_NXZ 1002e52f f i libucrt:output.obj
 0001:0002d6df       ?type_case_a@?$output_processor@DV?$string_output_adapter@D@__crt_stdio_output@@V?$format_validation_base@DV?$string_output_adapter@D@__crt_stdio_output@@@2@@__crt_stdio_output@@AAE_NXZ 1002e6df f i libucrt:output.obj
 0001:0002d88f       ?type_case_a@?$output_processor@DV?$string_output_adapter@D@__crt_stdio_output@@V?$positional_parameter_base@DV?$string_output_adapter@D@__crt_stdio_output@@@2@@__crt_stdio_output@@AAE_NXZ 1002e88f f i libucrt:output.obj
 0001:0002da66       ?type_case_a@?$output_processor@DV?$string_output_adapter@D@__crt_stdio_output@@V?$standard_base@DV?$string_output_adapter@D@__crt_stdio_output@@@2@@__crt_stdio_output@@AAE_NXZ 1002ea66 f i libucrt:output.obj
 0001:0002dc16       ?type_case_a@?$output_processor@_WV?$stream_output_adapter@_W@__crt_stdio_output@@V?$format_validation_base@_WV?$stream_output_adapter@_W@__crt_stdio_output@@@2@@__crt_stdio_output@@AAE_NXZ 1002ec16 f i libucrt:output.obj
 0001:0002dde4       ?type_case_a@?$output_processor@_WV?$stream_output_adapter@_W@__crt_stdio_output@@V?$positional_parameter_base@_WV?$stream_output_adapter@_W@__crt_stdio_output@@@2@@__crt_stdio_output@@AAE_NXZ 1002ede4 f i libucrt:output.obj
 0001:0002dfd9       ?type_case_a@?$output_processor@_WV?$stream_output_adapter@_W@__crt_stdio_output@@V?$standard_base@_WV?$stream_output_adapter@_W@__crt_stdio_output@@@2@@__crt_stdio_output@@AAE_NXZ 1002efd9 f i libucrt:output.obj
 0001:0002e1a7       ?type_case_a@?$output_processor@_WV?$string_output_adapter@_W@__crt_stdio_output@@V?$format_validation_base@_WV?$string_output_adapter@_W@__crt_stdio_output@@@2@@__crt_stdio_output@@AAE_NXZ 1002f1a7 f i libucrt:output.obj
 0001:0002e375       ?type_case_a@?$output_processor@_WV?$string_output_adapter@_W@__crt_stdio_output@@V?$positional_parameter_base@_WV?$string_output_adapter@_W@__crt_stdio_output@@@2@@__crt_stdio_output@@AAE_NXZ 1002f375 f i libucrt:output.obj
 0001:0002e56a       ?type_case_a@?$output_processor@_WV?$string_output_adapter@_W@__crt_stdio_output@@V?$standard_base@_WV?$string_output_adapter@_W@__crt_stdio_output@@@2@@__crt_stdio_output@@AAE_NXZ 1002f56a f i libucrt:output.obj
 0001:0002e738       ?type_case_c@?$output_processor@DV?$stream_output_adapter@D@__crt_stdio_output@@V?$format_validation_base@DV?$stream_output_adapter@D@__crt_stdio_output@@@2@@__crt_stdio_output@@AAE_NXZ 1002f738 f i libucrt:output.obj
 0001:0002e742       ?type_case_c@?$output_processor@DV?$stream_output_adapter@D@__crt_stdio_output@@V?$positional_parameter_base@DV?$stream_output_adapter@D@__crt_stdio_output@@@2@@__crt_stdio_output@@AAE_NXZ 1002f742 f i libucrt:output.obj
 0001:0002e74c       ?type_case_c@?$output_processor@DV?$stream_output_adapter@D@__crt_stdio_output@@V?$standard_base@DV?$stream_output_adapter@D@__crt_stdio_output@@@2@@__crt_stdio_output@@AAE_NXZ 1002f74c f i libucrt:output.obj
 0001:0002e756       ?type_case_c@?$output_processor@DV?$string_output_adapter@D@__crt_stdio_output@@V?$format_validation_base@DV?$string_output_adapter@D@__crt_stdio_output@@@2@@__crt_stdio_output@@AAE_NXZ 1002f756 f i libucrt:output.obj
 0001:0002e760       ?type_case_c@?$output_processor@DV?$string_output_adapter@D@__crt_stdio_output@@V?$positional_parameter_base@DV?$string_output_adapter@D@__crt_stdio_output@@@2@@__crt_stdio_output@@AAE_NXZ 1002f760 f i libucrt:output.obj
 0001:0002e76a       ?type_case_c@?$output_processor@DV?$string_output_adapter@D@__crt_stdio_output@@V?$standard_base@DV?$string_output_adapter@D@__crt_stdio_output@@@2@@__crt_stdio_output@@AAE_NXZ 1002f76a f i libucrt:output.obj
 0001:0002e774       ?type_case_c@?$output_processor@_WV?$stream_output_adapter@_W@__crt_stdio_output@@V?$format_validation_base@_WV?$stream_output_adapter@_W@__crt_stdio_output@@@2@@__crt_stdio_output@@AAE_NXZ 1002f774 f i libucrt:output.obj
 0001:0002e77e       ?type_case_c@?$output_processor@_WV?$stream_output_adapter@_W@__crt_stdio_output@@V?$positional_parameter_base@_WV?$stream_output_adapter@_W@__crt_stdio_output@@@2@@__crt_stdio_output@@AAE_NXZ 1002f77e f i libucrt:output.obj
 0001:0002e788       ?type_case_c@?$output_processor@_WV?$stream_output_adapter@_W@__crt_stdio_output@@V?$standard_base@_WV?$stream_output_adapter@_W@__crt_stdio_output@@@2@@__crt_stdio_output@@AAE_NXZ 1002f788 f i libucrt:output.obj
 0001:0002e792       ?type_case_c@?$output_processor@_WV?$string_output_adapter@_W@__crt_stdio_output@@V?$format_validation_base@_WV?$string_output_adapter@_W@__crt_stdio_output@@@2@@__crt_stdio_output@@AAE_NXZ 1002f792 f i libucrt:output.obj
 0001:0002e79c       ?type_case_c@?$output_processor@_WV?$string_output_adapter@_W@__crt_stdio_output@@V?$positional_parameter_base@_WV?$string_output_adapter@_W@__crt_stdio_output@@@2@@__crt_stdio_output@@AAE_NXZ 1002f79c f i libucrt:output.obj
 0001:0002e7a6       ?type_case_c@?$output_processor@_WV?$string_output_adapter@_W@__crt_stdio_output@@V?$standard_base@_WV?$string_output_adapter@_W@__crt_stdio_output@@@2@@__crt_stdio_output@@AAE_NXZ 1002f7a6 f i libucrt:output.obj
 0001:0002e7b0       ?type_case_c_tchar@?$output_processor@DV?$stream_output_adapter@D@__crt_stdio_output@@V?$format_validation_base@DV?$stream_output_adapter@D@__crt_stdio_output@@@2@@__crt_stdio_output@@AAE_ND@Z 1002f7b0 f i libucrt:output.obj
 0001:0002e864       ?type_case_c_tchar@?$output_processor@DV?$stream_output_adapter@D@__crt_stdio_output@@V?$positional_parameter_base@DV?$stream_output_adapter@D@__crt_stdio_output@@@2@@__crt_stdio_output@@AAE_ND@Z 1002f864 f i libucrt:output.obj
 0001:0002e954       ?type_case_c_tchar@?$output_processor@DV?$stream_output_adapter@D@__crt_stdio_output@@V?$standard_base@DV?$stream_output_adapter@D@__crt_stdio_output@@@2@@__crt_stdio_output@@AAE_ND@Z 1002f954 f i libucrt:output.obj
 0001:0002ea08       ?type_case_c_tchar@?$output_processor@DV?$string_output_adapter@D@__crt_stdio_output@@V?$format_validation_base@DV?$string_output_adapter@D@__crt_stdio_output@@@2@@__crt_stdio_output@@AAE_ND@Z 1002fa08 f i libucrt:output.obj
 0001:0002eabc       ?type_case_c_tchar@?$output_processor@DV?$string_output_adapter@D@__crt_stdio_output@@V?$positional_parameter_base@DV?$string_output_adapter@D@__crt_stdio_output@@@2@@__crt_stdio_output@@AAE_ND@Z 1002fabc f i libucrt:output.obj
 0001:0002ebac       ?type_case_c_tchar@?$output_processor@DV?$string_output_adapter@D@__crt_stdio_output@@V?$standard_base@DV?$string_output_adapter@D@__crt_stdio_output@@@2@@__crt_stdio_output@@AAE_ND@Z 1002fbac f i libucrt:output.obj
 0001:0002ec60       ?type_case_c_tchar@?$output_processor@_WV?$stream_output_adapter@_W@__crt_stdio_output@@V?$format_validation_base@_WV?$stream_output_adapter@_W@__crt_stdio_output@@@2@@__crt_stdio_output@@AAE_N_W@Z 1002fc60 f i libucrt:output.obj
 0001:0002ed1e       ?type_case_c_tchar@?$output_processor@_WV?$stream_output_adapter@_W@__crt_stdio_output@@V?$positional_parameter_base@_WV?$stream_output_adapter@_W@__crt_stdio_output@@@2@@__crt_stdio_output@@AAE_N_W@Z 1002fd1e f i libucrt:output.obj
 0001:0002edf8       ?type_case_c_tchar@?$output_processor@_WV?$stream_output_adapter@_W@__crt_stdio_output@@V?$standard_base@_WV?$stream_output_adapter@_W@__crt_stdio_output@@@2@@__crt_stdio_output@@AAE_N_W@Z 1002fdf8 f i libucrt:output.obj
 0001:0002eeb6       ?type_case_c_tchar@?$output_processor@_WV?$string_output_adapter@_W@__crt_stdio_output@@V?$format_validation_base@_WV?$string_output_adapter@_W@__crt_stdio_output@@@2@@__crt_stdio_output@@AAE_N_W@Z 1002feb6 f i libucrt:output.obj
 0001:0002ef74       ?type_case_c_tchar@?$output_processor@_WV?$string_output_adapter@_W@__crt_stdio_output@@V?$positional_parameter_base@_WV?$string_output_adapter@_W@__crt_stdio_output@@@2@@__crt_stdio_output@@AAE_N_W@Z 1002ff74 f i libucrt:output.obj
 0001:0002f04e       ?type_case_c_tchar@?$output_processor@_WV?$string_output_adapter@_W@__crt_stdio_output@@V?$standard_base@_WV?$string_output_adapter@_W@__crt_stdio_output@@@2@@__crt_stdio_output@@AAE_N_W@Z 1003004e f i libucrt:output.obj
 0001:0002f10c       ?type_case_d@?$output_processor@DV?$stream_output_adapter@D@__crt_stdio_output@@V?$format_validation_base@DV?$stream_output_adapter@D@__crt_stdio_output@@@2@@__crt_stdio_output@@AAE_NXZ 1003010c f i libucrt:output.obj
 0001:0002f11d       ?type_case_d@?$output_processor@DV?$stream_output_adapter@D@__crt_stdio_output@@V?$positional_parameter_base@DV?$stream_output_adapter@D@__crt_stdio_output@@@2@@__crt_stdio_output@@AAE_NXZ 1003011d f i libucrt:output.obj
 0001:0002f12e       ?type_case_d@?$output_processor@DV?$stream_output_adapter@D@__crt_stdio_output@@V?$standard_base@DV?$stream_output_adapter@D@__crt_stdio_output@@@2@@__crt_stdio_output@@AAE_NXZ 1003012e f i libucrt:output.obj
 0001:0002f13f       ?type_case_d@?$output_processor@DV?$string_output_adapter@D@__crt_stdio_output@@V?$format_validation_base@DV?$string_output_adapter@D@__crt_stdio_output@@@2@@__crt_stdio_output@@AAE_NXZ 1003013f f i libucrt:output.obj
 0001:0002f150       ?type_case_d@?$output_processor@DV?$string_output_adapter@D@__crt_stdio_output@@V?$positional_parameter_base@DV?$string_output_adapter@D@__crt_stdio_output@@@2@@__crt_stdio_output@@AAE_NXZ 10030150 f i libucrt:output.obj
 0001:0002f161       ?type_case_d@?$output_processor@DV?$string_output_adapter@D@__crt_stdio_output@@V?$standard_base@DV?$string_output_adapter@D@__crt_stdio_output@@@2@@__crt_stdio_output@@AAE_NXZ 10030161 f i libucrt:output.obj
 0001:0002f172       ?type_case_d@?$output_processor@_WV?$stream_output_adapter@_W@__crt_stdio_output@@V?$format_validation_base@_WV?$stream_output_adapter@_W@__crt_stdio_output@@@2@@__crt_stdio_output@@AAE_NXZ 10030172 f i libucrt:output.obj
 0001:0002f183       ?type_case_d@?$output_processor@_WV?$stream_output_adapter@_W@__crt_stdio_output@@V?$positional_parameter_base@_WV?$stream_output_adapter@_W@__crt_stdio_output@@@2@@__crt_stdio_output@@AAE_NXZ 10030183 f i libucrt:output.obj
 0001:0002f194       ?type_case_d@?$output_processor@_WV?$stream_output_adapter@_W@__crt_stdio_output@@V?$standard_base@_WV?$stream_output_adapter@_W@__crt_stdio_output@@@2@@__crt_stdio_output@@AAE_NXZ 10030194 f i libucrt:output.obj
 0001:0002f1a5       ?type_case_d@?$output_processor@_WV?$string_output_adapter@_W@__crt_stdio_output@@V?$format_validation_base@_WV?$string_output_adapter@_W@__crt_stdio_output@@@2@@__crt_stdio_output@@AAE_NXZ 100301a5 f i libucrt:output.obj
 0001:0002f1b6       ?type_case_d@?$output_processor@_WV?$string_output_adapter@_W@__crt_stdio_output@@V?$positional_parameter_base@_WV?$string_output_adapter@_W@__crt_stdio_output@@@2@@__crt_stdio_output@@AAE_NXZ 100301b6 f i libucrt:output.obj
 0001:0002f1c7       ?type_case_d@?$output_processor@_WV?$string_output_adapter@_W@__crt_stdio_output@@V?$standard_base@_WV?$string_output_adapter@_W@__crt_stdio_output@@@2@@__crt_stdio_output@@AAE_NXZ 100301c7 f i libucrt:output.obj
 0001:0002f1d8       ?type_case_integer@?$output_processor@DV?$stream_output_adapter@D@__crt_stdio_output@@V?$format_validation_base@DV?$stream_output_adapter@D@__crt_stdio_output@@@2@@__crt_stdio_output@@AAE_NI_N@Z 100301d8 f i libucrt:output.obj
 0001:0002f374       ?type_case_integer@?$output_processor@DV?$stream_output_adapter@D@__crt_stdio_output@@V?$positional_parameter_base@DV?$stream_output_adapter@D@__crt_stdio_output@@@2@@__crt_stdio_output@@AAE_NI_N@Z 10030374 f i libucrt:output.obj
 0001:0002f551       ?type_case_integer@?$output_processor@DV?$stream_output_adapter@D@__crt_stdio_output@@V?$standard_base@DV?$stream_output_adapter@D@__crt_stdio_output@@@2@@__crt_stdio_output@@AAE_NI_N@Z 10030551 f i libucrt:output.obj
 0001:0002f6ed       ?type_case_integer@?$output_processor@DV?$string_output_adapter@D@__crt_stdio_output@@V?$format_validation_base@DV?$string_output_adapter@D@__crt_stdio_output@@@2@@__crt_stdio_output@@AAE_NI_N@Z 100306ed f i libucrt:output.obj
 0001:0002f889       ?type_case_integer@?$output_processor@DV?$string_output_adapter@D@__crt_stdio_output@@V?$positional_parameter_base@DV?$string_output_adapter@D@__crt_stdio_output@@@2@@__crt_stdio_output@@AAE_NI_N@Z 10030889 f i libucrt:output.obj
 0001:0002fa66       ?type_case_integer@?$output_processor@DV?$string_output_adapter@D@__crt_stdio_output@@V?$standard_base@DV?$string_output_adapter@D@__crt_stdio_output@@@2@@__crt_stdio_output@@AAE_NI_N@Z 10030a66 f i libucrt:output.obj
 0001:0002fc02       ?type_case_integer@?$output_processor@_WV?$stream_output_adapter@_W@__crt_stdio_output@@V?$format_validation_base@_WV?$stream_output_adapter@_W@__crt_stdio_output@@@2@@__crt_stdio_output@@AAE_NI_N@Z 10030c02 f i libucrt:output.obj
 0001:0002fd9e       ?type_case_integer@?$output_processor@_WV?$stream_output_adapter@_W@__crt_stdio_output@@V?$positional_parameter_base@_WV?$stream_output_adapter@_W@__crt_stdio_output@@@2@@__crt_stdio_output@@AAE_NI_N@Z 10030d9e f i libucrt:output.obj
 0001:0002ff7b       ?type_case_integer@?$output_processor@_WV?$stream_output_adapter@_W@__crt_stdio_output@@V?$standard_base@_WV?$stream_output_adapter@_W@__crt_stdio_output@@@2@@__crt_stdio_output@@AAE_NI_N@Z 10030f7b f i libucrt:output.obj
 0001:00030117       ?type_case_integer@?$output_processor@_WV?$string_output_adapter@_W@__crt_stdio_output@@V?$format_validation_base@_WV?$string_output_adapter@_W@__crt_stdio_output@@@2@@__crt_stdio_output@@AAE_NI_N@Z 10031117 f i libucrt:output.obj
 0001:000302b3       ?type_case_integer@?$output_processor@_WV?$string_output_adapter@_W@__crt_stdio_output@@V?$positional_parameter_base@_WV?$string_output_adapter@_W@__crt_stdio_output@@@2@@__crt_stdio_output@@AAE_NI_N@Z 100312b3 f i libucrt:output.obj
 0001:00030490       ?type_case_integer@?$output_processor@_WV?$string_output_adapter@_W@__crt_stdio_output@@V?$standard_base@_WV?$string_output_adapter@_W@__crt_stdio_output@@@2@@__crt_stdio_output@@AAE_NI_N@Z 10031490 f i libucrt:output.obj
 0001:0003062c       ?type_case_n@?$output_processor@DV?$stream_output_adapter@D@__crt_stdio_output@@V?$format_validation_base@DV?$stream_output_adapter@D@__crt_stdio_output@@@2@@__crt_stdio_output@@AAE_NXZ 1003162c f i libucrt:output.obj
 0001:000306bd       ?type_case_n@?$output_processor@DV?$stream_output_adapter@D@__crt_stdio_output@@V?$positional_parameter_base@DV?$stream_output_adapter@D@__crt_stdio_output@@@2@@__crt_stdio_output@@AAE_NXZ 100316bd f i libucrt:output.obj
 0001:0003077c       ?type_case_n@?$output_processor@DV?$stream_output_adapter@D@__crt_stdio_output@@V?$standard_base@DV?$stream_output_adapter@D@__crt_stdio_output@@@2@@__crt_stdio_output@@AAE_NXZ 1003177c f i libucrt:output.obj
 0001:0003080d       ?type_case_n@?$output_processor@DV?$string_output_adapter@D@__crt_stdio_output@@V?$format_validation_base@DV?$string_output_adapter@D@__crt_stdio_output@@@2@@__crt_stdio_output@@AAE_NXZ 1003180d f i libucrt:output.obj
 0001:0003089e       ?type_case_n@?$output_processor@DV?$string_output_adapter@D@__crt_stdio_output@@V?$positional_parameter_base@DV?$string_output_adapter@D@__crt_stdio_output@@@2@@__crt_stdio_output@@AAE_NXZ 1003189e f i libucrt:output.obj
 0001:0003095d       ?type_case_n@?$output_processor@DV?$string_output_adapter@D@__crt_stdio_output@@V?$standard_base@DV?$string_output_adapter@D@__crt_stdio_output@@@2@@__crt_stdio_output@@AAE_NXZ 1003195d f i libucrt:output.obj
 0001:000309ee       ?type_case_n@?$output_processor@_WV?$stream_output_adapter@_W@__crt_stdio_output@@V?$format_validation_base@_WV?$stream_output_adapter@_W@__crt_stdio_output@@@2@@__crt_stdio_output@@AAE_NXZ 100319ee f i libucrt:output.obj
 0001:00030a7f       ?type_case_n@?$output_processor@_WV?$stream_output_adapter@_W@__crt_stdio_output@@V?$positional_parameter_base@_WV?$stream_output_adapter@_W@__crt_stdio_output@@@2@@__crt_stdio_output@@AAE_NXZ 10031a7f f i libucrt:output.obj
 0001:00030b3e       ?type_case_n@?$output_processor@_WV?$stream_output_adapter@_W@__crt_stdio_output@@V?$standard_base@_WV?$stream_output_adapter@_W@__crt_stdio_output@@@2@@__crt_stdio_output@@AAE_NXZ 10031b3e f i libucrt:output.obj
 0001:00030bcf       ?type_case_n@?$output_processor@_WV?$string_output_adapter@_W@__crt_stdio_output@@V?$format_validation_base@_WV?$string_output_adapter@_W@__crt_stdio_output@@@2@@__crt_stdio_output@@AAE_NXZ 10031bcf f i libucrt:output.obj
 0001:00030c60       ?type_case_n@?$output_processor@_WV?$string_output_adapter@_W@__crt_stdio_output@@V?$positional_parameter_base@_WV?$string_output_adapter@_W@__crt_stdio_output@@@2@@__crt_stdio_output@@AAE_NXZ 10031c60 f i libucrt:output.obj
 0001:00030d1f       ?type_case_n@?$output_processor@_WV?$string_output_adapter@_W@__crt_stdio_output@@V?$standard_base@_WV?$string_output_adapter@_W@__crt_stdio_output@@@2@@__crt_stdio_output@@AAE_NXZ 10031d1f f i libucrt:output.obj
 0001:00030db0       ?type_case_o@?$output_processor@DV?$stream_output_adapter@D@__crt_stdio_output@@V?$format_validation_base@DV?$stream_output_adapter@D@__crt_stdio_output@@@2@@__crt_stdio_output@@AAE_NXZ 10031db0 f i libucrt:output.obj
 0001:00030dd6       ?type_case_o@?$output_processor@DV?$stream_output_adapter@D@__crt_stdio_output@@V?$positional_parameter_base@DV?$stream_output_adapter@D@__crt_stdio_output@@@2@@__crt_stdio_output@@AAE_NXZ 10031dd6 f i libucrt:output.obj
 0001:00030dfc       ?type_case_o@?$output_processor@DV?$stream_output_adapter@D@__crt_stdio_output@@V?$standard_base@DV?$stream_output_adapter@D@__crt_stdio_output@@@2@@__crt_stdio_output@@AAE_NXZ 10031dfc f i libucrt:output.obj
 0001:00030e22       ?type_case_o@?$output_processor@DV?$string_output_adapter@D@__crt_stdio_output@@V?$format_validation_base@DV?$string_output_adapter@D@__crt_stdio_output@@@2@@__crt_stdio_output@@AAE_NXZ 10031e22 f i libucrt:output.obj
 0001:00030e48       ?type_case_o@?$output_processor@DV?$string_output_adapter@D@__crt_stdio_output@@V?$positional_parameter_base@DV?$string_output_adapter@D@__crt_stdio_output@@@2@@__crt_stdio_output@@AAE_NXZ 10031e48 f i libucrt:output.obj
 0001:00030e6e       ?type_case_o@?$output_processor@DV?$string_output_adapter@D@__crt_stdio_output@@V?$standard_base@DV?$string_output_adapter@D@__crt_stdio_output@@@2@@__crt_stdio_output@@AAE_NXZ 10031e6e f i libucrt:output.obj
 0001:00030e94       ?type_case_o@?$output_processor@_WV?$stream_output_adapter@_W@__crt_stdio_output@@V?$format_validation_base@_WV?$stream_output_adapter@_W@__crt_stdio_output@@@2@@__crt_stdio_output@@AAE_NXZ 10031e94 f i libucrt:output.obj
 0001:00030eba       ?type_case_o@?$output_processor@_WV?$stream_output_adapter@_W@__crt_stdio_output@@V?$positional_parameter_base@_WV?$stream_output_adapter@_W@__crt_stdio_output@@@2@@__crt_stdio_output@@AAE_NXZ 10031eba f i libucrt:output.obj
 0001:00030ee0       ?type_case_o@?$output_processor@_WV?$stream_output_adapter@_W@__crt_stdio_output@@V?$standard_base@_WV?$stream_output_adapter@_W@__crt_stdio_output@@@2@@__crt_stdio_output@@AAE_NXZ 10031ee0 f i libucrt:output.obj
 0001:00030f06       ?type_case_o@?$output_processor@_WV?$string_output_adapter@_W@__crt_stdio_output@@V?$format_validation_base@_WV?$string_output_adapter@_W@__crt_stdio_output@@@2@@__crt_stdio_output@@AAE_NXZ 10031f06 f i libucrt:output.obj
 0001:00030f2c       ?type_case_o@?$output_processor@_WV?$string_output_adapter@_W@__crt_stdio_output@@V?$positional_parameter_base@_WV?$string_output_adapter@_W@__crt_stdio_output@@@2@@__crt_stdio_output@@AAE_NXZ 10031f2c f i libucrt:output.obj
 0001:00030f52       ?type_case_o@?$output_processor@_WV?$string_output_adapter@_W@__crt_stdio_output@@V?$standard_base@_WV?$string_output_adapter@_W@__crt_stdio_output@@@2@@__crt_stdio_output@@AAE_NXZ 10031f52 f i libucrt:output.obj
 0001:00030f78       ?type_case_p@?$output_processor@DV?$stream_output_adapter@D@__crt_stdio_output@@V?$format_validation_base@DV?$stream_output_adapter@D@__crt_stdio_output@@@2@@__crt_stdio_output@@AAE_NXZ 10031f78 f i libucrt:output.obj
 0001:00030f96       ?type_case_p@?$output_processor@DV?$stream_output_adapter@D@__crt_stdio_output@@V?$positional_parameter_base@DV?$stream_output_adapter@D@__crt_stdio_output@@@2@@__crt_stdio_output@@AAE_NXZ 10031f96 f i libucrt:output.obj
 0001:00030fb4       ?type_case_p@?$output_processor@DV?$stream_output_adapter@D@__crt_stdio_output@@V?$standard_base@DV?$stream_output_adapter@D@__crt_stdio_output@@@2@@__crt_stdio_output@@AAE_NXZ 10031fb4 f i libucrt:output.obj
 0001:00030fd2       ?type_case_p@?$output_processor@DV?$string_output_adapter@D@__crt_stdio_output@@V?$format_validation_base@DV?$string_output_adapter@D@__crt_stdio_output@@@2@@__crt_stdio_output@@AAE_NXZ 10031fd2 f i libucrt:output.obj
 0001:00030ff0       ?type_case_p@?$output_processor@DV?$string_output_adapter@D@__crt_stdio_output@@V?$positional_parameter_base@DV?$string_output_adapter@D@__crt_stdio_output@@@2@@__crt_stdio_output@@AAE_NXZ 10031ff0 f i libucrt:output.obj
 0001:0003100e       ?type_case_p@?$output_processor@DV?$string_output_adapter@D@__crt_stdio_output@@V?$standard_base@DV?$string_output_adapter@D@__crt_stdio_output@@@2@@__crt_stdio_output@@AAE_NXZ 1003200e f i libucrt:output.obj
 0001:0003102c       ?type_case_p@?$output_processor@_WV?$stream_output_adapter@_W@__crt_stdio_output@@V?$format_validation_base@_WV?$stream_output_adapter@_W@__crt_stdio_output@@@2@@__crt_stdio_output@@AAE_NXZ 1003202c f i libucrt:output.obj
 0001:0003104a       ?type_case_p@?$output_processor@_WV?$stream_output_adapter@_W@__crt_stdio_output@@V?$positional_parameter_base@_WV?$stream_output_adapter@_W@__crt_stdio_output@@@2@@__crt_stdio_output@@AAE_NXZ 1003204a f i libucrt:output.obj
 0001:00031068       ?type_case_p@?$output_processor@_WV?$stream_output_adapter@_W@__crt_stdio_output@@V?$standard_base@_WV?$stream_output_adapter@_W@__crt_stdio_output@@@2@@__crt_stdio_output@@AAE_NXZ 10032068 f i libucrt:output.obj
 0001:00031086       ?type_case_p@?$output_processor@_WV?$string_output_adapter@_W@__crt_stdio_output@@V?$format_validation_base@_WV?$string_output_adapter@_W@__crt_stdio_output@@@2@@__crt_stdio_output@@AAE_NXZ 10032086 f i libucrt:output.obj
 0001:000310a4       ?type_case_p@?$output_processor@_WV?$string_output_adapter@_W@__crt_stdio_output@@V?$positional_parameter_base@_WV?$string_output_adapter@_W@__crt_stdio_output@@@2@@__crt_stdio_output@@AAE_NXZ 100320a4 f i libucrt:output.obj
 0001:000310c2       ?type_case_p@?$output_processor@_WV?$string_output_adapter@_W@__crt_stdio_output@@V?$standard_base@_WV?$string_output_adapter@_W@__crt_stdio_output@@@2@@__crt_stdio_output@@AAE_NXZ 100320c2 f i libucrt:output.obj
 0001:000310e0       ?type_case_s@?$output_processor@DV?$stream_output_adapter@D@__crt_stdio_output@@V?$format_validation_base@DV?$stream_output_adapter@D@__crt_stdio_output@@@2@@__crt_stdio_output@@AAE_NXZ 100320e0 f i libucrt:output.obj
 0001:0003116f       ?type_case_s@?$output_processor@DV?$stream_output_adapter@D@__crt_stdio_output@@V?$positional_parameter_base@DV?$stream_output_adapter@D@__crt_stdio_output@@@2@@__crt_stdio_output@@AAE_NXZ 1003216f f i libucrt:output.obj
 0001:0003120a       ?type_case_s@?$output_processor@DV?$stream_output_adapter@D@__crt_stdio_output@@V?$standard_base@DV?$stream_output_adapter@D@__crt_stdio_output@@@2@@__crt_stdio_output@@AAE_NXZ 1003220a f i libucrt:output.obj
 0001:00031299       ?type_case_s@?$output_processor@DV?$string_output_adapter@D@__crt_stdio_output@@V?$format_validation_base@DV?$string_output_adapter@D@__crt_stdio_output@@@2@@__crt_stdio_output@@AAE_NXZ 10032299 f i libucrt:output.obj
 0001:00031328       ?type_case_s@?$output_processor@DV?$string_output_adapter@D@__crt_stdio_output@@V?$positional_parameter_base@DV?$string_output_adapter@D@__crt_stdio_output@@@2@@__crt_stdio_output@@AAE_NXZ 10032328 f i libucrt:output.obj
 0001:000313c3       ?type_case_s@?$output_processor@DV?$string_output_adapter@D@__crt_stdio_output@@V?$standard_base@DV?$string_output_adapter@D@__crt_stdio_output@@@2@@__crt_stdio_output@@AAE_NXZ 100323c3 f i libucrt:output.obj
 0001:00031452       ?type_case_s@?$output_processor@_WV?$stream_output_adapter@_W@__crt_stdio_output@@V?$format_validation_base@_WV?$stream_output_adapter@_W@__crt_stdio_output@@@2@@__crt_stdio_output@@AAE_NXZ 10032452 f i libucrt:output.obj
 0001:000314e3       ?type_case_s@?$output_processor@_WV?$stream_output_adapter@_W@__crt_stdio_output@@V?$positional_parameter_base@_WV?$stream_output_adapter@_W@__crt_stdio_output@@@2@@__crt_stdio_output@@AAE_NXZ 100324e3 f i libucrt:output.obj
 0001:00031580       ?type_case_s@?$output_processor@_WV?$stream_output_adapter@_W@__crt_stdio_output@@V?$standard_base@_WV?$stream_output_adapter@_W@__crt_stdio_output@@@2@@__crt_stdio_output@@AAE_NXZ 10032580 f i libucrt:output.obj
 0001:00031611       ?type_case_s@?$output_processor@_WV?$string_output_adapter@_W@__crt_stdio_output@@V?$format_validation_base@_WV?$string_output_adapter@_W@__crt_stdio_output@@@2@@__crt_stdio_output@@AAE_NXZ 10032611 f i libucrt:output.obj
 0001:000316a2       ?type_case_s@?$output_processor@_WV?$string_output_adapter@_W@__crt_stdio_output@@V?$positional_parameter_base@_WV?$string_output_adapter@_W@__crt_stdio_output@@@2@@__crt_stdio_output@@AAE_NXZ 100326a2 f i libucrt:output.obj
 0001:0003173f       ?type_case_s@?$output_processor@_WV?$string_output_adapter@_W@__crt_stdio_output@@V?$standard_base@_WV?$string_output_adapter@_W@__crt_stdio_output@@@2@@__crt_stdio_output@@AAE_NXZ 1003273f f i libucrt:output.obj
 0001:000317d0       ?type_case_s_compute_narrow_string_length@?$output_processor@DV?$stream_output_adapter@D@__crt_stdio_output@@V?$format_validation_base@DV?$stream_output_adapter@D@__crt_stdio_output@@@2@@__crt_stdio_output@@ABEHHD@Z 100327d0 f i libucrt:output.obj
 0001:000317eb       ?type_case_s_compute_narrow_string_length@?$output_processor@DV?$stream_output_adapter@D@__crt_stdio_output@@V?$positional_parameter_base@DV?$stream_output_adapter@D@__crt_stdio_output@@@2@@__crt_stdio_output@@ABEHHD@Z 100327eb f i libucrt:output.obj
 0001:00031806       ?type_case_s_compute_narrow_string_length@?$output_processor@DV?$stream_output_adapter@D@__crt_stdio_output@@V?$standard_base@DV?$stream_output_adapter@D@__crt_stdio_output@@@2@@__crt_stdio_output@@ABEHHD@Z 10032806 f i libucrt:output.obj
 0001:00031821       ?type_case_s_compute_narrow_string_length@?$output_processor@DV?$string_output_adapter@D@__crt_stdio_output@@V?$format_validation_base@DV?$string_output_adapter@D@__crt_stdio_output@@@2@@__crt_stdio_output@@ABEHHD@Z 10032821 f i libucrt:output.obj
 0001:0003183c       ?type_case_s_compute_narrow_string_length@?$output_processor@DV?$string_output_adapter@D@__crt_stdio_output@@V?$positional_parameter_base@DV?$string_output_adapter@D@__crt_stdio_output@@@2@@__crt_stdio_output@@ABEHHD@Z 1003283c f i libucrt:output.obj
 0001:00031857       ?type_case_s_compute_narrow_string_length@?$output_processor@DV?$string_output_adapter@D@__crt_stdio_output@@V?$standard_base@DV?$string_output_adapter@D@__crt_stdio_output@@@2@@__crt_stdio_output@@ABEHHD@Z 10032857 f i libucrt:output.obj
 0001:00031872       ?type_case_s_compute_narrow_string_length@?$output_processor@_WV?$stream_output_adapter@_W@__crt_stdio_output@@V?$format_validation_base@_WV?$stream_output_adapter@_W@__crt_stdio_output@@@2@@__crt_stdio_output@@ABEHH_W@Z 10032872 f i libucrt:output.obj
 0001:000318c2       ?type_case_s_compute_narrow_string_length@?$output_processor@_WV?$stream_output_adapter@_W@__crt_stdio_output@@V?$positional_parameter_base@_WV?$stream_output_adapter@_W@__crt_stdio_output@@@2@@__crt_stdio_output@@ABEHH_W@Z 100328c2 f i libucrt:output.obj
 0001:00031912       ?type_case_s_compute_narrow_string_length@?$output_processor@_WV?$stream_output_adapter@_W@__crt_stdio_output@@V?$standard_base@_WV?$stream_output_adapter@_W@__crt_stdio_output@@@2@@__crt_stdio_output@@ABEHH_W@Z 10032912 f i libucrt:output.obj
 0001:00031962       ?type_case_s_compute_narrow_string_length@?$output_processor@_WV?$string_output_adapter@_W@__crt_stdio_output@@V?$format_validation_base@_WV?$string_output_adapter@_W@__crt_stdio_output@@@2@@__crt_stdio_output@@ABEHH_W@Z 10032962 f i libucrt:output.obj
 0001:000319b2       ?type_case_s_compute_narrow_string_length@?$output_processor@_WV?$string_output_adapter@_W@__crt_stdio_output@@V?$positional_parameter_base@_WV?$string_output_adapter@_W@__crt_stdio_output@@@2@@__crt_stdio_output@@ABEHH_W@Z 100329b2 f i libucrt:output.obj
 0001:00031a02       ?type_case_s_compute_narrow_string_length@?$output_processor@_WV?$string_output_adapter@_W@__crt_stdio_output@@V?$standard_base@_WV?$string_output_adapter@_W@__crt_stdio_output@@@2@@__crt_stdio_output@@ABEHH_W@Z 10032a02 f i libucrt:output.obj
 0001:00031a52       ?type_case_u@?$output_processor@DV?$stream_output_adapter@D@__crt_stdio_output@@V?$format_validation_base@DV?$stream_output_adapter@D@__crt_stdio_output@@@2@@__crt_stdio_output@@AAE_NXZ 10032a52 f i libucrt:output.obj
 0001:00031a5e       ?type_case_u@?$output_processor@DV?$stream_output_adapter@D@__crt_stdio_output@@V?$positional_parameter_base@DV?$stream_output_adapter@D@__crt_stdio_output@@@2@@__crt_stdio_output@@AAE_NXZ 10032a5e f i libucrt:output.obj
 0001:00031a6a       ?type_case_u@?$output_processor@DV?$stream_output_adapter@D@__crt_stdio_output@@V?$standard_base@DV?$stream_output_adapter@D@__crt_stdio_output@@@2@@__crt_stdio_output@@AAE_NXZ 10032a6a f i libucrt:output.obj
 0001:00031a76       ?type_case_u@?$output_processor@DV?$string_output_adapter@D@__crt_stdio_output@@V?$format_validation_base@DV?$string_output_adapter@D@__crt_stdio_output@@@2@@__crt_stdio_output@@AAE_NXZ 10032a76 f i libucrt:output.obj
 0001:00031a82       ?type_case_u@?$output_processor@DV?$string_output_adapter@D@__crt_stdio_output@@V?$positional_parameter_base@DV?$string_output_adapter@D@__crt_stdio_output@@@2@@__crt_stdio_output@@AAE_NXZ 10032a82 f i libucrt:output.obj
 0001:00031a8e       ?type_case_u@?$output_processor@DV?$string_output_adapter@D@__crt_stdio_output@@V?$standard_base@DV?$string_output_adapter@D@__crt_stdio_output@@@2@@__crt_stdio_output@@AAE_NXZ 10032a8e f i libucrt:output.obj
 0001:00031a9a       ?type_case_u@?$output_processor@_WV?$stream_output_adapter@_W@__crt_stdio_output@@V?$format_validation_base@_WV?$stream_output_adapter@_W@__crt_stdio_output@@@2@@__crt_stdio_output@@AAE_NXZ 10032a9a f i libucrt:output.obj
 0001:00031aa6       ?type_case_u@?$output_processor@_WV?$stream_output_adapter@_W@__crt_stdio_output@@V?$positional_parameter_base@_WV?$stream_output_adapter@_W@__crt_stdio_output@@@2@@__crt_stdio_output@@AAE_NXZ 10032aa6 f i libucrt:output.obj
 0001:00031ab2       ?type_case_u@?$output_processor@_WV?$stream_output_adapter@_W@__crt_stdio_output@@V?$standard_base@_WV?$stream_output_adapter@_W@__crt_stdio_output@@@2@@__crt_stdio_output@@AAE_NXZ 10032ab2 f i libucrt:output.obj
 0001:00031abe       ?type_case_u@?$output_processor@_WV?$string_output_adapter@_W@__crt_stdio_output@@V?$format_validation_base@_WV?$string_output_adapter@_W@__crt_stdio_output@@@2@@__crt_stdio_output@@AAE_NXZ 10032abe f i libucrt:output.obj
 0001:00031aca       ?type_case_u@?$output_processor@_WV?$string_output_adapter@_W@__crt_stdio_output@@V?$positional_parameter_base@_WV?$string_output_adapter@_W@__crt_stdio_output@@@2@@__crt_stdio_output@@AAE_NXZ 10032aca f i libucrt:output.obj
 0001:00031ad6       ?type_case_u@?$output_processor@_WV?$string_output_adapter@_W@__crt_stdio_output@@V?$standard_base@_WV?$string_output_adapter@_W@__crt_stdio_output@@@2@@__crt_stdio_output@@AAE_NXZ 10032ad6 f i libucrt:output.obj
 0001:00031ae2       ?type_case_x@?$output_processor@DV?$stream_output_adapter@D@__crt_stdio_output@@V?$format_validation_base@DV?$stream_output_adapter@D@__crt_stdio_output@@@2@@__crt_stdio_output@@AAE_NXZ 10032ae2 f i libucrt:output.obj
 0001:00031aee       ?type_case_x@?$output_processor@DV?$stream_output_adapter@D@__crt_stdio_output@@V?$positional_parameter_base@DV?$stream_output_adapter@D@__crt_stdio_output@@@2@@__crt_stdio_output@@AAE_NXZ 10032aee f i libucrt:output.obj
 0001:00031afa       ?type_case_x@?$output_processor@DV?$stream_output_adapter@D@__crt_stdio_output@@V?$standard_base@DV?$stream_output_adapter@D@__crt_stdio_output@@@2@@__crt_stdio_output@@AAE_NXZ 10032afa f i libucrt:output.obj
 0001:00031b06       ?type_case_x@?$output_processor@DV?$string_output_adapter@D@__crt_stdio_output@@V?$format_validation_base@DV?$string_output_adapter@D@__crt_stdio_output@@@2@@__crt_stdio_output@@AAE_NXZ 10032b06 f i libucrt:output.obj
 0001:00031b12       ?type_case_x@?$output_processor@DV?$string_output_adapter@D@__crt_stdio_output@@V?$positional_parameter_base@DV?$string_output_adapter@D@__crt_stdio_output@@@2@@__crt_stdio_output@@AAE_NXZ 10032b12 f i libucrt:output.obj
 0001:00031b1e       ?type_case_x@?$output_processor@DV?$string_output_adapter@D@__crt_stdio_output@@V?$standard_base@DV?$string_output_adapter@D@__crt_stdio_output@@@2@@__crt_stdio_output@@AAE_NXZ 10032b1e f i libucrt:output.obj
 0001:00031b2a       ?type_case_x@?$output_processor@_WV?$stream_output_adapter@_W@__crt_stdio_output@@V?$format_validation_base@_WV?$stream_output_adapter@_W@__crt_stdio_output@@@2@@__crt_stdio_output@@AAE_NXZ 10032b2a f i libucrt:output.obj
 0001:00031b36       ?type_case_x@?$output_processor@_WV?$stream_output_adapter@_W@__crt_stdio_output@@V?$positional_parameter_base@_WV?$stream_output_adapter@_W@__crt_stdio_output@@@2@@__crt_stdio_output@@AAE_NXZ 10032b36 f i libucrt:output.obj
 0001:00031b42       ?type_case_x@?$output_processor@_WV?$stream_output_adapter@_W@__crt_stdio_output@@V?$standard_base@_WV?$stream_output_adapter@_W@__crt_stdio_output@@@2@@__crt_stdio_output@@AAE_NXZ 10032b42 f i libucrt:output.obj
 0001:00031b4e       ?type_case_x@?$output_processor@_WV?$string_output_adapter@_W@__crt_stdio_output@@V?$format_validation_base@_WV?$string_output_adapter@_W@__crt_stdio_output@@@2@@__crt_stdio_output@@AAE_NXZ 10032b4e f i libucrt:output.obj
 0001:00031b5a       ?type_case_x@?$output_processor@_WV?$string_output_adapter@_W@__crt_stdio_output@@V?$positional_parameter_base@_WV?$string_output_adapter@_W@__crt_stdio_output@@@2@@__crt_stdio_output@@AAE_NXZ 10032b5a f i libucrt:output.obj
 0001:00031b66       ?type_case_x@?$output_processor@_WV?$string_output_adapter@_W@__crt_stdio_output@@V?$standard_base@_WV?$string_output_adapter@_W@__crt_stdio_output@@@2@@__crt_stdio_output@@AAE_NXZ 10032b66 f i libucrt:output.obj
 0001:00031b72       ?unset_flag@?$output_processor@DV?$stream_output_adapter@D@__crt_stdio_output@@V?$format_validation_base@DV?$stream_output_adapter@D@__crt_stdio_output@@@2@@__crt_stdio_output@@AAEXI@Z 10032b72 f i libucrt:output.obj
 0001:00031b87       ?unset_flag@?$output_processor@DV?$stream_output_adapter@D@__crt_stdio_output@@V?$positional_parameter_base@DV?$stream_output_adapter@D@__crt_stdio_output@@@2@@__crt_stdio_output@@AAEXI@Z 10032b87 f i libucrt:output.obj
 0001:00031b9c       ?unset_flag@?$output_processor@DV?$stream_output_adapter@D@__crt_stdio_output@@V?$standard_base@DV?$stream_output_adapter@D@__crt_stdio_output@@@2@@__crt_stdio_output@@AAEXI@Z 10032b9c f i libucrt:output.obj
 0001:00031bb1       ?unset_flag@?$output_processor@DV?$string_output_adapter@D@__crt_stdio_output@@V?$format_validation_base@DV?$string_output_adapter@D@__crt_stdio_output@@@2@@__crt_stdio_output@@AAEXI@Z 10032bb1 f i libucrt:output.obj
 0001:00031bc6       ?unset_flag@?$output_processor@DV?$string_output_adapter@D@__crt_stdio_output@@V?$positional_parameter_base@DV?$string_output_adapter@D@__crt_stdio_output@@@2@@__crt_stdio_output@@AAEXI@Z 10032bc6 f i libucrt:output.obj
 0001:00031bdb       ?unset_flag@?$output_processor@DV?$string_output_adapter@D@__crt_stdio_output@@V?$standard_base@DV?$string_output_adapter@D@__crt_stdio_output@@@2@@__crt_stdio_output@@AAEXI@Z 10032bdb f i libucrt:output.obj
 0001:00031bf0       ?unset_flag@?$output_processor@_WV?$stream_output_adapter@_W@__crt_stdio_output@@V?$format_validation_base@_WV?$stream_output_adapter@_W@__crt_stdio_output@@@2@@__crt_stdio_output@@AAEXI@Z 10032bf0 f i libucrt:output.obj
 0001:00031c05       ?unset_flag@?$output_processor@_WV?$stream_output_adapter@_W@__crt_stdio_output@@V?$positional_parameter_base@_WV?$stream_output_adapter@_W@__crt_stdio_output@@@2@@__crt_stdio_output@@AAEXI@Z 10032c05 f i libucrt:output.obj
 0001:00031c1a       ?unset_flag@?$output_processor@_WV?$stream_output_adapter@_W@__crt_stdio_output@@V?$standard_base@_WV?$stream_output_adapter@_W@__crt_stdio_output@@@2@@__crt_stdio_output@@AAEXI@Z 10032c1a f i libucrt:output.obj
 0001:00031c2f       ?unset_flag@?$output_processor@_WV?$string_output_adapter@_W@__crt_stdio_output@@V?$format_validation_base@_WV?$string_output_adapter@_W@__crt_stdio_output@@@2@@__crt_stdio_output@@AAEXI@Z 10032c2f f i libucrt:output.obj
 0001:00031c44       ?unset_flag@?$output_processor@_WV?$string_output_adapter@_W@__crt_stdio_output@@V?$positional_parameter_base@_WV?$string_output_adapter@_W@__crt_stdio_output@@@2@@__crt_stdio_output@@AAEXI@Z 10032c44 f i libucrt:output.obj
 0001:00031c59       ?unset_flag@?$output_processor@_WV?$string_output_adapter@_W@__crt_stdio_output@@V?$standard_base@_WV?$string_output_adapter@_W@__crt_stdio_output@@@2@@__crt_stdio_output@@AAEXI@Z 10032c59 f i libucrt:output.obj
 0001:00031c6e       ?update_field_width@?$positional_parameter_base@DV?$stream_output_adapter@D@__crt_stdio_output@@@__crt_stdio_output@@IAE_NXZ 10032c6e f i libucrt:output.obj
 0001:00031d51       ?update_field_width@?$positional_parameter_base@DV?$string_output_adapter@D@__crt_stdio_output@@@__crt_stdio_output@@IAE_NXZ 10032d51 f i libucrt:output.obj
 0001:00031e34       ?update_field_width@?$positional_parameter_base@_WV?$stream_output_adapter@_W@__crt_stdio_output@@@__crt_stdio_output@@IAE_NXZ 10032e34 f i libucrt:output.obj
 0001:00031f18       ?update_field_width@?$positional_parameter_base@_WV?$string_output_adapter@_W@__crt_stdio_output@@@__crt_stdio_output@@IAE_NXZ 10032f18 f i libucrt:output.obj
 0001:00031ffc       ?update_field_width@?$standard_base@DV?$stream_output_adapter@D@__crt_stdio_output@@@__crt_stdio_output@@IAE_NXZ 10032ffc f i libucrt:output.obj
 0001:00032010       ?update_field_width@?$standard_base@DV?$string_output_adapter@D@__crt_stdio_output@@@__crt_stdio_output@@IAE_NXZ 10033010 f i libucrt:output.obj
 0001:00032024       ?update_field_width@?$standard_base@_WV?$stream_output_adapter@_W@__crt_stdio_output@@@__crt_stdio_output@@IAE_NXZ 10033024 f i libucrt:output.obj
 0001:00032038       ?update_field_width@?$standard_base@_WV?$string_output_adapter@_W@__crt_stdio_output@@@__crt_stdio_output@@IAE_NXZ 10033038 f i libucrt:output.obj
 0001:0003204c       ?update_precision@?$positional_parameter_base@DV?$stream_output_adapter@D@__crt_stdio_output@@@__crt_stdio_output@@IAE_NXZ 1003304c f i libucrt:output.obj
 0001:0003212f       ?update_precision@?$positional_parameter_base@DV?$string_output_adapter@D@__crt_stdio_output@@@__crt_stdio_output@@IAE_NXZ 1003312f f i libucrt:output.obj
 0001:00032212       ?update_precision@?$positional_parameter_base@_WV?$stream_output_adapter@_W@__crt_stdio_output@@@__crt_stdio_output@@IAE_NXZ 10033212 f i libucrt:output.obj
 0001:000322f6       ?update_precision@?$positional_parameter_base@_WV?$string_output_adapter@_W@__crt_stdio_output@@@__crt_stdio_output@@IAE_NXZ 100332f6 f i libucrt:output.obj
 0001:000323da       ?update_precision@?$standard_base@DV?$stream_output_adapter@D@__crt_stdio_output@@@__crt_stdio_output@@IAE_NXZ 100333da f i libucrt:output.obj
 0001:000323ee       ?update_precision@?$standard_base@DV?$string_output_adapter@D@__crt_stdio_output@@@__crt_stdio_output@@IAE_NXZ 100333ee f i libucrt:output.obj
 0001:00032402       ?update_precision@?$standard_base@_WV?$stream_output_adapter@_W@__crt_stdio_output@@@__crt_stdio_output@@IAE_NXZ 10033402 f i libucrt:output.obj
 0001:00032416       ?update_precision@?$standard_base@_WV?$string_output_adapter@_W@__crt_stdio_output@@@__crt_stdio_output@@IAE_NXZ 10033416 f i libucrt:output.obj
 0001:0003242a       ?valid@__crt_stdio_stream@@QBE_NXZ 1003342a f i libucrt:output.obj
 0001:00032434       ?validate@?$stream_output_adapter@D@__crt_stdio_output@@QBE_NXZ 10033434 f i libucrt:output.obj
 0001:0003245d       ?validate@?$stream_output_adapter@_W@__crt_stdio_output@@QBE_NXZ 1003345d f i libucrt:output.obj
 0001:0003247e       ?validate@?$string_output_adapter@D@__crt_stdio_output@@QBE_NXZ 1003347e f i libucrt:output.obj
 0001:0003249f       ?validate@?$string_output_adapter@_W@__crt_stdio_output@@QBE_NXZ 1003349f f i libucrt:output.obj
 0001:000324c0       ?validate_and_store_parameter_data@?$positional_parameter_base@DV?$stream_output_adapter@D@__crt_stdio_output@@@__crt_stdio_output@@AAE_NAAUparameter_data@12@W4parameter_type@12@DW4length_modifier@2@@Z 100334c0 f i libucrt:output.obj
 0001:0003251d       ?validate_and_store_parameter_data@?$positional_parameter_base@DV?$string_output_adapter@D@__crt_stdio_output@@@__crt_stdio_output@@AAE_NAAUparameter_data@12@W4parameter_type@12@DW4length_modifier@2@@Z 1003351d f i libucrt:output.obj
 0001:0003257a       ?validate_and_store_parameter_data@?$positional_parameter_base@_WV?$stream_output_adapter@_W@__crt_stdio_output@@@__crt_stdio_output@@AAE_NAAUparameter_data@12@W4parameter_type@12@_WW4length_modifier@2@@Z 1003357a f i libucrt:output.obj
 0001:000325da       ?validate_and_store_parameter_data@?$positional_parameter_base@_WV?$string_output_adapter@_W@__crt_stdio_output@@@__crt_stdio_output@@AAE_NAAUparameter_data@12@W4parameter_type@12@_WW4length_modifier@2@@Z 100335da f i libucrt:output.obj
 0001:0003263a       ?validate_and_update_state_at_beginning_of_format_character@?$positional_parameter_base@DV?$stream_output_adapter@D@__crt_stdio_output@@@__crt_stdio_output@@IAE_NXZ 1003363a f i libucrt:output.obj
 0001:00032770       ?validate_and_update_state_at_beginning_of_format_character@?$positional_parameter_base@DV?$string_output_adapter@D@__crt_stdio_output@@@__crt_stdio_output@@IAE_NXZ 10033770 f i libucrt:output.obj
 0001:000328a6       ?validate_and_update_state_at_beginning_of_format_character@?$positional_parameter_base@_WV?$stream_output_adapter@_W@__crt_stdio_output@@@__crt_stdio_output@@IAE_NXZ 100338a6 f i libucrt:output.obj
 0001:000329e8       ?validate_and_update_state_at_beginning_of_format_character@?$positional_parameter_base@_WV?$string_output_adapter@_W@__crt_stdio_output@@@__crt_stdio_output@@IAE_NXZ 100339e8 f i libucrt:output.obj
 0001:00032b2a       ?validate_and_update_state_at_beginning_of_format_character@?$standard_base@DV?$stream_output_adapter@D@__crt_stdio_output@@@__crt_stdio_output@@IAE_NXZ 10033b2a f i libucrt:output.obj
 0001:00032b2d       ?validate_and_update_state_at_beginning_of_format_character@?$standard_base@DV?$string_output_adapter@D@__crt_stdio_output@@@__crt_stdio_output@@IAE_NXZ 10033b2d f i libucrt:output.obj
 0001:00032b30       ?validate_and_update_state_at_beginning_of_format_character@?$standard_base@_WV?$stream_output_adapter@_W@__crt_stdio_output@@@__crt_stdio_output@@IAE_NXZ 10033b30 f i libucrt:output.obj
 0001:00032b33       ?validate_and_update_state_at_beginning_of_format_character@?$standard_base@_WV?$string_output_adapter@_W@__crt_stdio_output@@@__crt_stdio_output@@IAE_NXZ 10033b33 f i libucrt:output.obj
 0001:00032b36       ?validate_and_update_state_at_end_of_format_string@?$format_validation_base@DV?$stream_output_adapter@D@__crt_stdio_output@@@__crt_stdio_output@@IBE_NXZ 10033b36 f i libucrt:output.obj
 0001:00032b60       ?validate_and_update_state_at_end_of_format_string@?$format_validation_base@DV?$string_output_adapter@D@__crt_stdio_output@@@__crt_stdio_output@@IBE_NXZ 10033b60 f i libucrt:output.obj
 0001:00032b8a       ?validate_and_update_state_at_end_of_format_string@?$format_validation_base@_WV?$stream_output_adapter@_W@__crt_stdio_output@@@__crt_stdio_output@@IBE_NXZ 10033b8a f i libucrt:output.obj
 0001:00032bb4       ?validate_and_update_state_at_end_of_format_string@?$format_validation_base@_WV?$string_output_adapter@_W@__crt_stdio_output@@@__crt_stdio_output@@IBE_NXZ 10033bb4 f i libucrt:output.obj
 0001:00032bde       ?validate_and_update_state_at_end_of_format_string@?$positional_parameter_base@DV?$stream_output_adapter@D@__crt_stdio_output@@@__crt_stdio_output@@IAE_NXZ 10033bde f i libucrt:output.obj
 0001:00032c7e       ?validate_and_update_state_at_end_of_format_string@?$positional_parameter_base@DV?$string_output_adapter@D@__crt_stdio_output@@@__crt_stdio_output@@IAE_NXZ 10033c7e f i libucrt:output.obj
 0001:00032d1e       ?validate_and_update_state_at_end_of_format_string@?$positional_parameter_base@_WV?$stream_output_adapter@_W@__crt_stdio_output@@@__crt_stdio_output@@IAE_NXZ 10033d1e f i libucrt:output.obj
 0001:00032dbe       ?validate_and_update_state_at_end_of_format_string@?$positional_parameter_base@_WV?$string_output_adapter@_W@__crt_stdio_output@@@__crt_stdio_output@@IAE_NXZ 10033dbe f i libucrt:output.obj
 0001:00032e5e       ?validate_and_update_state_at_end_of_format_string@?$standard_base@DV?$stream_output_adapter@D@__crt_stdio_output@@@__crt_stdio_output@@IBE_NXZ 10033e5e f i libucrt:output.obj
 0001:00032e61       ?validate_and_update_state_at_end_of_format_string@?$standard_base@DV?$string_output_adapter@D@__crt_stdio_output@@@__crt_stdio_output@@IBE_NXZ 10033e61 f i libucrt:output.obj
 0001:00032e64       ?validate_and_update_state_at_end_of_format_string@?$standard_base@_WV?$stream_output_adapter@_W@__crt_stdio_output@@@__crt_stdio_output@@IBE_NXZ 10033e64 f i libucrt:output.obj
 0001:00032e67       ?validate_and_update_state_at_end_of_format_string@?$standard_base@_WV?$string_output_adapter@_W@__crt_stdio_output@@@__crt_stdio_output@@IBE_NXZ 10033e67 f i libucrt:output.obj
 0001:00032e6a       ?validate_state_for_type_case_a@?$positional_parameter_base@DV?$stream_output_adapter@D@__crt_stdio_output@@@__crt_stdio_output@@IAE_NXZ 10033e6a f i libucrt:output.obj
 0001:00032ed1       ?validate_state_for_type_case_a@?$positional_parameter_base@DV?$string_output_adapter@D@__crt_stdio_output@@@__crt_stdio_output@@IAE_NXZ 10033ed1 f i libucrt:output.obj
 0001:00032f38       ?validate_state_for_type_case_a@?$positional_parameter_base@_WV?$stream_output_adapter@_W@__crt_stdio_output@@@__crt_stdio_output@@IAE_NXZ 10033f38 f i libucrt:output.obj
 0001:00032f9f       ?validate_state_for_type_case_a@?$positional_parameter_base@_WV?$string_output_adapter@_W@__crt_stdio_output@@@__crt_stdio_output@@IAE_NXZ 10033f9f f i libucrt:output.obj
 0001:00033006       ?validate_state_for_type_case_a@?$standard_base@DV?$stream_output_adapter@D@__crt_stdio_output@@@__crt_stdio_output@@IBE_NXZ 10034006 f i libucrt:output.obj
 0001:00033009       ?validate_state_for_type_case_a@?$standard_base@DV?$string_output_adapter@D@__crt_stdio_output@@@__crt_stdio_output@@IBE_NXZ 10034009 f i libucrt:output.obj
 0001:0003300c       ?validate_state_for_type_case_a@?$standard_base@_WV?$stream_output_adapter@_W@__crt_stdio_output@@@__crt_stdio_output@@IBE_NXZ 1003400c f i libucrt:output.obj
 0001:0003300f       ?validate_state_for_type_case_a@?$standard_base@_WV?$string_output_adapter@_W@__crt_stdio_output@@@__crt_stdio_output@@IBE_NXZ 1003400f f i libucrt:output.obj
 0001:00033012       ?validate_stream_is_ansi_if_required@?$__acrt_stdio_char_traits@D@@SA_NQAU_iobuf@@@Z 10034012 f i libucrt:output.obj
 0001:000330b4       ?validate_stream_is_ansi_if_required@?$__acrt_stdio_char_traits@_W@@SA_NQAU_iobuf@@@Z 100340b4 f i libucrt:output.obj
 0001:000330b7       ?wide_null_string@?$output_processor@DV?$stream_output_adapter@D@__crt_stdio_output@@V?$format_validation_base@DV?$stream_output_adapter@D@__crt_stdio_output@@@2@@__crt_stdio_output@@CAPA_WXZ 100340b7 f i libucrt:output.obj
 0001:000330bd       ?wide_null_string@?$output_processor@DV?$stream_output_adapter@D@__crt_stdio_output@@V?$positional_parameter_base@DV?$stream_output_adapter@D@__crt_stdio_output@@@2@@__crt_stdio_output@@CAPA_WXZ 100340bd f i libucrt:output.obj
 0001:000330c3       ?wide_null_string@?$output_processor@DV?$stream_output_adapter@D@__crt_stdio_output@@V?$standard_base@DV?$stream_output_adapter@D@__crt_stdio_output@@@2@@__crt_stdio_output@@CAPA_WXZ 100340c3 f i libucrt:output.obj
 0001:000330c9       ?wide_null_string@?$output_processor@DV?$string_output_adapter@D@__crt_stdio_output@@V?$format_validation_base@DV?$string_output_adapter@D@__crt_stdio_output@@@2@@__crt_stdio_output@@CAPA_WXZ 100340c9 f i libucrt:output.obj
 0001:000330cf       ?wide_null_string@?$output_processor@DV?$string_output_adapter@D@__crt_stdio_output@@V?$positional_parameter_base@DV?$string_output_adapter@D@__crt_stdio_output@@@2@@__crt_stdio_output@@CAPA_WXZ 100340cf f i libucrt:output.obj
 0001:000330d5       ?wide_null_string@?$output_processor@DV?$string_output_adapter@D@__crt_stdio_output@@V?$standard_base@DV?$string_output_adapter@D@__crt_stdio_output@@@2@@__crt_stdio_output@@CAPA_WXZ 100340d5 f i libucrt:output.obj
 0001:000330db       ?wide_null_string@?$output_processor@_WV?$stream_output_adapter@_W@__crt_stdio_output@@V?$format_validation_base@_WV?$stream_output_adapter@_W@__crt_stdio_output@@@2@@__crt_stdio_output@@CAPA_WXZ 100340db f i libucrt:output.obj
 0001:000330e1       ?wide_null_string@?$output_processor@_WV?$stream_output_adapter@_W@__crt_stdio_output@@V?$positional_parameter_base@_WV?$stream_output_adapter@_W@__crt_stdio_output@@@2@@__crt_stdio_output@@CAPA_WXZ 100340e1 f i libucrt:output.obj
 0001:000330e7       ?wide_null_string@?$output_processor@_WV?$stream_output_adapter@_W@__crt_stdio_output@@V?$standard_base@_WV?$stream_output_adapter@_W@__crt_stdio_output@@@2@@__crt_stdio_output@@CAPA_WXZ 100340e7 f i libucrt:output.obj
 0001:000330ed       ?wide_null_string@?$output_processor@_WV?$string_output_adapter@_W@__crt_stdio_output@@V?$format_validation_base@_WV?$string_output_adapter@_W@__crt_stdio_output@@@2@@__crt_stdio_output@@CAPA_WXZ 100340ed f i libucrt:output.obj
 0001:000330f3       ?wide_null_string@?$output_processor@_WV?$string_output_adapter@_W@__crt_stdio_output@@V?$positional_parameter_base@_WV?$string_output_adapter@_W@__crt_stdio_output@@@2@@__crt_stdio_output@@CAPA_WXZ 100340f3 f i libucrt:output.obj
 0001:000330f9       ?wide_null_string@?$output_processor@_WV?$string_output_adapter@_W@__crt_stdio_output@@V?$standard_base@_WV?$string_output_adapter@_W@__crt_stdio_output@@@2@@__crt_stdio_output@@CAPA_WXZ 100340f9 f i libucrt:output.obj
 0001:000330ff       ?write_character@?$stream_output_adapter@D@__crt_stdio_output@@QBEXDQAH@Z 100340ff f i libucrt:output.obj
 0001:0003314b       ?write_character@?$stream_output_adapter@_W@__crt_stdio_output@@QBEX_WQAH@Z 1003414b f i libucrt:output.obj
 0001:0003319b       ?write_character@?$string_output_adapter@D@__crt_stdio_output@@QBE_NDQAH@Z 1003419b f i libucrt:output.obj
 0001:000331ed       ?write_character@?$string_output_adapter@_W@__crt_stdio_output@@QBE_N_WQAH@Z 100341ed f i libucrt:output.obj
 0001:00033243       ?write_stored_string_tchar@?$output_processor@DV?$stream_output_adapter@D@__crt_stdio_output@@V?$format_validation_base@DV?$stream_output_adapter@D@__crt_stdio_output@@@2@@__crt_stdio_output@@AAE_ND@Z 10034243 f i libucrt:output.obj
 0001:00033313       ?write_stored_string_tchar@?$output_processor@DV?$stream_output_adapter@D@__crt_stdio_output@@V?$positional_parameter_base@DV?$stream_output_adapter@D@__crt_stdio_output@@@2@@__crt_stdio_output@@AAE_ND@Z 10034313 f i libucrt:output.obj
 0001:000333e3       ?write_stored_string_tchar@?$output_processor@DV?$stream_output_adapter@D@__crt_stdio_output@@V?$standard_base@DV?$stream_output_adapter@D@__crt_stdio_output@@@2@@__crt_stdio_output@@AAE_ND@Z 100343e3 f i libucrt:output.obj
 0001:000334b3       ?write_stored_string_tchar@?$output_processor@DV?$string_output_adapter@D@__crt_stdio_output@@V?$format_validation_base@DV?$string_output_adapter@D@__crt_stdio_output@@@2@@__crt_stdio_output@@AAE_ND@Z 100344b3 f i libucrt:output.obj
 0001:00033583       ?write_stored_string_tchar@?$output_processor@DV?$string_output_adapter@D@__crt_stdio_output@@V?$positional_parameter_base@DV?$string_output_adapter@D@__crt_stdio_output@@@2@@__crt_stdio_output@@AAE_ND@Z 10034583 f i libucrt:output.obj
 0001:00033653       ?write_stored_string_tchar@?$output_processor@DV?$string_output_adapter@D@__crt_stdio_output@@V?$standard_base@DV?$string_output_adapter@D@__crt_stdio_output@@@2@@__crt_stdio_output@@AAE_ND@Z 10034653 f i libucrt:output.obj
 0001:00033723       ?write_stored_string_tchar@?$output_processor@_WV?$stream_output_adapter@_W@__crt_stdio_output@@V?$format_validation_base@_WV?$stream_output_adapter@_W@__crt_stdio_output@@@2@@__crt_stdio_output@@AAE_N_W@Z 10034723 f i libucrt:output.obj
 0001:000337d0       ?write_stored_string_tchar@?$output_processor@_WV?$stream_output_adapter@_W@__crt_stdio_output@@V?$positional_parameter_base@_WV?$stream_output_adapter@_W@__crt_stdio_output@@@2@@__crt_stdio_output@@AAE_N_W@Z 100347d0 f i libucrt:output.obj
 0001:0003387d       ?write_stored_string_tchar@?$output_processor@_WV?$stream_output_adapter@_W@__crt_stdio_output@@V?$standard_base@_WV?$stream_output_adapter@_W@__crt_stdio_output@@@2@@__crt_stdio_output@@AAE_N_W@Z 1003487d f i libucrt:output.obj
 0001:0003392a       ?write_stored_string_tchar@?$output_processor@_WV?$string_output_adapter@_W@__crt_stdio_output@@V?$format_validation_base@_WV?$string_output_adapter@_W@__crt_stdio_output@@@2@@__crt_stdio_output@@AAE_N_W@Z 1003492a f i libucrt:output.obj
 0001:000339d7       ?write_stored_string_tchar@?$output_processor@_WV?$string_output_adapter@_W@__crt_stdio_output@@V?$positional_parameter_base@_WV?$string_output_adapter@_W@__crt_stdio_output@@@2@@__crt_stdio_output@@AAE_N_W@Z 100349d7 f i libucrt:output.obj
 0001:00033a84       ?write_stored_string_tchar@?$output_processor@_WV?$string_output_adapter@_W@__crt_stdio_output@@V?$standard_base@_WV?$string_output_adapter@_W@__crt_stdio_output@@@2@@__crt_stdio_output@@AAE_N_W@Z 10034a84 f i libucrt:output.obj
 0001:00033b31       ?write_string@?$stream_output_adapter@D@__crt_stdio_output@@QBEXQBDHQAH1@Z 10034b31 f i libucrt:output.obj
 0001:00033bdd       ?write_string@?$stream_output_adapter@_W@__crt_stdio_output@@QBEXQB_WHQAH1@Z 10034bdd f i libucrt:output.obj
 0001:00033c8d       ?write_string@?$string_output_adapter@D@__crt_stdio_output@@QBEXQBDHQAH1@Z 10034c8d f i libucrt:output.obj
 0001:00033d44       ?write_string@?$string_output_adapter@_W@__crt_stdio_output@@QBEXQB_WHQAH1@Z 10034d44 f i libucrt:output.obj
 0001:00033e04       ___acrt_isleadbyte_l_noupdate 10034e04 f i libucrt:output.obj
 0001:00033e25       ___acrt_locale_changed     10034e25 f i libucrt:output.obj
 0001:00033e36       ___stdio_common_vfprintf   10034e36 f   libucrt:output.obj
 0001:00033eca       ___stdio_common_vfprintf_p 10034eca f   libucrt:output.obj
 0001:00033f5e       ___stdio_common_vfprintf_s 10034f5e f   libucrt:output.obj
 0001:00033ff2       ___stdio_common_vfwprintf  10034ff2 f   libucrt:output.obj
 0001:00034086       ___stdio_common_vfwprintf_p 10035086 f   libucrt:output.obj
 0001:0003411a       ___stdio_common_vfwprintf_s 1003511a f   libucrt:output.obj
 0001:000341ae       ___stdio_common_vsnprintf_s 100351ae f   libucrt:output.obj
 0001:000341de       ___stdio_common_vsnwprintf_s 100351de f   libucrt:output.obj
 0001:0003420e       ___stdio_common_vsprintf   1003520e f   libucrt:output.obj
 0001:0003423b       ___stdio_common_vsprintf_p 1003523b f   libucrt:output.obj
 0001:00034268       ___stdio_common_vsprintf_s 10035268 f   libucrt:output.obj
 0001:00034295       ___stdio_common_vswprintf  10035295 f   libucrt:output.obj
 0001:000342c2       ___stdio_common_vswprintf_p 100352c2 f   libucrt:output.obj
 0001:000342ef       ___stdio_common_vswprintf_s 100352ef f   libucrt:output.obj
 0001:0003431c       _calloc                    1003531c f   libucrt:calloc.obj
 0001:00034329       _free                      10035329 f   libucrt:free.obj
 0001:0003432e       ??$__vcrt_va_start_verify_argument_type@QB_W@@YAXXZ 1003532e f i libucrt:assert.obj
 0001:000352cb       ??$ftprintf@PAU_iobuf@@PBDABQBDABQBDABI@?$__crt_char_traits@D@@SAH$$QAPAU_iobuf@@$$QAPBDABQBD2ABI@Z 100362cb f i libucrt:assert.obj
 0001:000352fd       ??$ftprintf@PAU_iobuf@@PB_WABQB_WABQB_WABI@?$__crt_char_traits@_W@@SAH$$QAPAU_iobuf@@$$QAPB_WABQB_W2ABI@Z 100362fd f i libucrt:assert.obj
 0001:0003532f       ??$get_module_file_name@AAPAUHINSTANCE__@@AAY0BAF@DK@?$__crt_char_traits@D@@SAKAAPAUHINSTANCE__@@AAY0BAF@D$$QAK@Z 1003632f f i libucrt:assert.obj
 0001:0003534f       ??$get_module_file_name@AAPAUHINSTANCE__@@AAY0BAF@_WK@?$__crt_char_traits@_W@@SAKAAPAUHINSTANCE__@@AAY0BAF@_W$$QAK@Z 1003634f f i libucrt:assert.obj
 0001:0003536f       ??$itot_s@ABIQAD$$CBIH@?$__crt_char_traits@D@@SAHABI$$QBQAD$$QBI$$QAH@Z 1003636f f i libucrt:assert.obj
 0001:0003539a       ??$itot_s@ABIQA_W$$CBIH@?$__crt_char_traits@_W@@SAHABI$$QBQA_W$$QBI$$QAH@Z 1003639a f i libucrt:assert.obj
 0001:000353c5       ??$show_message_box@AAY0CEA@DPBDJ@?$__crt_char_traits@D@@SAHAAY0CEA@D$$QAPBD$$QAJ@Z 100363c5 f i libucrt:assert.obj
 0001:000353e8       ??$show_message_box@AAY0CEA@_WPB_WJ@?$__crt_char_traits@_W@@SAHAAY0CEA@_W$$QAPB_W$$QAJ@Z 100363e8 f i libucrt:assert.obj
 0001:0003540b       ??$tcscat_s@ABQADABIAAPAD@?$__crt_char_traits@D@@SAHABQADABIAAPAD@Z 1003640b f i libucrt:assert.obj
 0001:00035430       ??$tcscat_s@ABQADABIABQBD@?$__crt_char_traits@D@@SAHABQADABIABQBD@Z 10036430 f i libucrt:assert.obj
 0001:00035455       ??$tcscat_s@ABQADABIPBD@?$__crt_char_traits@D@@SAHABQADABI$$QAPBD@Z 10036455 f i libucrt:assert.obj
 0001:0003547a       ??$tcscat_s@ABQA_WABIAAPA_W@?$__crt_char_traits@_W@@SAHABQA_WABIAAPA_W@Z 1003647a f i libucrt:assert.obj
 0001:0003549f       ??$tcscat_s@ABQA_WABIABQB_W@?$__crt_char_traits@_W@@SAHABQA_WABIABQB_W@Z 1003649f f i libucrt:assert.obj
 0001:000354c4       ??$tcscat_s@ABQA_WABIPB_W@?$__crt_char_traits@_W@@SAHABQA_WABI$$QAPB_W@Z 100364c4 f i libucrt:assert.obj
 0001:000354e9       ??$tcscpy_s@AAY0BAF@DIPBD@?$__crt_char_traits@D@@SAHAAY0BAF@D$$QAI$$QAPBD@Z 100364e9 f i libucrt:assert.obj
 0001:0003550c       ??$tcscpy_s@AAY0BAF@_WIPB_W@?$__crt_char_traits@_W@@SAHAAY0BAF@_W$$QAI$$QAPB_W@Z 1003650c f i libucrt:assert.obj
 0001:0003552f       ??$tcscpy_s@ABQADABIPBD@?$__crt_char_traits@D@@SAHABQADABI$$QAPBD@Z 1003652f f i libucrt:assert.obj
 0001:00035554       ??$tcscpy_s@ABQA_WABIPB_W@?$__crt_char_traits@_W@@SAHABQA_WABI$$QAPB_W@Z 10036554 f i libucrt:assert.obj
 0001:00035579       ??$tcslen@AAY0BAF@D@?$__crt_char_traits@D@@SAIAAY0BAF@D@Z 10036579 f i libucrt:assert.obj
 0001:00035594       ??$tcslen@AAY0BAF@_W@?$__crt_char_traits@_W@@SAIAAY0BAF@_W@Z 10036594 f i libucrt:assert.obj
 0001:000355b7       ??$tcslen@ABQAD@?$__crt_char_traits@D@@SAIABQAD@Z 100365b7 f i libucrt:assert.obj
 0001:000355d5       ??$tcslen@ABQA_W@?$__crt_char_traits@_W@@SAIABQA_W@Z 100365d5 f i libucrt:assert.obj
 0001:000355fa       ??$tcslen@ABQBD@?$__crt_char_traits@D@@SAIABQBD@Z 100365fa f i libucrt:assert.obj
 0001:00035618       ??$tcslen@ABQB_W@?$__crt_char_traits@_W@@SAIABQB_W@Z 10036618 f i libucrt:assert.obj
 0001:0003563d       ??$tcsncat_s@ABQADABIAAPBD$$CBI@?$__crt_char_traits@D@@SAHABQADABIAAPBD$$QBI@Z 1003663d f i libucrt:assert.obj
 0001:00035668       ??$tcsncat_s@ABQADABIABQBDABI@?$__crt_char_traits@D@@SAHABQADABIABQBD1@Z 10036668 f i libucrt:assert.obj
 0001:00035693       ??$tcsncat_s@ABQADABIPBD$$CBI@?$__crt_char_traits@D@@SAHABQADABI$$QAPBD$$QBI@Z 10036693 f i libucrt:assert.obj
 0001:000356be       ??$tcsncat_s@ABQA_WABIAAPB_W$$CBI@?$__crt_char_traits@_W@@SAHABQA_WABIAAPB_W$$QBI@Z 100366be f i libucrt:assert.obj
 0001:000356e9       ??$tcsncat_s@ABQA_WABIABQB_WABI@?$__crt_char_traits@_W@@SAHABQA_WABIABQB_W1@Z 100366e9 f i libucrt:assert.obj
 0001:00035714       ??$tcsncat_s@ABQA_WABIPB_W$$CBI@?$__crt_char_traits@_W@@SAHABQA_WABI$$QAPB_W$$QBI@Z 10036714 f i libucrt:assert.obj
 0001:000358b9       ?has_any_buffer@__crt_stdio_stream@@QBE_NXZ 100368b9 f i libucrt:assert.obj
 0001:000358ce       ?has_any_of@__crt_stdio_stream@@QBE_NJ@Z 100368ce f i libucrt:assert.obj
 0001:000358ea       __assert                   100368ea f   libucrt:assert.obj
 0001:00035944       __invoke_watson_if_error   10036944 f i libucrt:assert.obj
 0001:0003596e       __vfwprintf_l              1003696e f i libucrt:assert.obj
 0001:0003599c       __vswprintf_c_l            1003699c f i libucrt:assert.obj
 0001:000359d6       __wassert                  100369d6 f   libucrt:assert.obj
 0001:00035a30       _fwprintf                  10036a30 f i libucrt:assert.obj
 0001:00035af2       _swprintf                  10036af2 f i libucrt:assert.obj
 0001:00035b17       _realloc                   10036b17 f   libucrt:realloc.obj
 0001:00035b24       ??$?B$$A6GXPAXK0@Z@__crt_fast_encoded_nullptr_t@@QBEP6GXPAXK0@ZXZ 10036b24 f i libucrt:exit.obj
 0001:00035b42       ??$__crt_fast_decode_pointer@P6GXPAXK0@Z@@YAP6GXPAXK0@ZQ6GX0K0@Z@Z 10036b42 f i libucrt:exit.obj
 0001:00035b5d       ??$__crt_fast_encode_pointer@P6GXPAXK0@Z@@YAP6GXPAXK0@ZQ6GX0K0@Z@Z 10036b5d f i libucrt:exit.obj
 0001:00035b83       ??$__crt_get_proc_address@P6GXI@Z@@YAP6GXI@ZQAUHINSTANCE__@@QBD@Z 10036b83 f i libucrt:exit.obj
 0001:00035b9a       ??0?$__crt_unique_handle_t@U__crt_hmodule_traits@@@@QAE@QAUHINSTANCE__@@@Z 10036b9a f i libucrt:exit.obj
 0001:00035bae       ??1?$__crt_unique_handle_t@U__crt_hmodule_traits@@@@QAE@XZ 10036bae f i libucrt:exit.obj
 0001:00035be1       ?close@?$__crt_unique_handle_t@U__crt_hmodule_traits@@@@QAEXXZ 10036be1 f i libucrt:exit.obj
 0001:00035bfd       ?close@__crt_hmodule_traits@@SA_NPAUHINSTANCE__@@@Z 10036bfd f i libucrt:exit.obj
 0001:00035dc8       ?get@?$__crt_unique_handle_t@U__crt_hmodule_traits@@@@QBEPAUHINSTANCE__@@XZ 10036dc8 f i libucrt:exit.obj
 0001:00035dcb       ?get_address_of@?$__crt_unique_handle_t@U__crt_hmodule_traits@@@@QAEPAPAUHINSTANCE__@@XZ 10036dcb f i libucrt:exit.obj
 0001:00035dce       ?get_invalid_value@__crt_hmodule_traits@@SAPAUHINSTANCE__@@XZ 10036dce f i libucrt:exit.obj
 0001:00035ecb       __Exit                     10036ecb f   libucrt:exit.obj
 0001:00035ee6       ___acrt_initialize_thread_local_exit_callback 10036ee6 f   libucrt:exit.obj
 0001:00035ef8       __c_exit                   10036ef8 f   libucrt:exit.obj
 0001:00035f0a       __cexit                    10036f0a f   libucrt:exit.obj
 0001:00035f1c       __exit                     10036f1c f   libucrt:exit.obj
 0001:00035f37       __is_c_termination_complete 10036f37 f   libucrt:exit.obj
 0001:00035f3d       __register_thread_local_exe_atexit_callback 10036f3d f   libucrt:exit.obj
 0001:00035f83       _exit                      10036f83 f   libucrt:exit.obj
 0001:00035f9e       _quick_exit                10036f9e f   libucrt:exit.obj
 0001:00035fc0       _strncat                   10036fc0 f   libucrt:strncat.obj
 0001:00036150       _strncpy                   10037150 f   libucrt:strncpy.obj
 0001:000362bd       ?is_in_use@__crt_stdio_stream@@QBE_NXZ 100372bd f i libucrt:fclose.obj
 0001:000362cc       __fclose_nolock            100372cc f   libucrt:fclose.obj
 0001:0003635f       _fclose                    1003735f f   libucrt:fclose.obj
 0001:00036691       ??$open_file@ABQBDABQBDABHPAU_iobuf@@@?$__crt_char_traits@D@@SAPAU_iobuf@@ABQBD0ABH$$QAPAU1@@Z 10037691 f i libucrt:fopen.obj
 0001:000366bc       ??$open_file@ABQB_WABQB_WABHPAU_iobuf@@@?$__crt_char_traits@_W@@SAPAU_iobuf@@ABQB_W0ABH$$QAPAU1@@Z 100376bc f i libucrt:fopen.obj
 0001:000366e7       ?unlock@__crt_stdio_stream@@QBEXXZ 100376e7 f i libucrt:fopen.obj
 0001:000366f2       __fsopen                   100376f2 f   libucrt:fopen.obj
 0001:000366ff       __wfopen                   100376ff f   libucrt:fopen.obj
 0001:0003671b       __wfopen_s                 1003771b f   libucrt:fopen.obj
 0001:00036773       __wfsopen                  10037773 f   libucrt:fopen.obj
 0001:00036780       _fopen                     10037780 f   libucrt:fopen.obj
 0001:0003679c       _fopen_s                   1003779c f   libucrt:fopen.obj
 0001:000367f4       ?set_flags@__crt_stdio_stream@@QBE_NJ@Z 100377f4 f i libucrt:fread.obj
 0001:00036824       __fread_nolock             10037824 f   libucrt:fread.obj
 0001:00036848       __fread_nolock_s           10037848 f   libucrt:fread.obj
 0001:00036a87       _fread                     10037a87 f   libucrt:fread.obj
 0001:00036aab       _fread_s                   10037aab f   libucrt:fread.obj
 0001:00036c03       ??$?RV<lambda_11b4f7b0d3157825a5656a18eba1ae27>@@AAV<lambda_b51c0495177f500e782686251704ae76>@@V<lambda_cf89b47920b5017557bfe891e78aca36>@@@?$__crt_seh_guarded_call@I@@QAEI$$QAV<lambda_11b4f7b0d3157825a5656a18eba1ae27>@@AAV<lambda_b51c0495177f500e782686251704ae76>@@$$QAV<lambda_cf89b47920b5017557bfe891e78aca36>@@@Z 10037c03 f i libucrt:fwrite.obj
 0001:00036c68       ??$__acrt_lock_stream_and_call@V<lambda_b51c0495177f500e782686251704ae76>@@@@YAIQAU_iobuf@@$$QAV<lambda_b51c0495177f500e782686251704ae76>@@@Z 10037c68 f i libucrt:fwrite.obj
 0001:00036d5d       ?has_big_buffer@__crt_stdio_stream@@QBE_NXZ 10037d5d f i libucrt:fwrite.obj
 0001:00036d6e       __fwrite_nolock            10037d6e f   libucrt:fwrite.obj
 0001:00036f45       _fwrite                    10037f45 f   libucrt:fwrite.obj
 0001:00036fb3       ??$?R_W@__crt_internal_free_policy@@QBEXQB_W@Z 10037fb3 f i libucrt:unlink.obj
 0001:00036fc9       ??0?$__crt_unique_heap_ptr@_WU__crt_internal_free_policy@@@@QAE@QA_W@Z 10037fc9 f i libucrt:unlink.obj
 0001:00036fdd       ??1?$__crt_unique_heap_ptr@_WU__crt_internal_free_policy@@@@QAE@XZ 10037fdd f i libucrt:unlink.obj
 0001:00036ff3       ?get@?$__crt_unique_heap_ptr@_WU__crt_internal_free_policy@@@@QBEPA_WXZ 10037ff3 f i libucrt:unlink.obj
 0001:00036ff6       ?get_address_of@?$__crt_unique_heap_ptr@_WU__crt_internal_free_policy@@@@QAEPAPA_WXZ 10037ff6 f i libucrt:unlink.obj
 0001:00036ff9       ?release@?$__crt_unique_heap_ptr@_WU__crt_internal_free_policy@@@@QAEXXZ 10037ff9 f i libucrt:unlink.obj
 0001:0003700f       __unlink                   1003800f f   libucrt:unlink.obj
 0001:0003701c       _remove                    1003801c f   libucrt:unlink.obj
 0001:0003707c       ?__acrt_stdio_reset_buffer@@YAXV__crt_stdio_stream@@@Z 1003807c f i libucrt:rewind.obj
 0001:00037097       ?has_all_of@__crt_stdio_stream@@QBE_NJ@Z 10038097 f i libucrt:rewind.obj
 0001:000370b6       ?unset_flags@__crt_stdio_stream@@QBE_NJ@Z 100380b6 f i libucrt:rewind.obj
 0001:000370ea       _rewind                    100380ea f   libucrt:rewind.obj
 0001:000371eb       _ldexp                     100381eb f   libucrt:ldexp.obj
 0001:0003744b       __errcode                  1003844b f   libucrt:fpexcept.obj
 0001:0003748c       __except1                  1003848c f   libucrt:fpexcept.obj
 0001:0003758d       __except2                  1003858d f   libucrt:fpexcept.obj
 0001:000376d6       __handle_exc               100386d6 f   libucrt:fpexcept.obj
 0001:0003792e       __handle_qnan2             1003892e f   libucrt:fpexcept.obj
 0001:0003793e       __raise_exc                1003893e f   libucrt:fpexcept.obj
 0001:00037969       __raise_exc_ex             10038969 f   libucrt:fpexcept.obj
 0001:00037d16       __raise_excf               10038d16 f   libucrt:fpexcept.obj
 0001:00037d41       __set_errno_from_matherr   10038d41 f   libucrt:fpexcept.obj
 0001:00037d7b       __umatherr                 10038d7b f   libucrt:fpexcept.obj
 0001:00037e45       __initterm                 10038e45 f   libucrt:initterm.obj
 0001:00037eb8       __initterm_e               10038eb8 f   libucrt:initterm.obj
 0001:00037f3b       __seh_filter_dll           10038f3b f   libucrt:exception_filter.obj
 0001:00037f63       __seh_filter_exe           10038f63 f   libucrt:exception_filter.obj
 0001:00038132       ??$?RE@__crt_internal_free_policy@@QBEXQBE@Z 10039132 f i libucrt:argv_parsing.obj
 0001:00038148       ??$?RPAD@__crt_internal_free_policy@@QBEXQBQAD@Z 10039148 f i libucrt:argv_parsing.obj
 0001:0003815e       ??$?RPA_W@__crt_internal_free_policy@@QBEXQBQA_W@Z 1003915e f i libucrt:argv_parsing.obj
 0001:00038447       ??$get_module_file_name@$$TAAY0BAF@DH@?$__crt_char_traits@D@@SAK$$QA$$TAAY0BAF@D$$QAH@Z 10039447 f i libucrt:argv_parsing.obj
 0001:00038467       ??$get_module_file_name@$$TAAY0BAF@_WH@?$__crt_char_traits@_W@@SAK$$QA$$TAAY0BAF@_W$$QAH@Z 10039467 f i libucrt:argv_parsing.obj
 0001:00038840       ??$set_program_name@PAD@?$__crt_char_traits@D@@SAX$$QAPAD@Z 10039840 f i libucrt:argv_parsing.obj
 0001:00038855       ??$set_program_name@PA_W@?$__crt_char_traits@_W@@SAX$$QAPA_W@Z 10039855 f i libucrt:argv_parsing.obj
 0001:00038892       ??0?$__crt_unique_heap_ptr@EU__crt_internal_free_policy@@@@QAE@QAE@Z 10039892 f i libucrt:argv_parsing.obj
 0001:000388a6       ??0?$__crt_unique_heap_ptr@PADU__crt_internal_free_policy@@@@QAE@QAPAD@Z 100398a6 f i libucrt:argv_parsing.obj
 0001:000388ba       ??0?$__crt_unique_heap_ptr@PA_WU__crt_internal_free_policy@@@@QAE@QAPA_W@Z 100398ba f i libucrt:argv_parsing.obj
 0001:000388ce       ??1?$__crt_unique_heap_ptr@EU__crt_internal_free_policy@@@@QAE@XZ 100398ce f i libucrt:argv_parsing.obj
 0001:000388e4       ??1?$__crt_unique_heap_ptr@PADU__crt_internal_free_policy@@@@QAE@XZ 100398e4 f i libucrt:argv_parsing.obj
 0001:000388fa       ??1?$__crt_unique_heap_ptr@PA_WU__crt_internal_free_policy@@@@QAE@XZ 100398fa f i libucrt:argv_parsing.obj
 0001:00038910       ??B?$__crt_unique_heap_ptr@EU__crt_internal_free_policy@@@@QBE_NXZ 10039910 f i libucrt:argv_parsing.obj
 0001:00038950       ?detach@?$__crt_unique_heap_ptr@EU__crt_internal_free_policy@@@@QAEPAEXZ 10039950 f i libucrt:argv_parsing.obj
 0001:00038956       ?detach@?$__crt_unique_heap_ptr@PADU__crt_internal_free_policy@@@@QAEPAPADXZ 10039956 f i libucrt:argv_parsing.obj
 0001:0003895c       ?detach@?$__crt_unique_heap_ptr@PA_WU__crt_internal_free_policy@@@@QAEPAPA_WXZ 1003995c f i libucrt:argv_parsing.obj
 0001:00038982       ?get@?$__crt_unique_heap_ptr@EU__crt_internal_free_policy@@@@QBEPAEXZ 10039982 f i libucrt:argv_parsing.obj
 0001:00038985       ?get@?$__crt_unique_heap_ptr@PADU__crt_internal_free_policy@@@@QBEPAPADXZ 10039985 f i libucrt:argv_parsing.obj
 0001:00038988       ?get@?$__crt_unique_heap_ptr@PA_WU__crt_internal_free_policy@@@@QBEPAPA_WXZ 10039988 f i libucrt:argv_parsing.obj
 0001:0003898b       ?get_address_of@?$__crt_unique_heap_ptr@PADU__crt_internal_free_policy@@@@QAEPAPAPADXZ 1003998b f i libucrt:argv_parsing.obj
 0001:0003898e       ?get_address_of@?$__crt_unique_heap_ptr@PA_WU__crt_internal_free_policy@@@@QAEPAPAPA_WXZ 1003998e f i libucrt:argv_parsing.obj
 0001:000389a9       ?is_valid@?$__crt_unique_heap_ptr@EU__crt_internal_free_policy@@@@QBE_NXZ 100399a9 f i libucrt:argv_parsing.obj
 0001:000389b3       ?release@?$__crt_unique_heap_ptr@EU__crt_internal_free_policy@@@@QAEXXZ 100399b3 f i libucrt:argv_parsing.obj
 0001:000389c9       ?release@?$__crt_unique_heap_ptr@PADU__crt_internal_free_policy@@@@QAEXXZ 100399c9 f i libucrt:argv_parsing.obj
 0001:000389df       ?release@?$__crt_unique_heap_ptr@PA_WU__crt_internal_free_policy@@@@QAEXXZ 100399df f i libucrt:argv_parsing.obj
 0001:00038a16       ___acrt_allocate_buffer_for_argv 10039a16 f   libucrt:argv_parsing.obj
 0001:00038a80       __configure_narrow_argv    10039a80 f   libucrt:argv_parsing.obj
 0001:00038a8d       __configure_wide_argv      10039a8d f   libucrt:argv_parsing.obj
 0001:00038a9a       __set_pgmptr               10039a9a f i libucrt:argv_parsing.obj
 0001:00038aac       __set_wpgmptr              10039aac f i libucrt:argv_parsing.obj
 0001:00038f86       ??$get_environment_from_os@$$$V@?$__crt_char_traits@D@@SAPADXZ 10039f86 f i libucrt:environment_initialization.obj
 0001:00038f8b       ??$get_environment_from_os@$$$V@?$__crt_char_traits@_W@@SAPA_WXZ 10039f8b f i libucrt:environment_initialization.obj
 0001:000390c5       ??$set_variable_in_environment_nolock@PADH@?$__crt_char_traits@D@@SAH$$QAPAD$$QAH@Z 1003a0c5 f i libucrt:environment_initialization.obj
 0001:000390e3       ??$set_variable_in_environment_nolock@PA_WH@?$__crt_char_traits@_W@@SAH$$QAPA_W$$QAH@Z 1003a0e3 f i libucrt:environment_initialization.obj
 0001:00039101       ??$tcscpy_s@PADABIAAPAD@?$__crt_char_traits@D@@SAH$$QAPADABIAAPAD@Z 1003a101 f i libucrt:environment_initialization.obj
 0001:00039126       ??$tcscpy_s@PA_WABIAAPA_W@?$__crt_char_traits@_W@@SAH$$QAPA_WABIAAPA_W@Z 1003a126 f i libucrt:environment_initialization.obj
 0001:0003914b       ??$tcslen@AAPAD@?$__crt_char_traits@D@@SAIAAPAD@Z 1003a14b f i libucrt:environment_initialization.obj
 0001:00039169       ??$tcslen@AAPA_W@?$__crt_char_traits@_W@@SAIAAPA_W@Z 1003a169 f i libucrt:environment_initialization.obj
 0001:0003918e       ??$uninitialize@A6AXAAPAPAD@Z@?$dual_state_global@PAPAD@__crt_state_management@@QAEXA6AXAAPAPAD@Z@Z 1003a18e f i libucrt:environment_initialization.obj
 0001:000391de       ??$uninitialize@A6AXAAPAPA_W@Z@?$dual_state_global@PAPA_W@__crt_state_management@@QAEXA6AXAAPAPA_W@Z@Z 1003a1de f i libucrt:environment_initialization.obj
 0001:00039270       ??B?$__crt_unique_heap_ptr@PADU__crt_internal_free_policy@@@@QBE_NXZ 1003a270 f i libucrt:environment_initialization.obj
 0001:0003927a       ??B?$__crt_unique_heap_ptr@PA_WU__crt_internal_free_policy@@@@QBE_NXZ 1003a27a f i libucrt:environment_initialization.obj
 0001:00039284       ??B?$__crt_unique_heap_ptr@_WU__crt_internal_free_policy@@@@QBE_NXZ 1003a284 f i libucrt:environment_initialization.obj
 0001:0003928e       ?__crt_compute_required_transform_buffer_count@@YAIIQBD@Z 1003a28e f i libucrt:environment_initialization.obj
 0001:000392ae       ?__crt_compute_required_transform_buffer_count@@YAIIQB_W@Z 1003a2ae f i libucrt:environment_initialization.obj
 0001:000392d1       ?__crt_transform_string@@YAIIQBDQA_WI@Z 1003a2d1 f i libucrt:environment_initialization.obj
 0001:000392f5       ?__crt_transform_string@@YAIIQB_WQADI@Z 1003a2f5 f i libucrt:environment_initialization.obj
 0001:0003931d       ?detach@?$__crt_unique_heap_ptr@DU__crt_internal_free_policy@@@@QAEPADXZ 1003a31d f i libucrt:environment_initialization.obj
 0001:00039323       ?detach@?$__crt_unique_heap_ptr@_WU__crt_internal_free_policy@@@@QAEPA_WXZ 1003a323 f i libucrt:environment_initialization.obj
 0001:00039329       ?get_current_state_index@__crt_state_management@@YAIXZ 1003a329 f i libucrt:environment_initialization.obj
 0001:00039350       ?initialize@?$dual_state_global@PAPAD@__crt_state_management@@QAEXQAPAD@Z 1003a350 f i libucrt:environment_initialization.obj
 0001:0003938d       ?initialize@?$dual_state_global@PAPA_W@__crt_state_management@@QAEXQAPA_W@Z 1003a38d f i libucrt:environment_initialization.obj
 0001:000393ca       ?is_valid@?$__crt_unique_heap_ptr@PADU__crt_internal_free_policy@@@@QBE_NXZ 1003a3ca f i libucrt:environment_initialization.obj
 0001:000393d4       ?is_valid@?$__crt_unique_heap_ptr@PA_WU__crt_internal_free_policy@@@@QBE_NXZ 1003a3d4 f i libucrt:environment_initialization.obj
 0001:000393de       ?is_valid@?$__crt_unique_heap_ptr@_WU__crt_internal_free_policy@@@@QBE_NXZ 1003a3de f i libucrt:environment_initialization.obj
 0001:000393ee       ?value@?$dual_state_global@PAPAD@__crt_state_management@@QAEAAPAPADXZ 1003a3ee f i libucrt:environment_initialization.obj
 0001:000393f1       ?value@?$dual_state_global@PAPA_W@__crt_state_management@@QAEAAPAPA_WXZ 1003a3f1 f i libucrt:environment_initialization.obj
 0001:000393f4       ___dcrt_get_or_create_narrow_environment_nolock 1003a3f4 f   libucrt:environment_initialization.obj
 0001:000393f9       ___dcrt_get_or_create_wide_environment_nolock 1003a3f9 f   libucrt:environment_initialization.obj
 0001:000393fe       ___dcrt_uninitialize_environments_nolock 1003a3fe f   libucrt:environment_initialization.obj
 0001:00039442       ___p__environ              1003a442 f   libucrt:environment_initialization.obj
 0001:00039448       ___p__wenviron             1003a448 f   libucrt:environment_initialization.obj
 0001:0003944e       __get_initial_narrow_environment 1003a44e f   libucrt:environment_initialization.obj
 0001:00039467       __get_initial_wide_environment 1003a467 f   libucrt:environment_initialization.obj
 0001:00039480       __initialize_narrow_environment 1003a480 f   libucrt:environment_initialization.obj
 0001:00039485       __initialize_wide_environment 1003a485 f   libucrt:environment_initialization.obj
 0001:0003948a       ??$?BP6AXXZ@__crt_fast_encoded_nullptr_t@@QBEPAP6AXXZXZ 1003a48a f i libucrt:onexit.obj
 0001:000394a8       ??$?RP6AXXZ@__crt_internal_free_policy@@QBEXQBQ6AXXZ@Z 1003a4a8 f i libucrt:onexit.obj
 0001:000394be       ??$?RV<lambda_800076c951b434888f4765a74a194fcc>@@AAV<lambda_4e60a939b0d047cfe11ddc22648dfba9>@@V<lambda_6dbb1268764f43b569ce7b67e331d33a>@@@?$__crt_seh_guarded_call@H@@QAEH$$QAV<lambda_800076c951b434888f4765a74a194fcc>@@AAV<lambda_4e60a939b0d047cfe11ddc22648dfba9>@@$$QAV<lambda_6dbb1268764f43b569ce7b67e331d33a>@@@Z 1003a4be f i libucrt:onexit.obj
 0001:00039523       ??$?RV<lambda_995298e7d72eb4c2aab26c0585b3abe5>@@AAV<lambda_275893d493268fdec8709772e3fcec0e>@@V<lambda_293819299cbf9a7022e18b56a874bb5c>@@@?$__crt_seh_guarded_call@H@@QAEH$$QAV<lambda_995298e7d72eb4c2aab26c0585b3abe5>@@AAV<lambda_275893d493268fdec8709772e3fcec0e>@@$$QAV<lambda_293819299cbf9a7022e18b56a874bb5c>@@@Z 1003a523 f i libucrt:onexit.obj
 0001:00039588       ??$__acrt_lock_and_call@V<lambda_275893d493268fdec8709772e3fcec0e>@@@@YAHW4__acrt_lock_id@@$$QAV<lambda_275893d493268fdec8709772e3fcec0e>@@@Z 1003a588 f i libucrt:onexit.obj
 0001:000395ba       ??$__acrt_lock_and_call@V<lambda_4e60a939b0d047cfe11ddc22648dfba9>@@@@YAHW4__acrt_lock_id@@$$QAV<lambda_4e60a939b0d047cfe11ddc22648dfba9>@@@Z 1003a5ba f i libucrt:onexit.obj
 0001:000395ec       ??$__crt_fast_encode_pointer@P6AHXZ@@YAP6AHXZQ6AHXZ@Z 1003a5ec f i libucrt:onexit.obj
 0001:00039699       ??0?$__crt_unique_heap_ptr@P6AXXZU__crt_internal_free_policy@@@@QAE@QAP6AXXZ@Z 1003a699 f i libucrt:onexit.obj
 0001:000396ad       ??1?$__crt_unique_heap_ptr@P6AXXZU__crt_internal_free_policy@@@@QAE@XZ 1003a6ad f i libucrt:onexit.obj
 0001:000399e8       ?detach@?$__crt_unique_heap_ptr@P6AXXZU__crt_internal_free_policy@@@@QAEPAP6AXXZXZ 1003a9e8 f i libucrt:onexit.obj
 0001:000399ee       ?release@?$__crt_unique_heap_ptr@P6AXXZU__crt_internal_free_policy@@@@QAEXXZ 1003a9ee f i libucrt:onexit.obj
 0001:00039a04       __crt_at_quick_exit        1003aa04 f   libucrt:onexit.obj
 0001:00039a1f       __crt_atexit               1003aa1f f   libucrt:onexit.obj
 0001:00039a3a       __execute_onexit_table     1003aa3a f   libucrt:onexit.obj
 0001:00039a5e       __initialize_onexit_table  1003aa5e f   libucrt:onexit.obj
 0001:00039aaa       __register_onexit_function 1003aaaa f   libucrt:onexit.obj
 0001:00039c11       ?initialize@?$dual_state_global@PAU__crt_locale_data@@@__crt_state_management@@QAEXQAU__crt_locale_data@@@Z 1003ac11 f i libucrt:initialization.obj
 0001:00039c4e       ___acrt_initialize         1003ac4e f   libucrt:initialization.obj
 0001:00039c64       ___acrt_thread_attach      1003ac64 f   libucrt:initialization.obj
 0001:00039c71       ___acrt_thread_detach      1003ac71 f   libucrt:initialization.obj
 0001:00039c7b       ___acrt_uninitialize       1003ac7b f   libucrt:initialization.obj
 0001:00039c91       ___acrt_uninitialize_critical 1003ac91 f   libucrt:initialization.obj
 0001:00039cc2       __get_terminate            1003acc2 f   libucrt:terminate.obj
 0001:00039cd8       _set_terminate             1003acd8 f   libucrt:terminate.obj
 0001:00039d00       _terminate                 1003ad00 f   libucrt:terminate.obj
 0001:00039d4b       ??$__crt_interlocked_exchange_pointer@X$$T@@YAPAXPDSAX$$T@Z 1003ad4b f i libucrt:free_base.obj
 0001:00039d63       ___acrt_get_msvcrt_heap_handle 1003ad63 f   libucrt:free_base.obj
 0001:00039df4       __free_base                1003adf4 f   libucrt:free_base.obj
 0001:00039e3c       __malloc_base              1003ae3c f   libucrt:malloc_base.obj
 0001:00039f0d       _strcpy_s                  1003af0d f   libucrt:strcpy_s.obj
 0001:00039f7d       __set_abort_behavior       1003af7d f   libucrt:abort.obj
 0001:00039fa6       _abort                     1003afa6 f   libucrt:abort.obj
 0001:00039ff9       __calloc_base              1003aff9 f   libucrt:calloc_base.obj
 0001:0003a06d       ??$is_overflow_condition@K@__crt_strtox@@YA_NIK@Z 1003b06d f i libucrt:atox.obj
 0001:0003a0ac       ??$is_overflow_condition@_K@__crt_strtox@@YA_NI_K@Z 1003b0ac f i libucrt:atox.obj
 0001:0003a0ff       ??$make_c_string_character_source@D$$T@__crt_strtox@@YA?AV?$c_string_character_source@D@0@QBD$$T@Z 1003b0ff f i libucrt:atox.obj
 0001:0003a120       ??$make_c_string_character_source@_W$$T@__crt_strtox@@YA?AV?$c_string_character_source@_W@0@QB_W$$T@Z 1003b120 f i libucrt:atox.obj
 0001:0003a141       ??$parse_integer@KV?$c_string_character_source@D@__crt_strtox@@@__crt_strtox@@YAKQAU__crt_locale_pointers@@V?$c_string_character_source@D@0@H_N@Z 1003b141 f i libucrt:atox.obj
 0001:0003a3f3       ??$parse_integer@KV?$c_string_character_source@_W@__crt_strtox@@@__crt_strtox@@YAKQAU__crt_locale_pointers@@V?$c_string_character_source@_W@0@H_N@Z 1003b3f3 f i libucrt:atox.obj
 0001:0003ac91       ??$parse_integer@_KV?$c_string_character_source@D@__crt_strtox@@@__crt_strtox@@YA_KQAU__crt_locale_pointers@@V?$c_string_character_source@D@0@H_N@Z 1003bc91 f i libucrt:atox.obj
 0001:0003afe0       ??$parse_integer@_KV?$c_string_character_source@_W@__crt_strtox@@@__crt_strtox@@YA_KQAU__crt_locale_pointers@@V?$c_string_character_source@_W@0@H_N@Z 1003bfe0 f i libucrt:atox.obj
 0001:0003b752       ??$parse_integer_from_string@JD$$T@__crt_strtox@@YAJQBD$$THQAU__crt_locale_pointers@@@Z 1003c752 f i libucrt:atox.obj
 0001:0003b78a       ??$parse_integer_from_string@J_W$$T@__crt_strtox@@YAJQB_W$$THQAU__crt_locale_pointers@@@Z 1003c78a f i libucrt:atox.obj
 0001:0003b7c2       ??$parse_integer_from_string@_JD$$T@__crt_strtox@@YA_JQBD$$THQAU__crt_locale_pointers@@@Z 1003c7c2 f i libucrt:atox.obj
 0001:0003b7fa       ??$parse_integer_from_string@_J_W$$T@__crt_strtox@@YA_JQB_W$$THQAU__crt_locale_pointers@@@Z 1003c7fa f i libucrt:atox.obj
 0001:0003b832       ??0?$c_string_character_source@D@__crt_strtox@@QAE@QBDQAPBD@Z 1003c832 f i libucrt:atox.obj
 0001:0003b855       ??0?$c_string_character_source@_W@__crt_strtox@@QAE@QB_WQAPB_W@Z 1003c855 f i libucrt:atox.obj
 0001:0003b878       ??1?$c_string_character_source@D@__crt_strtox@@QAE@XZ 1003c878 f i libucrt:atox.obj
 0001:0003b887       ??1?$c_string_character_source@_W@__crt_strtox@@QAE@XZ 1003c887 f i libucrt:atox.obj
 0001:0003b896       ?get@?$c_string_character_source@D@__crt_strtox@@QAEDXZ 1003c896 f i libucrt:atox.obj
 0001:0003b8a0       ?get@?$c_string_character_source@_W@__crt_strtox@@QAE_WXZ 1003c8a0 f i libucrt:atox.obj
 0001:0003b8ad       ?is_space@__crt_strtox@@YA_NDQAU__crt_locale_pointers@@@Z 1003c8ad f i libucrt:atox.obj
 0001:0003b8d3       ?is_space@__crt_strtox@@YA_N_WPAU__crt_locale_pointers@@@Z 1003c8d3 f i libucrt:atox.obj
 0001:0003b8f2       ?maximum_signed_value@__crt_strtox@@YAJK@Z 1003c8f2 f i libucrt:atox.obj
 0001:0003b8f8       ?maximum_signed_value@__crt_strtox@@YA_J_K@Z 1003c8f8 f i libucrt:atox.obj
 0001:0003b903       ?minimum_signed_value@__crt_strtox@@YAJK@Z 1003c903 f i libucrt:atox.obj
 0001:0003b909       ?minimum_signed_value@__crt_strtox@@YA_J_K@Z 1003c909 f i libucrt:atox.obj
 0001:0003b913       ?parse_digit@__crt_strtox@@YAID@Z 1003c913 f i libucrt:atox.obj
 0001:0003b95b       ?parse_digit@__crt_strtox@@YAI_W@Z 1003c95b f i libucrt:atox.obj
 0001:0003bbb8       ?restore_state@?$c_string_character_source@D@__crt_strtox@@QAE_NQBD@Z 1003cbb8 f i libucrt:atox.obj
 0001:0003bbcc       ?restore_state@?$c_string_character_source@_W@__crt_strtox@@QAE_NQB_W@Z 1003cbcc f i libucrt:atox.obj
 0001:0003bbe0       ?save_state@?$c_string_character_source@D@__crt_strtox@@QBEPBDXZ 1003cbe0 f i libucrt:atox.obj
 0001:0003bbe3       ?save_state@?$c_string_character_source@_W@__crt_strtox@@QBEPB_WXZ 1003cbe3 f i libucrt:atox.obj
 0001:0003bbe6       ?unget@?$c_string_character_source@D@__crt_strtox@@QAEXD@Z 1003cbe6 f i libucrt:atox.obj
 0001:0003bc18       ?unget@?$c_string_character_source@_W@__crt_strtox@@QAEX_W@Z 1003cc18 f i libucrt:atox.obj
 0001:0003bc4f       ?validate@?$c_string_character_source@D@__crt_strtox@@QBE_NXZ 1003cc4f f i libucrt:atox.obj
 0001:0003bc70       ?validate@?$c_string_character_source@_W@__crt_strtox@@QBE_NXZ 1003cc70 f i libucrt:atox.obj
 0001:0003bc91       ?wide_character_to_digit@__crt_strtox@@YAH_W@Z 1003cc91 f i libucrt:atox.obj
 0001:0003be9a       ___acrt_get_locale_data_prefix 1003ce9a f i libucrt:atox.obj
 0001:0003bea9       __atoi64                   1003cea9 f   libucrt:atox.obj
 0001:0003bedd       __atoi64_l                 1003cedd f   libucrt:atox.obj
 0001:0003bf12       __atoi_l                   1003cf12 f   libucrt:atox.obj
 0001:0003bf47       __atol_l                   1003cf47 f   libucrt:atox.obj
 0001:0003bf7c       __atoll_l                  1003cf7c f   libucrt:atox.obj
 0001:0003bfb1       __chvalidchk_l             1003cfb1 f i libucrt:atox.obj
 0001:0003bfe5       __ischartype_l             1003cfe5 f i libucrt:atox.obj
 0001:0003c024       __wtoi                     1003d024 f   libucrt:atox.obj
 0001:0003c058       __wtoi64                   1003d058 f   libucrt:atox.obj
 0001:0003c08c       __wtoi64_l                 1003d08c f   libucrt:atox.obj
 0001:0003c0c1       __wtoi_l                   1003d0c1 f   libucrt:atox.obj
 0001:0003c0f6       __wtol                     1003d0f6 f   libucrt:atox.obj
 0001:0003c12a       __wtol_l                   1003d12a f   libucrt:atox.obj
 0001:0003c15f       __wtoll                    1003d15f f   libucrt:atox.obj
 0001:0003c193       __wtoll_l                  1003d193 f   libucrt:atox.obj
 0001:0003c1c8       _atoi                      1003d1c8 f   libucrt:atox.obj
 0001:0003c1fc       _atol                      1003d1fc f   libucrt:atox.obj
 0001:0003c230       _atoll                     1003d230 f   libucrt:atox.obj
 0001:0003c264       ??$__crt_fast_decode_pointer@P6AXPB_W00II@Z@@YAP6AXPB_W00II@ZQ6AX000II@Z@Z 1003d264 f i libucrt:invalid_parameter.obj
 0001:0003c27f       ??$__crt_fast_encode_pointer@P6AXPB_W00II@Z@@YAP6AXPB_W00II@ZQ6AX000II@Z@Z 1003d27f f i libucrt:invalid_parameter.obj
 0001:0003c2a5       ?initialize@?$dual_state_global@P6AXPB_W00II@Z@__crt_state_management@@QAEXQ6AXPB_W00II@Z@Z 1003d2a5 f i libucrt:invalid_parameter.obj
 0001:0003c2e2       ?value@?$dual_state_global@P6AXPB_W00II@Z@__crt_state_management@@QAEAAP6AXPB_W00II@ZXZ 1003d2e2 f i libucrt:invalid_parameter.obj
 0001:0003c2e5       ___acrt_call_reportfault   1003d2e5 f   libucrt:invalid_parameter.obj
 0001:0003c46e       ___acrt_initialize_invalid_parameter_handler 1003d46e f   libucrt:invalid_parameter.obj
 0001:0003c487       __get_invalid_parameter_handler 1003d487 f   libucrt:invalid_parameter.obj
 0001:0003c49e       __get_thread_local_invalid_parameter_handler 1003d49e f   libucrt:invalid_parameter.obj
 0001:0003c4b3       __invalid_parameter        1003d4b3 f   libucrt:invalid_parameter.obj
 0001:0003c54c       __invalid_parameter_noinfo 1003d54c f   libucrt:invalid_parameter.obj
 0001:0003c560       __invalid_parameter_noinfo_noreturn 1003d560 f   libucrt:invalid_parameter.obj
 0001:0003c584       __invoke_watson            1003d584 f   libucrt:invalid_parameter.obj
 0001:0003c5c3       __set_invalid_parameter_handler 1003d5c3 f   libucrt:invalid_parameter.obj
 0001:0003c5ff       __set_thread_local_invalid_parameter_handler 1003d5ff f   libucrt:invalid_parameter.obj
 0001:0003c623       ___acrt_errno_from_os_error 1003d623 f   libucrt:errno.obj
 0001:0003c676       ___acrt_errno_map_os_error 1003d676 f   libucrt:errno.obj
 0001:0003c6a1       ___doserrno                1003d6a1 f   libucrt:errno.obj
 0001:0003c6b8       __errno                    1003d6b8 f   libucrt:errno.obj
 0001:0003c6cf       __get_doserrno             1003d6cf f   libucrt:errno.obj
 0001:0003c6fd       __get_errno                1003d6fd f   libucrt:errno.obj
 0001:0003c72b       __set_doserrno             1003d72b f   libucrt:errno.obj
 0001:0003c754       __set_errno                1003d754 f   libucrt:errno.obj
 0001:0003c7d4       ??$?B$$A6GHPA_WKJ@Z@__crt_fast_encoded_nullptr_t@@QBEP6GHPA_WKJ@ZXZ 1003d7d4 f i libucrt:winapi_thunks.obj
 0001:0003c7f2       ??$?RV<lambda_9227be29367c048ad7fd93a717dcb1a1>@@AAV<lambda_a463b7b0560cfcaf9b17f27c6ef46564>@@V<lambda_ccea11b5727ccf69be64f5f5d9a08d9f>@@@?$__crt_seh_guarded_call@H@@QAEH$$QAV<lambda_9227be29367c048ad7fd93a717dcb1a1>@@AAV<lambda_a463b7b0560cfcaf9b17f27c6ef46564>@@$$QAV<lambda_ccea11b5727ccf69be64f5f5d9a08d9f>@@@Z 1003d7f2 f i libucrt:winapi_thunks.obj
 0001:0003c897       ??$__acrt_lock_and_call@V<lambda_a463b7b0560cfcaf9b17f27c6ef46564>@@@@YAHW4__acrt_lock_id@@$$QAV<lambda_a463b7b0560cfcaf9b17f27c6ef46564>@@@Z 1003d897 f i libucrt:winapi_thunks.obj
 0001:0003c8c9       ??$__crt_fast_decode_pointer@P6GHPA_WKJ@Z@@YAP6GHPA_WKJ@ZQ6GH0KJ@Z@Z 1003d8c9 f i libucrt:winapi_thunks.obj
 0001:0003c8e4       ??$__crt_fast_encode_pointer@P6GHPA_WKJ@Z@@YAP6GHPA_WKJ@ZQ6GH0KJ@Z@Z 1003d8e4 f i libucrt:winapi_thunks.obj
 0001:0003d011       ___acrt_AreFileApisANSI@0  1003e011 f   libucrt:winapi_thunks.obj
 0001:0003d072       ___acrt_CompareStringEx@36 1003e072 f   libucrt:winapi_thunks.obj
 0001:0003d103       ___acrt_EnumSystemLocalesEx@16 1003e103 f   libucrt:winapi_thunks.obj
 0001:0003d18b       ___acrt_FlsAlloc@4         1003e18b f   libucrt:winapi_thunks.obj
 0001:0003d1f6       ___acrt_FlsFree@4          1003e1f6 f   libucrt:winapi_thunks.obj
 0001:0003d261       ___acrt_FlsGetValue@4      1003e261 f   libucrt:winapi_thunks.obj
 0001:0003d2cc       ___acrt_FlsSetValue@8      1003e2cc f   libucrt:winapi_thunks.obj
 0001:0003d33b       ___acrt_GetDateFormatEx@28 1003e33b f   libucrt:winapi_thunks.obj
 0001:0003d3dd       ___acrt_GetEnabledXStateFeatures@0 1003e3dd f   libucrt:winapi_thunks.obj
 0001:0003d43f       ___acrt_GetFileInformationByHandleEx@16 1003e43f f   libucrt:winapi_thunks.obj
 0001:0003d4ba       ___acrt_GetLocaleInfoEx@16 1003e4ba f   libucrt:winapi_thunks.obj
 0001:0003d53e       ___acrt_GetSystemTimePreciseAsFileTime@4 1003e53e f   libucrt:winapi_thunks.obj
 0001:0003d5a9       ___acrt_GetTimeFormatEx@24 1003e5a9 f   libucrt:winapi_thunks.obj
 0001:0003d635       ___acrt_GetUserDefaultLocaleName@8 1003e635 f   libucrt:winapi_thunks.obj
 0001:0003d6b5       ___acrt_GetXStateFeaturesMask@8 1003e6b5 f   libucrt:winapi_thunks.obj
 0001:0003d721       ___acrt_InitializeCriticalSectionEx@12 1003e721 f   libucrt:winapi_thunks.obj
 0001:0003d79b       ___acrt_IsValidLocaleName@4 1003e79b f   libucrt:winapi_thunks.obj
 0001:0003d816       ___acrt_LCIDToLocaleName@16 1003e816 f   libucrt:winapi_thunks.obj
 0001:0003d89a       ___acrt_LCMapStringEx@36   1003e89a f   libucrt:winapi_thunks.obj
 0001:0003d944       ___acrt_LocaleNameToLCID@8 1003e944 f   libucrt:winapi_thunks.obj
 0001:0003d9b7       ___acrt_LocateXStateFeature@12 1003e9b7 f   libucrt:winapi_thunks.obj
 0001:0003da0e       ___acrt_MessageBoxA@16     1003ea0e f   libucrt:winapi_thunks.obj
 0001:0003da69       ___acrt_MessageBoxW@16     1003ea69 f   libucrt:winapi_thunks.obj
 0001:0003dac4       ___acrt_RoInitialize@4     1003eac4 f   libucrt:winapi_thunks.obj
 0001:0003db2a       ___acrt_RoUninitialize@0   1003eb2a f   libucrt:winapi_thunks.obj
 0001:0003db85       ___acrt_RtlGenRandom@8     1003eb85 f   libucrt:winapi_thunks.obj
 0001:0003dbf1       ___acrt_SetThreadStackGuarantee@4 1003ebf1 f   libucrt:winapi_thunks.obj
 0001:0003dc57       ___acrt_can_show_message_box 1003ec57 f   libucrt:winapi_thunks.obj
 0001:0003dc76       ___acrt_can_use_vista_locale_apis 1003ec76 f   libucrt:winapi_thunks.obj
 0001:0003dc85       ___acrt_can_use_xstate_apis 1003ec85 f   libucrt:winapi_thunks.obj
 0001:0003dc94       ___acrt_get_parent_window  1003ec94 f   libucrt:winapi_thunks.obj
 0001:0003dd32       ___acrt_initialize_winapi_thunks 1003ed32 f   libucrt:winapi_thunks.obj
 0001:0003dd61       ___acrt_is_interactive     1003ed61 f   libucrt:winapi_thunks.obj
 0001:0003de30       ___acrt_is_packaged_app    1003ee30 f   libucrt:winapi_thunks.obj
 0001:0003ded8       ___acrt_uninitialize_winapi_thunks 1003eed8 f   libucrt:winapi_thunks.obj
 0001:0003df1b       ??0__crt_stdio_stream@@QAE@QAU__crt_stdio_stream_data@@@Z 1003ef1b f i libucrt:closeall.obj
 0001:0003df2f       __fcloseall                1003ef2f f   libucrt:closeall.obj
 0001:0003dff7       ___acrt_stdio_flush_nolock 1003eff7 f   libucrt:fflush.obj
 0001:0003e076       __fflush_nolock            1003f076 f   libucrt:fflush.obj
 0001:0003e0ce       __flushall                 1003f0ce f   libucrt:fflush.obj
 0001:0003e1e7       _fflush                    1003f1e7 f   libucrt:fflush.obj
 0001:0003e256       ?has_crt_buffer@__crt_stdio_stream@@QBE_NXZ 1003f256 f i libucrt:_freebuf.obj
 0001:0003e265       ___acrt_stdio_free_buffer_nolock 1003f265 f   libucrt:_freebuf.obj
 0001:0003e4a2       ___acrt_initialize_lowio   1003f4a2 f   libucrt:ioinit.obj
 0001:0003e50d       ___acrt_uninitialize_lowio 1003f50d f   libucrt:ioinit.obj
 0001:0003e55f       ___isascii                 1003f55f f i libucrt:_ctype.obj
 0001:0003e575       ___iscsym                  1003f575 f i libucrt:_ctype.obj
 0001:0003e59f       ___iscsymf                 1003f59f f i libucrt:_ctype.obj
 0001:0003e5c5       ___toascii                 1003f5c5 f i libucrt:_ctype.obj
 0001:0003e5d5       __isalnum_l                1003f5d5 f i libucrt:_ctype.obj
 0001:0003e61e       __isalpha_l                1003f61e f i libucrt:_ctype.obj
 0001:0003e667       __isblank_l                1003f667 f i libucrt:_ctype.obj
 0001:0003e6ba       __iscntrl_l                1003f6ba f i libucrt:_ctype.obj
 0001:0003e700       __iscsym_l                 1003f700 f i libucrt:_ctype.obj
 0001:0003e72b       __iscsymf_l                1003f72b f i libucrt:_ctype.obj
 0001:0003e756       __isdigit_l                1003f756 f i libucrt:_ctype.obj
 0001:0003e79c       __isgraph_l                1003f79c f i libucrt:_ctype.obj
 0001:0003e7e5       __islower_l                1003f7e5 f i libucrt:_ctype.obj
 0001:0003e82b       __isprint_l                1003f82b f i libucrt:_ctype.obj
 0001:0003e874       __ispunct_l                1003f874 f i libucrt:_ctype.obj
 0001:0003e8ba       __isspace_l                1003f8ba f i libucrt:_ctype.obj
 0001:0003e900       __isupper_l                1003f900 f i libucrt:_ctype.obj
 0001:0003e946       __isxdigit_l               1003f946 f i libucrt:_ctype.obj
 0001:0003e98f       _isalnum                   1003f98f f i libucrt:_ctype.obj
 0001:0003e9c9       _isalpha                   1003f9c9 f i libucrt:_ctype.obj
 0001:0003ea03       _isblank                   1003fa03 f i libucrt:_ctype.obj
 0001:0003ea47       _iscntrl                   1003fa47 f i libucrt:_ctype.obj
 0001:0003ea7f       _isdigit                   1003fa7f f i libucrt:_ctype.obj
 0001:0003eab7       _isgraph                   1003fab7 f i libucrt:_ctype.obj
 0001:0003eaf1       _islower                   1003faf1 f i libucrt:_ctype.obj
 0001:0003eb29       _isprint                   1003fb29 f i libucrt:_ctype.obj
 0001:0003eb63       _ispunct                   1003fb63 f i libucrt:_ctype.obj
 0001:0003eb9b       _isspace                   1003fb9b f i libucrt:_ctype.obj
 0001:0003ebd3       _isupper                   1003fbd3 f i libucrt:_ctype.obj
 0001:0003ec0b       _isxdigit                  1003fc0b f i libucrt:_ctype.obj
 0001:0003f003       __tolower                  10040003 f   libucrt:tolower_toupper.obj
 0001:0003f013       __tolower_l                10040013 f   libucrt:tolower_toupper.obj
 0001:0003f033       __toupper                  10040033 f   libucrt:tolower_toupper.obj
 0001:0003f043       __toupper_l                10040043 f   libucrt:tolower_toupper.obj
 0001:0003f063       _tolower                   10040063 f   libucrt:tolower_toupper.obj
 0001:0003f09f       _toupper                   1004009f f   libucrt:tolower_toupper.obj
 0001:0003f0db       ??$make_c_string_character_source@DPAPAD@__crt_strtox@@YA?AV?$c_string_character_source@D@0@QBDQAPAD@Z 100400db f i libucrt:strtox.obj
 0001:0003f0fc       ??$make_c_string_character_source@_WPAPA_W@__crt_strtox@@YA?AV?$c_string_character_source@_W@0@QB_WQAPA_W@Z 100400fc f i libucrt:strtox.obj
 0001:0003f11d       ??$parse_integer_from_string@JDPAPAD@__crt_strtox@@YAJQBDQAPADHQAU__crt_locale_pointers@@@Z 1004011d f i libucrt:strtox.obj
 0001:0003f155       ??$parse_integer_from_string@J_WPAPA_W@__crt_strtox@@YAJQB_WQAPA_WHQAU__crt_locale_pointers@@@Z 10040155 f i libucrt:strtox.obj
 0001:0003f18d       ??$parse_integer_from_string@KDPAPAD@__crt_strtox@@YAKQBDQAPADHQAU__crt_locale_pointers@@@Z 1004018d f i libucrt:strtox.obj
 0001:0003f1c5       ??$parse_integer_from_string@K_WPAPA_W@__crt_strtox@@YAKQB_WQAPA_WHQAU__crt_locale_pointers@@@Z 100401c5 f i libucrt:strtox.obj
 0001:0003f1fd       ??$parse_integer_from_string@_JDPAPAD@__crt_strtox@@YA_JQBDQAPADHQAU__crt_locale_pointers@@@Z 100401fd f i libucrt:strtox.obj
 0001:0003f235       ??$parse_integer_from_string@_J_WPAPA_W@__crt_strtox@@YA_JQB_WQAPA_WHQAU__crt_locale_pointers@@@Z 10040235 f i libucrt:strtox.obj
 0001:0003f26d       ??$parse_integer_from_string@_KDPAPAD@__crt_strtox@@YA_KQBDQAPADHQAU__crt_locale_pointers@@@Z 1004026d f i libucrt:strtox.obj
 0001:0003f2a5       ??$parse_integer_from_string@_K_WPAPA_W@__crt_strtox@@YA_KQB_WQAPA_WHQAU__crt_locale_pointers@@@Z 100402a5 f i libucrt:strtox.obj
 0001:0003f2dd       __strtoi64                 100402dd f   libucrt:strtox.obj
 0001:0003f314       __strtoi64_l               10040314 f   libucrt:strtox.obj
 0001:0003f34c       __strtoimax_l              1004034c f   libucrt:strtox.obj
 0001:0003f384       __strtol_l                 10040384 f   libucrt:strtox.obj
 0001:0003f3bc       __strtoll_l                100403bc f   libucrt:strtox.obj
 0001:0003f3f4       __strtoui64                100403f4 f   libucrt:strtox.obj
 0001:0003f42b       __strtoui64_l              1004042b f   libucrt:strtox.obj
 0001:0003f463       __strtoul_l                10040463 f   libucrt:strtox.obj
 0001:0003f49b       __strtoull_l               1004049b f   libucrt:strtox.obj
 0001:0003f4d3       __strtoumax_l              100404d3 f   libucrt:strtox.obj
 0001:0003f50b       __wcstoi64                 1004050b f   libucrt:strtox.obj
 0001:0003f542       __wcstoi64_l               10040542 f   libucrt:strtox.obj
 0001:0003f57a       __wcstoimax_l              1004057a f   libucrt:strtox.obj
 0001:0003f5b2       __wcstol_l                 100405b2 f   libucrt:strtox.obj
 0001:0003f5ea       __wcstoll_l                100405ea f   libucrt:strtox.obj
 0001:0003f622       __wcstoui64                10040622 f   libucrt:strtox.obj
 0001:0003f659       __wcstoui64_l              10040659 f   libucrt:strtox.obj
 0001:0003f691       __wcstoul_l                10040691 f   libucrt:strtox.obj
 0001:0003f6c9       __wcstoull_l               100406c9 f   libucrt:strtox.obj
 0001:0003f701       __wcstoumax_l              10040701 f   libucrt:strtox.obj
 0001:0003f739       _strtoimax                 10040739 f   libucrt:strtox.obj
 0001:0003f770       _strtol                    10040770 f   libucrt:strtox.obj
 0001:0003f7a7       _strtoll                   100407a7 f   libucrt:strtox.obj
 0001:0003f7de       _strtoul                   100407de f   libucrt:strtox.obj
 0001:0003f815       _strtoull                  10040815 f   libucrt:strtox.obj
 0001:0003f84c       _strtoumax                 1004084c f   libucrt:strtox.obj
 0001:0003f883       _wcstoimax                 10040883 f   libucrt:strtox.obj
 0001:0003f8ba       _wcstol                    100408ba f   libucrt:strtox.obj
 0001:0003f8f1       _wcstoll                   100408f1 f   libucrt:strtox.obj
 0001:0003f928       _wcstoul                   10040928 f   libucrt:strtox.obj
 0001:0003f95f       _wcstoull                  1004095f f   libucrt:strtox.obj
 0001:0003f996       _wcstoumax                 10040996 f   libucrt:strtox.obj
 0001:0003f9cd       __mbtowc_l                 100409cd f   libucrt:mbtowc.obj
 0001:0003fb05       _mbtowc                    10040b05 f   libucrt:mbtowc.obj
 0001:0003fb25       __wctomb_l                 10040b25 f   libucrt:wctomb.obj
 0001:0003fb8c       __wctomb_s_l               10040b8c f   libucrt:wctomb.obj
 0001:0003fcf5       _wctomb                    10040cf5 f   libucrt:wctomb.obj
 0001:0003fd36       _wctomb_s                  10040d36 f   libucrt:wctomb.obj
 0001:0004044e       ??1?$__crt_simd_cleanup_guard@$00@@QAE@XZ 1004144e f i libucrt:strnlen.obj
 0001:00040452       ??1?$__crt_simd_cleanup_guard@$0A@@@QAE@XZ 10041452 f i libucrt:strnlen.obj
 0001:00040453       ?compare_equals@?$__crt_simd_traits@$00E@@SA?AT__m256i@@T2@0@Z 10041453 f i libucrt:strnlen.obj
 0001:00040458       ?compare_equals@?$__crt_simd_traits@$00G@@SA?AT__m256i@@T2@0@Z 10041458 f i libucrt:strnlen.obj
 0001:0004045d       ?compare_equals@?$__crt_simd_traits@$0A@E@@SA?AT__m128i@@T2@0@Z 1004145d f i libucrt:strnlen.obj
 0001:00040462       ?compare_equals@?$__crt_simd_traits@$0A@G@@SA?AT__m128i@@T2@0@Z 10041462 f i libucrt:strnlen.obj
 0001:00040467       ?compute_byte_mask@?$__crt_simd_pack_traits@$00@@SAHT__m256i@@@Z 10041467 f i libucrt:strnlen.obj
 0001:0004046c       ?compute_byte_mask@?$__crt_simd_pack_traits@$0A@@@SAHT__m128i@@@Z 1004146c f i libucrt:strnlen.obj
 0001:00040471       ?get_zero_pack@?$__crt_simd_pack_traits@$00@@SA?AT__m256i@@XZ 10041471 f i libucrt:strnlen.obj
 0001:00040476       ?get_zero_pack@?$__crt_simd_pack_traits@$0A@@@SA?AT__m128i@@XZ 10041476 f i libucrt:strnlen.obj
 0001:0004047b       _strnlen                   1004147b f   libucrt:strnlen.obj
 0001:000405eb       _wcsnlen                   100415eb f   libucrt:strnlen.obj
 0001:0004080f       ??$?RU__acrt_ptd@@@__crt_internal_free_policy@@QBEXQBU__acrt_ptd@@@Z 1004180f f i libucrt:per_thread_data.obj
 0001:00040825       ??$?RV<lambda_3518db117f0e7cdb002338c5d3c47b6c>@@AAV<lambda_b2ea41f6bbb362cd97d94c6828d90b61>@@V<lambda_abdedf541bb04549bc734292b4a045d4>@@@?$__crt_seh_guarded_call@X@@QAEX$$QAV<lambda_3518db117f0e7cdb002338c5d3c47b6c>@@AAV<lambda_b2ea41f6bbb362cd97d94c6828d90b61>@@$$QAV<lambda_abdedf541bb04549bc734292b4a045d4>@@@Z 10041825 f i libucrt:per_thread_data.obj
 0001:00040889       ??$?RV<lambda_51b6e8b1eb166f2a3faf91f424b38130>@@AAV<lambda_6250bd4b2a391816dd638c3bf72b0bcb>@@V<lambda_0b5a4a3e68152e1d9b943535f5f47bed>@@@?$__crt_seh_guarded_call@X@@QAEX$$QAV<lambda_51b6e8b1eb166f2a3faf91f424b38130>@@AAV<lambda_6250bd4b2a391816dd638c3bf72b0bcb>@@$$QAV<lambda_0b5a4a3e68152e1d9b943535f5f47bed>@@@Z 10041889 f i libucrt:per_thread_data.obj
 0001:00040902       ??$?RV<lambda_5b71d36f03204c0beab531769a5b5694>@@AAV<lambda_be2b3da3f62db62e9dad5dc70221a656>@@V<lambda_8f9ce462984622f9bf76b59e2aaaf805>@@@?$__crt_seh_guarded_call@X@@QAEX$$QAV<lambda_5b71d36f03204c0beab531769a5b5694>@@AAV<lambda_be2b3da3f62db62e9dad5dc70221a656>@@$$QAV<lambda_8f9ce462984622f9bf76b59e2aaaf805>@@@Z 10041902 f i libucrt:per_thread_data.obj
 0001:0004095f       ??$?RV<lambda_9df27f884b057bc3edfc946cb5b7cf47>@@AAV<lambda_e69574bed617af4e071282c136b37893>@@V<lambda_cc0d902bcbbeb830f749456577db4721>@@@?$__crt_seh_guarded_call@X@@QAEX$$QAV<lambda_9df27f884b057bc3edfc946cb5b7cf47>@@AAV<lambda_e69574bed617af4e071282c136b37893>@@$$QAV<lambda_cc0d902bcbbeb830f749456577db4721>@@@Z 1004195f f i libucrt:per_thread_data.obj
 0001:000409b9       ??$__acrt_lock_and_call@V<lambda_6250bd4b2a391816dd638c3bf72b0bcb>@@@@YAXW4__acrt_lock_id@@$$QAV<lambda_6250bd4b2a391816dd638c3bf72b0bcb>@@@Z 100419b9 f i libucrt:per_thread_data.obj
 0001:000409eb       ??$__acrt_lock_and_call@V<lambda_b2ea41f6bbb362cd97d94c6828d90b61>@@@@YAXW4__acrt_lock_id@@$$QAV<lambda_b2ea41f6bbb362cd97d94c6828d90b61>@@@Z 100419eb f i libucrt:per_thread_data.obj
 0001:00040a1d       ??$__acrt_lock_and_call@V<lambda_be2b3da3f62db62e9dad5dc70221a656>@@@@YAXW4__acrt_lock_id@@$$QAV<lambda_be2b3da3f62db62e9dad5dc70221a656>@@@Z 10041a1d f i libucrt:per_thread_data.obj
 0001:00040a4f       ??$__acrt_lock_and_call@V<lambda_e69574bed617af4e071282c136b37893>@@@@YAXW4__acrt_lock_id@@$$QAV<lambda_e69574bed617af4e071282c136b37893>@@@Z 10041a4f f i libucrt:per_thread_data.obj
 0001:00040b88       ??0?$__crt_unique_heap_ptr@U__acrt_ptd@@U__crt_internal_free_policy@@@@QAE@QAU__acrt_ptd@@@Z 10041b88 f i libucrt:per_thread_data.obj
 0001:00040b9c       ??0__crt_scoped_get_last_error_reset@@QAE@XZ 10041b9c f i libucrt:per_thread_data.obj
 0001:00040bb1       ??1?$__crt_unique_heap_ptr@U__acrt_ptd@@U__crt_internal_free_policy@@@@QAE@XZ 10041bb1 f i libucrt:per_thread_data.obj
 0001:00040bc7       ??1__crt_scoped_get_last_error_reset@@QAE@XZ 10041bc7 f i libucrt:per_thread_data.obj
 0001:00040bd2       ??B?$__crt_unique_heap_ptr@U__acrt_ptd@@U__crt_internal_free_policy@@@@QBE_NXZ 10041bd2 f i libucrt:per_thread_data.obj
 0001:00040d48       ?dangerous_get_state_array@?$dual_state_global@PAU__crt_locale_data@@@__crt_state_management@@QAEPAPAU__crt_locale_data@@XZ 10041d48 f i libucrt:per_thread_data.obj
 0001:00040e4c       ?detach@?$__crt_unique_heap_ptr@U__acrt_ptd@@U__crt_internal_free_policy@@@@QAEPAU__acrt_ptd@@XZ 10041e4c f i libucrt:per_thread_data.obj
 0001:00040e52       ?get@?$__crt_unique_heap_ptr@U__acrt_ptd@@U__crt_internal_free_policy@@@@QBEPAU__acrt_ptd@@XZ 10041e52 f i libucrt:per_thread_data.obj
 0001:00040f61       ?is_valid@?$__crt_unique_heap_ptr@U__acrt_ptd@@U__crt_internal_free_policy@@@@QBE_NXZ 10041f61 f i libucrt:per_thread_data.obj
 0001:00040f6b       ?release@?$__crt_unique_heap_ptr@U__acrt_ptd@@U__crt_internal_free_policy@@@@QAEXXZ 10041f6b f i libucrt:per_thread_data.obj
 0001:00040ff7       ?value@?$dual_state_global@PAU__crt_locale_data@@@__crt_state_management@@QAEAAPAU__crt_locale_data@@XZ 10041ff7 f i libucrt:per_thread_data.obj
 0001:00040ffa       ___acrt_freeptd            10041ffa f   libucrt:per_thread_data.obj
 0001:00041031       ___acrt_getptd             10042031 f   libucrt:per_thread_data.obj
 0001:000410d6       ___acrt_getptd_noexit      100420d6 f   libucrt:per_thread_data.obj
 0001:0004117c       ___acrt_initialize_ptd     1004217c f   libucrt:per_thread_data.obj
 0001:000411b3       ___acrt_uninitialize_ptd   100421b3 f   libucrt:per_thread_data.obj
 0001:000411d3       ___threadhandle            100421d3 f   libucrt:per_thread_data.obj
 0001:000411d9       ___threadid                100421d9 f   libucrt:per_thread_data.obj
 0001:000411df       ___acrt_update_locale_info 100421df f   libucrt:locale_update.obj
 0001:00041217       ___acrt_update_multibyte_info 10042217 f   libucrt:locale_update.obj
 0001:0004124f       ?__acrt_fp_classify@@YA?AW4__acrt_fp_class@@ABN@Z 1004224f f i libucrt:cvt.obj
 0001:000412d6       ?__acrt_fp_is_negative@@YA_NABN@Z 100422d6 f i libucrt:cvt.obj
 0001:00041d49       ?strrchr@@YAPADQADH@Z      10042d49 f i libucrt:cvt.obj
 0001:00041d56       ___acrt_fp_format          10042d56 f   libucrt:cvt.obj
 0001:00041f30       __fputwc_nolock            10042f30 f   libucrt:fputwc.obj
 0001:0004209f       __fputwchar                1004309f f   libucrt:fputwc.obj
 0001:000420bf       __putwc_nolock             100430bf f   libucrt:fputwc.obj
 0001:000420cc       _fputwc                    100430cc f   libucrt:fputwc.obj
 0001:00042165       _putwc                     10043165 f   libucrt:fputwc.obj
 0001:00042172       _putwchar                  10043172 f   libucrt:fputwc.obj
 0001:0004217f       ?lowio_handle@__crt_stdio_stream@@QBEHXZ 1004317f f i libucrt:fileno.obj
 0001:00042185       __fileno                   10043185 f   libucrt:fileno.obj
 0001:000421b4       __fputc_nolock             100431b4 f   libucrt:fputc.obj
 0001:000421e7       __fputchar                 100431e7 f   libucrt:fputc.obj
 0001:00042207       __putc_nolock              10043207 f   libucrt:fputc.obj
 0001:00042214       _fputc                     10043214 f   libucrt:fputc.obj
 0001:00042359       _putc                      10043359 f   libucrt:fputc.obj
 0001:00042366       _putchar                   10043366 f   libucrt:fputc.obj
 0001:00042373       __get_printf_count_output  10043373 f   libucrt:printf_count_output.obj
 0001:0004238d       __set_printf_count_output  1004338d f   libucrt:printf_count_output.obj
 0001:000423c1       ?has_temporary_buffer@__crt_stdio_stream@@QBE_NXZ 100433c1 f i libucrt:_sftbuf.obj
 0001:000423d0       ___acrt_stdio_begin_temporary_buffering_nolock 100433d0 f   libucrt:_sftbuf.obj
 0001:000424b2       ___acrt_stdio_end_temporary_buffering_nolock 100434b2 f   libucrt:_sftbuf.obj
 0001:000424fc       ??$?RU__crt_locale_data@@@__crt_internal_free_policy@@QBEXQBU__crt_locale_data@@@Z 100434fc f i libucrt:wsetlocale.obj
 0001:00042512       ??$?RU__crt_locale_pointers@@@__crt_internal_free_policy@@QBEXQBU__crt_locale_pointers@@@Z 10043512 f i libucrt:wsetlocale.obj
 0001:00042528       ??$?RU__crt_multibyte_data@@@__crt_internal_free_policy@@QBEXQBU__crt_multibyte_data@@@Z 10043528 f i libucrt:wsetlocale.obj
 0001:0004253e       ??$?RV<lambda_70818de7b02deff9841e8b0962a60ed9>@@AAV<lambda_2af78c5f5901b1372d98f9ab3177dfa6>@@AAV<lambda_f51fe5fd7c79a33db34fc9310f277369>@@@?$__crt_seh_guarded_call@X@@QAEX$$QAV<lambda_70818de7b02deff9841e8b0962a60ed9>@@AAV<lambda_2af78c5f5901b1372d98f9ab3177dfa6>@@AAV<lambda_f51fe5fd7c79a33db34fc9310f277369>@@@Z 1004353e f i libucrt:wsetlocale.obj
 0001:00042587       ??$?RV<lambda_76aaead6e312921abc834cb00a638bdd>@@AAV<lambda_176e34f99554166dd2fac165c457248c>@@V<lambda_998ee1c9f4290b119b936bcd6215875a>@@@?$__crt_seh_guarded_call@X@@QAEX$$QAV<lambda_76aaead6e312921abc834cb00a638bdd>@@AAV<lambda_176e34f99554166dd2fac165c457248c>@@$$QAV<lambda_998ee1c9f4290b119b936bcd6215875a>@@@Z 10043587 f i libucrt:wsetlocale.obj
 0001:000425e3       ??$?RV<lambda_c76fdea48760d5f9368b465f31df4405>@@AAV<lambda_e378711a6f6581bf7f0efd7cdf97f5d9>@@V<lambda_e927a58b2a85c081d733e8c6192ae2d2>@@@?$__crt_seh_guarded_call@X@@QAEX$$QAV<lambda_c76fdea48760d5f9368b465f31df4405>@@AAV<lambda_e378711a6f6581bf7f0efd7cdf97f5d9>@@$$QAV<lambda_e927a58b2a85c081d733e8c6192ae2d2>@@@Z 100435e3 f i libucrt:wsetlocale.obj
 0001:00042636       ??$?RV<lambda_c9469061b39d205f0f236529d4a41659>@@AAV<lambda_b7fb1a997d3ebc0cc0186c5835178808>@@V<lambda_14b92c79d699846b5cc916cd4cf280e4>@@@?$__crt_seh_guarded_call@X@@QAEX$$QAV<lambda_c9469061b39d205f0f236529d4a41659>@@AAV<lambda_b7fb1a997d3ebc0cc0186c5835178808>@@$$QAV<lambda_14b92c79d699846b5cc916cd4cf280e4>@@@Z 10043636 f i libucrt:wsetlocale.obj
 0001:00042690       ??$__acrt_lock_and_call@V<lambda_176e34f99554166dd2fac165c457248c>@@@@YAXW4__acrt_lock_id@@$$QAV<lambda_176e34f99554166dd2fac165c457248c>@@@Z 10043690 f i libucrt:wsetlocale.obj
 0001:000426c2       ??$__acrt_lock_and_call@V<lambda_b7fb1a997d3ebc0cc0186c5835178808>@@@@YAXW4__acrt_lock_id@@$$QAV<lambda_b7fb1a997d3ebc0cc0186c5835178808>@@@Z 100436c2 f i libucrt:wsetlocale.obj
 0001:000426f4       ??$__acrt_lock_and_call@V<lambda_e378711a6f6581bf7f0efd7cdf97f5d9>@@@@YAXW4__acrt_lock_id@@$$QAV<lambda_e378711a6f6581bf7f0efd7cdf97f5d9>@@@Z 100436f4 f i libucrt:wsetlocale.obj
 0001:00042726       ??$__crt_call_and_cleanup@V<lambda_2af78c5f5901b1372d98f9ab3177dfa6>@@V<lambda_f51fe5fd7c79a33db34fc9310f277369>@@@@YAX$$QAV<lambda_2af78c5f5901b1372d98f9ab3177dfa6>@@$$QAV<lambda_f51fe5fd7c79a33db34fc9310f277369>@@@Z 10043726 f i libucrt:wsetlocale.obj
 0001:00042749       ??$__vcrt_va_start_verify_argument_type@H@@YAXXZ 10043749 f i libucrt:wsetlocale.obj
 0001:0004286e       ??0?$__crt_unique_heap_ptr@U__crt_locale_data@@U__crt_internal_free_policy@@@@QAE@QAU__crt_locale_data@@@Z 1004386e f i libucrt:wsetlocale.obj
 0001:00042882       ??0?$__crt_unique_heap_ptr@U__crt_locale_pointers@@U__crt_internal_free_policy@@@@QAE@QAU__crt_locale_pointers@@@Z 10043882 f i libucrt:wsetlocale.obj
 0001:00042896       ??0?$__crt_unique_heap_ptr@U__crt_multibyte_data@@U__crt_internal_free_policy@@@@QAE@QAU__crt_multibyte_data@@@Z 10043896 f i libucrt:wsetlocale.obj
 0001:000428aa       ??1?$__crt_unique_heap_ptr@U__crt_locale_data@@U__crt_internal_free_policy@@@@QAE@XZ 100438aa f i libucrt:wsetlocale.obj
 0001:000428c0       ??1?$__crt_unique_heap_ptr@U__crt_locale_pointers@@U__crt_internal_free_policy@@@@QAE@XZ 100438c0 f i libucrt:wsetlocale.obj
 0001:000428d6       ??1?$__crt_unique_heap_ptr@U__crt_multibyte_data@@U__crt_internal_free_policy@@@@QAE@XZ 100438d6 f i libucrt:wsetlocale.obj
 0001:000428ec       ??B?$__crt_unique_heap_ptr@U__crt_locale_data@@U__crt_internal_free_policy@@@@QBE_NXZ 100438ec f i libucrt:wsetlocale.obj
 0001:000428f6       ??B?$__crt_unique_heap_ptr@U__crt_locale_pointers@@U__crt_internal_free_policy@@@@QBE_NXZ 100438f6 f i libucrt:wsetlocale.obj
 0001:00042900       ??B?$__crt_unique_heap_ptr@U__crt_multibyte_data@@U__crt_internal_free_policy@@@@QBE_NXZ 10043900 f i libucrt:wsetlocale.obj
 0001:00042b29       ?detach@?$__crt_unique_heap_ptr@U__crt_locale_data@@U__crt_internal_free_policy@@@@QAEPAU__crt_locale_data@@XZ 10043b29 f i libucrt:wsetlocale.obj
 0001:00042b2f       ?detach@?$__crt_unique_heap_ptr@U__crt_locale_pointers@@U__crt_internal_free_policy@@@@QAEPAU__crt_locale_pointers@@XZ 10043b2f f i libucrt:wsetlocale.obj
 0001:00042b35       ?detach@?$__crt_unique_heap_ptr@U__crt_multibyte_data@@U__crt_internal_free_policy@@@@QAEPAU__crt_multibyte_data@@XZ 10043b35 f i libucrt:wsetlocale.obj
 0001:00042b3b       ?get@?$__crt_unique_heap_ptr@U__crt_locale_data@@U__crt_internal_free_policy@@@@QBEPAU__crt_locale_data@@XZ 10043b3b f i libucrt:wsetlocale.obj
 0001:00042b3e       ?get@?$__crt_unique_heap_ptr@U__crt_locale_pointers@@U__crt_internal_free_policy@@@@QBEPAU__crt_locale_pointers@@XZ 10043b3e f i libucrt:wsetlocale.obj
 0001:00042b41       ?get@?$__crt_unique_heap_ptr@U__crt_multibyte_data@@U__crt_internal_free_policy@@@@QBEPAU__crt_multibyte_data@@XZ 10043b41 f i libucrt:wsetlocale.obj
 0001:00042b44       ?is_valid@?$__crt_unique_heap_ptr@U__crt_locale_data@@U__crt_internal_free_policy@@@@QBE_NXZ 10043b44 f i libucrt:wsetlocale.obj
 0001:00042b4e       ?is_valid@?$__crt_unique_heap_ptr@U__crt_locale_pointers@@U__crt_internal_free_policy@@@@QBE_NXZ 10043b4e f i libucrt:wsetlocale.obj
 0001:00042b58       ?is_valid@?$__crt_unique_heap_ptr@U__crt_multibyte_data@@U__crt_internal_free_policy@@@@QBE_NXZ 10043b58 f i libucrt:wsetlocale.obj
 0001:00042b62       ?release@?$__crt_unique_heap_ptr@U__crt_locale_data@@U__crt_internal_free_policy@@@@QAEXXZ 10043b62 f i libucrt:wsetlocale.obj
 0001:00042b78       ?release@?$__crt_unique_heap_ptr@U__crt_locale_pointers@@U__crt_internal_free_policy@@@@QAEXXZ 10043b78 f i libucrt:wsetlocale.obj
 0001:00042b8e       ?release@?$__crt_unique_heap_ptr@U__crt_multibyte_data@@U__crt_internal_free_policy@@@@QAEXXZ 10043b8e f i libucrt:wsetlocale.obj
 0001:00042ba4       ___acrt_copy_locale_name   10043ba4 f   libucrt:wsetlocale.obj
 0001:00042c23       ___acrt_set_locale_changed 10043c23 f   libucrt:wsetlocale.obj
 0001:00042c30       ___acrt_uninitialize_locale 10043c30 f   libucrt:wsetlocale.obj
 0001:00042c96       ___lc_lctowcs              10043c96 f   libucrt:wsetlocale.obj
 0001:00042d22       ___lc_wcstolc              10043d22 f   libucrt:wsetlocale.obj
 0001:00042e9c       __configthreadlocale       10043e9c f   libucrt:wsetlocale.obj
 0001:00042f50       __create_locale            10043f50 f   libucrt:wsetlocale.obj
 0001:00042fcd       __expandlocale             10043fcd f   libucrt:wsetlocale.obj
 0001:00043421       __free_locale              10044421 f   libucrt:wsetlocale.obj
 0001:00043507       __get_current_locale       10044507 f   libucrt:wsetlocale.obj
 0001:000435a0       __wcreate_locale           100445a0 f   libucrt:wsetlocale.obj
 0001:000436eb       __wcscats                  100446eb f   libucrt:wsetlocale.obj
 0001:0004373c       __wsetlocale               1004473c f   libucrt:wsetlocale.obj
 0001:00044262       ___p___mb_cur_max          10045262 f   libucrt:nlsdata.obj
 0001:00044359       ___acrt_report_runtime_error 10045359 f   libucrt:report_runtime_error.obj
 0001:000444bf       __query_app_type           100454bf f   libucrt:report_runtime_error.obj
 0001:000444c5       __set_app_type             100454c5 f   libucrt:report_runtime_error.obj
 0001:000449b1       __i64toa                   100459b1 f   libucrt:xtoa.obj
 0001:00044a04       __i64toa_s                 10045a04 f   libucrt:xtoa.obj
 0001:00044a55       __i64tow                   10045a55 f   libucrt:xtoa.obj
 0001:00044aa8       __i64tow_s                 10045aa8 f   libucrt:xtoa.obj
 0001:00044af9       __itoa                     10045af9 f   libucrt:xtoa.obj
 0001:00044b3d       __itoa_s                   10045b3d f   libucrt:xtoa.obj
 0001:00044b7f       __itow                     10045b7f f   libucrt:xtoa.obj
 0001:00044bc3       __itow_s                   10045bc3 f   libucrt:xtoa.obj
 0001:00044c05       __ltoa                     10045c05 f   libucrt:xtoa.obj
 0001:00044c49       __ltoa_s                   10045c49 f   libucrt:xtoa.obj
 0001:00044c8b       __ltow                     10045c8b f   libucrt:xtoa.obj
 0001:00044ccf       __ltow_s                   10045ccf f   libucrt:xtoa.obj
 0001:00044d11       __ui64toa                  10045d11 f   libucrt:xtoa.obj
 0001:00044d3b       __ui64toa_s                10045d3b f   libucrt:xtoa.obj
 0001:00044d63       __ui64tow                  10045d63 f   libucrt:xtoa.obj
 0001:00044d8d       __ui64tow_s                10045d8d f   libucrt:xtoa.obj
 0001:00044db5       __ultoa                    10045db5 f   libucrt:xtoa.obj
 0001:00044ddb       __ultoa_s                  10045ddb f   libucrt:xtoa.obj
 0001:00044dff       __ultow                    10045dff f   libucrt:xtoa.obj
 0001:00044e25       __ultow_s                  10045e25 f   libucrt:xtoa.obj
 0001:00044e49       __set_error_mode           10045e49 f   libucrt:set_error_mode.obj
 0001:00044f25       _wcscat_s                  10045f25 f   libucrt:wcscat_s.obj
 0001:0004502f       _wcscpy_s                  1004602f f   libucrt:wcscpy_s.obj
 0001:000451cf       _wcsncat_s                 100461cf f   libucrt:wcsncat_s.obj
 0001:0004525f       _strcat_s                  1004625f f   libucrt:strcat_s.obj
 0001:000453e6       _strncat_s                 100463e6 f   libucrt:strncat_s.obj
 0001:00045611       ??$message_box@$$TAAPBDAAPBDAAI@?$__crt_char_traits@D@@SAH$$QA$$TAAPBD1AAI@Z 10046611 f i libucrt:crtmbox.obj
 0001:00045639       ??$message_box@$$TAAPB_WAAPB_WAAI@?$__crt_char_traits@_W@@SAH$$QA$$TAAPB_W1AAI@Z 10046639 f i libucrt:crtmbox.obj
 0001:00045661       ??$message_box@$$TABQBDABQBDK@?$__crt_char_traits@D@@SAH$$QA$$TABQBD1$$QAK@Z 10046661 f i libucrt:crtmbox.obj
 0001:00045689       ??$message_box@$$TABQB_WABQB_WK@?$__crt_char_traits@_W@@SAH$$QA$$TABQB_W1$$QAK@Z 10046689 f i libucrt:crtmbox.obj
 0001:000456b1       ??$message_box@PAUHWND__@@ABQBDABQBDABI@?$__crt_char_traits@D@@SAH$$QAPAUHWND__@@ABQBD1ABI@Z 100466b1 f i libucrt:crtmbox.obj
 0001:000456d9       ??$message_box@PAUHWND__@@ABQB_WABQB_WABI@?$__crt_char_traits@_W@@SAH$$QAPAUHWND__@@ABQB_W1ABI@Z 100466d9 f i libucrt:crtmbox.obj
 0001:00045755       ??$output_debug_string@ABQBD@?$__crt_char_traits@D@@SAXABQBD@Z 10046755 f i libucrt:crtmbox.obj
 0001:0004576b       ??$output_debug_string@ABQB_W@?$__crt_char_traits@_W@@SAXABQB_W@Z 1004676b f i libucrt:crtmbox.obj
 0001:00045781       ??0?$__crt_unique_handle_t@U__crt_handle_traits@@@@QAE@QAX@Z 10046781 f i libucrt:crtmbox.obj
 0001:00045795       ??1?$__crt_unique_handle_t@U__crt_handle_traits@@@@QAE@XZ 10046795 f i libucrt:crtmbox.obj
 0001:000457b1       ??B?$__crt_unique_handle_t@U__crt_handle_traits@@@@QBE_NXZ 100467b1 f i libucrt:crtmbox.obj
 0001:000457bc       ?close@?$__crt_unique_handle_t@U__crt_handle_traits@@@@QAEXXZ 100467bc f i libucrt:crtmbox.obj
 0001:000457d8       ?close@__crt_handle_traits@@SA_NPAX@Z 100467d8 f i libucrt:crtmbox.obj
 0001:000457f3       ?get@?$__crt_unique_handle_t@U__crt_handle_traits@@@@QBEPAXXZ 100467f3 f i libucrt:crtmbox.obj
 0001:000457f6       ?get_invalid_value@__crt_handle_traits@@SAPAXXZ 100467f6 f i libucrt:crtmbox.obj
 0001:000457fa       ?is_valid@?$__crt_unique_handle_t@U__crt_handle_traits@@@@QBE_NXZ 100467fa f i libucrt:crtmbox.obj
 0001:00045805       ___acrt_show_narrow_message_box 10046805 f   libucrt:crtmbox.obj
 0001:00045812       ___acrt_show_wide_message_box 10046812 f   libucrt:crtmbox.obj
 0001:0004581f       ??$?RV<lambda_d92cfe8357b99225085016881b624cb0>@@AAV<lambda_b721fa326cdb32351d23dfa67958c160>@@V<lambda_42d75b0848218ec137fa420c8ba9fdf9>@@@?$__crt_seh_guarded_call@H@@QAEH$$QAV<lambda_d92cfe8357b99225085016881b624cb0>@@AAV<lambda_b721fa326cdb32351d23dfa67958c160>@@$$QAV<lambda_42d75b0848218ec137fa420c8ba9fdf9>@@@Z 1004681f f i libucrt:setvbuf.obj
 0001:00045884       ??$__acrt_lock_stream_and_call@V<lambda_b721fa326cdb32351d23dfa67958c160>@@@@YAHQAU_iobuf@@$$QAV<lambda_b721fa326cdb32351d23dfa67958c160>@@@Z 10046884 f i libucrt:setvbuf.obj
 0001:00045a21       _setvbuf                   10046a21 f   libucrt:setvbuf.obj
 0001:00045ab4       ??$?B$$A6AXH@Z@__crt_fast_encoded_nullptr_t@@QBEP6AXH@ZXZ 10046ab4 f i libucrt:signal.obj
 0001:00045ad2       ??$?RV<lambda_a048d3beccc847880fc8490e18b82769>@@AAV<lambda_ec61778202f4f5fc7e7711acc23c3bca>@@V<lambda_f7496a158712204296dd6628a163878e>@@@?$__crt_seh_guarded_call@P6AXH@Z@@QAEP6AXH@Z$$QAV<lambda_a048d3beccc847880fc8490e18b82769>@@AAV<lambda_ec61778202f4f5fc7e7711acc23c3bca>@@$$QAV<lambda_f7496a158712204296dd6628a163878e>@@@Z 10046ad2 f i libucrt:signal.obj
 0001:00045b42       ??$__acrt_lock_and_call@V<lambda_ec61778202f4f5fc7e7711acc23c3bca>@@@@YAP6AXH@ZW4__acrt_lock_id@@$$QAV<lambda_ec61778202f4f5fc7e7711acc23c3bca>@@@Z 10046b42 f i libucrt:signal.obj
 0001:00045b74       ??$__crt_fast_decode_pointer@P6AXH@Z@@YAP6AXH@ZQ6AXH@Z@Z 10046b74 f i libucrt:signal.obj
 0001:00045b8f       ??$__crt_fast_encode_pointer@P6AXH@Z@@YAP6AXH@ZQ6AXH@Z@Z 10046b8f f i libucrt:signal.obj
 0001:00045d39       ?initialize@?$dual_state_global@P6AXH@Z@__crt_state_management@@QAEXQ6AXH@Z@Z 10046d39 f i libucrt:signal.obj
 0001:00045de5       ?value@?$dual_state_global@P6AXH@Z@__crt_state_management@@QAEAAP6AXH@ZXZ 10046de5 f i libucrt:signal.obj
 0001:00045de8       ___acrt_get_sigabrt_handler 10046de8 f   libucrt:signal.obj
 0001:00045e04       ___acrt_initialize_signal_handlers 10046e04 f   libucrt:signal.obj
 0001:00045e4d       ___fpecode                 10046e4d f   libucrt:signal.obj
 0001:00045e58       ___pxcptinfoptrs           10046e58 f   libucrt:signal.obj
 0001:00045e63       _raise                     10046e63 f   libucrt:signal.obj
 0001:000460ed       _signal                    100470ed f   libucrt:signal.obj
 0001:0004630b       __realloc_base             1004730b f   libucrt:realloc_base.obj
 0001:0004638e       ___acrt_initialize_locks   1004738e f   libucrt:locks.obj
 0001:000463df       ___acrt_lock               100473df f   libucrt:locks.obj
 0001:000463fb       ___acrt_uninitialize_locks 100473fb f   libucrt:locks.obj
 0001:00046438       ___acrt_unlock             10047438 f   libucrt:locks.obj
 0001:00046454       __lock_locales             10047454 f   libucrt:locks.obj
 0001:0004645f       __unlock_locales           1004745f f   libucrt:locks.obj
 0001:0004646a       ??$?RV<lambda_123407a5e2ac06da108355a851863b7a>@@AAV<lambda_2fe9b910cf3cbf4a0ab98a02ba45b3ec>@@V<lambda_ae55bdf541ad94d75914d381c370e64d>@@@?$__crt_seh_guarded_call@H@@QAEH$$QAV<lambda_123407a5e2ac06da108355a851863b7a>@@AAV<lambda_2fe9b910cf3cbf4a0ab98a02ba45b3ec>@@$$QAV<lambda_ae55bdf541ad94d75914d381c370e64d>@@@Z 1004746a f i libucrt:close.obj
 0001:0004650c       ??$__acrt_lowio_lock_fh_and_call@V<lambda_2fe9b910cf3cbf4a0ab98a02ba45b3ec>@@@@YAHH$$QAV<lambda_2fe9b910cf3cbf4a0ab98a02ba45b3ec>@@@Z 1004750c f i libucrt:close.obj
 0001:0004665f       __close                    1004765f f   libucrt:close.obj
 0001:000466fd       __close_nolock             100476fd f   libucrt:close.obj
 0001:000467c0       ??$?RU__crt_stdio_stream_data@@@__crt_internal_free_policy@@QBEXQBU__crt_stdio_stream_data@@@Z 100477c0 f i libucrt:stream.obj
 0001:000467d6       ??0?$__crt_unique_heap_ptr@U__crt_stdio_stream_data@@U__crt_internal_free_policy@@@@QAE@QAU__crt_stdio_stream_data@@@Z 100477d6 f i libucrt:stream.obj
 0001:000467ea       ??0__crt_stdio_stream@@QAE@XZ 100477ea f i libucrt:stream.obj
 0001:000467f0       ??1?$__crt_unique_heap_ptr@U__crt_stdio_stream_data@@U__crt_internal_free_policy@@@@QAE@XZ 100477f0 f i libucrt:stream.obj
 0001:00046806       ?__acrt_stdio_allocate_stream@@YA?AV__crt_stdio_stream@@XZ 10047806 f   libucrt:stream.obj
 0001:0004687c       ?__acrt_stdio_free_stream@@YAXV__crt_stdio_stream@@@Z 1004787c f   libucrt:stream.obj
 0001:000468c5       ?deallocate@__crt_stdio_stream@@QAEXXZ 100478c5 f i libucrt:stream.obj
 0001:000468d1       ?detach@?$__crt_unique_heap_ptr@U__crt_stdio_stream_data@@U__crt_internal_free_policy@@@@QAEPAU__crt_stdio_stream_data@@XZ 100478d1 f i libucrt:stream.obj
 0001:000469ca       ?lock@__crt_stdio_stream@@QBEXXZ 100479ca f i libucrt:stream.obj
 0001:000469d5       ?release@?$__crt_unique_heap_ptr@U__crt_stdio_stream_data@@U__crt_internal_free_policy@@@@QAEXXZ 100479d5 f i libucrt:stream.obj
 0001:000469eb       ?try_allocate@__crt_stdio_stream@@QAE_NXZ 100479eb f i libucrt:stream.obj
 0001:00046a14       ??$__acrt_stdio_parse_mode@D@@YA?AU__acrt_stdio_stream_mode@@QBD@Z 10047a14 f i libucrt:openfile.obj
 0001:00046cd2       ??$__acrt_stdio_parse_mode@_W@@YA?AU__acrt_stdio_stream_mode@@QB_W@Z 10047cd2 f i libucrt:openfile.obj
 0001:000470f3       ??$tcsncmp@AAPBDAAY02$$CBDI@?$__crt_char_traits@D@@SAHAAPBDAAY02$$CBD$$QAI@Z 100480f3 f i libucrt:openfile.obj
 0001:00047116       ??$tcsncmp@AAPB_WAAY02$$CB_WI@?$__crt_char_traits@_W@@SAHAAPB_WAAY02$$CB_W$$QAI@Z 10048116 f i libucrt:openfile.obj
 0001:00047139       ??$tcsnicmp@AAPBDAAY04$$CBDI@?$__crt_char_traits@D@@SAHAAPBDAAY04$$CBD$$QAI@Z 10048139 f i libucrt:openfile.obj
 0001:0004715c       ??$tcsnicmp@AAPBDAAY06$$CBDI@?$__crt_char_traits@D@@SAHAAPBDAAY06$$CBD$$QAI@Z 1004815c f i libucrt:openfile.obj
 0001:0004717f       ??$tcsnicmp@AAPBDAAY07$$CBDI@?$__crt_char_traits@D@@SAHAAPBDAAY07$$CBD$$QAI@Z 1004817f f i libucrt:openfile.obj
 0001:000471a2       ??$tcsnicmp@AAPB_WAAY04$$CB_WI@?$__crt_char_traits@_W@@SAHAAPB_WAAY04$$CB_W$$QAI@Z 100481a2 f i libucrt:openfile.obj
 0001:000471c5       ??$tcsnicmp@AAPB_WAAY06$$CB_WI@?$__crt_char_traits@_W@@SAHAAPB_WAAY06$$CB_W$$QAI@Z 100481c5 f i libucrt:openfile.obj
 0001:000471e8       ??$tcsnicmp@AAPB_WAAY07$$CB_WI@?$__crt_char_traits@_W@@SAHAAPB_WAAY07$$CB_W$$QAI@Z 100481e8 f i libucrt:openfile.obj
 0001:0004720b       ??$tsopen_s@PAHABQBDABHABHH@?$__crt_char_traits@D@@SAH$$QAPAHABQBDABH2$$QAH@Z 1004820b f i libucrt:openfile.obj
 0001:0004723d       ??$tsopen_s@PAHABQB_WABHABHH@?$__crt_char_traits@_W@@SAH$$QAPAHABQB_WABH2$$QAH@Z 1004823d f i libucrt:openfile.obj
 0001:0004726f       ?__acrt_stdio_parse_mode_D@@YA_NAAU__acrt_stdio_stream_mode@@@Z 1004826f f i libucrt:openfile.obj
 0001:00047290       ?__acrt_stdio_parse_mode_N@@YA_NAAU__acrt_stdio_stream_mode@@@Z 10048290 f i libucrt:openfile.obj
 0001:000472a6       ?__acrt_stdio_parse_mode_R@@YA_NAAU__acrt_stdio_stream_mode@@AA_N@Z 100482a6 f i libucrt:openfile.obj
 0001:000472cb       ?__acrt_stdio_parse_mode_S@@YA_NAAU__acrt_stdio_stream_mode@@AA_N@Z 100482cb f i libucrt:openfile.obj
 0001:000472f0       ?__acrt_stdio_parse_mode_T@@YA_NAAU__acrt_stdio_stream_mode@@@Z 100482f0 f i libucrt:openfile.obj
 0001:00047316       ?__acrt_stdio_parse_mode_b@@YA_NAAU__acrt_stdio_stream_mode@@@Z 10048316 f i libucrt:openfile.obj
 0001:0004733e       ?__acrt_stdio_parse_mode_c@@YA_NAAU__acrt_stdio_stream_mode@@AA_N@Z 1004833e f i libucrt:openfile.obj
 0001:00047368       ?__acrt_stdio_parse_mode_n@@YA_NAAU__acrt_stdio_stream_mode@@AA_N@Z 10048368 f i libucrt:openfile.obj
 0001:00047392       ?__acrt_stdio_parse_mode_plus@@YA_NAAU__acrt_stdio_stream_mode@@AA_N@Z 10048392 f i libucrt:openfile.obj
 0001:000473d4       ?__acrt_stdio_parse_mode_t@@YA_NAAU__acrt_stdio_stream_mode@@@Z 100483d4 f i libucrt:openfile.obj
 0001:000473fc       __openfile                 100483fc f   libucrt:openfile.obj
 0001:00047409       __wopenfile                10048409 f   libucrt:openfile.obj
 0001:00047aae       __read                     10048aae f   libucrt:read.obj
 0001:00047c05       __read_nolock              10048c05 f   libucrt:read.obj
 0001:0004859d       ___acrt_stdio_refill_and_read_narrow_nolock 1004959d f   libucrt:_filbuf.obj
 0001:000485aa       ___acrt_stdio_refill_and_read_wide_nolock 100495aa f   libucrt:_filbuf.obj
 0001:00048d09       __write                    10049d09 f   libucrt:write.obj
 0001:00048e2e       __write_nolock             10049e2e f   libucrt:write.obj
 0001:00049574       ___acrt_stdio_flush_and_write_narrow_nolock 1004a574 f   libucrt:_flsbuf.obj
 0001:00049581       ___acrt_stdio_flush_and_write_wide_nolock 1004a581 f   libucrt:_flsbuf.obj
 0001:0004958e       ___acrt_copy_path_to_wide_string 1004a58e f   libucrt:string_utilities.obj
 0001:00049686       ___acrt_copy_to_char       1004a686 f   libucrt:string_utilities.obj
 0001:00049771       __wremove                  1004a771 f   libucrt:wunlink.obj
 0001:000497a3       __wunlink                  1004a7a3 f   libucrt:wunlink.obj
 0001:00049c17       __lseek                    1004ac17 f   libucrt:lseek.obj
 0001:00049c24       __lseek_nolock             1004ac24 f   libucrt:lseek.obj
 0001:00049c31       __lseeki64                 1004ac31 f   libucrt:lseek.obj
 0001:00049c52       __lseeki64_nolock          1004ac52 f   libucrt:lseek.obj
 0001:00049c73       __chgsign                  1004ac73 f   libucrt:ieeemisc.obj
 0001:00049cad       __chgsignf                 1004acad f   libucrt:ieeemisc.obj
 0001:00049cd8       __copysign                 1004acd8 f   libucrt:ieeemisc.obj
 0001:00049d0c       __copysignf                1004ad0c f   libucrt:ieeemisc.obj
 0001:00049d31       __finite                   1004ad31 f   libucrt:ieeemisc.obj
 0001:00049d51       __fpclass                  1004ad51 f   libucrt:ieeemisc.obj
 0001:00049e1e       __isnan                    1004ae1e f   libucrt:ieeemisc.obj
 0001:00049e61       __logb                     1004ae61 f   libucrt:ieeemisc.obj
 0001:00049f66       __nextafter                1004af66 f   libucrt:ieeemisc.obj
 0001:00049f8c       __scalb                    1004af8c f   libucrt:ieeemisc.obj
 0001:00049fac       __add_exp                  1004afac f   libucrt:util.obj
 0001:00049fe6       __decomp                   1004afe6 f   libucrt:util.obj
 0001:0004a0ef       __get_exp                  1004b0ef f   libucrt:util.obj
 0001:0004a10e       __set_bexp                 1004b10e f   libucrt:util.obj
 0001:0004a141       __set_exp                  1004b141 f   libucrt:util.obj
 0001:0004a17b       __sptype                   1004b17b f   libucrt:util.obj
 0001:0004a1f0       ___clrfp_sse2              1004b1f0 f   libucrt:fpctrl.obj
 0001:0004a219       ___ctrlfp_sse2             1004b219 f   libucrt:fpctrl.obj
 0001:0004a262       ___fclrf_sse2              1004b262 f   libucrt:fpctrl.obj
 0001:0004a288       ___get_fpsr_sse2           1004b288 f   libucrt:fpctrl.obj
 0001:0004a2ad       ___set_fpsr_sse2           1004b2ad f   libucrt:fpctrl.obj
 0001:0004a340       ___set_statfp_sse2         1004b340 f   libucrt:fpctrl.obj
 0001:0004a361       ___statfp_sse2             1004b361 f   libucrt:fpctrl.obj
 0001:0004a37b       __clrfp                    1004b37b f   libucrt:fpctrl.obj
 0001:0004a392       __ctrlfp                   1004b392 f   libucrt:fpctrl.obj
 0001:0004a3c9       __set_statfp               1004b3c9 f   libucrt:fpctrl.obj
 0001:0004a43a       __statfp                   1004b43a f   libucrt:fpctrl.obj
 0001:0004a450       ??$__crt_fast_decode_pointer@P6AHPAU_exception@@@Z@@YAP6AHPAU_exception@@@ZQ6AH0@Z@Z 1004b450 f i libucrt:matherr.obj
 0001:0004a46b       ??$__crt_fast_encode_pointer@P6AHPAU_exception@@@Z@@YAP6AHPAU_exception@@@ZQ6AH0@Z@Z 1004b46b f i libucrt:matherr.obj
 0001:0004a491       ?initialize@?$dual_state_global@P6AHPAU_exception@@@Z@__crt_state_management@@QAEXQ6AHPAU_exception@@@Z@Z 1004b491 f i libucrt:matherr.obj
 0001:0004a4ce       ?value@?$dual_state_global@P6AHPAU_exception@@@Z@__crt_state_management@@QAEAAP6AHPAU_exception@@@ZXZ 1004b4ce f i libucrt:matherr.obj
 0001:0004a4d1       ___acrt_has_user_matherr   1004b4d1 f   libucrt:matherr.obj
 0001:0004a4f0       ___acrt_initialize_user_matherr 1004b4f0 f   libucrt:matherr.obj
 0001:0004a509       ___acrt_invoke_user_matherr 1004b509 f   libucrt:matherr.obj
 0001:0004a564       ___setusermatherr          1004b564 f   libucrt:matherr.obj
 0001:0004af76       ??$find_first_file_ex@ABQADW4_FINDEX_INFO_LEVELS@@PAU_WIN32_FIND_DATAA@@W4_FINDEX_SEARCH_OPS@@$$TH@?$__crt_char_traits@D@@SAPAXABQAD$$QAW4_FINDEX_INFO_LEVELS@@$$QAPAU_WIN32_FIND_DATAA@@$$QAW4_FINDEX_SEARCH_OPS@@$$QA$$T$$QAH@Z 1004bf76 f i libucrt:argv_wildcards.obj
 0001:0004afab       ??$find_first_file_ex@ABQA_WW4_FINDEX_INFO_LEVELS@@PAU_WIN32_FIND_DATAW@@W4_FINDEX_SEARCH_OPS@@$$TH@?$__crt_char_traits@_W@@SAPAXABQA_W$$QAW4_FINDEX_INFO_LEVELS@@$$QAPAU_WIN32_FIND_DATAW@@$$QAW4_FINDEX_SEARCH_OPS@@$$QA$$T$$QAH@Z 1004bfab f i libucrt:argv_wildcards.obj
 0001:0004afe0       ??$find_next_file@PAXPAU_WIN32_FIND_DATAA@@@?$__crt_char_traits@D@@SAH$$QAPAX$$QAPAU_WIN32_FIND_DATAA@@@Z 1004bfe0 f i libucrt:argv_wildcards.obj
 0001:0004affc       ??$find_next_file@PAXPAU_WIN32_FIND_DATAW@@@?$__crt_char_traits@_W@@SAH$$QAPAX$$QAPAU_WIN32_FIND_DATAW@@@Z 1004bffc f i libucrt:argv_wildcards.obj
 0001:0004b018       ??$tcsncpy_s@AAPADIAAPADABI@?$__crt_char_traits@D@@SAHAAPAD$$QAI0ABI@Z 1004c018 f i libucrt:argv_wildcards.obj
 0001:0004b043       ??$tcsncpy_s@AAPA_WIAAPA_WABI@?$__crt_char_traits@_W@@SAHAAPA_W$$QAI0ABI@Z 1004c043 f i libucrt:argv_wildcards.obj
 0001:0004b06e       ??$tcsncpy_s@PAD$$CBIABQBDABI@?$__crt_char_traits@D@@SAH$$QAPAD$$QBIABQBDABI@Z 1004c06e f i libucrt:argv_wildcards.obj
 0001:0004b099       ??$tcsncpy_s@PADABIABQBDABI@?$__crt_char_traits@D@@SAH$$QAPADABIABQBD1@Z 1004c099 f i libucrt:argv_wildcards.obj
 0001:0004b0c4       ??$tcsncpy_s@PA_W$$CBIABQB_WABI@?$__crt_char_traits@_W@@SAH$$QAPA_W$$QBIABQB_WABI@Z 1004c0c4 f i libucrt:argv_wildcards.obj
 0001:0004b0ef       ??$tcsncpy_s@PA_WABIABQB_WABI@?$__crt_char_traits@_W@@SAH$$QAPA_WABIABQB_W1@Z 1004c0ef f i libucrt:argv_wildcards.obj
 0001:0004b11a       ??$tcspbrk@AAPADAAY02$$CBD@?$__crt_char_traits@D@@SAPADAAPADAAY02$$CBD@Z 1004c11a f i libucrt:argv_wildcards.obj
 0001:0004b135       ??$tcspbrk@AAPA_WAAY02$$CB_W@?$__crt_char_traits@_W@@SAPA_WAAPA_WAAY02$$CB_W@Z 1004c135 f i libucrt:argv_wildcards.obj
 0001:0004b150       ??0?$__crt_unique_handle_t@U__crt_findfile_traits@@@@QAE@QAX@Z 1004c150 f i libucrt:argv_wildcards.obj
 0001:0004b164       ??0?$argument_list@D@?A0xb0e4b824@@QAE@XZ 1004c164 f i libucrt:argv_wildcards.obj
 0001:0004b174       ??0?$argument_list@_W@?A0xb0e4b824@@QAE@XZ 1004c174 f i libucrt:argv_wildcards.obj
 0001:0004b184       ??1?$__crt_unique_handle_t@U__crt_findfile_traits@@@@QAE@XZ 1004c184 f i libucrt:argv_wildcards.obj
 0001:0004b1a0       ??1?$argument_list@D@?A0xb0e4b824@@QAE@XZ 1004c1a0 f i libucrt:argv_wildcards.obj
 0001:0004b1ce       ??1?$argument_list@_W@?A0xb0e4b824@@QAE@XZ 1004c1ce f i libucrt:argv_wildcards.obj
 0001:0004b25c       ?append@?$argument_list@D@?A0xb0e4b824@@QAEHQAD@Z 1004c25c f i libucrt:argv_wildcards.obj
 0001:0004b29e       ?append@?$argument_list@_W@?A0xb0e4b824@@QAEHQA_W@Z 1004c29e f i libucrt:argv_wildcards.obj
 0001:0004b2e0       ?begin@?$argument_list@D@?A0xb0e4b824@@QBEPAPADXZ 1004c2e0 f i libucrt:argv_wildcards.obj
 0001:0004b2e3       ?begin@?$argument_list@_W@?A0xb0e4b824@@QBEPAPA_WXZ 1004c2e3 f i libucrt:argv_wildcards.obj
 0001:0004b2e6       ?close@?$__crt_unique_handle_t@U__crt_findfile_traits@@@@QAEXXZ 1004c2e6 f i libucrt:argv_wildcards.obj
 0001:0004b302       ?close@__crt_findfile_traits@@SA_NPAX@Z 1004c302 f i libucrt:argv_wildcards.obj
 0001:0004b31d       ?end@?$argument_list@D@?A0xb0e4b824@@QBEPAPADXZ 1004c31d f i libucrt:argv_wildcards.obj
 0001:0004b321       ?end@?$argument_list@_W@?A0xb0e4b824@@QBEPAPA_WXZ 1004c321 f i libucrt:argv_wildcards.obj
 0001:0004b325       ?expand_if_necessary@?$argument_list@D@?A0xb0e4b824@@AAEHXZ 1004c325 f i libucrt:argv_wildcards.obj
 0001:0004b3cd       ?expand_if_necessary@?$argument_list@_W@?A0xb0e4b824@@AAEHXZ 1004c3cd f i libucrt:argv_wildcards.obj
 0001:0004b475       ?get@?$__crt_unique_handle_t@U__crt_findfile_traits@@@@QBEPAXXZ 1004c475 f i libucrt:argv_wildcards.obj
 0001:0004b478       ?get_invalid_value@__crt_findfile_traits@@SAPAXXZ 1004c478 f i libucrt:argv_wildcards.obj
 0001:0004b499       ?size@?$argument_list@D@?A0xb0e4b824@@QBEIXZ 1004c499 f i libucrt:argv_wildcards.obj
 0001:0004b4a4       ?size@?$argument_list@_W@?A0xb0e4b824@@QBEIXZ 1004c4a4 f i libucrt:argv_wildcards.obj
 0001:0004b4af       ?strpbrk@@YAPADQADQBD@Z    1004c4af f i libucrt:argv_wildcards.obj
 0001:0004b4bc       ?wcspbrk@@YAPA_WPA_WPB_W@Z 1004c4bc f i libucrt:argv_wildcards.obj
 0001:0004b4c9       ___acrt_expand_narrow_argv_wildcards 1004c4c9 f   libucrt:argv_wildcards.obj
 0001:0004b4d6       ___acrt_expand_wide_argv_wildcards 1004c4d6 f   libucrt:argv_wildcards.obj
 0001:0004b4e3       ??$?RV<lambda_978dc153c237d78434369da87b74ff60>@@AAV<lambda_ad1ced32f4ac17aa236e5ef05d6b3b7c>@@V<lambda_4a8533e2866a575feecb8298ce776b0d>@@@?$__crt_seh_guarded_call@X@@QAEX$$QAV<lambda_978dc153c237d78434369da87b74ff60>@@AAV<lambda_ad1ced32f4ac17aa236e5ef05d6b3b7c>@@$$QAV<lambda_4a8533e2866a575feecb8298ce776b0d>@@@Z 1004c4e3 f i libucrt:mbctype.obj
 0001:0004b536       ??$__acrt_lock_and_call@V<lambda_ad1ced32f4ac17aa236e5ef05d6b3b7c>@@@@YAXW4__acrt_lock_id@@$$QAV<lambda_ad1ced32f4ac17aa236e5ef05d6b3b7c>@@@Z 1004c536 f i libucrt:mbctype.obj
 0001:0004bb47       ___acrt_initialize_multibyte 1004cb47 f   libucrt:mbctype.obj
 0001:0004bb6c       ___acrt_update_thread_multibyte_data 1004cb6c f   libucrt:mbctype.obj
 0001:0004bc36       ___p__mbcasemap            1004cc36 f   libucrt:mbctype.obj
 0001:0004bc3c       ___p__mbctype              1004cc3c f   libucrt:mbctype.obj
 0001:0004bc42       __getmbcp                  1004cc42 f   libucrt:mbctype.obj
 0001:0004bc85       __setmbcp                  1004cc85 f   libucrt:mbctype.obj
 0001:0004bc9c       __setmbcp_nolock           1004cc9c f   libucrt:mbctype.obj
 0001:0004c019       __ismbbalnum               1004d019 f   libucrt:ismbbyte.obj
 0001:0004c03a       __ismbbalnum_l             1004d03a f   libucrt:ismbbyte.obj
 0001:0004c05d       __ismbbalpha               1004d05d f   libucrt:ismbbyte.obj
 0001:0004c07e       __ismbbalpha_l             1004d07e f   libucrt:ismbbyte.obj
 0001:0004c0a1       __ismbbblank               1004d0a1 f   libucrt:ismbbyte.obj
 0001:0004c0cc       __ismbbblank_l             1004d0cc f   libucrt:ismbbyte.obj
 0001:0004c0f9       __ismbbgraph               1004d0f9 f   libucrt:ismbbyte.obj
 0001:0004c11a       __ismbbgraph_l             1004d11a f   libucrt:ismbbyte.obj
 0001:0004c13d       __ismbbkalnum              1004d13d f   libucrt:ismbbyte.obj
 0001:0004c15b       __ismbbkalnum_l            1004d15b f   libucrt:ismbbyte.obj
 0001:0004c17a       __ismbbkana                1004d17a f   libucrt:ismbbyte.obj
 0001:0004c191       __ismbbkana_l              1004d191 f   libucrt:ismbbyte.obj
 0001:0004c1f6       __ismbbkprint              1004d1f6 f   libucrt:ismbbyte.obj
 0001:0004c214       __ismbbkprint_l            1004d214 f   libucrt:ismbbyte.obj
 0001:0004c233       __ismbbkpunct              1004d233 f   libucrt:ismbbyte.obj
 0001:0004c251       __ismbbkpunct_l            1004d251 f   libucrt:ismbbyte.obj
 0001:0004c270       __ismbblead                1004d270 f   libucrt:ismbbyte.obj
 0001:0004c28e       __ismbblead_l              1004d28e f   libucrt:ismbbyte.obj
 0001:0004c2ad       __ismbbprint               1004d2ad f   libucrt:ismbbyte.obj
 0001:0004c2ce       __ismbbprint_l             1004d2ce f   libucrt:ismbbyte.obj
 0001:0004c2f1       __ismbbpunct               1004d2f1 f   libucrt:ismbbyte.obj
 0001:0004c30f       __ismbbpunct_l             1004d30f f   libucrt:ismbbyte.obj
 0001:0004c32e       __ismbbtrail               1004d32e f   libucrt:ismbbyte.obj
 0001:0004c34c       __ismbbtrail_l             1004d34c f   libucrt:ismbbyte.obj
 0001:0004c36b       ___acrt_initialize_command_line 1004d36b f   libucrt:argv_data.obj
 0001:0004c38a       ___acrt_uninitialize_command_line 1004d38a f   libucrt:argv_data.obj
 0001:0004c38d       ___p___argc                1004d38d f   libucrt:argv_data.obj
 0001:0004c393       ___p___argv                1004d393 f   libucrt:argv_data.obj
 0001:0004c399       ___p___wargv               1004d399 f   libucrt:argv_data.obj
 0001:0004c39f       ___p__acmdln               1004d39f f   libucrt:argv_data.obj
 0001:0004c3a5       ___p__pgmptr               1004d3a5 f   libucrt:argv_data.obj
 0001:0004c3ab       ___p__wcmdln               1004d3ab f   libucrt:argv_data.obj
 0001:0004c3b1       ___p__wpgmptr              1004d3b1 f   libucrt:argv_data.obj
 0001:0004c3b7       __get_pgmptr               1004d3b7 f   libucrt:argv_data.obj
 0001:0004c3f4       __get_wpgmptr              1004d3f4 f   libucrt:argv_data.obj
 0001:0004c431       ??0?$__crt_unique_handle_t@Uenvironment_strings_traits@?A0x588e5281@@@@QAE@QA_W@Z 1004d431 f i libucrt:get_environment_from_os.obj
 0001:0004c445       ??1?$__crt_unique_handle_t@Uenvironment_strings_traits@?A0x588e5281@@@@QAE@XZ 1004d445 f i libucrt:get_environment_from_os.obj
 0001:0004c461       ??B?$__crt_unique_handle_t@Uenvironment_strings_traits@?A0x588e5281@@@@QBE_NXZ 1004d461 f i libucrt:get_environment_from_os.obj
 0001:0004c46b       ?close@?$__crt_unique_handle_t@Uenvironment_strings_traits@?A0x588e5281@@@@QAEXXZ 1004d46b f i libucrt:get_environment_from_os.obj
 0001:0004c487       ?close@environment_strings_traits@?A0x588e5281@@SA_NPA_W@Z 1004d487 f i libucrt:get_environment_from_os.obj
 0001:0004c4e1       ?get@?$__crt_unique_handle_t@Uenvironment_strings_traits@?A0x588e5281@@@@QBEPA_WXZ 1004d4e1 f i libucrt:get_environment_from_os.obj
 0001:0004c4e4       ?get_invalid_value@environment_strings_traits@?A0x588e5281@@SAPA_WXZ 1004d4e4 f i libucrt:get_environment_from_os.obj
 0001:0004c4e7       ?is_valid@?$__crt_unique_handle_t@Uenvironment_strings_traits@?A0x588e5281@@@@QBE_NXZ 1004d4e7 f i libucrt:get_environment_from_os.obj
 0001:0004c4f1       ___dcrt_get_narrow_environment_from_os 1004d4f1 f   libucrt:get_environment_from_os.obj
 0001:0004c594       ___dcrt_get_wide_environment_from_os 1004d594 f   libucrt:get_environment_from_os.obj
 0001:0004ce2c       ??$get_or_create_environment_nolock@$$$V@?$__crt_char_traits@D@@SAPAPADXZ 1004de2c f i libucrt:setenv.obj
 0001:0004ce31       ??$get_or_create_environment_nolock@$$$V@?$__crt_char_traits@_W@@SAPAPA_WXZ 1004de31 f i libucrt:setenv.obj
 0001:0004ce36       ??$set_environment_variable@ABQADQAD@?$__crt_char_traits@D@@SAHABQAD$$QBQAD@Z 1004de36 f i libucrt:setenv.obj
 0001:0004ce52       ??$set_environment_variable@ABQA_WQA_W@?$__crt_char_traits@_W@@SAHABQA_W$$QBQA_W@Z 1004de52 f i libucrt:setenv.obj
 0001:0004ce6e       ??$tcschr@ABQADD@?$__crt_char_traits@D@@SAPADABQAD$$QAD@Z 1004de6e f i libucrt:setenv.obj
 0001:0004ce8e       ??$tcschr@ABQA_WD@?$__crt_char_traits@_W@@SAPA_WABQA_W$$QAD@Z 1004de8e f i libucrt:setenv.obj
 0001:0004ceb3       ??$tcscpy_s@AAPADABIAAPAD@?$__crt_char_traits@D@@SAHAAPADABI0@Z 1004deb3 f i libucrt:setenv.obj
 0001:0004ced8       ??$tcscpy_s@AAPA_WABIAAPA_W@?$__crt_char_traits@_W@@SAHAAPA_WABI0@Z 1004ded8 f i libucrt:setenv.obj
 0001:0004cefd       ??$tcscpy_s@ABQADABIABQAD@?$__crt_char_traits@D@@SAHABQADABI0@Z 1004defd f i libucrt:setenv.obj
 0001:0004cf22       ??$tcscpy_s@ABQA_WABIABQA_W@?$__crt_char_traits@_W@@SAHABQA_WABI0@Z 1004df22 f i libucrt:setenv.obj
 0001:0004cf47       ??$tcsnicoll@ABQBDAAPADABI@?$__crt_char_traits@D@@SAHABQBDAAPADABI@Z 1004df47 f i libucrt:setenv.obj
 0001:0004cf6c       ??$tcsnicoll@ABQB_WAAPA_WABI@?$__crt_char_traits@_W@@SAHABQB_WAAPA_WABI@Z 1004df6c f i libucrt:setenv.obj
 0001:0004cfb5       ?strchr@@YAPADQADH@Z       1004dfb5 f i libucrt:setenv.obj
 0001:0004cfc2       ?wcschr@@YAPA_WPA_W_W@Z    1004dfc2 f i libucrt:setenv.obj
 0001:0004cfcf       ___dcrt_set_variable_in_narrow_environment_nolock 1004dfcf f   libucrt:setenv.obj
 0001:0004cfdc       ___dcrt_set_variable_in_wide_environment_nolock 1004dfdc f   libucrt:setenv.obj
 0001:0004cfe9       __recalloc                 1004dfe9 f   libucrt:recalloc.obj
 0001:0004cff6       __recalloc_base            1004dff6 f   libucrt:recalloc.obj
 0001:0004d07e       ___acrt_getheap            1004e07e f   libucrt:heap_handle.obj
 0001:0004d084       ___acrt_initialize_heap    1004e084 f   libucrt:heap_handle.obj
 0001:0004d099       ___acrt_uninitialize_heap  1004e099 f   libucrt:heap_handle.obj
 0001:0004d0a5       __get_heap_handle          1004e0a5 f   libucrt:heap_handle.obj
 0001:0004d0ab       ___acrt_execute_initializers 1004e0ab f   libucrt:shared_initialization.obj
 0001:0004d14e       ___acrt_execute_uninitializers 1004e14e f   libucrt:shared_initialization.obj
 0001:0004d1ae       ??$?B$$A6AHI@Z@__crt_fast_encoded_nullptr_t@@QBEP6AHI@ZXZ 1004e1ae f i libucrt:new_handler.obj
 0001:0004d1cc       ??$__crt_fast_decode_pointer@P6AHI@Z@@YAP6AHI@ZQ6AHI@Z@Z 1004e1cc f i libucrt:new_handler.obj
 0001:0004d1e7       ??$__crt_fast_encode_pointer@P6AHI@Z@@YAP6AHI@ZQ6AHI@Z@Z 1004e1e7 f i libucrt:new_handler.obj
 0001:0004d20d       ?_set_new_handler@@YAP6AHI@ZH@Z 1004e20d f   libucrt:new_handler.obj
 0001:0004d233       ?initialize@?$dual_state_global@P6AHI@Z@__crt_state_management@@QAEXQ6AHI@Z@Z 1004e233 f i libucrt:new_handler.obj
 0001:0004d270       ?value@?$dual_state_global@P6AHI@Z@__crt_state_management@@QAEAAP6AHI@ZXZ 1004e270 f i libucrt:new_handler.obj
 0001:0004d273       ___acrt_initialize_new_handler 1004e273 f   libucrt:new_handler.obj
 0001:0004d28c       __callnewh                 1004e28c f   libucrt:new_handler.obj
 0001:0004d2e1       __query_new_handler        1004e2e1 f   libucrt:new_handler.obj
 0001:0004d347       __set_new_handler          1004e347 f   libucrt:new_handler.obj
 0001:0004d3bf       ?value@?$dual_state_global@J@__crt_state_management@@QAEAAJXZ 1004e3bf f i libucrt:new_mode.obj
 0001:0004d3c2       __query_new_mode           1004e3c2 f   libucrt:new_mode.obj
 0001:0004d3c8       __set_new_mode             1004e3c8 f   libucrt:new_mode.obj
 0001:0004d402       ___pctype_func             1004e402 f   libucrt:ctype.obj
 0001:0004d431       ___pwctype_func            1004e431 f   libucrt:ctype.obj
 0001:0004d437       __iswctype_l               1004e437 f   libucrt:iswctype.obj
 0001:0004d450       _iswctype                  1004e450 f   libucrt:iswctype.obj
 0001:0004d4c6       __isctype                  1004e4c6 f   libucrt:isctype.obj
 0001:0004d503       __isctype_l                1004e503 f   libucrt:isctype.obj
 0001:0004d7ca       ___acrt_DownlevelLCIDToLocaleName 1004e7ca f   libucrt:lcidtoname_downlevel.obj
 0001:0004d89e       ___acrt_DownlevelLocaleNameToLCID 1004e89e f   libucrt:lcidtoname_downlevel.obj
 0001:0004d8d5       ??$?RV<lambda_61cee617f5178ae960314fd4d05640a0>@@AAV<lambda_6978c1fb23f02e42e1d9e99668cc68aa>@@V<lambda_9cd88cf8ad10232537feb2133f08c833>@@@?$__crt_seh_guarded_call@H@@QAEH$$QAV<lambda_61cee617f5178ae960314fd4d05640a0>@@AAV<lambda_6978c1fb23f02e42e1d9e99668cc68aa>@@$$QAV<lambda_9cd88cf8ad10232537feb2133f08c833>@@@Z 1004e8d5 f i libucrt:commit.obj
 0001:0004d993       ??$__acrt_lowio_lock_fh_and_call@V<lambda_6978c1fb23f02e42e1d9e99668cc68aa>@@@@YAHH$$QAV<lambda_6978c1fb23f02e42e1d9e99668cc68aa>@@@Z 1004e993 f i libucrt:commit.obj
 0001:0004da85       __commit                   1004ea85 f   libucrt:commit.obj
 0001:0004db0f       ??$?RU__crt_lowio_handle_data@@@__crt_internal_free_policy@@QBEXQBU__crt_lowio_handle_data@@@Z 1004eb0f f i libucrt:osfinfo.obj
 0001:0004db25       ??0?$__crt_unique_heap_ptr@U__crt_lowio_handle_data@@U__crt_internal_free_policy@@@@QAE@QAU__crt_lowio_handle_data@@@Z 1004eb25 f i libucrt:osfinfo.obj
 0001:0004db39       ??1?$__crt_unique_heap_ptr@U__crt_lowio_handle_data@@U__crt_internal_free_policy@@@@QAE@XZ 1004eb39 f i libucrt:osfinfo.obj
 0001:0004db4f       ??B?$__crt_unique_heap_ptr@U__crt_lowio_handle_data@@U__crt_internal_free_policy@@@@QBE_NXZ 1004eb4f f i libucrt:osfinfo.obj
 0001:0004db59       ?detach@?$__crt_unique_heap_ptr@U__crt_lowio_handle_data@@U__crt_internal_free_policy@@@@QAEPAU__crt_lowio_handle_data@@XZ 1004eb59 f i libucrt:osfinfo.obj
 0001:0004db5f       ?get@?$__crt_unique_heap_ptr@U__crt_lowio_handle_data@@U__crt_internal_free_policy@@@@QBEPAU__crt_lowio_handle_data@@XZ 1004eb5f f i libucrt:osfinfo.obj
 0001:0004db62       ?is_valid@?$__crt_unique_heap_ptr@U__crt_lowio_handle_data@@U__crt_internal_free_policy@@@@QBE_NXZ 1004eb62 f i libucrt:osfinfo.obj
 0001:0004db6c       ?release@?$__crt_unique_heap_ptr@U__crt_lowio_handle_data@@U__crt_internal_free_policy@@@@QAEXXZ 1004eb6c f i libucrt:osfinfo.obj
 0001:0004db82       ___acrt_lowio_create_handle_array 1004eb82 f   libucrt:osfinfo.obj
 0001:0004dc1a       ___acrt_lowio_destroy_handle_array 1004ec1a f   libucrt:osfinfo.obj
 0001:0004dc5c       ___acrt_lowio_ensure_fh_exists 1004ec5c f   libucrt:osfinfo.obj
 0001:0004dd1a       ___acrt_lowio_lock_fh      1004ed1a f   libucrt:osfinfo.obj
 0001:0004dd45       ___acrt_lowio_set_os_handle 1004ed45 f   libucrt:osfinfo.obj
 0001:0004ddfe       ___acrt_lowio_unlock_fh    1004edfe f   libucrt:osfinfo.obj
 0001:0004de29       __alloc_osfhnd             1004ee29 f   libucrt:osfinfo.obj
 0001:0004df7f       __free_osfhnd              1004ef7f f   libucrt:osfinfo.obj
 0001:0004e034       __get_osfhandle            1004f034 f   libucrt:osfinfo.obj
 0001:0004e0b8       __open_osfhandle           1004f0b8 f   libucrt:osfinfo.obj
 0001:0004e209       ___iswcsym                 1004f209 f i libucrt:_wctype.obj
 0001:0004e238       ___iswcsymf                1004f238 f i libucrt:_wctype.obj
 0001:0004e267       __isleadbyte_l             1004f267 f i libucrt:_wctype.obj
 0001:0004e2ae       __iswalnum_l               1004f2ae f i libucrt:_wctype.obj
 0001:0004e2c9       __iswalpha_l               1004f2c9 f i libucrt:_wctype.obj
 0001:0004e2e4       __iswblank_l               1004f2e4 f i libucrt:_wctype.obj
 0001:0004e308       __iswcntrl_l               1004f308 f i libucrt:_wctype.obj
 0001:0004e31f       __iswcsym_l                1004f31f f i libucrt:_wctype.obj
 0001:0004e34e       __iswcsymf_l               1004f34e f i libucrt:_wctype.obj
 0001:0004e37d       __iswdigit_l               1004f37d f i libucrt:_wctype.obj
 0001:0004e394       __iswgraph_l               1004f394 f i libucrt:_wctype.obj
 0001:0004e3af       __iswlower_l               1004f3af f i libucrt:_wctype.obj
 0001:0004e3c6       __iswprint_l               1004f3c6 f i libucrt:_wctype.obj
 0001:0004e3e1       __iswpunct_l               1004f3e1 f i libucrt:_wctype.obj
 0001:0004e3f8       __iswspace_l               1004f3f8 f i libucrt:_wctype.obj
 0001:0004e40f       __iswupper_l               1004f40f f i libucrt:_wctype.obj
 0001:0004e426       __iswxdigit_l              1004f426 f i libucrt:_wctype.obj
 0001:0004e441       _isleadbyte                1004f441 f i libucrt:_wctype.obj
 0001:0004e458       _iswalnum                  1004f458 f i libucrt:_wctype.obj
 0001:0004e473       _iswalpha                  1004f473 f i libucrt:_wctype.obj
 0001:0004e48e       _iswascii                  1004f48e f i libucrt:_wctype.obj
 0001:0004e4a7       _iswblank                  1004f4a7 f i libucrt:_wctype.obj
 0001:0004e4cb       _iswcntrl                  1004f4cb f i libucrt:_wctype.obj
 0001:0004e4e2       _iswdigit                  1004f4e2 f i libucrt:_wctype.obj
 0001:0004e4f9       _iswgraph                  1004f4f9 f i libucrt:_wctype.obj
 0001:0004e514       _iswlower                  1004f514 f i libucrt:_wctype.obj
 0001:0004e52b       _iswprint                  1004f52b f i libucrt:_wctype.obj
 0001:0004e546       _iswpunct                  1004f546 f i libucrt:_wctype.obj
 0001:0004e55d       _iswspace                  1004f55d f i libucrt:_wctype.obj
 0001:0004e574       _iswupper                  1004f574 f i libucrt:_wctype.obj
 0001:0004e58b       _iswxdigit                 1004f58b f i libucrt:_wctype.obj
 0001:0004e5a6       ??0?$__crt_scoped_stack_ptr@_W@@QAE@U?$__crt_scoped_stack_ptr_tag@_W@@@Z 1004f5a6 f i libucrt:lcmapstringa.obj
 0001:0004e5ba       ??0?$__crt_scoped_stack_ptr_tag@_W@@QAE@QA_W@Z 1004f5ba f i libucrt:lcmapstringa.obj
 0001:0004e5ce       ??1?$__crt_scoped_stack_ptr@_W@@QAE@XZ 1004f5ce f i libucrt:lcmapstringa.obj
 0001:0004e5d9       ??B?$__crt_scoped_stack_ptr@_W@@QBE_NXZ 1004f5d9 f i libucrt:lcmapstringa.obj
 0001:0004e887       ?get@?$__crt_scoped_stack_ptr@_W@@QBEPA_WXZ 1004f887 f i libucrt:lcmapstringa.obj
 0001:0004e88a       __MallocaComputeSize       1004f88a f i libucrt:lcmapstringa.obj
 0001:0004e8a1       __MarkAllocaS              1004f8a1 f i libucrt:lcmapstringa.obj
 0001:0004e8bc       ___acrt_LCMapStringA       1004f8bc f   libucrt:lcmapstringa.obj
 0001:0004e919       __freea_crt                1004f919 f i libucrt:lcmapstringa.obj
 0001:0004e941       ??$?RG@__crt_internal_free_policy@@QBEXQBG@Z 1004f941 f i libucrt:initctype.obj
 0001:0004e957       ??$?RJ@__crt_internal_free_policy@@QBEXQBJ@Z 1004f957 f i libucrt:initctype.obj
 0001:0004e96d       ??0?$__crt_unique_heap_ptr@GU__crt_internal_free_policy@@@@QAE@QAG@Z 1004f96d f i libucrt:initctype.obj
 0001:0004e981       ??0?$__crt_unique_heap_ptr@JU__crt_internal_free_policy@@@@QAE@QAJ@Z 1004f981 f i libucrt:initctype.obj
 0001:0004e995       ??1?$__crt_unique_heap_ptr@GU__crt_internal_free_policy@@@@QAE@XZ 1004f995 f i libucrt:initctype.obj
 0001:0004e9ab       ??1?$__crt_unique_heap_ptr@JU__crt_internal_free_policy@@@@QAE@XZ 1004f9ab f i libucrt:initctype.obj
 0001:0004e9c1       ?detach@?$__crt_unique_heap_ptr@GU__crt_internal_free_policy@@@@QAEPAGXZ 1004f9c1 f i libucrt:initctype.obj
 0001:0004e9c7       ?detach@?$__crt_unique_heap_ptr@JU__crt_internal_free_policy@@@@QAEPAJXZ 1004f9c7 f i libucrt:initctype.obj
 0001:0004e9cd       ?release@?$__crt_unique_heap_ptr@GU__crt_internal_free_policy@@@@QAEXXZ 1004f9cd f i libucrt:initctype.obj
 0001:0004e9e3       ?release@?$__crt_unique_heap_ptr@JU__crt_internal_free_policy@@@@QAEXXZ 1004f9e3 f i libucrt:initctype.obj
 0001:0004e9f9       ____lc_codepage_func       1004f9f9 f   libucrt:initctype.obj
 0001:0004ea29       ____lc_collate_cp_func     1004fa29 f   libucrt:initctype.obj
 0001:0004ea59       ____lc_locale_name_func    1004fa59 f   libucrt:initctype.obj
 0001:0004ea8c       ____mb_cur_max_func        1004fa8c f   libucrt:initctype.obj
 0001:0004eabc       ____mb_cur_max_l_func      1004fabc f   libucrt:initctype.obj
 0001:0004eadb       ___acrt_locale_initialize_ctype 1004fadb f   libucrt:initctype.obj
 0001:0004ef60       ___acrt_add_locale_ref     1004ff60 f   libucrt:locale_refcounting.obj
 0001:0004effc       ___acrt_free_locale        1004fffc f   libucrt:locale_refcounting.obj
 0001:0004f198       ___acrt_locale_add_lc_time_reference 10050198 f   libucrt:locale_refcounting.obj
 0001:0004f1cb       ___acrt_locale_free_lc_time_if_unreferenced 100501cb f   libucrt:locale_refcounting.obj
 0001:0004f207       ___acrt_locale_release_lc_time_reference 10050207 f   libucrt:locale_refcounting.obj
 0001:0004f23a       ___acrt_release_locale_ref 1005023a f   libucrt:locale_refcounting.obj
 0001:0004f2db       ___acrt_update_thread_locale_data 100502db f   libucrt:locale_refcounting.obj
 0001:0004f36f       __updatetlocinfoEx_nolock  1005036f f   libucrt:locale_refcounting.obj
 0001:0004f3d3       ___acrt_fp_strflt_to_string 100503d3 f   libucrt:_fptostr.obj
 0001:00050c00       ??0big_integer@__crt_strtox@@QAE@ABU01@@Z 10051c00 f i libucrt:cfout.obj
 0001:00050c40       ??0big_integer@__crt_strtox@@QAE@XZ 10051c40 f i libucrt:cfout.obj
 0001:00050c4b       ??0scoped_fp_state_reset@?A0x48fbfdd4@@QAE@XZ 10051c4b f i libucrt:cfout.obj
 0001:00050c7f       ??1scoped_fp_state_reset@?A0x48fbfdd4@@QAE@XZ 10051c7f f i libucrt:cfout.obj
 0001:00050c90       ??4big_integer@__crt_strtox@@QAEAAU01@ABU01@@Z 10051c90 f i libucrt:cfout.obj
 0001:00050cd0       ??8__crt_strtox@@YA_NABUbig_integer@0@0@Z 10051cd0 f i libucrt:cfout.obj
 0001:00050d20       ??9__crt_strtox@@YA_NABUbig_integer@0@0@Z 10051d20 f i libucrt:cfout.obj
 0001:00050d80       ?add_carry@__crt_strtox@@YAIAAIII@Z 10051d80 f i libucrt:cfout.obj
 0001:00050db0       ?add_multiply_carry@__crt_strtox@@YAIAAIIII@Z 10051db0 f i libucrt:cfout.obj
 0001:00050de0       ?bit_scan_reverse@__crt_strtox@@YAII@Z 10051de0 f i libucrt:cfout.obj
 0001:00050e10       ?count_sequential_high_zeroes@__crt_strtox@@YAII@Z 10051e10 f i libucrt:cfout.obj
 0001:00050e40       ?divide@__crt_strtox@@YA_KAAUbig_integer@1@ABU21@@Z 10051e40 f i libucrt:cfout.obj
 0001:00051420       ?is_zero@__crt_strtox@@YA_NABUbig_integer@1@@Z 10052420 f i libucrt:cfout.obj
 0001:00051440       ?make_big_integer@__crt_strtox@@YA?AUbig_integer@1@_K@Z 10052440 f i libucrt:cfout.obj
 0001:00051470       ?make_big_integer_power_of_two@__crt_strtox@@YA?AUbig_integer@1@I@Z 10052470 f i libucrt:cfout.obj
 0001:000514d0       ?multiply@__crt_strtox@@YA_NAAUbig_integer@1@ABU21@@Z 100524d0 f i libucrt:cfout.obj
 0001:00051980       ?multiply@__crt_strtox@@YA_NAAUbig_integer@1@I@Z 10052980 f i libucrt:cfout.obj
 0001:00051a80       ?multiply_64_32@__crt_strtox@@YA_K_KI@Z 10052a80 f i libucrt:cfout.obj
 0001:00051aa0       ?multiply_by_power_of_ten@__crt_strtox@@YA_NAAUbig_integer@1@I@Z 10052aa0 f i libucrt:cfout.obj
 0001:000521a0       ?multiply_core@__crt_strtox@@YAIQAIII@Z 100531a0 f i libucrt:cfout.obj
 0001:000521f0       ?shift_left@__crt_strtox@@YA_NAAUbig_integer@1@I@Z 100531f0 f i libucrt:cfout.obj
 0001:00052392       ___acrt_fltout             10053392 f   libucrt:cfout.obj
 0001:00053cb6       __isatty                   10054cb6 f   libucrt:isatty.obj
 0001:00053d21       ??$?RUlconv@@@__crt_internal_free_policy@@QBEXQBUlconv@@@Z 10054d21 f i libucrt:initmon.obj
 0001:00053d37       ??0?$__crt_unique_heap_ptr@Ulconv@@U__crt_internal_free_policy@@@@QAE@QAUlconv@@@Z 10054d37 f i libucrt:initmon.obj
 0001:00053d4b       ??1?$__crt_unique_heap_ptr@Ulconv@@U__crt_internal_free_policy@@@@QAE@XZ 10054d4b f i libucrt:initmon.obj
 0001:00053d61       ?detach@?$__crt_unique_heap_ptr@Ulconv@@U__crt_internal_free_policy@@@@QAEPAUlconv@@XZ 10054d61 f i libucrt:initmon.obj
 0001:00053d67       ?release@?$__crt_unique_heap_ptr@Ulconv@@U__crt_internal_free_policy@@@@QAEXXZ 10054d67 f i libucrt:initmon.obj
 0001:00053d7d       ___acrt_locale_free_monetary 10054d7d f   libucrt:initmon.obj
 0001:00053eba       ___acrt_locale_initialize_monetary 10054eba f   libucrt:initmon.obj
 0001:000543ad       ___acrt_locale_free_numeric 100553ad f   libucrt:initnum.obj
 0001:00054430       ___acrt_locale_initialize_numeric 10055430 f   libucrt:initnum.obj
 0001:0005471b       ??$?RU__crt_lc_time_data@@@__crt_internal_free_policy@@QBEXQBU__crt_lc_time_data@@@Z 1005571b f i libucrt:inittime.obj
 0001:000547bb       ??0?$__crt_unique_heap_ptr@U__crt_lc_time_data@@U__crt_internal_free_policy@@@@QAE@QAU__crt_lc_time_data@@@Z 100557bb f i libucrt:inittime.obj
 0001:000547cf       ??1?$__crt_unique_heap_ptr@U__crt_lc_time_data@@U__crt_internal_free_policy@@@@QAE@XZ 100557cf f i libucrt:inittime.obj
 0001:000547e5       ??B?$__crt_unique_heap_ptr@U__crt_lc_time_data@@U__crt_internal_free_policy@@@@QBE_NXZ 100557e5 f i libucrt:inittime.obj
 0001:000547ef       ?detach@?$__crt_unique_heap_ptr@U__crt_lc_time_data@@U__crt_internal_free_policy@@@@QAEPAU__crt_lc_time_data@@XZ 100557ef f i libucrt:inittime.obj
 0001:00054840       ?get@?$__crt_unique_heap_ptr@U__crt_lc_time_data@@U__crt_internal_free_policy@@@@QBEPAU__crt_lc_time_data@@XZ 10055840 f i libucrt:inittime.obj
 0001:00054bd8       ?is_valid@?$__crt_unique_heap_ptr@U__crt_lc_time_data@@U__crt_internal_free_policy@@@@QBE_NXZ 10055bd8 f i libucrt:inittime.obj
 0001:00054be2       ?release@?$__crt_unique_heap_ptr@U__crt_lc_time_data@@U__crt_internal_free_policy@@@@QAEXXZ 10055be2 f i libucrt:inittime.obj
 0001:00054bf8       ___acrt_locale_free_time   10055bf8 f   libucrt:inittime.obj
 0001:00054d15       ___acrt_locale_initialize_time 10055d15 f   libucrt:inittime.obj
 0001:00054eb3       _wcsncpy_s                 10055eb3 f   libucrt:wcsncpy_s.obj
 0001:00054ec0       _wcscspn                   10055ec0 f   libucrt:wcscspn.obj
 0001:00054f24       _wcsncmp                   10055f24 f   libucrt:wcsncmp.obj
 0001:00054f6c       _wcspbrk                   10055f6c f   libucrt:wcspbrk.obj
 0001:00054fc2       ___acrt_GetStringTypeA     10055fc2 f   libucrt:getstringtypea.obj
 0001:00055a36       ___acrt_get_qualified_locale 10056a36 f   libucrt:get_qualified_locale.obj
 0001:000565dd       ___acrt_get_qualified_locale_downlevel 100575dd f   libucrt:getqloc_downlevel.obj
 0001:00056865       _localeconv                10057865 f   libucrt:localeconv.obj
 0001:00056899       __wcsnicmp                 10057899 f   libucrt:wcsnicmp.obj
 0001:0005697f       __wcsnicmp_l               1005797f f   libucrt:wcsnicmp.obj
 0001:00056ac0       _strncmp                   10057ac0 f   libucrt:strncmp.obj
 0001:00056b56       __strnicmp                 10057b56 f   libucrt:strnicmp.obj
 0001:00056bdd       __strnicmp_l               10057bdd f   libucrt:strnicmp.obj
 0001:00056cc1       ??$__vcrt_va_start_verify_argument_type@$$CBH@@YAXXZ 10057cc1 f i libucrt:open.obj
 0001:00057078       ??$tsopen_nolock@PAHABQAHABQBDABHABHABHABH@?$__crt_char_traits@D@@SAH$$QAPAHABQAHABQBDABH333@Z 10058078 f i libucrt:open.obj
 0001:000570b6       ??$tsopen_nolock@PAHABQAHABQB_WABHABHABHABH@?$__crt_char_traits@_W@@SAH$$QAPAHABQAHABQB_WABH333@Z 100580b6 f i libucrt:open.obj
 0001:000570f4       ??$tsopen_nolock@PAHPAHABQBDABHHABHH@?$__crt_char_traits@D@@SAH$$QAPAH0ABQBDABH$$QAH23@Z 100580f4 f i libucrt:open.obj
 0001:00057132       ??$tsopen_nolock@PAHPAHABQB_WABHHABHH@?$__crt_char_traits@_W@@SAH$$QAPAH0ABQB_WABH$$QAH23@Z 10058132 f i libucrt:open.obj
 0001:00057900       __open                     10058900 f   libucrt:open.obj
 0001:0005791e       __sopen                    1005891e f   libucrt:open.obj
 0001:00057960       __sopen_dispatch           10058960 f   libucrt:open.obj
 0001:0005796d       __sopen_nolock             1005896d f   libucrt:open.obj
 0001:000579d2       __sopen_s                  100589d2 f   libucrt:open.obj
 0001:000579fa       __wopen                    100589fa f   libucrt:open.obj
 0001:00057a18       __wsopen                   10058a18 f   libucrt:open.obj
 0001:00057a5a       __wsopen_dispatch          10058a5a f   libucrt:open.obj
 0001:00057a67       __wsopen_nolock            10058a67 f   libucrt:open.obj
 0001:00057e5a       __wsopen_s                 10058e5a f   libucrt:open.obj
 0001:00057e82       ___p__commode              10058e82 f   libucrt:ncommode.obj
 0001:00057e88       ___acrt_stdio_allocate_buffer_nolock 10058e88 f   libucrt:_getbuf.obj
 0001:00057efc       ??$?RV<lambda_4980db0136e49a56f91ef52c46ca659a>@@AAV<lambda_6e3e78bb6855d1e4040e022c1b427e22>@@V<lambda_9c074eaf62197b4fd0274ed9e7824161>@@@?$__crt_seh_guarded_call@G@@QAEG$$QAV<lambda_4980db0136e49a56f91ef52c46ca659a>@@AAV<lambda_6e3e78bb6855d1e4040e022c1b427e22>@@$$QAV<lambda_9c074eaf62197b4fd0274ed9e7824161>@@@Z 10058efc f i libucrt:putwch.obj
 0001:00057f71       ??$__acrt_lock_and_call@V<lambda_6e3e78bb6855d1e4040e022c1b427e22>@@@@YAGW4__acrt_lock_id@@$$QAV<lambda_6e3e78bb6855d1e4040e022c1b427e22>@@@Z 10058f71 f i libucrt:putwch.obj
 0001:00058009       __putwch                   10059009 f   libucrt:putwch.obj
 0001:0005802d       __putwch_nolock            1005902d f   libucrt:putwch.obj
 0001:00058083       _nextafter                 10059083 f   libucrt:nextafter.obj
 0001:000580a9       ??1scoped_global_state_reset@__crt_state_management@@QAE@XZ 100590a9 f i libucrt:qsort.obj
 0001:000581c0       _qsort                     100591c0 f   libucrt:qsort.obj
 0001:0005871d       _strncpy_s                 1005971d f   libucrt:strncpy_s.obj
 0001:00058730       _strpbrk                   10059730 f   libucrt:strpbrk.obj
 0001:00058780       __mbsdec                   10059780 f   libucrt:mbsdec.obj
 0001:0005879c       __mbsdec_l                 1005979c f   libucrt:mbsdec.obj
 0001:0005885e       __wcsnicoll                1005985e f   libucrt:wcsnicol.obj
 0001:00058962       __wcsnicoll_l              10059962 f   libucrt:wcsnicol.obj
 0001:00058ada       __strnicoll                10059ada f   libucrt:strnicol.obj
 0001:00058b0d       __strnicoll_l              10059b0d f   libucrt:strnicol.obj
 0001:00058c48       __msize                    10059c48 f   libucrt:msize.obj
 0001:00058c87       ___strncnt                 10059c87 f   libucrt:strncnt.obj
 0001:00058de3       ___acrt_GetLocaleInfoA     10059de3 f   libucrt:getlocaleinfoa.obj
 0001:00059001       _fegetenv                  1005a001 f   libucrt:fegetenv.obj
 0001:00059025       _fesetenv                  1005a025 f   libucrt:fesetenv.obj
 0001:00059080       _feholdexcept              1005a080 f   libucrt:feholdexcept.obj
 0001:000590f0       _log10                     1005a0f0 f   libucrt:log10.obj
 0001:00059130       __CIlog10                  1005a130 f   libucrt:log10.obj
 0001:0005916b       __CIlog10_default          1005a16b f   libucrt:log10.obj
 0001:0005917f       __log10_default            1005a17f     libucrt:log10.obj
 0001:000592a0       _ceil                      1005a2a0 f   libucrt:ceil_pentium4.obj
 0001:000592e0       __ceil_pentium4            1005a2e0 f   libucrt:ceil_pentium4.obj
 0001:00059404       __wcsicmp                  1005a404 f   libucrt:wcsicmp.obj
 0001:000594be       __wcsicmp_l                1005a4be f   libucrt:wcsicmp.obj
 0001:000595d6       __towlower_l               1005a5d6 f   libucrt:towlower.obj
 0001:000596d1       _towlower                  1005a6d1 f   libucrt:towlower.obj
 0001:000596f0       ___ascii_strnicmp          1005a6f0 f   libucrt:_strnicm.obj
 0001:00059769       ??$__crt_interlocked_read@H@@YAHPDH@Z 1005a769 f i libucrt:setmode.obj
 0001:00059778       __get_fmode                1005a778 f   libucrt:setmode.obj
 0001:000597af       __set_fmode                1005a7af f   libucrt:setmode.obj
 0001:000597fb       __setmode                  1005a7fb f   libucrt:setmode.obj
 0001:0005994c       __setmode_nolock           1005a94c f   libucrt:setmode.obj
 0001:00059a51       ??$?RV<lambda_4cfda81533ccf5a03113a1ca40a30445>@@AAV<lambda_1cffa78e445b1da5fba1a2e0e533226f>@@V<lambda_68c952aa1b860373b2109ef12d0bba9d>@@@?$__crt_seh_guarded_call@H@@QAEH$$QAV<lambda_4cfda81533ccf5a03113a1ca40a30445>@@AAV<lambda_1cffa78e445b1da5fba1a2e0e533226f>@@$$QAV<lambda_68c952aa1b860373b2109ef12d0bba9d>@@@Z 1005aa51 f i libucrt:chsize.obj
 0001:00059afb       ??$__acrt_lowio_lock_fh_and_call@V<lambda_1cffa78e445b1da5fba1a2e0e533226f>@@@@YAHH$$QAV<lambda_1cffa78e445b1da5fba1a2e0e533226f>@@@Z 1005aafb f i libucrt:chsize.obj
 0001:00059bdd       __chsize                   1005abdd f   libucrt:chsize.obj
 0001:00059c00       __chsize_nolock            1005ac00 f   libucrt:chsize.obj
 0001:00059df5       __chsize_s                 1005adf5 f   libucrt:chsize.obj
 0001:00059eb6       __umask                    1005aeb6 f   libucrt:umask.obj
 0001:00059ee4       __umask_s                  1005aee4 f   libucrt:umask.obj
 0001:00059f2d       ___dcrt_lowio_initialize_console_output 1005af2d f   libucrt:initcon.obj
 0001:00059f53       ___dcrt_terminate_console_output 1005af53 f   libucrt:initcon.obj
 0001:00059f6f       _nexttoward                1005af6f f   libucrt:nexttoward.obj
 0001:0005a120       ___acrt_CompareStringW     1005b120 f   libucrt:comparestringw.obj
 0001:0005a4f4       ___acrt_CompareStringA     1005b4f4 f   libucrt:comparestringa.obj
 0001:0005a54e       ___acrt_fenv_get_fp_status_word_from_exception_mask 1005b54e f   libucrt:_fenvutils.obj
 0001:0005a991       __getfpcontrolword         1005b991 f   libucrt:_fenvutils.obj
 0001:0005a9e4       __getfpstatusword          1005b9e4 f   libucrt:_fenvutils.obj
 0001:0005aab6       __setfpcontrolword         1005bab6 f   libucrt:_fenvutils.obj
 0001:0005ab56       __setfpstatusword          1005bb56 f   libucrt:_fenvutils.obj
 0001:0005ad8c       ___control87_2             1005bd8c f   libucrt:ieee87.obj
 0001:0005b360       ___fpreset_sse2            1005c360 f   libucrt:ieee87.obj
 0001:0005b5b3       __clearfp                  1005c5b3 f   libucrt:ieee87.obj
 0001:0005b6c8       __control87                1005c6c8 f   libucrt:ieee87.obj
 0001:0005ba8a       __controlfp                1005ca8a f   libucrt:ieee87.obj
 0001:0005baaa       __fpreset                  1005caaa f   libucrt:ieee87.obj
 0001:0005bba7       __set_controlfp            1005cba7 f   libucrt:ieee87.obj
 0001:0005bc3d       __statusfp                 1005cc3d f   libucrt:ieee87.obj
 0001:0005bd00       __statusfp2                1005cd00 f   libucrt:ieee87.obj
 0001:0005bd7d       ___acrt_initialize_sse2    1005cd7d f   libucrt:mathfcns.obj
 0001:0005bd8f       __set_SSE2_enable          1005cd8f f   libucrt:mathfcns.obj
 0001:0005bdc0       __CIlog10_pentium4         1005cdc0 f   libucrt:log10_pentium4.obj
 0001:0005bdd8       __log10_pentium4           1005cdd8     libucrt:log10_pentium4.obj
 0001:0005c111       __fFEXP                    1005d111     libucrt:87tran.obj
 0001:0005c168       __rtinfpopse               1005d168     libucrt:87tran.obj
 0001:0005c16a       __rtinfnpopse              1005d16a     libucrt:87tran.obj
 0001:0005c17a       __fFLN                     1005d17a     libucrt:87tran.obj
 0001:0005c22f       __rtinfpop                 1005d22f     libucrt:87tran.obj
 0001:0005c231       __rtinfnpop                1005d231     libucrt:87tran.obj
 0001:0005c24e       __ffexpm1                  1005d24e     libucrt:87tran.obj
 0001:0005c380       __trandisp1                1005d380 f   libucrt:87disp.obj
 0001:0005c3e7       __trandisp2                1005d3e7 f   libucrt:87disp.obj
 0001:0005c473       __rttospopde               1005d473     libucrt:87disp.obj
 0001:0005c478       __rttospop                 1005d478     libucrt:87disp.obj
 0001:0005c47a       __rtnospop                 1005d47a     libucrt:87disp.obj
 0001:0005c47c       __rttosnpop                1005d47c     libucrt:87disp.obj
 0001:0005c47d       __rtnospopde               1005d47d     libucrt:87disp.obj
 0001:0005c484       __rtzeropop                1005d484     libucrt:87disp.obj
 0001:0005c486       __rtzeronpop               1005d486     libucrt:87disp.obj
 0001:0005c48b       __rtzerospop               1005d48b     libucrt:87disp.obj
 0001:0005c498       __rtonepop                 1005d498     libucrt:87disp.obj
 0001:0005c49a       __rtonenpop                1005d49a     libucrt:87disp.obj
 0001:0005c49f       __tosnan1                  1005d49f     libucrt:87disp.obj
 0001:0005c4ca       __nosnan2                  1005d4ca     libucrt:87disp.obj
 0001:0005c4cc       __tosnan2                  1005d4cc     libucrt:87disp.obj
 0001:0005c4f4       __nan2                     1005d4f4     libucrt:87disp.obj
 0001:0005c533       __rtindfpop                1005d533     libucrt:87disp.obj
 0001:0005c535       __rtindfnpop               1005d535     libucrt:87disp.obj
 0001:0005c546       __rttosnpopde              1005d546     libucrt:87disp.obj
 0001:0005c550       __rtatan2inf               1005d550     libucrt:87disp.obj
 0001:0005c56d       __rtchsifneg               1005d56d     libucrt:87disp.obj
 0001:0005c5f1       ___setfflag                1005d5f1 f   libucrt:fp_flags.obj
 0001:0005c610       __twoToTOS                 1005d610 f   libucrt:common.obj
 0001:0005c625       __load_CW                  1005d625 f   libucrt:common.obj
 0001:0005c63c       __convertTOStoQNaN         1005d63c f   libucrt:common.obj
 0001:0005c655       __fload_withFB             1005d655 f   libucrt:common.obj
 0001:0005c698       __checkTOS_withFB          1005d698 f   libucrt:common.obj
 0001:0005c6ae       __fast_exit                1005d6ae f   libucrt:common.obj
 0001:0005c6bb       __math_exit                1005d6bb f   libucrt:common.obj
 0001:0005c6e5       __check_overflow_exit      1005d6e5 f   libucrt:common.obj
 0001:0005c6f9       __check_range_exit         1005d6f9 f   libucrt:common.obj
 0001:0005c800       __startTwoArgErrorHandling 1005d800 f   libucrt:genexcep.obj
 0001:0005c817       __startOneArgErrorHandling 1005d817 f   libucrt:genexcep.obj
 0001:0005c867       ___libm_error_support      1005d867 f   libucrt:libm_error.obj
 0001:0005cb05       ___libm_setusermatherr     1005db05 f   libucrt:libm_error.obj
 0001:0005cb3e       __ceil_default             1005db3e f   libucrt:ceil.obj
 0001:0005cc25       ___acrt_LCMapStringW       1005dc25 f   libucrt:lcmapstringw.obj
 0001:0005cc72       ___p__fmode                1005dc72 f   libucrt:txtmode.obj
 0001:0005cc78       __d_int                    1005dc78 f   libucrt:_test.obj
 0001:0005cdc0       __dtest                    1005ddc0 f   libucrt:_test.obj
 0001:0005ce3d       __fd_int                   1005de3d f   libucrt:_test.obj
 0001:0005cf3f       __fdtest                   1005df3f f   libucrt:_test.obj
 0001:0005cfa0       __fperrraise               1005dfa0 f   libucrt:_test.obj
 0001:0005cfcb       __ld_int                   1005dfcb f   libucrt:_test.obj
 0001:0005cfd8       __ldtest                   1005dfd8 f   libucrt:_test.obj
 0001:0005d07d       __controlfp_s              1005e07d f   libucrt:contrlfp.obj
 0001:0005d0f3       __d_inttype                1005e0f3 f   libucrt:powhlp.obj
 0001:0005d177       __powhlp                   1005e177 f   libucrt:powhlp.obj
 0001:0005d2ec       __87except                 1005e2ec f   libucrt:87except.obj
 0001:0005d439       __frnd                     1005e439 f   libucrt:frnd.obj
 0001:0005d454       _fegetexceptflag           1005e454 f   libucrt:fegetexceptflag.obj
 0001:0005d491       _fesetexceptflag           1005e491 f   libucrt:fesetexceptflag.obj
 0001:0005d4f2       _fetestexcept              1005e4f2 f   libucrt:fetestexcept.obj
 0001:0005d520       __FindPESection            1005e520 f   LIBCMT:pesect.obj
 0001:0005d580       __IsNonwritableInCurrentImage 1005e580 f   LIBCMT:pesect.obj
 0001:0005d670       __ValidateImageBase        1005e670 f   LIBCMT:pesect.obj
 0001:0005d6b0       __aulldvrm                 1005e6b0 f   LIBCMT:ulldvrm.obj
 0001:0005d76a       ??1type_info@@UAE@XZ       1005e76a f   LIBCMT:std_type_info_static.obj
 0001:0005d771       ??_Gtype_info@@UAEPAXI@Z   1005e771 f i LIBCMT:std_type_info_static.obj
 0001:0005d771       ??_Etype_info@@UAEPAXI@Z   1005e771 f i LIBCMT:std_type_info_static.obj
 0001:0005d7a0       __SEH_prolog4_GS           1005e7a0 f   LIBCMT:_sehprolg4gs_.obj
 0001:0005d7e9       __SEH_epilog4_GS           1005e7e9 f   LIBCMT:_sehprolg4gs_.obj
 0001:0005d810       __allmul                   1005e810 f   LIBCMT:llmul.obj
 0001:0005d860       __alldvrm                  1005e860 f   LIBCMT:lldvrm.obj
 0001:0005d980       __aullshr                  1005e980 f   LIBCMT:ullshr.obj
 0001:0005d9b0       __alloca_probe             1005e9b0 f   LIBCMT:chkstk.obj
 0001:0005d9b0       __chkstk                   1005e9b0 f   LIBCMT:chkstk.obj
 0001:0005d9f0       __alloca_probe_16          1005e9f0 f   LIBCMT:alloca16.obj
 0001:0005da06       __alloca_probe_8           1005ea06     LIBCMT:alloca16.obj
 0001:0005da30       __allshl                   1005ea30 f   LIBCMT:llshl.obj
 0001:0005da60       __ftol2_sse                1005ea60 f   LIBCMT:_ftol2_.obj
 0001:0005da69       __ftol2_pentium4           1005ea69 f   LIBCMT:_ftol2_.obj
 0001:0005da7c       __ftol2_sse_excpt          1005ea7c f   LIBCMT:_ftol2_.obj
 0001:0005daa0       __ftol2                    1005eaa0 f   LIBCMT:_ftol2_.obj
 0001:0005db42       __initialize_default_precision 1005eb42 f   LIBCMT:default_precision.obj
 0001:0005db6b       ??3@YAXPAXI@Z              1005eb6b f   LIBCMT:delete_scalar_size.obj
 0001:0005db7c       ??3@YAXPAX@Z               1005eb7c f   LIBCMT:delete_scalar.obj
 0001:0005db82       _InterlockedPushEntrySList@8 1005eb82 f   kernel32:KERNEL32.dll
 0001:0005db88       _InterlockedFlushSList@4   1005eb88 f   kernel32:KERNEL32.dll
 0001:0005db8e       _RtlUnwind@16              1005eb8e f   kernel32:KERNEL32.dll
 0001:0005db94       _GetLastError@0            1005eb94 f   kernel32:KERNEL32.dll
 0001:0005db9a       _SetLastError@4            1005eb9a f   kernel32:KERNEL32.dll
 0001:0005dba0       _EnterCriticalSection@4    1005eba0 f   kernel32:KERNEL32.dll
 0001:0005dba6       _LeaveCriticalSection@4    1005eba6 f   kernel32:KERNEL32.dll
 0001:0005dbac       _DeleteCriticalSection@4   1005ebac f   kernel32:KERNEL32.dll
 0001:0005dbb2       _InitializeCriticalSectionAndSpinCount@8 1005ebb2 f   kernel32:KERNEL32.dll
 0001:0005dbb8       _TlsAlloc@0                1005ebb8 f   kernel32:KERNEL32.dll
 0001:0005dbbe       _TlsGetValue@4             1005ebbe f   kernel32:KERNEL32.dll
 0001:0005dbc4       _TlsSetValue@8             1005ebc4 f   kernel32:KERNEL32.dll
 0001:0005dbca       _TlsFree@4                 1005ebca f   kernel32:KERNEL32.dll
 0001:0005dbd0       _FreeLibrary@4             1005ebd0 f   kernel32:KERNEL32.dll
 0001:0005dbd6       _LoadLibraryExW@12         1005ebd6 f   kernel32:KERNEL32.dll
 0001:0005dbdc       _GetStdHandle@4            1005ebdc f   kernel32:KERNEL32.dll
 0001:0005dbe2       _GetFileType@4             1005ebe2 f   kernel32:KERNEL32.dll
 0001:0005dbe8       _GetModuleFileNameA@12     1005ebe8 f   kernel32:KERNEL32.dll
 0001:0005dbee       _GetModuleFileNameW@12     1005ebee f   kernel32:KERNEL32.dll
 0001:0005dbf4       _GetModuleHandleExW@12     1005ebf4 f   kernel32:KERNEL32.dll
 0001:0005dbfa       _WriteConsoleW@20          1005ebfa f   kernel32:KERNEL32.dll
 0001:0005dc00       _ExitProcess@4             1005ec00 f   kernel32:KERNEL32.dll
 0001:0005dc06       _RaiseException@16         1005ec06 f   kernel32:KERNEL32.dll
 0001:0005dc0c       _MultiByteToWideChar@24    1005ec0c f   kernel32:KERNEL32.dll
 0001:0005dc12       _WideCharToMultiByte@32    1005ec12 f   kernel32:KERNEL32.dll
 0001:0005dc18       _HeapFree@12               1005ec18 f   kernel32:KERNEL32.dll
 0001:0005dc1e       _HeapAlloc@12              1005ec1e f   kernel32:KERNEL32.dll
 0001:0005dc24       _GetDateFormatW@24         1005ec24 f   kernel32:KERNEL32.dll
 0001:0005dc2a       _GetTimeFormatW@24         1005ec2a f   kernel32:KERNEL32.dll
 0001:0005dc30       _CompareStringW@24         1005ec30 f   kernel32:KERNEL32.dll
 0001:0005dc36       _LCMapStringW@24           1005ec36 f   kernel32:KERNEL32.dll
 0001:0005dc3c       _GetLocaleInfoW@16         1005ec3c f   kernel32:KERNEL32.dll
 0001:0005dc42       _IsValidLocale@8           1005ec42 f   kernel32:KERNEL32.dll
 0001:0005dc48       _GetUserDefaultLCID@0      1005ec48 f   kernel32:KERNEL32.dll
 0001:0005dc4e       _EnumSystemLocalesW@8      1005ec4e f   kernel32:KERNEL32.dll
 0001:0005dc54       _GetCurrentThread@0        1005ec54 f   kernel32:KERNEL32.dll
 0001:0005dc5a       _GetACP@0                  1005ec5a f   kernel32:KERNEL32.dll
 0001:0005dc60       _WriteFile@20              1005ec60 f   kernel32:KERNEL32.dll
 0001:0005dc66       _OutputDebugStringA@4      1005ec66 f   kernel32:KERNEL32.dll
 0001:0005dc6c       _OutputDebugStringW@4      1005ec6c f   kernel32:KERNEL32.dll
 0001:0005dc72       _CloseHandle@4             1005ec72 f   kernel32:KERNEL32.dll
 0001:0005dc78       _WaitForSingleObjectEx@12  1005ec78 f   kernel32:KERNEL32.dll
 0001:0005dc7e       _CreateThread@24           1005ec7e f   kernel32:KERNEL32.dll
 0001:0005dc84       _SetConsoleCtrlHandler@8   1005ec84 f   kernel32:KERNEL32.dll
 0001:0005dc8a       _HeapReAlloc@16            1005ec8a f   kernel32:KERNEL32.dll
 0001:0005dc90       _ReadFile@20               1005ec90 f   kernel32:KERNEL32.dll
 0001:0005dc96       _GetConsoleMode@8          1005ec96 f   kernel32:KERNEL32.dll
 0001:0005dc9c       _ReadConsoleW@20           1005ec9c f   kernel32:KERNEL32.dll
 0001:0005dca2       _GetConsoleCP@0            1005eca2 f   kernel32:KERNEL32.dll
 0001:0005dca8       _DeleteFileW@4             1005eca8 f   kernel32:KERNEL32.dll
 0001:0005dcae       _SetFilePointerEx@20       1005ecae f   kernel32:KERNEL32.dll
 0001:0005dcb4       _FindClose@4               1005ecb4 f   kernel32:KERNEL32.dll
 0001:0005dcba       _FindFirstFileExA@24       1005ecba f   kernel32:KERNEL32.dll
 0001:0005dcc0       _FindFirstFileExW@24       1005ecc0 f   kernel32:KERNEL32.dll
 0001:0005dcc6       _FindNextFileA@8           1005ecc6 f   kernel32:KERNEL32.dll
 0001:0005dccc       _FindNextFileW@8           1005eccc f   kernel32:KERNEL32.dll
 0001:0005dcd2       _IsValidCodePage@4         1005ecd2 f   kernel32:KERNEL32.dll
 0001:0005dcd8       _GetOEMCP@0                1005ecd8 f   kernel32:KERNEL32.dll
 0001:0005dcde       _GetCPInfo@8               1005ecde f   kernel32:KERNEL32.dll
 0001:0005dce4       _GetCommandLineA@0         1005ece4 f   kernel32:KERNEL32.dll
 0001:0005dcea       _GetCommandLineW@0         1005ecea f   kernel32:KERNEL32.dll
 0001:0005dcf0       _GetEnvironmentStringsW@0  1005ecf0 f   kernel32:KERNEL32.dll
 0001:0005dcf6       _FreeEnvironmentStringsW@4 1005ecf6 f   kernel32:KERNEL32.dll
 0001:0005dcfc       _SetEnvironmentVariableA@8 1005ecfc f   kernel32:KERNEL32.dll
 0001:0005dd02       _SetEnvironmentVariableW@8 1005ed02 f   kernel32:KERNEL32.dll
 0001:0005dd08       _GetProcessHeap@0          1005ed08 f   kernel32:KERNEL32.dll
 0001:0005dd0e       _GetStringTypeW@16         1005ed0e f   kernel32:KERNEL32.dll
 0001:0005dd14       _FlushFileBuffers@4        1005ed14 f   kernel32:KERNEL32.dll
 0001:0005dd1a       _SetStdHandle@8            1005ed1a f   kernel32:KERNEL32.dll
 0001:0005dd20       _CreateFileW@28            1005ed20 f   kernel32:KERNEL32.dll
 0001:0005dd26       _HeapSize@12               1005ed26 f   kernel32:KERNEL32.dll
 0001:0005dd2c       _SetEndOfFile@4            1005ed2c f   kernel32:KERNEL32.dll
 0001:0005dd32       _EncodePointer@4           1005ed32 f   kernel32:KERNEL32.dll
 0001:0005dd38       _DecodePointer@4           1005ed38 f   kernel32:KERNEL32.dll
 0001:0005dd40       _strrchr                   1005ed40 f   libvcruntime:strrchr.obj
 0001:0005e027       _memcmp                    1005f027 f   libvcruntime:_memcmp_.obj
 0001:00061b0f       _wcschr                    10062b0f f   libvcruntime:wcschr.obj
 0002:00000000       ___xc_a                    10063000     LIBCMT:initializers.obj
 0002:00000104       ___xc_z                    10063104     LIBCMT:initializers.obj
 0002:00000208       ___xi_a                    10063208     LIBCMT:initializers.obj
 0002:0000030c       ___acrt_stdio_initializer  1006330c     libucrt:stdio_initializer.obj
 0002:00000310       ___acrt_multibyte_initializer 10063310     libucrt:multibyte_initializer.obj
 0002:00000314       ___acrt_tran_sse2_initializer 10063314     libucrt:sse2_initializer.obj
 0002:0000041c       ___xi_z                    1006341c     LIBCMT:initializers.obj
 0002:00000520       ___xp_a                    10063520     LIBCMT:initializers.obj
 0002:00000624       ___acrt_locale_terminator  10063624     libucrt:locale_initializer.obj
 0002:00000628       ___dcrt_console_output_terminator 10063628     libucrt:console_output_initializer.obj
 0002:00000730       ___acrt_stdio_terminator   10063730     libucrt:stdio_initializer.obj
 0002:00000834       ___xp_z                    10063834     LIBCMT:initializers.obj
 0002:00000938       ___xt_a                    10063938     LIBCMT:initializers.obj
 0002:00000a3c       ___xt_z                    10063a3c     LIBCMT:initializers.obj
 0002:00000b40       _E_stopnew_M               10063b40     E_stopnew.obj
 0002:00000b44       ??_C@_0BI@PHJEPFFP@Error?5creating?5scope?51?6?$AA@ 10063b44     E_stopnew.obj
 0002:00000b60       ??_C@_05JIDBFJIA@Q4?5AD?$AA@ 10063b60     E_stopnew.obj
 0002:00000b68       ??_C@_0BC@OJJPBDHH@FixedStepDiscrete?$AA@ 10063b68     E_stopnew.obj
 0002:00000b80       ??_C@_04EPKDLPPB@tout?$AA@ 10063b80     E_stopnew.obj
 0002:00000b86       ??_C@_00CNPNBAHC@?$AA@     10063b86     E_stopnew.obj
 0002:00000b88       ??_C@_03HBFGMJOD@rt_?$AA@  10063b88     E_stopnew.obj
 0002:00000b8c       ??_C@_0BA@EFGDLPOH@E_stopnew?1Q4?5AD?$AA@ 10063b8c     E_stopnew.obj
 0002:00000ba0       ??_C@_06EJLBKEAC@Q4?5DA?5?$AA@ 10063ba0     E_stopnew.obj
 0002:00000ba8       ??_C@_0BB@JKLKACBP@E_stopnew?1Q4?5DA?5?$AA@ 10063ba8     E_stopnew.obj
 0002:00000bc0       __real@3f50624dd2f1a9fc    10063bc0     E_stopnew.obj
 0002:00000bd0       __real@3f847ae147ae147b    10063bd0     E_stopnew.obj
 0002:00000be0       __real@4008000000000000    10063be0     E_stopnew.obj
 0002:00000bf0       __real@4024000000000000    10063bf0     E_stopnew.obj
 0002:00000c00       __real@407f400000000000    10063c00     E_stopnew.obj
 0002:00000c10       __real@41f0000000000000    10063c10     E_stopnew.obj
 0002:00000c20       __real@bff0000000000000    10063c20     E_stopnew.obj
 0002:00000c30       __xmm@00000031000000030000000800000002 10063c30     E_stopnew.obj
 0002:00000c50       __xmm@3f847ae147ae147b3f50624dd2f1a9fc 10063c50     E_stopnew.obj
 0002:00000c70       __xmm@41f00000000000000000000000000000 10063c70     E_stopnew.obj
 0002:00000c88       __real@3cb0000000000000    10063c88     rt_matrx.obj
 0002:00000c98       __real@3fe0000000000000    10063c98     rt_matrx.obj
 0002:00000ca8       __real@3ff0000000000000    10063ca8     rt_matrx.obj
 0002:00000fb0       ??_C@_09IIHOELEE@Constant1?$AA@ 10063fb0     E_stopnew_capi.obj
 0002:00000fbc       ??_C@_0BE@COBMCIKG@Relational?5Operator?$AA@ 10063fbc     E_stopnew_capi.obj
 0002:00000fd4       ??_C@_08CHMPKCOC@Constant?$AA@ 10063fd4     E_stopnew_capi.obj
 0002:00000fe0       ??_C@_05LPIJGKJ@Value?$AA@ 10063fe0     E_stopnew_capi.obj
 0002:00000fe8       ??_C@_02KKFPAPOP@P1?$AA@   10063fe8     E_stopnew_capi.obj
 0002:00000fec       ??_C@_02IBHCFMCM@P2?$AA@   10063fec     E_stopnew_capi.obj
 0002:00000ff0       ??_C@_02JIGJGNGN@P3?$AA@   10063ff0     E_stopnew_capi.obj
 0002:00000ff4       ??_C@_02MODDMKOL@P5?$AA@   10063ff4     E_stopnew_capi.obj
 0002:00000ff8       ??_C@_02OFBOJJCI@P6?$AA@   10063ff8     E_stopnew_capi.obj
 0002:00000ffc       ??_C@_02PMAFKIGJ@P7?$AA@   10063ffc     E_stopnew_capi.obj
 0002:00001000       ??_C@_02NHCIPLKK@P4?$AA@   10064000     E_stopnew_capi.obj
 0002:00001004       ??_C@_02HLJNLEKG@P8?$AA@   10064004     E_stopnew_capi.obj
 0002:00001008       ??_C@_02GCIGIFOH@P9?$AA@   10064008     E_stopnew_capi.obj
 0002:0000100c       ??_C@_06BNJCAIGJ@double?$AA@ 1006400c     E_stopnew_capi.obj
 0002:00001014       ??_C@_06CNMIJIPB@real_T?$AA@ 10064014     E_stopnew_capi.obj
 0002:0000101c       ??_C@_0O@PPAIJIHF@unsigned?5char?$AA@ 1006401c     E_stopnew_capi.obj
 0002:0000102c       ??_C@_09JBMFCIMO@boolean_T?$AA@ 1006402c     E_stopnew_capi.obj
 0002:00001038       ??_C@_05KNFBNCOH@float?$AA@ 10064038     E_stopnew_capi.obj
 0002:00001040       _serialfifoground          10064040     xpc_datatype_ground.obj
 0002:0000104c       _bcmsg1553ground           1006404c     xpc_datatype_ground.obj
 0002:0000105c       _bcstatground              1006405c     xpc_datatype_ground.obj
 0002:00001074       _bmmsg1553ground           10064074     xpc_datatype_ground.obj
 0002:000010b0       ??_C@_0BI@INNPNFJN@Memory?5Allocation?5Error?$AA@ 100640b0     rtw_modelmap_utils.obj
 0002:000010d0       ??_C@_1HC@IFMGIDHA@?$AAC?$AA?3?$AA?2?$AAP?$AAR?$AAO?$AAG?$AAR?$AAA?$AA?$HO?$AA1?$AA?2?$AAM?$AAA?$AAT?$AAL?$AAA?$AAB?$AA?2?$AAR?$AA2?$AA0?$AA1?$AA7?$AAa?$AA?2?$AAr?$AAt?$AAw?$AA?2?$AAc?$AA?2@ 100640d0     rtw_modelmap_utils.obj
 0002:00001158       ??_C@_1CI@OEAJCJND@?$AAj?$AA?5?$AA?$DN?$AA?$DN?$AA?5?$AAe?$AAn?$AAc?$AAo?$AAd?$AAe?$AAd?$AAP?$AAa?$AAt?$AAh?$AAL?$AAe?$AAn?$AA?$AA@ 10064158     rtw_modelmap_utils.obj
 0002:00001188       ??_C@_1DC@NFAOIFKB@?$AAe?$AAn?$AAc?$AAo?$AAd?$AAe?$AAd?$AAP?$AAa?$AAt?$AAh?$AA?$FL?$AAj?$AA?9?$AA1?$AA?$FN?$AA?5?$AA?$DN?$AA?$DN?$AA?5?$AA?8?$AA?2?$AA0?$AA?8?$AA?$AA@ 10064188     rtw_modelmap_utils.obj
 0002:000011c4       ??_C@_1DI@FLNJGPEE@?$AAs?$AAi?$AAg?$AAC?$AAo?$AAm?$AAp?$AAl?$AAe?$AAx?$AAi?$AAt?$AAy?$AA?$FL?$AA?$CK?$AAs?$AAi?$AAg?$AAI?$AAd?$AAx?$AA?$FN?$AA?5?$AA?$CB?$AA?$DN?$AA?5?$AA1?$AA?$AA@ 100641c4     rtw_modelmap_utils.obj
 0002:00001208       ??_C@_1KI@OFELMGBG@?$AA?$CI?$AA?$CI?$AA?$CI?$AAd?$AAa?$AAt?$AAa?$AAT?$AAy?$AAp?$AAe?$AAM?$AAa?$AAp?$AA?$CJ?$AA?$FL?$AA?$CI?$AA?$CI?$AA?$CI?$AAs?$AAt?$AAa?$AAt?$AAe?$AAs?$AA?$CJ?$AA?$FL?$AA?$CI?$AAi?$AA?$CJ?$AA?$FN?$AA?4@ 10064208     rtw_modelmap_utils.obj
 0002:000012d4       ??_C@_1DA@ILCMPHNE@?$AAf?$AAu?$AAl?$AAl?$AAP?$AAa?$AAt?$AAh?$AA?5?$AA?$CB?$AA?$DN?$AA?5?$AA?$CI?$AA?$CI?$AAv?$AAo?$AAi?$AAd?$AA?5?$AA?$CK?$AA?$CJ?$AA0?$AA?$CJ?$AA?$AA@ 100642d4     rtw_modelmap_utils.obj
 0002:00001310       ??_C@_1CI@OEPPFCCA@?$AAp?$AAa?$AAt?$AAh?$AA?5?$AA?$CB?$AA?$DN?$AA?5?$AA?$CI?$AA?$CI?$AAv?$AAo?$AAi?$AAd?$AA?5?$AA?$CK?$AA?$CJ?$AA0?$AA?$CJ?$AA?$AA@ 10064310     rtw_modelmap_utils.obj
 0002:00001340       ??_C@_1FK@GLJIMFHB@?$AA?$CI?$AA?$CI?$AAm?$AAm?$AAi?$AA?$CJ?$AA?9?$AA?$DO?$AAI?$AAn?$AAs?$AAt?$AAa?$AAn?$AAc?$AAe?$AAM?$AAa?$AAp?$AA?4?$AAf?$AAu?$AAl?$AAl?$AAP?$AAa?$AAt?$AAh?$AA?$CJ?$AA?5?$AA?$DN?$AA?$DN@ 10064340     rtw_modelmap_utils.obj
 0002:000013ac       ??_C@_1DG@HPCJGNCE@?$AAm?$AAm?$AAi?$AAP?$AAa?$AAt?$AAh?$AA?$FL?$AAp?$AAa?$AAt?$AAh?$AAL?$AAe?$AAn?$AA?9?$AA1?$AA?$FN?$AA?5?$AA?$DN?$AA?$DN?$AA?5?$AA?8?$AA?2?$AA0?$AA?8?$AA?$AA@ 100643ac     rtw_modelmap_utils.obj
 0002:000013ec       ??_C@_1DM@DBAOGGOO@?$AAm?$AAm?$AAi?$AAP?$AAa?$AAt?$AAh?$AA?$FL?$AAm?$AAm?$AAi?$AAP?$AAa?$AAt?$AAh?$AAL?$AAe?$AAn?$AA?9?$AA1?$AA?$FN?$AA?5?$AA?$DN?$AA?$DN?$AA?5?$AA?8?$AA?2?$AA0?$AA?8?$AA?$AA@ 100643ec     rtw_modelmap_utils.obj
 0002:00001434       ??_C@_1DC@LHIAKAFE@?$AAb?$AAl?$AAo?$AAc?$AAk?$AAP?$AAa?$AAt?$AAh?$AA?5?$AA?$CB?$AA?$DN?$AA?5?$AA?$CI?$AA?$CI?$AAv?$AAo?$AAi?$AAd?$AA?5?$AA?$CK?$AA?$CJ?$AA0?$AA?$CJ?$AA?$AA@ 10064434     rtw_modelmap_utils.obj
 0002:00001470       ??_C@_1GI@KIEJKPGC@?$AAf?$AAu?$AAl?$AAl?$AAS?$AAt?$AAa?$AAt?$AAe?$AAB?$AAl?$AAo?$AAc?$AAk?$AAP?$AAa?$AAt?$AAh?$AA?$FL?$AAf?$AAu?$AAl?$AAl?$AAS?$AAt?$AAa?$AAt?$AAe?$AAB?$AAl?$AAo?$AAc@ 10064470     rtw_modelmap_utils.obj
 0002:000014f0       ??_C@_1EE@DNPIBJHC@?$AA?$CI?$AA?$CI?$AAd?$AAi?$AAm?$AAM?$AAa?$AAp?$AA?$CJ?$AA?$FL?$AA?$CI?$AAm?$AAa?$AAp?$AAI?$AAd?$AAx?$AA?$CJ?$AA?$FN?$AA?4?$AAn?$AAu?$AAm?$AAD?$AAi?$AAm?$AAs?$AA?$CJ?$AA?5?$AA?$DN?$AA?$DN?$AA?5@ 100644f0     rtw_modelmap_utils.obj
 0002:00001544       ??_C@_06JFOKFOED@CSTATE?$AA@ 10064544     rtw_modelmap_utils.obj
 0002:0000154c       ??_C@_06FAENGAMN@DSTATE?$AA@ 1006454c     rtw_modelmap_utils.obj
 0002:00001554       ??_C@_1BI@LEBJNOGG@?$AAc?$AAs?$AAv?$AAI?$AAd?$AAx?$AA?5?$AA?$DO?$AA?$DN?$AA?5?$AA0?$AA?$AA@ 10064554     rtw_modelmap_utils.obj
 0002:00001570       ??_C@_1BA@KDMGHCHP@?$AAT?$AAI?$AAD?$AA?$DN?$AA?$DN?$AA?9?$AA1?$AA?$AA@ 10064570     rtw_modelmap_utils.obj
 0002:00001584       ??_C@_1DM@DHGKBPCE@?$AAs?$AAi?$AAg?$AAP?$AAa?$AAt?$AAh?$AA?$FL?$AAs?$AAi?$AAg?$AAP?$AAa?$AAt?$AAh?$AAL?$AAe?$AAn?$AA?9?$AA1?$AA?$FN?$AA?5?$AA?$DN?$AA?$DN?$AA?5?$AA?8?$AA?2?$AA0?$AA?8?$AA?$AA@ 10064584     rtw_modelmap_utils.obj
 0002:00001e30       ??_C@_0DJ@FHKINPLE@Unexpected?5itemKind?5?$DN?5DATA_ITEM?5@ 10064e30     rt_logging.obj
 0002:00001e74       ??_C@_0DA@IEHFPFCJ@Unexpected?5itemKind?$DN?$CFd?5in?5rt_Pro@ 10064e74     rt_logging.obj
 0002:00001eb0       ??_C@_0DA@IFLHJPBO@Unexpected?5itemKind?$DN?$CFd?5in?5rt_Pro@ 10064eb0     rt_logging.obj
 0002:00001eec       ??_C@_0DA@IAPIIJJL@Unexpected?5itemKind?$DN?$CFd?5in?5rt_Pro@ 10064eec     rt_logging.obj
 0002:00001f28       ??_C@_0BE@LCIGPJIG@MATLAB?55?40?5MAT?9file?$AA@ 10064f28     rt_logging.obj
 0002:00001f40       ??_C@_0FB@PCJEAJIB@?$CK?$CK?$CK?5Log?5variable?5?$CFs?5has?5wrapped?5@ 10064f40     rt_logging.obj
 0002:00001fa8       ??_C@_0MG@NKMLMOGF@?$CK?$CK?$CK?5To?5avoid?5wrapping?0?5explicitl@ 10064fa8     rt_logging.obj
 0002:00002098       ??_C@_0N@IPAEOLLP@_rtw_tmw?4tmw?$AA@ 10065098     rt_logging.obj
 0002:000020a8       ??_C@_04HDOCAJNK@?$CFs?$CFs?$AA@ 100650a8     rt_logging.obj
 0002:000020b0       ??_C@_03ELIABIOC@w?$CLb?$AA@ 100650b0     rt_logging.obj
 0002:000020b4       ??_C@_0BF@JPILDDFA@?$CK?$CK?$CK?5Error?5opening?5?$CFs?$AA@ 100650b4     rt_logging.obj
 0002:000020d0       ??_C@_0BK@EEMDELA@unable?5to?5open?5data?5file?6?$AA@ 100650d0     rt_logging.obj
 0002:000020f0       ??_C@_04CGFJFPFD@none?$AA@ 100650f0     rt_logging.obj
 0002:000020f8       ??_C@_0EE@LCGFPNON@?$CK?$CK?$CK?5Error?5creating?5signals?5struc@ 100650f8     rt_logging.obj
 0002:0000214c       ??_C@_0CE@NHECEDMK@?$CK?$CK?$CK?5Error?5creating?5log?5variable?5@ 1006514c     rt_logging.obj
 0002:00002178       ??_C@_0DB@IOCGKAGH@?$CK?$CK?$CK?5Errors?5occurred?5when?5startin@ 10065178     rt_logging.obj
 0002:000021b4       ??_C@_0BO@BBLOGEBK@?$CK?$CK?$CK?5Memory?5allocation?5error?4?6?$AA@ 100651b4     rt_logging.obj
 0002:000021d8       ??_C@_0N@LGFBAGEL@?5?$CIreal?5part?$CJ?$AA@ 100651d8     rt_logging.obj
 0002:000021e8       ??_C@_0KH@CGNMHNFE@?5?5?5?5varName?5?5?5?5?5?5?5?5?5?5?$DN?5?$CFs?$CFs?6?5?5?5?5@ 100651e8     rt_logging.obj
 0002:000022b0       ??_C@_0LE@OALKKEFM@?5?5?5?5varName?5?5?5?5?5?5?5?5?5?5?$DN?5?$CFs?5?$CIcompl@ 100652b0     rt_logging.obj
 0002:00002388       ??_C@_0KF@JDDLEOKO@?5?5?5?5varName?5?5?5?5?5?5?5?5?5?5?$DN?5?$CFs?6?5?5?5?5nR@ 10065388     rt_logging.obj
 0002:00002450       ??_C@_0DP@HPDMIOFM@?$CK?$CK?$CK?5Using?5a?5default?5buffer?5of?5si@ 10065450     rt_logging.obj
 0002:000024a0       ??_C@_0KE@JEFOLKNF@?6?$CK?$CK?$CK?5Memory?5required?5to?5log?5vari@ 100654a0     rt_logging.obj
 0002:00002568       ??_C@_0JP@DKLMHCBI@?$CK?$CK?$CK?5Details?3?6?5?5?5?5?5?5?5varName?5?5?5?5?5@ 10065568     rt_logging.obj
 0002:00002628       ??_C@_0CM@CAMILBED@?$CK?$CK?$CK?5Error?5allocating?5memory?5for?5@ 10065628     rt_logging.obj
 0002:0000265c       ??_C@_0DF@BBCNMOPM@?$CK?$CK?$CK?5Error?5allocating?5memory?5for?5@ 1006565c     rt_logging.obj
 0002:000026a0       ??_C@_0JP@DBCLPCCI@?$CK?$CK?$CK?5Details?3?6?5?5?5?5?5?5?5varName?5?5?5?5?5@ 100656a0     rt_logging.obj
 0002:00002760       ??_C@_0FK@DPGAOBGA@?$CK?$CK?$CK?5Error?5allocating?5memory?5for?5@ 10065760     rt_logging.obj
 0002:000027cc       ??_C@_0BI@GGDNPHLJ@?$CK?$CK?$CK?5Error?5writing?5to?5?$CFs?$AA@ 100657cc     rt_logging.obj
 0002:000027e8       ??_C@_0CB@IBGJGELG@?$CK?$CK?$CK?5Error?5writing?5?$CFs?5due?5to?3?5?$CFs?6@ 100657e8     rt_logging.obj
 0002:00002810       ??_C@_0CN@FLMCHCPB@?$CK?$CK?$CK?5Error?5writing?5log?5variable?5?$CF@ 10065810     rt_logging.obj
 0002:00002848       ??_C@_0DH@GAJCNOJP@?$CK?$CK?$CK?5Error?5writing?5structure?5log?5@ 10065848     rt_logging.obj
 0002:0000288c       ??_C@_0BD@POEALECL@?$CK?$CK?5created?5?$CFs?5?$CK?$CK?6?6?$AA@ 1006588c     rt_logging.obj
 0002:000028a8       __real@0000000000000000    100658a8     rt_logging.obj
 0002:000028b8       __real@4020000000000000    100658b8     rt_logging.obj
 0002:000028c8       __real@41dfffffffc00000    100658c8     rt_logging.obj
 0002:000028d8       __real@41efffffffe00000    100658d8     rt_logging.obj
 0002:000028e8       __real@4330000000000000    100658e8     rt_logging.obj
 0002:000028f8       __real@8000000000000000    100658f8     rt_logging.obj
 0002:00002908       __real@bfbf9add3afd2773    10065908     rt_logging.obj
 0002:00002918       __real@c000000000000000    10065918     rt_logging.obj
 0002:00002930       __xmm@20202020202020202020202020202020 10065930     rt_logging.obj
 0002:00002944       ??_C@_09GBOIMAL@E_stopnew?$AA@ 10065944     xpctarget.obj
 0002:00002950       _ptsetfilename             10065950     xpctarget.obj
 0002:00002954       _xmlfile                   10065954     xpctarget.obj
 0002:0000295c       ??_C@_0L@CHBJKKFC@xpceSetVar?$AA@ 1006595c     xpctarget.obj
 0002:0000296c       ??_C@_03LADEHNAB@6?46?$AA@ 1006596c     xpctarget.obj
 0002:00002970       __real@3fb999999999999a    10065970     xpctarget.obj
 0002:00002980       __real@408f400000000000    10065980     xpctarget.obj
 0002:00002990       _E_stopnew_BIOMAP          10065990     appmappingData.obj
 0002:000029c0       _E_stopnew_LBLMAP          100659c0     appmappingData.obj
 0002:000029f0       _E_stopnew_SIDMAP          100659f0     appmappingData.obj
 0002:00002a20       _E_stopnew_SBIO            10065a20     appmappingData.obj
 0002:00002a30       _E_stopnew_SLBL            10065a30     appmappingData.obj
 0002:00002a40       _E_stopnew_PTIDSMAP        10065a40     appmappingData.obj
 0002:00002ad0       _E_stopnew_PTNAMESMAP      10065ad0     appmappingData.obj
 0002:00002b60       _E_stopnew_SPTMAP          10065b60     appmappingData.obj
 0002:00002ba8       _E_stopnew_dtmap           10065ba8     appmappingData.obj
 0002:00002bc0       _appInfo                   10065bc0     appmappingData.obj
 0002:00002c8c       ??_C@_0CC@FIFFDAB@?$CFd?5input?5args?5expected?0?5?$CFd?5passe@ 10065c8c     adquanserq8.obj
 0002:00002cb4       ??_C@_0L@GPCJJFPH@Quanser?5Q8?$AA@ 10065cb4     adquanserq8.obj
 0002:00002cc4       ??_C@_0L@MDJMNKPL@Quanser?5Q4?$AA@ 10065cc4     adquanserq8.obj
 0002:00002cd4       ??_C@_0BI@IHCNPKCM@No?5?$CFs?5at?5bus?5?$CFd?5slot?5?$CFd?$AA@ 10065cd4     adquanserq8.obj
 0002:00002cf0       ??_C@_0BN@HPKICLI@?$CFs?5A?1D?5driver?5internal?5error?$AA@ 10065cf0     adquanserq8.obj
 0002:00002d18       __real@3f54000000000000    10065d18     adquanserq8.obj
 0002:00002d24       ??_C@_0BK@DJPPGIA@Bad?5channel?5in?5?$CFs?5D?1A?3?5?$CFn?$AA@ 10065d24     daquanserq8.obj
 0002:00002d44       ??_C@_0BI@OLGKMIEO@Bad?5range?5in?5?$CFs?5D?1A?3?5?$CFd?$AA@ 10065d44     daquanserq8.obj
 0002:00002d60       __real@4014000000000000    10065d60     daquanserq8.obj
 0002:00002d70       __real@406999999999999a    10065d70     daquanserq8.obj
 0002:00002d80       __real@407999999999999a    10065d80     daquanserq8.obj
 0002:00002d8c       ??_C@_0CC@DMFKNLL@VendorId?5?$DN?50x?$CFx?0?5DeviceId?5?$DN?50x?$CFx@ 10065d8c     xpcruntime:xpcimports.obj
 0002:00002db4       ??_C@_0DH@OHCBLNMG@Subsystem?5Device?5ID?5?$DN?50x?$CFx?6Subsy@ 10065db4     xpcruntime:xpcimports.obj
 0002:00002df8       ??_C@_0BD@MMMMEFCM@Class?5Code?5?$DN?50x?$CFx?6?$AA@ 10065df8     xpcruntime:xpcimports.obj
 0002:00002e10       ??_C@_0BE@OLDDDNHM@InterruptLine?5?$DN?5?$CFd?6?$AA@ 10065e10     xpcruntime:xpcimports.obj
 0002:00002e28       ??_C@_0BF@OLKLEKBD@bus?5?$DN?5?$CFd?0?5slot?5?$DN?5?$CFd?6?$AA@ 10065e28     xpcruntime:xpcimports.obj
 0002:00002e44       ??_C@_0CE@DGLLGDFH@?5?5?5?5Phys?5?5?5Virtual?5?5?5Length?5IO?1M@ 10065e44     xpcruntime:xpcimports.obj
 0002:00002e70       ??_C@_0BI@FEOPLEMG@?$CF08x?5?$CF08x?5?$CF08x?5?5?5?5?5?5?$CFc?6?$AA@ 10065e70     xpcruntime:xpcimports.obj
 0002:00002e8c       ??_C@_0BB@BNNCEDPC@rl32eScopeExists?$AA@ 10065e8c     xpcruntime:xpcimports.obj
 0002:00002ea0       ??_C@_0BM@FJBFEGFG@rl32eScopeExists?5not?5found?6?$AA@ 10065ea0     xpcruntime:xpcimports.obj
 0002:00002ec4       ??_C@_0O@BNNGKJEA@rl32eDefScope?$AA@ 10065ec4     xpcruntime:xpcimports.obj
 0002:00002ed4       ??_C@_0BJ@CDNOENKA@rl32eDefScope?5not?5found?6?$AA@ 10065ed4     xpcruntime:xpcimports.obj
 0002:00002ef4       ??_C@_0P@CKNKILDP@rl32eAddSignal?$AA@ 10065ef4     xpcruntime:xpcimports.obj
 0002:00002f08       ??_C@_0BK@GMJAJBAI@rl32eAddSignal?5not?5found?6?$AA@ 10065f08     xpcruntime:xpcimports.obj
 0002:00002f28       ??_C@_0BB@LDMIHGCE@rl32eGetSignalNo?$AA@ 10065f28     xpcruntime:xpcimports.obj
 0002:00002f3c       ??_C@_0BM@LGAMBAID@rl32eGetSignalNo?5not?5found?6?$AA@ 10065f3c     xpcruntime:xpcimports.obj
 0002:00002f60       ??_C@_0O@CFDGALBP@rl32eSetScope?$AA@ 10065f60     xpcruntime:xpcimports.obj
 0002:00002f70       ??_C@_0BJ@JCLHHIN@rl32eSetScope?5not?5found?6?$AA@ 10065f70     xpcruntime:xpcimports.obj
 0002:00002f90       ??_C@_0P@IKMCBMHH@xpceFSScopeSet?$AA@ 10065f90     xpcruntime:xpcimports.obj
 0002:00002fa4       ??_C@_0BK@JODJPNNH@xpceFSScopeSet?5not?5found?6?$AA@ 10065fa4     xpcruntime:xpcimports.obj
 0002:00002fc4       ??_C@_0BE@DLACEEJM@rl32eSetTargetScope?$AA@ 10065fc4     xpcruntime:xpcimports.obj
 0002:00002fdc       ??_C@_0BP@JCHFMKPJ@rl32eSetTargetScope?5not?5found?6?$AA@ 10065fdc     xpcruntime:xpcimports.obj
 0002:00003004       ??_C@_0BJ@LIDLNDHC@rl32eSetTargetScopeSigFt?$AA@ 10066004     xpcruntime:xpcimports.obj
 0002:00003024       ??_C@_0CE@JLGHCFHI@rl32eSetTargetScopeSigFt?5not?5fou@ 10066024     xpcruntime:xpcimports.obj
 0002:00003050       ??_C@_0BI@JAPOIDNG@rl32eRestartAcquisition?$AA@ 10066050     xpcruntime:xpcimports.obj
 0002:0000306c       ??_C@_0CD@LLBEFFBO@rl32eRestartAcquisition?5not?5foun@ 1006606c     xpcruntime:xpcimports.obj
 0002:00003098       ??_C@_0P@IEIIADJB@xpceScopeAcqOK?$AA@ 10066098     xpcruntime:xpcimports.obj
 0002:000030ac       ??_C@_0BK@NJCKNFPN@xpceScopeAcqOK?5not?5found?6?$AA@ 100660ac     xpcruntime:xpcimports.obj
 0002:000030cc       ??_C@_0BA@IJINKAHF@xpceRegisterISR?$AA@ 100660cc     xpcruntime:xpcimports.obj
 0002:000030e0       ??_C@_0BL@NNDLOEJE@xpceRegisterISR?5not?5found?6?$AA@ 100660e0     xpcruntime:xpcimports.obj
 0002:00003100       ??_C@_0BC@NLBADGKF@xpceDeRegisterISR?$AA@ 10066100     xpcruntime:xpcimports.obj
 0002:00003118       ??_C@_0BN@DCAIKFFD@xpceDeRegisterISR?5not?5found?6?$AA@ 10066118     xpcruntime:xpcimports.obj
 0002:0000313c       ??_C@_07JPMEPILD@xpcInpB?$AA@ 1006613c     xpcruntime:xpcimports.obj
 0002:00003148       ??_C@_0BD@PGABEJOL@xpcInpB?5not?5found?6?$AA@ 10066148     xpcruntime:xpcimports.obj
 0002:00003160       ??_C@_07KIHBBOKH@xpcInpW?$AA@ 10066160     xpcruntime:xpcimports.obj
 0002:0000316c       ??_C@_0BD@FPCJFMCC@xpcInpW?5not?5found?6?$AA@ 1006616c     xpcruntime:xpcimports.obj
 0002:00003184       ??_C@_08KDIAJBOP@xpcInpDW?$AA@ 10066184     xpcruntime:xpcimports.obj
 0002:00003190       ??_C@_0BE@PIELDNIL@xpcInpDW?5not?5found?6?$AA@ 10066190     xpcruntime:xpcimports.obj
 0002:000031a8       ??_C@_08PJFMOIGO@xpcOutpB?$AA@ 100661a8     xpcruntime:xpcimports.obj
 0002:000031b4       ??_C@_0BE@HCKNCEKF@xpcOutpB?5not?5found?6?$AA@ 100661b4     xpcruntime:xpcimports.obj
 0002:000031cc       ??_C@_08MOOJAOHK@xpcOutpW?$AA@ 100661cc     xpcruntime:xpcimports.obj
 0002:000031d8       ??_C@_0BE@NLIFDBGM@xpcOutpW?5not?5found?6?$AA@ 100661d8     xpcruntime:xpcimports.obj
 0002:000031f0       ??_C@_09FLIEKHJG@xpcOutpDW?$AA@ 100661f0     xpcruntime:xpcimports.obj
 0002:000031fc       ??_C@_0BF@GJKLPNHB@xpcOutpDW?5not?5found?6?$AA@ 100661fc     xpcruntime:xpcimports.obj
 0002:00003218       ??_C@_0BH@EHOLELHH@xpcReserveMemoryRegion?$AA@ 10066218     xpcruntime:xpcimports.obj
 0002:00003234       ??_C@_0CC@KAAAGPI@xpcReserveMemoryRegion?5not?5found@ 10066234     xpcruntime:xpcimports.obj
 0002:0000325c       ??_C@_0BA@JGPMHGAF@rl32eShowPCIDev?$AA@ 1006625c     xpcruntime:xpcimports.obj
 0002:00003270       ??_C@_0BL@DDFFLNHI@rl32eShowPCIDev?5not?5found?6?$AA@ 10066270     xpcruntime:xpcimports.obj
 0002:00003290       ??_C@_0BB@KBCOJPFB@rl32eShowPCIInfo?$AA@ 10066290     xpcruntime:xpcimports.obj
 0002:000032a4       ??_C@_0BM@IFDMAGLO@rl32eShowPCIInfo?5not?5found?6?$AA@ 100662a4     xpcruntime:xpcimports.obj
 0002:000032c8       ??_C@_0BA@BGPAADB@rl32eGetPCIInfo?$AA@ 100662c8     xpcruntime:xpcimports.obj
 0002:000032dc       ??_C@_0BL@IGOMLDCK@rl32eGetPCIInfo?5not?5found?6?$AA@ 100662dc     xpcruntime:xpcimports.obj
 0002:000032fc       ??_C@_0BG@NJPFKFDP@rl32eGetPCIInfoAtSlot?$AA@ 100662fc     xpcruntime:xpcimports.obj
 0002:00003318       ??_C@_0CB@BBKIPMLA@rl32eGetPCIInfoAtSlot?5not?5found?6@ 10066318     xpcruntime:xpcimports.obj
 0002:00003340       ??_C@_0BH@OKBOPNFG@xpceAssignPCIInterrupt?$AA@ 10066340     xpcruntime:xpcimports.obj
 0002:0000335c       ??_C@_0CC@CDNDNJBJ@xpceAssignPCIInterrupt?5not?5found@ 1006635c     xpcruntime:xpcimports.obj
 0002:00003384       ??_C@_0BD@PCKOKHO@xpceGetSignalValue?$AA@ 10066384     xpcruntime:xpcimports.obj
 0002:0000339c       ??_C@_0BO@GCBDJHMB@xpceGetSignalValue?5not?5found?6?$AA@ 1006639c     xpcruntime:xpcimports.obj
 0002:000033c0       ??_C@_0BB@BJONJAGA@xpceSetParameter?$AA@ 100663c0     xpcruntime:xpcimports.obj
 0002:000033d4       ??_C@_0BM@BJIKDLHA@xpceSetParameter?5not?5found?6?$AA@ 100663d4     xpcruntime:xpcimports.obj
 0002:000033f8       ??_C@_0BB@GNFDFMCM@xpceGetParameter?$AA@ 100663f8     xpcruntime:xpcimports.obj
 0002:0000340c       ??_C@_0BM@POHNKBC@xpceGetParameter?5not?5found?6?$AA@ 1006640c     xpcruntime:xpcimports.obj
 0002:00003430       ??_C@_0BB@CEIJLFCD@xpceGetParamDims?$AA@ 10066430     xpcruntime:xpcimports.obj
 0002:00003444       ??_C@_0BM@OABDBKAO@xpceGetParamDims?5not?5found?6?$AA@ 10066444     xpcruntime:xpcimports.obj
 0002:00003468       ??_C@_0L@OCBLLHBM@xpceGetTET?$AA@ 10066468     xpcruntime:xpcimports.obj
 0002:00003478       ??_C@_0BG@HNOFBOB@xpceGetTET?5not?5found?6?$AA@ 10066478     xpcruntime:xpcimports.obj
 0002:00003494       ??_C@_0P@OKGNGAGH@xpcIsModelInit?$AA@ 10066494     xpcruntime:xpcimports.obj
 0002:000034a8       ??_C@_0BK@DHEMLBIM@xpcIsModelInit?5not?5found?6?$AA@ 100664a8     xpcruntime:xpcimports.obj
 0002:000034c8       ??_C@_0BH@KJJLCAOJ@xpcAllocPhysicalMemory?$AA@ 100664c8     xpcruntime:xpcimports.obj
 0002:000034e4       ??_C@_0CC@MOJPNHKL@xpcAllocPhysicalMemory?5not?5found@ 100664e4     xpcruntime:xpcimports.obj
 0002:0000350c       ??_C@_0BG@CBNPGAEL@xpcFreePhysicalMemory?$AA@ 1006650c     xpcruntime:xpcimports.obj
 0002:00003528       ??_C@_0CB@PKJEBPOG@xpcFreePhysicalMemory?5not?5found?6@ 10066528     xpcruntime:xpcimports.obj
 0002:00003550       ??_C@_0BC@JGKNLICL@xpcGetElapsedTime?$AA@ 10066550     xpcruntime:xpcimports.obj
 0002:00003568       ??_C@_0BN@OEOAHCIO@xpcGetElapsedTime?5not?5found?6?$AA@ 10066568     xpcruntime:xpcimports.obj
 0002:0000358c       ??_C@_0M@ICBLMODA@xpcBusyWait?$AA@ 1006658c     xpcruntime:xpcimports.obj
 0002:0000359c       ??_C@_0BH@FBOPECBI@xpcBusyWait?5not?5found?6?$AA@ 1006659c     xpcruntime:xpcimports.obj
 0002:000035b8       ??_C@_0N@LKKJEKKA@TBCreateSpin?$AA@ 100665b8     xpcruntime:xpcimports.obj
 0002:000035c8       ??_C@_0BI@FHKMLKOE@TBCreateSpin?5not?5found?6?$AA@ 100665c8     xpcruntime:xpcimports.obj
 0002:000035e4       ??_C@_0N@HOAJHNBD@TBDeleteSpin?$AA@ 100665e4     xpcruntime:xpcimports.obj
 0002:000035f4       ??_C@_0BI@BKCPAAG@TBDeleteSpin?5not?5found?6?$AA@ 100665f4     xpcruntime:xpcimports.obj
 0002:00003610       ??_C@_0P@DAHDDBJG@TBTakeSpinFast?$AA@ 10066610     xpcruntime:xpcimports.obj
 0002:00003624       ??_C@_0BK@NKAIBHGB@TBTakeSpinFast?5not?5found?6?$AA@ 10066624     xpcruntime:xpcimports.obj
 0002:00003644       ??_C@_0P@FKNAAELA@TBGiveSpinFast?$AA@ 10066644     xpcruntime:xpcimports.obj
 0002:00003658       ??_C@_0BK@KGPJBJND@TBGiveSpinFast?5not?5found?6?$AA@ 10066658     xpcruntime:xpcimports.obj
 0002:00003678       ??_C@_0BE@IIGBFDHK@xpceCreateSemaphore?$AA@ 10066678     xpcruntime:xpcimports.obj
 0002:00003690       ??_C@_0BP@KFBAFFKJ@xpceCreateSemaphore?5not?5found?6?$AA@ 10066690     xpcruntime:xpcimports.obj
 0002:000036b8       ??_C@_0BC@IFNIONKJ@xpceWaitSemaphore?$AA@ 100666b8     xpcruntime:xpcimports.obj
 0002:000036d0       ??_C@_0BN@NMFAADIO@xpceWaitSemaphore?5not?5found?6?$AA@ 100666d0     xpcruntime:xpcimports.obj
 0002:000036f4       ??_C@_0BE@NNDIOBKE@xpceSignalSemaphore?$AA@ 100666f4     xpcruntime:xpcimports.obj
 0002:0000370c       ??_C@_0BP@LBANMHJP@xpceSignalSemaphore?5not?5found?6?$AA@ 1006670c     xpcruntime:xpcimports.obj
 0002:00003734       ??_C@_0BE@MEBEKOIM@xpceDeleteSemaphore?$AA@ 10066734     xpcruntime:xpcimports.obj
 0002:0000374c       ??_C@_0BP@OFNCKOJH@xpceDeleteSemaphore?5not?5found?6?$AA@ 1006674c     xpcruntime:xpcimports.obj
 0002:00003774       ??_C@_0BD@MFNDMBOF@FindUsbVideoDevice?$AA@ 10066774     xpcruntime:xpcimports.obj
 0002:0000378c       ??_C@_0BO@POKLDHMI@FindUsbVideoDevice?5not?5found?6?$AA@ 1006678c     xpcruntime:xpcimports.obj
 0002:000037b0       ??_C@_0BA@PLPAPNAB@GetVideoConfigs?$AA@ 100667b0     xpcruntime:xpcimports.obj
 0002:000037c4       ??_C@_0BL@DALDHKHC@GetVideoConfigs?5not?5found?6?$AA@ 100667c4     xpcruntime:xpcimports.obj
 0002:000037e4       ??_C@_0L@GBAEMHMH@StartVideo?$AA@ 100667e4     xpcruntime:xpcimports.obj
 0002:000037f4       ??_C@_0BG@HDCELEBP@StartVideo?5not?5found?6?$AA@ 100667f4     xpcruntime:xpcimports.obj
 0002:00003810       ??_C@_0BA@FDNPOCLN@ReadFrameBuffer?$AA@ 10066810     xpcruntime:xpcimports.obj
 0002:00003824       ??_C@_0BL@JHGHPNBI@ReadFrameBuffer?5not?5found?6?$AA@ 10066824     xpcruntime:xpcimports.obj
 0002:00003844       ??_C@_09FAHCLKAG@StopVideo?$AA@ 10066844     xpcruntime:xpcimports.obj
 0002:00003850       ??_C@_0BF@NKGKKADL@StopVideo?5not?5found?6?$AA@ 10066850     xpcruntime:xpcimports.obj
 0002:0000386c       ??_C@_0O@MCPKDLLL@ConvertUImage?$AA@ 1006686c     xpcruntime:xpcimports.obj
 0002:0000387c       ??_C@_0BJ@PHJKOAFL@ConvertUImage?5not?5found?6?$AA@ 1006687c     xpcruntime:xpcimports.obj
 0002:0000389c       ??_C@_0BD@NKCBPBJJ@CreateVideoDisplay?$AA@ 1006689c     xpcruntime:xpcimports.obj
 0002:000038b4       ??_C@_0BO@HPPLLNFP@CreateVideoDisplay?5not?5found?6?$AA@ 100668b4     xpcruntime:xpcimports.obj
 0002:000038d8       ??_C@_0BE@KJCKGPHA@DestroyVideoDisplay?$AA@ 100668d8     xpcruntime:xpcimports.obj
 0002:000038f0       ??_C@_0BP@FMGLJAIJ@DestroyVideoDisplay?5not?5found?6?$AA@ 100668f0     xpcruntime:xpcimports.obj
 0002:00003918       ??_C@_0BC@HCMIMIDN@StartVideoDisplay?$AA@ 10066918     xpcruntime:xpcimports.obj
 0002:00003930       ??_C@_0BN@EFIEBGOO@StartVideoDisplay?5not?5found?6?$AA@ 10066930     xpcruntime:xpcimports.obj
 0002:00003954       ??_C@_0BB@JBBLMILG@StopVideoDisplay?$AA@ 10066954     xpcruntime:xpcimports.obj
 0002:00003968       ??_C@_0BM@DBJBPLEL@StopVideoDisplay?5not?5found?6?$AA@ 10066968     xpcruntime:xpcimports.obj
 0002:0000398c       ??_C@_0M@MFJEGMHC@StreamVideo?$AA@ 1006698c     xpcruntime:xpcimports.obj
 0002:0000399c       ??_C@_0BH@OINCDMLA@StreamVideo?5not?5found?6?$AA@ 1006699c     xpcruntime:xpcimports.obj
 0002:000039b8       ??_C@_0N@IGGLCIGE@xpceaddEvent?$AA@ 100669b8     xpcruntime:xpcimports.obj
 0002:000039c8       ??_C@_0BI@NHJNFMKH@xpceaddEvent?5not?5found?6?$AA@ 100669c8     xpcruntime:xpcimports.obj
 0002:000039e4       ??_C@_0BB@HDPOIJAB@xpceDAQPostEvent?$AA@ 100669e4     xpcruntime:xpcimports.obj
 0002:000039f8       ??_C@_0BM@IHANBKGN@xpceDAQPostEvent?5not?5found?6?$AA@ 100669f8     xpcruntime:xpcimports.obj
 0002:00003a1c       ??_C@_0BH@MBACMOD@xpceDAQUpdateTimeStamp?$AA@ 10066a1c     xpcruntime:xpcimports.obj
 0002:00003a38       ??_C@_0CC@DAKBBINL@xpceDAQUpdateTimeStamp?5not?5found@ 10066a38     xpcruntime:xpcimports.obj
 0002:00003a60       ??_C@_0BN@HJOHIFOM@xpceGetIntTimerGranularityNS?$AA@ 10066a60     xpcruntime:xpcimports.obj
 0002:00003a84       ??_C@_0CI@OADDPMKB@xpceGetIntTimerGranularityNS?5not@ 10066a84     xpcruntime:xpcimports.obj
 0002:00003ab4       ??_C@_0BG@CCHICKPN@slrteSetStepSizeDelta?$AA@ 10066ab4     xpcruntime:xpcimports.obj
 0002:00003ad0       ??_C@_0CB@MKHINEIJ@slrteSetStepSizeDelta?5not?5found?6@ 10066ad0     xpcruntime:xpcimports.obj
 0002:00003af8       ??_C@_0BI@CLNBLDKJ@slrteGetCurrentStepSize?$AA@ 10066af8     xpcruntime:xpcimports.obj
 0002:00003b14       ??_C@_0CD@GIOJPGJA@slrteGetCurrentStepSize?5not?5foun@ 10066b14     xpcruntime:xpcimports.obj
 0002:00003b40       ??_C@_0BE@FCLCBOC@registerPTPTimeRead?$AA@ 10066b40     xpcruntime:xpcimports.obj
 0002:00003b58       ??_C@_0BP@LHPKAJIP@registerPTPTimeRead?5not?5found?6?$AA@ 10066b58     xpcruntime:xpcimports.obj
 0002:00003b80       ??_C@_0BG@KIGCDDJI@unRegisterPTPTimeRead?$AA@ 10066b80     xpcruntime:xpcimports.obj
 0002:00003b9c       ??_C@_0CB@MLFFBFCM@unRegisterPTPTimeRead?5not?5found?6@ 10066b9c     xpcruntime:xpcimports.obj
 0002:00003bc4       ??_C@_0BB@IPMDDBHK@slTestInitialize?$AA@ 10066bc4     xpcruntime:xpcimports.obj
 0002:00003bd8       ??_C@_0BM@LAJFCCJH@slTestInitialize?5not?5found?6?$AA@ 10066bd8     xpcruntime:xpcimports.obj
 0002:00003bfc       ??_C@_0BF@OOMPMEBC@slTestLogAssessments?$AA@ 10066bfc     xpcruntime:xpcimports.obj
 0002:00003c18       ??_C@_0CA@FGJCEBAG@slTestLogAssessments?5not?5found?6?$AA@ 10066c18     xpcruntime:xpcimports.obj
 0002:00003c40       ??_C@_0BB@HJHKONHO@slTestEvalOnFail?$AA@ 10066c40     xpcruntime:xpcimports.obj
 0002:00003c54       ??_C@_0BM@JIKCFFNJ@slTestEvalOnFail?5not?5found?6?$AA@ 10066c54     xpcruntime:xpcimports.obj
 0002:00003c78       ??_C@_0BA@LBHLABFP@slTestTerminate?$AA@ 10066c78     xpcruntime:xpcimports.obj
 0002:00003c8c       ??_C@_0BL@EMFGKAPA@slTestTerminate?5not?5found?6?$AA@ 10066c8c     xpcruntime:xpcimports.obj
 0002:00003cac       ??_C@_0BE@JPNPBBEO@slTestRegAssessment?$AA@ 10066cac     xpcruntime:xpcimports.obj
 0002:00003cc4       ??_C@_0BP@FBDEJJJH@slTestRegAssessment?5not?5found?6?$AA@ 10066cc4     xpcruntime:xpcimports.obj
 0002:00003cec       ??_C@_0O@NCLGDNIB@slrteSetupMSI?$AA@ 10066cec     xpcruntime:xpcimports.obj
 0002:00003cfc       ??_C@_0BJ@HEFMECLM@slrteSetupMSI?5not?5found?6?$AA@ 10066cfc     xpcruntime:xpcimports.obj
 0002:00003d1c       ??_C@_0BH@BPOLALHD@slrtGetCRBScratchSpace?$AA@ 10066d1c     xpcruntime:xpcimports.obj
 0002:00003d38       ??_C@_0CC@KCKAJKKJ@slrtGetCRBScratchSpace?5not?5found@ 10066d38     xpcruntime:xpcimports.obj
 0002:00003d60       ??_C@_0BC@MKFDAKOL@slrtGetSgCRBSpace?$AA@ 10066d60     xpcruntime:xpcimports.obj
 0002:00003d78       ??_C@_0BN@JDPHPLHL@slrtGetSgCRBSpace?5not?5found?6?$AA@ 10066d78     xpcruntime:xpcimports.obj
 0002:00003d9c       ??_C@_0P@EPAPKLIF@slrtfsOpenFile?$AA@ 10066d9c     xpcruntime:xpcimports.obj
 0002:00003db0       ??_C@_0BK@FIHCBOHG@slrtfsOpenFile?5not?5found?6?$AA@ 10066db0     xpcruntime:xpcimports.obj
 0002:00003dd0       ??_C@_0BA@LILAFDDL@slrtfsCloseFile?$AA@ 10066dd0     xpcruntime:xpcimports.obj
 0002:00003de4       ??_C@_0BL@DEGHJFIB@slrtfsCloseFile?5not?5found?6?$AA@ 10066de4     xpcruntime:xpcimports.obj
 0002:00003e04       ??_C@_0BC@OKMJDIEH@slrtfsWriteToFile?$AA@ 10066e04     xpcruntime:xpcimports.obj
 0002:00003e1c       ??_C@_0BN@KCFLCLAH@slrtfsWriteToFile?5not?5found?6?$AA@ 10066e1c     xpcruntime:xpcimports.obj
 0002:00003e40       ??_C@_0BK@GIPNFFFF@slrtfsGetFileErrorMessage?$AA@ 10066e40     xpcruntime:xpcimports.obj
 0002:00003e60       ??_C@_0CF@BCBLMKLE@slrtfsGetFileErrorMessage?5not?5fo@ 10066e60     xpcruntime:xpcimports.obj
 0002:00003e8c       ??_C@_0BD@ICBOKMK@slrtfsGetFileError?$AA@ 10066e8c     xpcruntime:xpcimports.obj
 0002:00003ea4       ??_C@_0BO@FNBANAE@slrtfsGetFileError?5not?5found?6?$AA@ 10066ea4     xpcruntime:xpcimports.obj
 0002:00003ec8       ??_C@_0BE@PPAJMHJP@slrtfsOpenFileAsync?$AA@ 10066ec8     xpcruntime:xpcimports.obj
 0002:00003ee0       ??_C@_0BP@HKBMMJOK@slrtfsOpenFileAsync?5not?5found?6?$AA@ 10066ee0     xpcruntime:xpcimports.obj
 0002:00003f08       ??_C@_0BF@IGNDIBPF@slrtfsCloseFileAsync?$AA@ 10066f08     xpcruntime:xpcimports.obj
 0002:00003f24       ??_C@_0CA@GJPFDBKN@slrtfsCloseFileAsync?5not?5found?6?$AA@ 10066f24     xpcruntime:xpcimports.obj
 0002:00003f4c       ??_C@_0BE@IOLEBNB@slrtfsGetFileStatus?$AA@ 10066f4c     xpcruntime:xpcimports.obj
 0002:00003f64       ??_C@_0BP@PEFHDGHL@slrtfsGetFileStatus?5not?5found?6?$AA@ 10066f64     xpcruntime:xpcimports.obj
 0002:00003f8c       ??_C@_0M@HKIJIMG@slrtfsFread?$AA@ 10066f8c     xpcruntime:xpcimports.obj
 0002:00003f9c       ??_C@_0BH@OOKBGONO@slrtfsFread?5not?5found?6?$AA@ 10066f9c     xpcruntime:xpcimports.obj
 0002:00003fb8       ??_C@_0BE@OGCMPLAP@slrtGetDefaultDrive?$AA@ 10066fb8     xpcruntime:xpcimports.obj
 0002:00003fd0       ??_C@_0BP@HKFGLHOE@slrtGetDefaultDrive?5not?5found?6?$AA@ 10066fd0     xpcruntime:xpcimports.obj
 0002:00003ff8       ??_C@_0N@NAJIKFFI@slrtLogEvent?$AA@ 10066ff8     xpcruntime:xpcimports.obj
 0002:00004008       ??_C@_0BI@NKCEACND@slrtLogEvent?5not?5found?6?$AA@ 10067008     xpcruntime:xpcimports.obj
 0002:00004024       ??_C@_0N@IDKFJOHI@getlasterror?$AA@ 10067024     xpcruntime:xpcimports.obj
 0002:00004034       ??_C@_0BI@MIHMCHGL@getlasterror?5not?5found?6?$AA@ 10067034     xpcruntime:xpcimports.obj
 0002:00004050       ??_C@_0P@OKHGKJKN@geterrorstring?$AA@ 10067050     xpcruntime:xpcimports.obj
 0002:00004064       ??_C@_0BK@NOHFDMLP@geterrorstring?5not?5found?6?$AA@ 10067064     xpcruntime:xpcimports.obj
 0002:00004084       ??_C@_0BD@HNFFKMGJ@slrtGetCPUTCelsius?$AA@ 10067084     xpcruntime:xpcimports.obj
 0002:0000409c       ??_C@_0BO@LHBFKLIH@slrtGetCPUTCelsius?5not?5found?6?$AA@ 1006709c     xpcruntime:xpcimports.obj
 0002:000040c0       ??_C@_0M@OONCNCLM@slrtWarning?$AA@ 100670c0     xpcruntime:xpcimports.obj
 0002:000040d0       ??_C@_0BH@ICKGIEMB@slrtWarning?5not?5found?6?$AA@ 100670d0     xpcruntime:xpcimports.obj
 0002:000040ec       ??_C@_0N@EAAOMIIE@isUsedByRTIP?$AA@ 100670ec     xpcruntime:xpcimports.obj
 0002:000040fc       ??_C@_0BI@GNHHHICK@isUsedByRTIP?5not?5found?6?$AA@ 100670fc     xpcruntime:xpcimports.obj
 0002:00004118       ??_C@_0BC@HLDKJAG@SetIPTASKPriority?$AA@ 10067118     xpcruntime:xpcimports.obj
 0002:00004130       ??_C@_0BN@OGKMHHAE@SetIPTASKPriority?5not?5found?6?$AA@ 10067130     xpcruntime:xpcimports.obj
 0002:00004154       ??_C@_0O@LHENMBDD@OpenInterface?$AA@ 10067154     xpcruntime:xpcimports.obj
 0002:00004164       ??_C@_0BJ@PFGDBKHB@OpenInterface?5not?5found?6?$AA@ 10067164     xpcruntime:xpcimports.obj
 0002:00004184       ??_C@_0P@IINFELKD@CloseInterface?$AA@ 10067184     xpcruntime:xpcimports.obj
 0002:00004198       ??_C@_0BK@PAPDNDBK@CloseInterface?5not?5found?6?$AA@ 10067198     xpcruntime:xpcimports.obj
 0002:000041b8       ??_C@_05LEFIAAOI@SetIP?$AA@ 100671b8     xpcruntime:xpcimports.obj
 0002:000041c0       ??_C@_0BB@CGLIBAMM@SetIP?5not?5found?6?$AA@ 100671c0     xpcruntime:xpcimports.obj
 0002:000041d4       ??_C@_0BA@HIJJHHMD@AddGatewayRoute?$AA@ 100671d4     xpcruntime:xpcimports.obj
 0002:000041e8       ??_C@_0BL@BFCFMDMN@AddGatewayRoute?5not?5found?6?$AA@ 100671e8     xpcruntime:xpcimports.obj
 0002:00004208       ??_C@_0M@PHMABFPI@DeleteRoute?$AA@ 10067208     xpcruntime:xpcimports.obj
 0002:00004218       ??_C@_0BH@JPJGLLID@DeleteRoute?5not?5found?6?$AA@ 10067218     xpcruntime:xpcimports.obj
 0002:00004234       ??_C@_0BA@FCDIMKIJ@GetHostTarIPAdd?$AA@ 10067234     xpcruntime:xpcimports.obj
 0002:00004248       ??_C@_0BL@MBKDGKBO@GetHostTarIPAdd?5not?5found?6?$AA@ 10067248     xpcruntime:xpcimports.obj
 0002:00004268       ??_C@_0M@HPMIPIBI@GetDCUUsage?$AA@ 10067268     xpcruntime:xpcimports.obj
 0002:00004278       ??_C@_0BH@EBLJKCJC@GetDCUUsage?5not?5found?6?$AA@ 10067278     xpcruntime:xpcimports.obj
 0002:00004294       ??_C@_06MPKMECK@accept?$AA@ 10067294     xpcruntime:xpcimports.obj
 0002:0000429c       ??_C@_0BC@GBGIEMNO@accept?5not?5found?6?$AA@ 1006729c     xpcruntime:xpcimports.obj
 0002:000042b4       ??_C@_04NPNJNMMP@bind?$AA@ 100672b4     xpcruntime:xpcimports.obj
 0002:000042bc       ??_C@_0BA@DAJNENLO@bind?5not?5found?6?$AA@ 100672bc     xpcruntime:xpcimports.obj
 0002:000042d0       ??_C@_0L@CKHNIFCM@setsockopt?$AA@ 100672d0     xpcruntime:xpcimports.obj
 0002:000042e0       ??_C@_0BG@MFIIOMFE@setsockopt?5not?5found?6?$AA@ 100672e0     xpcruntime:xpcimports.obj
 0002:000042fc       ??_C@_0M@ODDJDCDK@closesocket?$AA@ 100672fc     xpcruntime:xpcimports.obj
 0002:0000430c       ??_C@_0BH@JHGHMIL@closesocket?5not?5found?6?$AA@ 1006730c     xpcruntime:xpcimports.obj
 0002:00004328       ??_C@_07KAIBNCHO@connect?$AA@ 10067328     xpcruntime:xpcimports.obj
 0002:00004334       ??_C@_0BD@MKLLMBM@connect?5not?5found?6?$AA@ 10067334     xpcruntime:xpcimports.obj
 0002:0000434c       ??_C@_0M@PBPOCKDG@ioctlsocket?$AA@ 1006734c     xpcruntime:xpcimports.obj
 0002:0000435c       ??_C@_0BH@NFCNHHIH@ioctlsocket?5not?5found?6?$AA@ 1006735c     xpcruntime:xpcimports.obj
 0002:00004378       ??_C@_06OODDLKLE@listen?$AA@ 10067378     xpcruntime:xpcimports.obj
 0002:00004380       ??_C@_0BC@NHBILEKI@listen?5not?5found?6?$AA@ 10067380     xpcruntime:xpcimports.obj
 0002:00004398       ??_C@_08HMBBGFHE@recvfrom?$AA@ 10067398     xpcruntime:xpcimports.obj
 0002:000043a4       ??_C@_0BE@BJAJFFLF@recvfrom?5not?5found?6?$AA@ 100673a4     xpcruntime:xpcimports.obj
 0002:000043bc       ??_C@_06MEPBGKEC@sendto?$AA@ 100673bc     xpcruntime:xpcimports.obj
 0002:000043c4       ??_C@_0BC@BHPIMDJO@sendto?5not?5found?6?$AA@ 100673c4     xpcruntime:xpcimports.obj
 0002:000043dc       ??_C@_09JKBDEEOB@inet_addr?$AA@ 100673dc     xpcruntime:xpcimports.obj
 0002:000043e8       ??_C@_0BF@HKJPGECN@inet_addr?5not?5found?6?$AA@ 100673e8     xpcruntime:xpcimports.obj
 0002:00004404       ??_C@_06HBELJPBO@socket?$AA@ 10067404     xpcruntime:xpcimports.obj
 0002:0000440c       ??_C@_0BC@NAGFFJGA@socket?5not?5found?6?$AA@ 1006740c     xpcruntime:xpcimports.obj
 0002:00004424       ??_C@_09ICJIFGNC@GetSocket?$AA@ 10067424     xpcruntime:xpcimports.obj
 0002:00004430       ??_C@_0BF@KDBCKMOJ@GetSocket?5not?5found?6?$AA@ 10067430     xpcruntime:xpcimports.obj
 0002:0000444c       ??_C@_0P@KJEGJMJI@GetSocketState?$AA@ 1006744c     xpcruntime:xpcimports.obj
 0002:00004460       ??_C@_0BK@IALBJHEB@GetSocketState?5not?5found?6?$AA@ 10067460     xpcruntime:xpcimports.obj
 0002:00004480       ??_C@_0L@MEAJHNHB@SocketSend?$AA@ 10067480     xpcruntime:xpcimports.obj
 0002:00004490       ??_C@_0BG@EOCMBFJA@SocketSend?5not?5found?6?$AA@ 10067490     xpcruntime:xpcimports.obj
 0002:000044ac       ??_C@_0O@PFPCLEMF@SocketReceive?$AA@ 100674ac     xpcruntime:xpcimports.obj
 0002:000044bc       ??_C@_0BJ@HIBADDFO@SocketReceive?5not?5found?6?$AA@ 100674bc     xpcruntime:xpcimports.obj
 0002:000044dc       ??_C@_0BD@OOGFNAIK@CreateServerSocket?$AA@ 100674dc     xpcruntime:xpcimports.obj
 0002:000044f4       ??_C@_0BO@GKIJHIPH@CreateServerSocket?5not?5found?6?$AA@ 100674f4     xpcruntime:xpcimports.obj
 0002:00004518       ??_C@_0BB@KGHJGFFO@OpenServerListen?$AA@ 10067518     xpcruntime:xpcimports.obj
 0002:0000452c       ??_C@_0BM@NFMMLIO@OpenServerListen?5not?5found?6?$AA@ 1006752c     xpcruntime:xpcimports.obj
 0002:00004550       ??_C@_0BE@BAJLDJAH@ConnectServerSocket?$AA@ 10067550     xpcruntime:xpcimports.obj
 0002:00004568       ??_C@_0BP@KJNODIKE@ConnectServerSocket?5not?5found?6?$AA@ 10067568     xpcruntime:xpcimports.obj
 0002:00004590       ??_C@_0BC@PLKKJDIM@CloseServerSocket?$AA@ 10067590     xpcruntime:xpcimports.obj
 0002:000045a8       ??_C@_0BN@KEJEPNMB@CloseServerSocket?5not?5found?6?$AA@ 100675a8     xpcruntime:xpcimports.obj
 0002:000045cc       ??_C@_0BD@MCLPKCPP@CreateClientSocket?$AA@ 100675cc     xpcruntime:xpcimports.obj
 0002:000045e4       ??_C@_0BO@DILAGPFN@CreateClientSocket?5not?5found?6?$AA@ 100675e4     xpcruntime:xpcimports.obj
 0002:00004608       ??_C@_0BB@DAPKNNLG@BindClientSocket?$AA@ 10067608     xpcruntime:xpcimports.obj
 0002:0000461c       ??_C@_0BM@LLLMMDFN@BindClientSocket?5not?5found?6?$AA@ 1006761c     xpcruntime:xpcimports.obj
 0002:00004640       ??_C@_0BE@DMEBELHC@ConnectClientSocket?$AA@ 10067640     xpcruntime:xpcimports.obj
 0002:00004658       ??_C@_0BP@PLOHCPAO@ConnectClientSocket?5not?5found?6?$AA@ 10067658     xpcruntime:xpcimports.obj
 0002:00004680       ??_C@_0BC@NHHAOBPJ@CloseClientSocket?$AA@ 10067680     xpcruntime:xpcimports.obj
 0002:00004698       ??_C@_0BN@PGKNOKGL@CloseClientSocket?5not?5found?6?$AA@ 10067698     xpcruntime:xpcimports.obj
 0002:00004768       __pDefaultRawDllMain       10067768     LIBCMT:dll_dllmain.obj
 0002:00004768       __pRawDllMain              10067768     LIBCMT:dll_dllmain.obj
 0002:00004780       ??_C@_1BC@DNHGCMLG@?$AAa?$AAd?$AAv?$AAa?$AAp?$AAi?$AA3?$AA2?$AA?$AA@ 10067780     libvcruntime:winapi_downlevel.obj
 0002:00004798       ??_C@_1DM@KHCHBNEB@?$AAa?$AAp?$AAi?$AA?9?$AAm?$AAs?$AA?9?$AAw?$AAi?$AAn?$AA?9?$AAc?$AAo?$AAr?$AAe?$AA?9?$AAf?$AAi?$AAb?$AAe?$AAr?$AAs?$AA?9?$AAl?$AA1?$AA?9?$AA1?$AA?9?$AA1?$AA?$AA@ 10067798     libvcruntime:winapi_downlevel.obj
 0002:000047e0       ??_C@_1DK@LPPGFMPP@?$AAa?$AAp?$AAi?$AA?9?$AAm?$AAs?$AA?9?$AAw?$AAi?$AAn?$AA?9?$AAc?$AAo?$AAr?$AAe?$AA?9?$AAs?$AAy?$AAn?$AAc?$AAh?$AA?9?$AAl?$AA1?$AA?9?$AA2?$AA?9?$AA0?$AA?$AA@ 100677e0     libvcruntime:winapi_downlevel.obj
 0002:00004828       ??_C@_1BC@GDMECMAK@?$AAk?$AAe?$AAr?$AAn?$AAe?$AAl?$AA3?$AA2?$AA?$AA@ 10067828     libvcruntime:winapi_downlevel.obj
 0002:00004844       ??_C@_0O@BAMBGLIE@EventRegister?$AA@ 10067844     libvcruntime:winapi_downlevel.obj
 0002:00004858       ??_C@_0BE@BJEEGHGK@EventSetInformation?$AA@ 10067858     libvcruntime:winapi_downlevel.obj
 0002:00004874       ??_C@_0BA@FAKLIPIC@EventUnregister?$AA@ 10067874     libvcruntime:winapi_downlevel.obj
 0002:0000488c       ??_C@_0BD@PKLHJPHD@EventWriteTransfer?$AA@ 1006788c     libvcruntime:winapi_downlevel.obj
 0002:000048b0       ??_C@_08KNHFBNJ@FlsAlloc?$AA@ 100678b0     libvcruntime:winapi_downlevel.obj
 0002:000048c8       ??_C@_07PEJMOBNF@FlsFree?$AA@ 100678c8     libvcruntime:winapi_downlevel.obj
 0002:000048e0       ??_C@_0M@GDNOONDI@FlsGetValue?$AA@ 100678e0     libvcruntime:winapi_downlevel.obj
 0002:000048fc       ??_C@_0M@JCPCPOEF@FlsSetValue?$AA@ 100678fc     libvcruntime:winapi_downlevel.obj
 0002:00004918       ??_C@_0BM@HCFOFFN@InitializeCriticalSectionEx?$AA@ 10067918     libvcruntime:winapi_downlevel.obj
 0002:00004b20       ??_C@_08EHJDFFNH@__based?$CI?$AA@ 10067b20     libvcruntime:undname.obj
 0002:00004b2c       ??_C@_07KOLFKCDI@__cdecl?$AA@ 10067b2c     libvcruntime:undname.obj
 0002:00004b38       ??_C@_08GHMPAG@__pascal?$AA@ 10067b38     libvcruntime:undname.obj
 0002:00004b44       ??_C@_09IFJBGAPI@__stdcall?$AA@ 10067b44     libvcruntime:undname.obj
 0002:00004b50       ??_C@_0L@NPHFGOKO@__thiscall?$AA@ 10067b50     libvcruntime:undname.obj
 0002:00004b60       ??_C@_0L@JMKHOMEK@__fastcall?$AA@ 10067b60     libvcruntime:undname.obj
 0002:00004b70       ??_C@_0N@BCKKPABJ@__vectorcall?$AA@ 10067b70     libvcruntime:undname.obj
 0002:00004b80       ??_C@_09HIJEGCPM@__clrcall?$AA@ 10067b80     libvcruntime:undname.obj
 0002:00004b8c       ??_C@_06GHPCKEAG@__eabi?$AA@ 10067b8c     libvcruntime:undname.obj
 0002:00004b94       ??_C@_07JOMMBBKO@__ptr64?$AA@ 10067b94     libvcruntime:undname.obj
 0002:00004ba0       ??_C@_0L@PILCLIHE@__restrict?$AA@ 10067ba0     libvcruntime:undname.obj
 0002:00004bb0       ??_C@_0M@GFIIJFMG@__unaligned?$AA@ 10067bb0     libvcruntime:undname.obj
 0002:00004bc0       ??_C@_09DHDLOLLB@restrict?$CI?$AA@ 10067bc0     libvcruntime:undname.obj
 0002:00004bcc       ??_C@_04NIHEBCM@?5new?$AA@ 10067bcc     libvcruntime:undname.obj
 0002:00004bd4       ??_C@_07FPCDHGMM@?5delete?$AA@ 10067bd4     libvcruntime:undname.obj
 0002:00004be0       ??_C@_01NEMOKFLO@?$DN?$AA@ 10067be0     libvcruntime:undname.obj
 0002:00004be4       ??_C@_02GPIOPFAK@?$DO?$DO?$AA@ 10067be4     libvcruntime:undname.obj
 0002:00004be8       ??_C@_02FODMEDOG@?$DM?$DM?$AA@ 10067be8     libvcruntime:undname.obj
 0002:00004bec       ??_C@_01DCLJPIOD@?$CB?$AA@ 10067bec     libvcruntime:undname.obj
 0002:00004bf0       ??_C@_02EGOFBIJA@?$DN?$DN?$AA@ 10067bf0     libvcruntime:undname.obj
 0002:00004bf4       ??_C@_02FDNJECIE@?$CB?$DN?$AA@ 10067bf4     libvcruntime:undname.obj
 0002:00004bf8       ??_C@_02GPECMEKF@?$FL?$FN?$AA@ 10067bf8     libvcruntime:undname.obj
 0002:00004bfc       ??_C@_08LHJFAFGD@operator?$AA@ 10067bfc     libvcruntime:undname.obj
 0002:00004c08       ??_C@_02HBOOOICD@?9?$DO?$AA@ 10067c08     libvcruntime:undname.obj
 0002:00004c0c       ??_C@_01NBENCBCI@?$CK?$AA@ 10067c0c     libvcruntime:undname.obj
 0002:00004c10       ??_C@_02ECNGHCIF@?$CL?$CL?$AA@ 10067c10     libvcruntime:undname.obj
 0002:00004c14       ??_C@_02BAABKJLB@?9?9?$AA@ 10067c14     libvcruntime:undname.obj
 0002:00004c18       ??_C@_01JOAMLHOP@?9?$AA@   10067c18     libvcruntime:undname.obj
 0002:00004c1c       ??_C@_01MIFGBAGJ@?$CL?$AA@ 10067c1c     libvcruntime:undname.obj
 0002:00004c20       ??_C@_01HNPIGOCE@?$CG?$AA@ 10067c20     libvcruntime:undname.obj
 0002:00004c24       ??_C@_03MNHNFDLC@?9?$DO?$CK?$AA@ 10067c24     libvcruntime:undname.obj
 0002:00004c28       ??_C@_01KMDKNFGN@?1?$AA@   10067c28     libvcruntime:undname.obj
 0002:00004c2c       ??_C@_01FGNFDNOH@?$CF?$AA@ 10067c2c     libvcruntime:undname.obj
 0002:00004c30       ??_C@_01MNNFJEPP@?$DM?$AA@ 10067c30     libvcruntime:undname.obj
 0002:00004c34       ??_C@_02EHCHHCKH@?$DM?$DN?$AA@ 10067c34     libvcruntime:undname.obj
 0002:00004c38       ??_C@_01PPODPGHN@?$DO?$AA@ 10067c38     libvcruntime:undname.obj
 0002:00004c3c       ??_C@_02EEKDKGMJ@?$DO?$DN?$AA@ 10067c3c     libvcruntime:undname.obj
 0002:00004c40       ??_C@_01IHBHIGKO@?0?$AA@   10067c40     libvcruntime:undname.obj
 0002:00004c44       ??_C@_02HCKGKOFO@?$CI?$CJ?$AA@ 10067c44     libvcruntime:undname.obj
 0002:00004c48       ??_C@_01PJKLJHI@?$HO?$AA@  10067c48     libvcruntime:undname.obj
 0002:00004c4c       ??_C@_01JKBOJNNK@?$FO?$AA@ 10067c4c     libvcruntime:undname.obj
 0002:00004c50       ??_C@_01DNKMNLPK@?$HM?$AA@ 10067c50     libvcruntime:undname.obj
 0002:00004c54       ??_C@_02PPKAJPJL@?$CG?$CG?$AA@ 10067c54     libvcruntime:undname.obj
 0002:00004c58       ??_C@_02NONPIBCD@?$HM?$HM?$AA@ 10067c58     libvcruntime:undname.obj
 0002:00004c5c       ??_C@_02FPIMKNGF@?$CK?$DN?$AA@ 10067c5c     libvcruntime:undname.obj
 0002:00004c60       ??_C@_02FOEOMHFC@?$CL?$DN?$AA@ 10067c60     libvcruntime:undname.obj
 0002:00004c64       ??_C@_02FKMDLLOA@?9?$DN?$AA@ 10067c64     libvcruntime:undname.obj
 0002:00004c68       ??_C@_02FJEHGPIO@?1?$DN?$AA@ 10067c68     libvcruntime:undname.obj
 0002:00004c6c       ??_C@_02FENAOKFI@?$CF?$DN?$AA@ 10067c6c     libvcruntime:undname.obj
 0002:00004c70       ??_C@_03IKFCCPFF@?$DO?$DO?$DN?$AA@ 10067c70     libvcruntime:undname.obj
 0002:00004c74       ??_C@_03CDNPDDLA@?$DM?$DM?$DN?$AA@ 10067c74     libvcruntime:undname.obj
 0002:00004c78       ??_C@_02FGJGFEAB@?$CG?$DN?$AA@ 10067c78     libvcruntime:undname.obj
 0002:00004c7c       ??_C@_02DHLNPPGH@?$HM?$DN?$AA@ 10067c7c     libvcruntime:undname.obj
 0002:00004c80       ??_C@_02MHEGNOJ@?$FO?$DN?$AA@ 10067c80     libvcruntime:undname.obj
 0002:00004c84       ??_C@_09IFPLHPGF@?$GAvftable?8?$AA@ 10067c84     libvcruntime:undname.obj
 0002:00004c90       ??_C@_09BLBHBJP@?$GAvbtable?8?$AA@ 10067c90     libvcruntime:undname.obj
 0002:00004c9c       ??_C@_07FEEIOKP@?$GAvcall?8?$AA@ 10067c9c     libvcruntime:undname.obj
 0002:00004ca8       ??_C@_08LLFFHHDJ@?$GAtypeof?8?$AA@ 10067ca8     libvcruntime:undname.obj
 0002:00004cb4       ??_C@_0BF@KDPPACIK@?$GAlocal?5static?5guard?8?$AA@ 10067cb4     libvcruntime:undname.obj
 0002:00004cd0       ??_C@_08OBABFOLI@?$GAstring?8?$AA@ 10067cd0     libvcruntime:undname.obj
 0002:00004cdc       ??_C@_0BD@JDLKDPAB@?$GAvbase?5destructor?8?$AA@ 10067cdc     libvcruntime:undname.obj
 0002:00004cf4       ??_C@_0BN@DEGPLNFK@?$GAvector?5deleting?5destructor?8?$AA@ 10067cf4     libvcruntime:undname.obj
 0002:00004d18       ??_C@_0BO@OBMKPJIG@?$GAdefault?5constructor?5closure?8?$AA@ 10067d18     libvcruntime:undname.obj
 0002:00004d3c       ??_C@_0BN@IMDCHIKM@?$GAscalar?5deleting?5destructor?8?$AA@ 10067d3c     libvcruntime:undname.obj
 0002:00004d60       ??_C@_0BO@PFGOCPJJ@?$GAvector?5constructor?5iterator?8?$AA@ 10067d60     libvcruntime:undname.obj
 0002:00004d84       ??_C@_0BN@LFPFMEDL@?$GAvector?5destructor?5iterator?8?$AA@ 10067d84     libvcruntime:undname.obj
 0002:00004da8       ??_C@_0CE@IKBNEHA@?$GAvector?5vbase?5constructor?5iterat@ 10067da8     libvcruntime:undname.obj
 0002:00004dd4       ??_C@_0BL@NILFHHPC@?$GAvirtual?5displacement?5map?8?$AA@ 10067dd4     libvcruntime:undname.obj
 0002:00004df4       ??_C@_0CB@JONCMFFK@?$GAeh?5vector?5constructor?5iterator?8@ 10067df4     libvcruntime:undname.obj
 0002:00004e1c       ??_C@_0CA@GCEOPDGL@?$GAeh?5vector?5destructor?5iterator?8?$AA@ 10067e1c     libvcruntime:undname.obj
 0002:00004e44       ??_C@_0CH@OOJPLCPH@?$GAeh?5vector?5vbase?5constructor?5ite@ 10067e44     libvcruntime:undname.obj
 0002:00004e74       ??_C@_0BL@LLKPOHJI@?$GAcopy?5constructor?5closure?8?$AA@ 10067e74     libvcruntime:undname.obj
 0002:00004e94       ??_C@_0BA@KBCDOMBN@?$GAudt?5returning?8?$AA@ 10067e94     libvcruntime:undname.obj
 0002:00004ea8       ??_C@_03KLGMFNMG@?$GAEH?$AA@ 10067ea8     libvcruntime:undname.obj
 0002:00004eac       ??_C@_05KHLCHHI@?$GARTTI?$AA@ 10067eac     libvcruntime:undname.obj
 0002:00004eb4       ??_C@_0BA@KKLDJDLB@?$GAlocal?5vftable?8?$AA@ 10067eb4     libvcruntime:undname.obj
 0002:00004ec8       ??_C@_0CE@IIHCMGGL@?$GAlocal?5vftable?5constructor?5closu@ 10067ec8     libvcruntime:undname.obj
 0002:00004ef4       ??_C@_06FHBGPFGH@?5new?$FL?$FN?$AA@ 10067ef4     libvcruntime:undname.obj
 0002:00004efc       ??_C@_09LBNFPBCA@?5delete?$FL?$FN?$AA@ 10067efc     libvcruntime:undname.obj
 0002:00004f08       ??_C@_0P@HJKNJFNN@?$GAomni?5callsig?8?$AA@ 10067f08     libvcruntime:undname.obj
 0002:00004f1c       ??_C@_0BL@CNOONJFP@?$GAplacement?5delete?5closure?8?$AA@ 10067f1c     libvcruntime:undname.obj
 0002:00004f3c       ??_C@_0BN@CKNJLHMB@?$GAplacement?5delete?$FL?$FN?5closure?8?$AA@ 10067f3c     libvcruntime:undname.obj
 0002:00004f60       ??_C@_0CG@CFDHKGGD@?$GAmanaged?5vector?5constructor?5iter@ 10067f60     libvcruntime:undname.obj
 0002:00004f90       ??_C@_0CF@IMGKMJNO@?$GAmanaged?5vector?5destructor?5itera@ 10067f90     libvcruntime:undname.obj
 0002:00004fbc       ??_C@_0CG@HLDDJMAG@?$GAeh?5vector?5copy?5constructor?5iter@ 10067fbc     libvcruntime:undname.obj
 0002:00004fec       ??_C@_0CM@FCBBDIGB@?$GAeh?5vector?5vbase?5copy?5constructo@ 10067fec     libvcruntime:undname.obj
 0002:00005020       ??_C@_0BL@CLIPGLGB@?$GAdynamic?5initializer?5for?5?8?$AA@ 10068020     libvcruntime:undname.obj
 0002:00005040       ??_C@_0CB@PDBIFEP@?$GAdynamic?5atexit?5destructor?5for?5?8@ 10068040     libvcruntime:undname.obj
 0002:00005068       ??_C@_0CD@CGAJBKEJ@?$GAvector?5copy?5constructor?5iterato@ 10068068     libvcruntime:undname.obj
 0002:00005094       ??_C@_0CJ@GJELGAMM@?$GAvector?5vbase?5copy?5constructor?5i@ 10068094     libvcruntime:undname.obj
 0002:000050c8       ??_C@_0CL@FGIJHLCE@?$GAmanaged?5vector?5copy?5constructor@ 100680c8     libvcruntime:undname.obj
 0002:000050fc       ??_C@_0BM@PMGGMLDN@?$GAlocal?5static?5thread?5guard?8?$AA@ 100680fc     libvcruntime:undname.obj
 0002:00005120       ??_C@_0N@BDNMDMOL@operator?5?$CC?$CC?5?$AA@ 10068120     libvcruntime:undname.obj
 0002:00005130       ??_C@_0BC@DAFEJGAK@?5Type?5Descriptor?8?$AA@ 10068130     libvcruntime:undname.obj
 0002:00005148       ??_C@_0BM@LDKODKLH@?5Base?5Class?5Descriptor?5at?5?$CI?$AA@ 10068148     libvcruntime:undname.obj
 0002:0000516c       ??_C@_0BD@LGICGFMM@?5Base?5Class?5Array?8?$AA@ 1006816c     libvcruntime:undname.obj
 0002:00005184       ??_C@_0BN@MECKDCOJ@?5Class?5Hierarchy?5Descriptor?8?$AA@ 10068184     libvcruntime:undname.obj
 0002:000051a8       ??_C@_0BK@CFCOFLF@?5Complete?5Object?5Locator?8?$AA@ 100681a8     libvcruntime:undname.obj
 0002:000051c8       ??_C@_04HEJADOOB@CV?3?5?$AA@ 100681c8     libvcruntime:undname.obj
 0002:000051d0       ??_C@_02MOLJINC@?3?3?$AA@  100681d0     libvcruntime:undname.obj
 0002:000051d4       ??_C@_0BE@JAEOCHPE@template?9parameter?9?$AA@ 100681d4     libvcruntime:undname.obj
 0002:000051ec       ??_C@_0O@KHGCOMHP@generic?9type?9?$AA@ 100681ec     libvcruntime:undname.obj
 0002:000051fc       ??_C@_01NLNLIGKH@?$GA?$AA@ 100681fc     libvcruntime:undname.obj
 0002:00005200       ??_C@_01GEODFPGF@?8?$AA@   10068200     libvcruntime:undname.obj
 0002:00005204       ??_C@_0BG@JNJLAMPM@?$GAanonymous?5namespace?8?$AA@ 10068204     libvcruntime:undname.obj
 0002:00005220       ??_C@_02OHHJMEON@?8?8?$AA@ 10068220     libvcruntime:undname.obj
 0002:00005224       ??_C@_0BN@IBLMMFAP@?$GAnon?9type?9template?9parameter?$AA@ 10068224     libvcruntime:undname.obj
 0002:00005248       ??_C@_04GKJNKENE@void?$AA@ 10068248     libvcruntime:undname.obj
 0002:00005250       ??_C@_0BE@EODMJLIF@?$GAtemplate?9parameter?$AA@ 10068250     libvcruntime:undname.obj
 0002:00005268       ??_C@_03KHICJKCI@?4?4?4?$AA@ 10068268     libvcruntime:undname.obj
 0002:0000526c       ??_C@_04HIBGFPH@NULL?$AA@  1006826c     libvcruntime:undname.obj
 0002:00005274       ??_C@_02DPKJAMEF@?$CFd?$AA@ 10068274     libvcruntime:undname.obj
 0002:00005278       ??_C@_0BK@IHCCFNEL@?$GAtemplate?9type?9parameter?9?$AA@ 10068278     libvcruntime:undname.obj
 0002:00005298       ??_C@_0BK@OFCNNNKO@?$GAgeneric?9class?9parameter?9?$AA@ 10068298     libvcruntime:undname.obj
 0002:000052b8       ??_C@_0BL@NGJBLFIL@?$GAgeneric?9method?9parameter?9?$AA@ 100682b8     libvcruntime:undname.obj
 0002:000052d8       ??_C@_03OPGICMGF@?$HN?8?5?$AA@ 100682d8     libvcruntime:undname.obj
 0002:000052dc       ??_C@_02IGFCGPIL@?$HN?8?$AA@ 100682dc     libvcruntime:undname.obj
 0002:000052e0       ??_C@_01CLKCMJKC@?5?$AA@   100682e0     libvcruntime:undname.obj
 0002:000052e4       ??_C@_0N@CBHHHENL@?$GAvtordispex?$HL?$AA@ 100682e4     libvcruntime:undname.obj
 0002:000052f4       ??_C@_0L@GHPFDFH@?$GAvtordisp?$HL?$AA@ 100682f4     libvcruntime:undname.obj
 0002:00005304       ??_C@_0L@HNGCOGAE@?$GAadjustor?$HL?$AA@ 10068304     libvcruntime:undname.obj
 0002:00005314       ??_C@_0CB@KJDOOODE@?$GAlocal?5static?5destructor?5helper?8@ 10068314     libvcruntime:undname.obj
 0002:0000533c       ??_C@_0DB@ILEFOCIJ@?$GAtemplate?5static?5data?5member?5con@ 1006833c     libvcruntime:undname.obj
 0002:00005378       ??_C@_0DA@HGFJFBBE@?$GAtemplate?5static?5data?5member?5des@ 10068378     libvcruntime:undname.obj
 0002:000053b4       ??_C@_07PGOEDBHP@static?5?$AA@ 100683b4     libvcruntime:undname.obj
 0002:000053c0       ??_C@_08NIEOINHE@virtual?5?$AA@ 100683c0     libvcruntime:undname.obj
 0002:000053cc       ??_C@_09LAPHOOG@private?3?5?$AA@ 100683cc     libvcruntime:undname.obj
 0002:000053d8       ??_C@_0M@GAIFPFIP@protected?3?5?$AA@ 100683d8     libvcruntime:undname.obj
 0002:000053e8       ??_C@_08GPDDCMKI@public?3?5?$AA@ 100683e8     libvcruntime:undname.obj
 0002:000053f4       ??_C@_08KJLFOPNE@?$FLthunk?$FN?3?$AA@ 100683f4     libvcruntime:undname.obj
 0002:00005400       ??_C@_0M@DHNBOJMP@extern?5?$CCC?$CC?5?$AA@ 10068400     libvcruntime:undname.obj
 0002:00005410       ??_C@_02KCKGHPCA@?$CJ?5?$AA@ 10068410     libvcruntime:undname.obj
 0002:00005414       ??_C@_05CIHEBHNO@char?5?$AA@ 10068414     libvcruntime:undname.obj
 0002:0000541c       ??_C@_06EHJMALKF@short?5?$AA@ 1006841c     libvcruntime:undname.obj
 0002:00005424       ??_C@_04LAHKHJMA@int?5?$AA@ 10068424     libvcruntime:undname.obj
 0002:0000542c       ??_C@_05CJIMAING@long?5?$AA@ 1006842c     libvcruntime:undname.obj
 0002:00005434       ??_C@_09EBBEKKIH@unsigned?5?$AA@ 10068434     libvcruntime:undname.obj
 0002:00005440       ??_C@_05BEFAKPML@void?5?$AA@ 10068440     libvcruntime:undname.obj
 0002:00005448       ??_C@_08PABEKFH@volatile?$AA@ 10068448     libvcruntime:undname.obj
 0002:00005454       ??_C@_0BA@LKIJLKPP@std?3?3nullptr_t?5?$AA@ 10068454     libvcruntime:undname.obj
 0002:00005468       ??_C@_0P@GCOCNKDM@std?3?3nullptr_t?$AA@ 10068468     libvcruntime:undname.obj
 0002:0000547c       ??_C@_0L@EGPHHEKN@?$DMellipsis?$DO?$AA@ 1006847c     libvcruntime:undname.obj
 0002:0000548c       ??_C@_04EENFHACM@?0?4?4?4?$AA@ 1006848c     libvcruntime:undname.obj
 0002:00005494       ??_C@_0M@ELJOJFFH@?0?$DMellipsis?$DO?$AA@ 10068494     libvcruntime:undname.obj
 0002:000054a4       ??_C@_07HDJPLPEK@?5throw?$CI?$AA@ 100684a4     libvcruntime:undname.obj
 0002:000054b0       ??_C@_03PBJBJNON@cpu?$AA@  100684b0     libvcruntime:undname.obj
 0002:000054b4       ??_C@_03DCBBJBAA@amp?$AA@  100684b4     libvcruntime:undname.obj
 0002:000054b8       ??_C@_02KEGNLNML@?0?5?$AA@ 100684b8     libvcruntime:undname.obj
 0002:000054bc       ??_C@_04ENMBGAPA@char?$AA@ 100684bc     libvcruntime:undname.obj
 0002:000054c4       ??_C@_05BFKKPKCG@short?$AA@ 100684c4     libvcruntime:undname.obj
 0002:000054cc       ??_C@_03JBIPMCLC@int?$AA@  100684cc     libvcruntime:undname.obj
 0002:000054d0       ??_C@_04GOKPGOLB@long?$AA@ 100684d0     libvcruntime:undname.obj
 0002:000054d8       ??_C@_04DDKJGDCM@bool?$AA@ 100684d8     libvcruntime:undname.obj
 0002:000054e0       ??_C@_06EBGKOKIG@__int8?$AA@ 100684e0     libvcruntime:undname.obj
 0002:000054e8       ??_C@_07ICFHOGAF@__int16?$AA@ 100684e8     libvcruntime:undname.obj
 0002:000054f4       ??_C@_07OFLPPHGP@__int32?$AA@ 100684f4     libvcruntime:undname.obj
 0002:00005500       ??_C@_07LFCOJCAC@__int64?$AA@ 10068500     libvcruntime:undname.obj
 0002:0000550c       ??_C@_08GAHOLHEO@__int128?$AA@ 1006850c     libvcruntime:undname.obj
 0002:00005518       ??_C@_09EEKGDCPH@?$DMunknown?$DO?$AA@ 10068518     libvcruntime:undname.obj
 0002:00005524       ??_C@_08HBIPOFJB@char16_t?$AA@ 10068524     libvcruntime:undname.obj
 0002:00005530       ??_C@_08IECNCBKG@char32_t?$AA@ 10068530     libvcruntime:undname.obj
 0002:0000553c       ??_C@_07CLGGIAMF@wchar_t?$AA@ 1006853c     libvcruntime:undname.obj
 0002:00005548       ??_C@_06GCICPBLB@__w64?5?$AA@ 10068548     libvcruntime:undname.obj
 0002:00005550       ??_C@_07NFANNNEC@UNKNOWN?$AA@ 10068550     libvcruntime:undname.obj
 0002:0000555c       ??_C@_07EDHNAJHC@signed?5?$AA@ 1006855c     libvcruntime:undname.obj
 0002:00005568       ??_C@_05BNCCCJPP@const?$AA@ 10068568     libvcruntime:undname.obj
 0002:00005570       ??_C@_09EFNPDFFP@?5volatile?$AA@ 10068570     libvcruntime:undname.obj
 0002:0000557c       ??_C@_0P@GCIFDJCJ@?$GAunknown?5ecsu?8?$AA@ 1006857c     libvcruntime:undname.obj
 0002:00005590       ??_C@_06MOJHIBMG@union?5?$AA@ 10068590     libvcruntime:undname.obj
 0002:00005598       ??_C@_07DIBCDNGL@struct?5?$AA@ 10068598     libvcruntime:undname.obj
 0002:000055a4       ??_C@_06LJBABKPM@class?5?$AA@ 100685a4     libvcruntime:undname.obj
 0002:000055ac       ??_C@_08KOFANOFK@coclass?5?$AA@ 100685ac     libvcruntime:undname.obj
 0002:000055b8       ??_C@_0N@DLIEFKNA@cointerface?5?$AA@ 100685b8     libvcruntime:undname.obj
 0002:000055c8       ??_C@_05LJGMCFOG@enum?5?$AA@ 100685c8     libvcruntime:undname.obj
 0002:000055d0       ??_C@_09GAIEOBLP@volatile?5?$AA@ 100685d0     libvcruntime:undname.obj
 0002:000055dc       ??_C@_06LIJLOJAG@const?5?$AA@ 100685dc     libvcruntime:undname.obj
 0002:000055e4       ??_C@_02KJPKDIBN@?$CG?5?$AA@ 100685e4     libvcruntime:undname.obj
 0002:000055e8       ??_C@_03PCKGMOPB@?$CG?$CG?5?$AA@ 100685e8     libvcruntime:undname.obj
 0002:000055ec       ??_C@_0M@EALIELKG@cli?3?3array?$DM?$AA@ 100685ec     libvcruntime:undname.obj
 0002:000055fc       ??_C@_0O@GKABPPIF@cli?3?3pin_ptr?$DM?$AA@ 100685fc     libvcruntime:undname.obj
 0002:0000560c       ??_C@_02GOGNNPBN@?$CJ?$FL?$AA@ 1006860c     libvcruntime:undname.obj
 0002:00005610       ??_C@_06EEGAIFAK@?$HLflat?$HN?$AA@ 10068610     libvcruntime:undname.obj
 0002:00005618       ??_C@_05JIBOFOHK@?$HLfor?5?$AA@ 10068618     libvcruntime:undname.obj
 0002:00005620       ??_C@_02MDINNEEG@s?5?$AA@  10068620     libvcruntime:undname.obj
 0002:00005628       ??_7DNameNode@@6B@         10068628     libvcruntime:undname.obj
 0002:0000563c       ??_7charNode@@6B@          1006863c     libvcruntime:undname.obj
 0002:00005650       ??_7pcharNode@@6B@         10068650     libvcruntime:undname.obj
 0002:00005664       ??_7pDNameNode@@6B@        10068664     libvcruntime:undname.obj
 0002:00005678       ??_7DNameStatusNode@@6B@   10068678     libvcruntime:undname.obj
 0002:0000568c       ??_7pairNode@@6B@          1006868c     libvcruntime:undname.obj
 0002:0000569c       ??_C@_04OKOHEJBO@?5?$DP?$DP?5?$AA@ 1006869c     libvcruntime:undname.obj
 0002:000056a8       _standard_lookup_table     100686a8     libucrt:output.obj
 0002:00005718       _format_validation_lookup_table 10068718     libucrt:output.obj
 0002:00005788       ??_C@_06OJHGLDPL@?$CInull?$CJ?$AA@ 10068788     libucrt:output.obj
 0002:00005790       ??_C@_1O@CEDCILHN@?$AA?$CI?$AAn?$AAu?$AAl?$AAl?$AA?$CJ?$AA?$AA@ 10068790     libucrt:output.obj
 0002:000057a0       ??_C@_0CF@GOGNBNAK@Microsoft?5Visual?5C?$CL?$CL?5Runtime?5Lib@ 100687a0     libucrt:assert.obj
 0002:000057d0       ??_C@_1EK@MBDPDCGA@?$AAM?$AAi?$AAc?$AAr?$AAo?$AAs?$AAo?$AAf?$AAt?$AA?5?$AAV?$AAi?$AAs?$AAu?$AAa?$AAl?$AA?5?$AAC?$AA?$CL?$AA?$CL?$AA?5?$AAR?$AAu?$AAn?$AAt?$AAi?$AAm?$AAe?$AA?5?$AAL?$AAi?$AAb@ 100687d0     libucrt:assert.obj
 0002:00005828       ??_C@_0CK@CFPGFGGO@Assertion?5failed?3?5?$CFTs?0?5file?5?$CFTs?0@ 10068828     libucrt:assert.obj
 0002:00005860       ??_C@_1FE@LHBLIKM@?$AAA?$AAs?$AAs?$AAe?$AAr?$AAt?$AAi?$AAo?$AAn?$AA?5?$AAf?$AAa?$AAi?$AAl?$AAe?$AAd?$AA?3?$AA?5?$AA?$CF?$AAT?$AAs?$AA?0?$AA?5?$AAf?$AAi?$AAl?$AAe?$AA?5?$AA?$CF?$AAT?$AAs?$AA?0@ 10068860     libucrt:assert.obj
 0002:000058c4       ??_C@_0BC@LAIDCHCH@Assertion?5failed?$CB?$AA@ 100688c4     libucrt:assert.obj
 0002:000058dc       ??_C@_1CE@OJBNHDMO@?$AAA?$AAs?$AAs?$AAe?$AAr?$AAt?$AAi?$AAo?$AAn?$AA?5?$AAf?$AAa?$AAi?$AAl?$AAe?$AAd?$AA?$CB?$AA?$AA@ 100688dc     libucrt:assert.obj
 0002:00005908       ??_C@_09KLGCKDOD@Program?3?5?$AA@ 10068908     libucrt:assert.obj
 0002:00005914       ??_C@_1BE@PHKBBGE@?$AAP?$AAr?$AAo?$AAg?$AAr?$AAa?$AAm?$AA?3?$AA?5?$AA?$AA@ 10068914     libucrt:assert.obj
 0002:0000592c       ??_C@_06IGPBOHMJ@File?3?5?$AA@ 1006892c     libucrt:assert.obj
 0002:00005934       ??_C@_1O@HEMHKNDC@?$AAF?$AAi?$AAl?$AAe?$AA?3?$AA?5?$AA?$AA@ 10068934     libucrt:assert.obj
 0002:00005944       ??_C@_06FIEBOLOH@Line?3?5?$AA@ 10068944     libucrt:assert.obj
 0002:0000594c       ??_C@_1O@KCAFKHJE@?$AAL?$AAi?$AAn?$AAe?$AA?3?$AA?5?$AA?$AA@ 1006894c     libucrt:assert.obj
 0002:0000595c       ??_C@_0N@MEECIJGN@Expression?3?5?$AA@ 1006895c     libucrt:assert.obj
 0002:0000596c       ??_C@_1BK@PEDCIPMA@?$AAE?$AAx?$AAp?$AAr?$AAe?$AAs?$AAs?$AAi?$AAo?$AAn?$AA?3?$AA?5?$AA?$AA@ 1006896c     libucrt:assert.obj
 0002:00005990       ??_C@_0HA@OJHAGA@For?5information?5on?5how?5your?5prog@ 10068990     libucrt:assert.obj
 0002:00005a18       ??_C@_1OA@EGMLFBHJ@?$AAF?$AAo?$AAr?$AA?5?$AAi?$AAn?$AAf?$AAo?$AAr?$AAm?$AAa?$AAt?$AAi?$AAo?$AAn?$AA?5?$AAo?$AAn?$AA?5?$AAh?$AAo?$AAw?$AA?5?$AAy?$AAo?$AAu?$AAr?$AA?5?$AAp?$AAr?$AAo?$AAg@ 10068a18     libucrt:assert.obj
 0002:00005b24       ??_C@_0DN@EBBNMLME@?$CIPress?5Retry?5to?5debug?5the?5applic@ 10068b24     libucrt:assert.obj
 0002:00005b70       ??_C@_1HK@POCJMFGK@?$AA?$CI?$AAP?$AAr?$AAe?$AAs?$AAs?$AA?5?$AAR?$AAe?$AAt?$AAr?$AAy?$AA?5?$AAt?$AAo?$AA?5?$AAd?$AAe?$AAb?$AAu?$AAg?$AA?5?$AAt?$AAh?$AAe?$AA?5?$AAa?$AAp?$AAp?$AAl?$AAi?$AAc@ 10068b70     libucrt:assert.obj
 0002:00005c04       ??_C@_17LGKOMLJ@?$AA?4?$AA?4?$AA?4?$AA?$AA@ 10068c04     libucrt:assert.obj
 0002:00005c10       ??_C@_01EEMJAFIK@?6?$AA@   10068c10     libucrt:assert.obj
 0002:00005c14       ??_C@_13LBAGMAIH@?$AA?6?$AA?$AA@ 10068c14     libucrt:assert.obj
 0002:00005c18       ??_C@_02PHMGELLB@?6?6?$AA@ 10068c18     libucrt:assert.obj
 0002:00005c1c       ??_C@_15IABLJNFO@?$AA?6?$AA?6?$AA?$AA@ 10068c1c     libucrt:assert.obj
 0002:00005c24       ??_C@_0BH@DNAGHKFM@?$DMprogram?5name?5unknown?$DO?$AA@ 10068c24     libucrt:assert.obj
 0002:00005c40       ??_C@_1CO@EAEJAADC@?$AA?$DM?$AAp?$AAr?$AAo?$AAg?$AAr?$AAa?$AAm?$AA?5?$AAn?$AAa?$AAm?$AAe?$AA?5?$AAu?$AAn?$AAk?$AAn?$AAo?$AAw?$AAn?$AA?$DO?$AA?$AA@ 10068c40     libucrt:assert.obj
 0002:00005c78       _RtlNtPathSeperatorString  10068c78     libucrt:exit.obj
 0002:00005c84       ??_C@_13FPGAJAPJ@?$AA?2?$AA?$AA@ 10068c84     libucrt:exit.obj
 0002:00005c88       _RtlDosPathSeperatorsString 10068c88     libucrt:exit.obj
 0002:00005c94       ??_C@_15MNCACJLI@?$AA?2?$AA?1?$AA?$AA@ 10068c94     libucrt:exit.obj
 0002:00005c9c       _RtlAlternateDosPathSeperatorString 10068c9c     libucrt:exit.obj
 0002:00005ca8       ??_C@_13CGOKJPIL@?$AA?1?$AA?$AA@ 10068ca8     libucrt:exit.obj
 0002:00005cac       ??_C@_1BI@BGOHAHKC@?$AAm?$AAs?$AAc?$AAo?$AAr?$AAe?$AAe?$AA?4?$AAd?$AAl?$AAl?$AA?$AA@ 10068cac     libucrt:exit.obj
 0002:00005cc8       ??_C@_0P@MIGLKIOC@CorExitProcess?$AA@ 10068cc8     libucrt:exit.obj
 0002:00005cdc       ??_C@_04FJHINJAO@tanh?$AA@ 10068cdc     libucrt:fpexcept.obj
 0002:00005ce4       ??_C@_04FIHNOPOL@asin?$AA@ 10068ce4     libucrt:fpexcept.obj
 0002:00005cec       ??_C@_04PDIFKINK@acos?$AA@ 10068cec     libucrt:fpexcept.obj
 0002:00005cf4       ??_C@_04MLLJIGOK@atan?$AA@ 10068cf4     libucrt:fpexcept.obj
 0002:00005cfc       ??_C@_05KNGEOGJB@atan2?$AA@ 10068cfc     libucrt:fpexcept.obj
 0002:00005d04       ??_C@_04EIAKFFMI@sqrt?$AA@ 10068d04     libucrt:fpexcept.obj
 0002:00005d0c       ??_C@_03BLEJJJBH@sin?$AA@  10068d0c     libucrt:fpexcept.obj
 0002:00005d10       ??_C@_03LALBNOCG@cos?$AA@  10068d10     libucrt:fpexcept.obj
 0002:00005d14       ??_C@_03IIINPABG@tan?$AA@  10068d14     libucrt:fpexcept.obj
 0002:00005d18       ??_C@_04GFPJNGEK@ceil?$AA@ 10068d18     libucrt:fpexcept.obj
 0002:00005d20       ??_C@_05PBJFFIGL@floor?$AA@ 10068d20     libucrt:fpexcept.obj
 0002:00005d28       ??_C@_04ODHECPBC@fabs?$AA@ 10068d28     libucrt:fpexcept.obj
 0002:00005d30       ??_C@_04EHEDPDJG@modf?$AA@ 10068d30     libucrt:fpexcept.obj
 0002:00005d38       ??_C@_05CEJMAHNP@ldexp?$AA@ 10068d38     libucrt:fpexcept.obj
 0002:00005d40       ??_C@_05KBKMEMPO@_cabs?$AA@ 10068d40     libucrt:fpexcept.obj
 0002:00005d48       ??_C@_06MEIMCGCF@_hypot?$AA@ 10068d48     libucrt:fpexcept.obj
 0002:00005d50       ??_C@_04KEPJIHGP@fmod?$AA@ 10068d50     libucrt:fpexcept.obj
 0002:00005d58       ??_C@_05GKKHEGJL@frexp?$AA@ 10068d58     libucrt:fpexcept.obj
 0002:00005d60       ??_C@_03MJLDFKDL@_y0?$AA@  10068d60     libucrt:fpexcept.obj
 0002:00005d64       ??_C@_03NAKIGLHK@_y1?$AA@  10068d64     libucrt:fpexcept.obj
 0002:00005d68       ??_C@_03ONILCKOB@_yn?$AA@  10068d68     libucrt:fpexcept.obj
 0002:00005d6c       ??_C@_05JGDBENOH@_logb?$AA@ 10068d6c     libucrt:fpexcept.obj
 0002:00005d74       ??_C@_0L@KDOEJCKC@_nextafter?$AA@ 10068d74     libucrt:fpexcept.obj
 0002:00005ea0       ??_C@_03KHJOGHMM@exp?$AA@  10068ea0     libucrt:fpexcept.obj
 0002:00005ea4       ??_C@_03JGHBODFD@pow?$AA@  10068ea4     libucrt:fpexcept.obj
 0002:00005ea8       ??_C@_03MGHMBJCF@log?$AA@  10068ea8     libucrt:fpexcept.obj
 0002:00005eac       ??_C@_05HGHHAHAP@log10?$AA@ 10068eac     libucrt:fpexcept.obj
 0002:00005eb4       ??_C@_04COOMCNPB@sinh?$AA@ 10068eb4     libucrt:fpexcept.obj
 0002:00005ebc       ??_C@_04HPJJNFIM@cosh?$AA@ 10068ebc     libucrt:fpexcept.obj
 0002:00005ec8       ___acrt_exception_action_table 10068ec8     libucrt:exception_filter.obj
 0002:00005f74       ___acrt_signal_action_table_count 10068f74     libucrt:exception_filter.obj
 0002:00005f78       ___acrt_signal_action_table_size 10068f78     libucrt:exception_filter.obj
 0002:00005f7c       ___acrt_signal_action_first_fpe_index 10068f7c     libucrt:exception_filter.obj
 0002:00005f80       ___acrt_signal_action_fpe_count 10068f80     libucrt:exception_filter.obj
 0002:00006018       ??_C@_1BG@HHIFPOEK@?$AAm?$AAs?$AAv?$AAc?$AAr?$AAt?$AA?4?$AAd?$AAl?$AAl?$AA?$AA@ 10069018     libucrt:free_base.obj
 0002:00006034       __Fenv0                    10069034     libucrt:atox.obj
 0002:00006250       ??_C@_1EG@CNNIPFIM@?$AAa?$AAp?$AAi?$AA?9?$AAm?$AAs?$AA?9?$AAw?$AAi?$AAn?$AA?9?$AAa?$AAp?$AAp?$AAm?$AAo?$AAd?$AAe?$AAl?$AA?9?$AAr?$AAu?$AAn?$AAt?$AAi?$AAm?$AAe?$AA?9?$AAl?$AA1?$AA?9?$AA1@ 10069250     libucrt:winapi_thunks.obj
 0002:000062a8       ??_C@_1EA@JGEFHKEI@?$AAa?$AAp?$AAi?$AA?9?$AAm?$AAs?$AA?9?$AAw?$AAi?$AAn?$AA?9?$AAc?$AAo?$AAr?$AAe?$AA?9?$AAd?$AAa?$AAt?$AAe?$AAt?$AAi?$AAm?$AAe?$AA?9?$AAl?$AA1?$AA?9?$AA1?$AA?9?$AA1?$AA?$AA@ 100692a8     libucrt:winapi_thunks.obj
 0002:000062f4       ??_C@_1DI@GCIAAENM@?$AAa?$AAp?$AAi?$AA?9?$AAm?$AAs?$AA?9?$AAw?$AAi?$AAn?$AA?9?$AAc?$AAo?$AAr?$AAe?$AA?9?$AAf?$AAi?$AAl?$AAe?$AA?9?$AAl?$AA2?$AA?9?$AA1?$AA?9?$AA1?$AA?$AA@ 100692f4     libucrt:winapi_thunks.obj
 0002:00006338       ??_C@_1EI@MPIAOHOC@?$AAa?$AAp?$AAi?$AA?9?$AAm?$AAs?$AA?9?$AAw?$AAi?$AAn?$AA?9?$AAc?$AAo?$AAr?$AAe?$AA?9?$AAl?$AAo?$AAc?$AAa?$AAl?$AAi?$AAz?$AAa?$AAt?$AAi?$AAo?$AAn?$AA?9?$AAl?$AA1?$AA?9@ 10069338     libucrt:winapi_thunks.obj
 0002:00006390       ??_C@_1FK@FPHCKFIE@?$AAa?$AAp?$AAi?$AA?9?$AAm?$AAs?$AA?9?$AAw?$AAi?$AAn?$AA?9?$AAc?$AAo?$AAr?$AAe?$AA?9?$AAl?$AAo?$AAc?$AAa?$AAl?$AAi?$AAz?$AAa?$AAt?$AAi?$AAo?$AAn?$AA?9?$AAo?$AAb?$AAs@ 10069390     libucrt:winapi_thunks.obj
 0002:00006400       ??_C@_1EM@DILCGIIO@?$AAa?$AAp?$AAi?$AA?9?$AAm?$AAs?$AA?9?$AAw?$AAi?$AAn?$AA?9?$AAc?$AAo?$AAr?$AAe?$AA?9?$AAp?$AAr?$AAo?$AAc?$AAe?$AAs?$AAs?$AAt?$AAh?$AAr?$AAe?$AAa?$AAd?$AAs?$AA?9?$AAl@ 10069400     libucrt:winapi_thunks.obj
 0002:0000645c       ??_C@_1DM@LNCGDDPN@?$AAa?$AAp?$AAi?$AA?9?$AAm?$AAs?$AA?9?$AAw?$AAi?$AAn?$AA?9?$AAc?$AAo?$AAr?$AAe?$AA?9?$AAs?$AAt?$AAr?$AAi?$AAn?$AAg?$AA?9?$AAl?$AA1?$AA?9?$AA1?$AA?9?$AA0?$AA?$AA@ 1006945c     libucrt:winapi_thunks.obj
 0002:000064a4       ??_C@_1DO@FPAPJEMD@?$AAa?$AAp?$AAi?$AA?9?$AAm?$AAs?$AA?9?$AAw?$AAi?$AAn?$AA?9?$AAc?$AAo?$AAr?$AAe?$AA?9?$AAs?$AAy?$AAs?$AAi?$AAn?$AAf?$AAo?$AA?9?$AAl?$AA1?$AA?9?$AA2?$AA?9?$AA1?$AA?$AA@ 100694a4     libucrt:winapi_thunks.obj
 0002:000064f0       ??_C@_1DK@NDHNAHIO@?$AAa?$AAp?$AAi?$AA?9?$AAm?$AAs?$AA?9?$AAw?$AAi?$AAn?$AA?9?$AAc?$AAo?$AAr?$AAe?$AA?9?$AAw?$AAi?$AAn?$AAr?$AAt?$AA?9?$AAl?$AA1?$AA?9?$AA1?$AA?9?$AA0?$AA?$AA@ 100694f0     libucrt:winapi_thunks.obj
 0002:00006538       ??_C@_1DM@KGHDGBCM@?$AAa?$AAp?$AAi?$AA?9?$AAm?$AAs?$AA?9?$AAw?$AAi?$AAn?$AA?9?$AAc?$AAo?$AAr?$AAe?$AA?9?$AAx?$AAs?$AAt?$AAa?$AAt?$AAe?$AA?9?$AAl?$AA2?$AA?9?$AA1?$AA?9?$AA0?$AA?$AA@ 10069538     libucrt:winapi_thunks.obj
 0002:00006580       ??_C@_1EO@IJIOEFOH@?$AAa?$AAp?$AAi?$AA?9?$AAm?$AAs?$AA?9?$AAw?$AAi?$AAn?$AA?9?$AAr?$AAt?$AAc?$AAo?$AAr?$AAe?$AA?9?$AAn?$AAt?$AAu?$AAs?$AAe?$AAr?$AA?9?$AAw?$AAi?$AAn?$AAd?$AAo?$AAw?$AA?9@ 10069580     libucrt:winapi_thunks.obj
 0002:000065e0       ??_C@_1FG@HHGEKANL@?$AAa?$AAp?$AAi?$AA?9?$AAm?$AAs?$AA?9?$AAw?$AAi?$AAn?$AA?9?$AAs?$AAe?$AAc?$AAu?$AAr?$AAi?$AAt?$AAy?$AA?9?$AAs?$AAy?$AAs?$AAt?$AAe?$AAm?$AAf?$AAu?$AAn?$AAc?$AAt?$AAi@ 100695e0     libucrt:winapi_thunks.obj
 0002:00006648       ??_C@_1FG@NCKKOLKO@?$AAe?$AAx?$AAt?$AA?9?$AAm?$AAs?$AA?9?$AAw?$AAi?$AAn?$AA?9?$AAk?$AAe?$AAr?$AAn?$AAe?$AAl?$AA3?$AA2?$AA?9?$AAp?$AAa?$AAc?$AAk?$AAa?$AAg?$AAe?$AA?9?$AAc?$AAu?$AAr?$AAr@ 10069648     libucrt:winapi_thunks.obj
 0002:000066b0       ??_C@_1EG@DBIOJECG@?$AAe?$AAx?$AAt?$AA?9?$AAm?$AAs?$AA?9?$AAw?$AAi?$AAn?$AA?9?$AAn?$AAt?$AAu?$AAs?$AAe?$AAr?$AA?9?$AAd?$AAi?$AAa?$AAl?$AAo?$AAg?$AAb?$AAo?$AAx?$AA?9?$AAl?$AA1?$AA?9?$AA1@ 100696b0     libucrt:winapi_thunks.obj
 0002:00006708       ??_C@_1EO@FIHMJCLF@?$AAe?$AAx?$AAt?$AA?9?$AAm?$AAs?$AA?9?$AAw?$AAi?$AAn?$AA?9?$AAn?$AAt?$AAu?$AAs?$AAe?$AAr?$AA?9?$AAw?$AAi?$AAn?$AAd?$AAo?$AAw?$AAs?$AAt?$AAa?$AAt?$AAi?$AAo?$AAn?$AA?9@ 10069708     libucrt:winapi_thunks.obj
 0002:00006768       ??_C@_1O@BCCLBEOE@?$AAu?$AAs?$AAe?$AAr?$AA3?$AA2?$AA?$AA@ 10069768     libucrt:winapi_thunks.obj
 0002:0000677c       ??_C@_0BA@FHFNEAED@AreFileApisANSI?$AA@ 1006977c     libucrt:winapi_thunks.obj
 0002:0000679c       ??_C@_0BA@IHGNDAEB@CompareStringEx?$AA@ 1006979c     libucrt:winapi_thunks.obj
 0002:000067bc       ??_C@_0BE@LJANKFHF@EnumSystemLocalesEx?$AA@ 100697bc     libucrt:winapi_thunks.obj
 0002:00006810       ??_C@_0BA@HNOPNCHB@GetActiveWindow?$AA@ 10069810     libucrt:winapi_thunks.obj
 0002:00006830       ??_C@_0BE@JOGNEJCI@GetCurrentPackageId?$AA@ 10069830     libucrt:winapi_thunks.obj
 0002:00006854       ??_C@_0BA@EPCJIIPD@GetDateFormatEx?$AA@ 10069854     libucrt:winapi_thunks.obj
 0002:00006874       ??_C@_0BJ@DIBIJBHA@GetEnabledXStateFeatures?$AA@ 10069874     libucrt:winapi_thunks.obj
 0002:000068a0       ??_C@_0BN@NEEHBBPO@GetFileInformationByHandleEx?$AA@ 100698a0     libucrt:winapi_thunks.obj
 0002:000068d0       ??_C@_0BD@HHGDFDBJ@GetLastActivePopup?$AA@ 100698d0     libucrt:winapi_thunks.obj
 0002:000068f4       ??_C@_0BA@ONOKGCMP@GetLocaleInfoEx?$AA@ 100698f4     libucrt:winapi_thunks.obj
 0002:00006914       ??_C@_0BI@DFKBFLJE@GetProcessWindowStation?$AA@ 10069914     libucrt:winapi_thunks.obj
 0002:00006934       ??_C@_0BP@FPNJPEJC@GetSystemTimePreciseAsFileTime?$AA@ 10069934     libucrt:winapi_thunks.obj
 0002:00006968       ??_C@_0BA@CIJJKCJJ@GetTimeFormatEx?$AA@ 10069968     libucrt:winapi_thunks.obj
 0002:00006988       ??_C@_0BJ@PBCCBIPI@GetUserDefaultLocaleName?$AA@ 10069988     libucrt:winapi_thunks.obj
 0002:000069b4       ??_C@_0BK@DEKFELLI@GetUserObjectInformationW?$AA@ 100699b4     libucrt:winapi_thunks.obj
 0002:000069e0       ??_C@_0BG@IKLDMBLM@GetXStateFeaturesMask?$AA@ 100699e0     libucrt:winapi_thunks.obj
 0002:00006a14       ??_C@_0BC@CELBKLLA@IsValidLocaleName?$AA@ 10069a14     libucrt:winapi_thunks.obj
 0002:00006a38       ??_C@_0O@KKBNKAPF@LCMapStringEx?$AA@ 10069a38     libucrt:winapi_thunks.obj
 0002:00006a54       ??_C@_0BB@CDHDDLLP@LCIDToLocaleName?$AA@ 10069a54     libucrt:winapi_thunks.obj
 0002:00006a74       ??_C@_0BB@HBDEELFH@LocaleNameToLCID?$AA@ 10069a74     libucrt:winapi_thunks.obj
 0002:00006a94       ??_C@_0BE@KINNKFDA@LocateXStateFeature?$AA@ 10069a94     libucrt:winapi_thunks.obj
 0002:00006ab8       ??_C@_0M@CHKKJDAI@MessageBoxA?$AA@ 10069ab8     libucrt:winapi_thunks.obj
 0002:00006ad4       ??_C@_0M@DLDCCGNP@MessageBoxW?$AA@ 10069ad4     libucrt:winapi_thunks.obj
 0002:00006ae8       ??_C@_0N@PPOMPGGK@RoInitialize?$AA@ 10069ae8     libucrt:winapi_thunks.obj
 0002:00006afc       ??_C@_0P@LLFHBIJD@RoUninitialize?$AA@ 10069afc     libucrt:winapi_thunks.obj
 0002:00006b1c       ??_C@_0BI@BKLFFAPO@SetThreadStackGuarantee?$AA@ 10069b1c     libucrt:winapi_thunks.obj
 0002:00006b44       ??_C@_0BC@JEAENNKH@SystemFunction036?$AA@ 10069b44     libucrt:winapi_thunks.obj
 0002:00006b5c       ??_C@_03OEIAHPBN@INF?$AA@  10069b5c     libucrt:cvt.obj
 0002:00006b60       ??_C@_03OJHLLCGB@inf?$AA@  10069b60     libucrt:cvt.obj
 0002:00006b64       ??_C@_03LKNCIKJB@NAN?$AA@  10069b64     libucrt:cvt.obj
 0002:00006b68       ??_C@_03LHCJEHON@nan?$AA@  10069b68     libucrt:cvt.obj
 0002:00006b6c       ??_C@_09OFJJIMPC@NAN?$CISNAN?$CJ?$AA@ 10069b6c     libucrt:cvt.obj
 0002:00006b78       ??_C@_09IPFBKMDL@nan?$CIsnan?$CJ?$AA@ 10069b78     libucrt:cvt.obj
 0002:00006b84       ??_C@_08IKHNHAJ@NAN?$CIIND?$CJ?$AA@ 10069b84     libucrt:cvt.obj
 0002:00006b90       ??_C@_08OFCDMILK@nan?$CIind?$CJ?$AA@ 10069b90     libucrt:cvt.obj
 0002:00006b9c       ??_C@_05KLBDPFGC@e?$CL000?$AA@ 10069b9c     libucrt:cvt.obj
 0002:00006ba8       ___lc_category             10069ba8     libucrt:wsetlocale.obj
 0002:00006c00       ??_C@_1O@GIFLHMA@?$AAL?$AAC?$AA_?$AAA?$AAL?$AAL?$AA?$AA@ 10069c00     libucrt:wsetlocale.obj
 0002:00006c10       ??_C@_1BG@PPOMIBNJ@?$AAL?$AAC?$AA_?$AAC?$AAO?$AAL?$AAL?$AAA?$AAT?$AAE?$AA?$AA@ 10069c10     libucrt:wsetlocale.obj
 0002:00006c2c       ??_C@_1BC@FFJGAPJM@?$AAL?$AAC?$AA_?$AAC?$AAT?$AAY?$AAP?$AAE?$AA?$AA@ 10069c2c     libucrt:wsetlocale.obj
 0002:00006c44       ??_C@_1BI@PCKFNJFB@?$AAL?$AAC?$AA_?$AAM?$AAO?$AAN?$AAE?$AAT?$AAA?$AAR?$AAY?$AA?$AA@ 10069c44     libucrt:wsetlocale.obj
 0002:00006c60       ??_C@_1BG@ENIEDKID@?$AAL?$AAC?$AA_?$AAN?$AAU?$AAM?$AAE?$AAR?$AAI?$AAC?$AA?$AA@ 10069c60     libucrt:wsetlocale.obj
 0002:00006c7c       ??_C@_1BA@HAAOMIIG@?$AAL?$AAC?$AA_?$AAT?$AAI?$AAM?$AAE?$AA?$AA@ 10069c7c     libucrt:wsetlocale.obj
 0002:00006d28       ??_C@_15NBPDDFIP@?$AA?$DN?$AA?$DL?$AA?$AA@ 10069d28     libucrt:wsetlocale.obj
 0002:00006d30       ??_C@_13PJJBFPED@?$AA?$DL?$AA?$AA@ 10069d30     libucrt:wsetlocale.obj
 0002:00006d34       ??_C@_13NMPKAAJP@?$AA?$DN?$AA?$AA@ 10069d34     libucrt:wsetlocale.obj
 0002:00006d38       ??_C@_13FHBKNHDA@?$AAC?$AA?$AA@ 10069d38     libucrt:wsetlocale.obj
 0002:00006d3c       ??_C@_17MBJJLFDM@?$AA_?$AA?4?$AA?0?$AA?$AA@ 10069d3c     libucrt:wsetlocale.obj
 0002:00006d48       ??_C@_13ENNFDPBH@?$AA_?$AA?$AA@ 10069d48     libucrt:wsetlocale.obj
 0002:00006d4c       ??_C@_13JOFGPIOO@?$AA?4?$AA?$AA@ 10069d4c     libucrt:wsetlocale.obj
 0002:00006d50       ??_C@_03KOEHGMDN@Sun?$AA@  10069d50     libucrt:nlsdata.obj
 0002:00006d54       ??_C@_03PDAGKDH@Mon?$AA@   10069d54     libucrt:nlsdata.obj
 0002:00006d58       ??_C@_03NAGEINEP@Tue?$AA@  10069d58     libucrt:nlsdata.obj
 0002:00006d5c       ??_C@_03MHOMLAJA@Wed?$AA@  10069d5c     libucrt:nlsdata.obj
 0002:00006d60       ??_C@_03IOFIKPDN@Thu?$AA@  10069d60     libucrt:nlsdata.obj
 0002:00006d64       ??_C@_03IDIOELNC@Fri?$AA@  10069d64     libucrt:nlsdata.obj
 0002:00006d68       ??_C@_03FEFJNEK@Sat?$AA@   10069d68     libucrt:nlsdata.obj
 0002:00006d6c       ??_C@_06OOPIFAJ@Sunday?$AA@ 10069d6c     libucrt:nlsdata.obj
 0002:00006d74       ??_C@_06JLEDEDGH@Monday?$AA@ 10069d74     libucrt:nlsdata.obj
 0002:00006d7c       ??_C@_07BAAGCFCM@Tuesday?$AA@ 10069d7c     libucrt:nlsdata.obj
 0002:00006d88       ??_C@_09DLIGFAKA@Wednesday?$AA@ 10069d88     libucrt:nlsdata.obj
 0002:00006d94       ??_C@_08HACCIKIA@Thursday?$AA@ 10069d94     libucrt:nlsdata.obj
 0002:00006da0       ??_C@_06JECMNKMI@Friday?$AA@ 10069da0     libucrt:nlsdata.obj
 0002:00006da8       ??_C@_08INBOOONO@Saturday?$AA@ 10069da8     libucrt:nlsdata.obj
 0002:00006db4       ??_C@_03JIHJHPIE@Jan?$AA@  10069db4     libucrt:nlsdata.obj
 0002:00006db8       ??_C@_03HJBDCHOM@Feb?$AA@  10069db8     libucrt:nlsdata.obj
 0002:00006dbc       ??_C@_03ODNJBKGA@Mar?$AA@  10069dbc     libucrt:nlsdata.obj
 0002:00006dc0       ??_C@_03LEOLGMJP@Apr?$AA@  10069dc0     libucrt:nlsdata.obj
 0002:00006dc4       ??_C@_03CNMDKL@May?$AA@    10069dc4     libucrt:nlsdata.obj
 0002:00006dc8       ??_C@_03IDFGHECI@Jun?$AA@  10069dc8     libucrt:nlsdata.obj
 0002:00006dcc       ??_C@_03LBGABGKK@Jul?$AA@  10069dcc     libucrt:nlsdata.obj
 0002:00006dd0       ??_C@_03IFJFEIGA@Aug?$AA@  10069dd0     libucrt:nlsdata.obj
 0002:00006dd4       ??_C@_03GGCAPAJC@Sep?$AA@  10069dd4     libucrt:nlsdata.obj
 0002:00006dd8       ??_C@_03BMAOKBAD@Oct?$AA@  10069dd8     libucrt:nlsdata.obj
 0002:00006ddc       ??_C@_03JPJOFNIA@Nov?$AA@  10069ddc     libucrt:nlsdata.obj
 0002:00006de0       ??_C@_03MKABNOCG@Dec?$AA@  10069de0     libucrt:nlsdata.obj
 0002:00006de4       ??_C@_07CGJPFGJA@January?$AA@ 10069de4     libucrt:nlsdata.obj
 0002:00006df0       ??_C@_08GNJGEPFN@February?$AA@ 10069df0     libucrt:nlsdata.obj
 0002:00006dfc       ??_C@_05HPCKOFNC@March?$AA@ 10069dfc     libucrt:nlsdata.obj
 0002:00006e04       ??_C@_05DMJDNLEJ@April?$AA@ 10069e04     libucrt:nlsdata.obj
 0002:00006e0c       ??_C@_04CNLMGBGM@June?$AA@ 10069e0c     libucrt:nlsdata.obj
 0002:00006e14       ??_C@_04MIEPOIFP@July?$AA@ 10069e14     libucrt:nlsdata.obj
 0002:00006e1c       ??_C@_06LBBHFDDG@August?$AA@ 10069e1c     libucrt:nlsdata.obj
 0002:00006e24       ??_C@_09BHHEALKD@September?$AA@ 10069e24     libucrt:nlsdata.obj
 0002:00006e30       ??_C@_07JJNFCEND@October?$AA@ 10069e30     libucrt:nlsdata.obj
 0002:00006e3c       ??_C@_08HCHEGEOA@November?$AA@ 10069e3c     libucrt:nlsdata.obj
 0002:00006e48       ??_C@_08EDHMEBNP@December?$AA@ 10069e48     libucrt:nlsdata.obj
 0002:00006e54       ??_C@_02DEDBPAFC@AM?$AA@   10069e54     libucrt:nlsdata.obj
 0002:00006e58       ??_C@_02CJNFDJBF@PM?$AA@   10069e58     libucrt:nlsdata.obj
 0002:00006e5c       ??_C@_08BPBNCDIB@MM?1dd?1yy?$AA@ 10069e5c     libucrt:nlsdata.obj
 0002:00006e68       ??_C@_0BE@CKGJFCPC@dddd?0?5MMMM?5dd?0?5yyyy?$AA@ 10069e68     libucrt:nlsdata.obj
 0002:00006e80       ??_C@_08JCCMCCIL@HH?3mm?3ss?$AA@ 10069e80     libucrt:nlsdata.obj
 0002:00006e8c       ??_C@_17MBGCMIPB@?$AAS?$AAu?$AAn?$AA?$AA@ 10069e8c     libucrt:nlsdata.obj
 0002:00006e98       ??_C@_17KBOMKBF@?$AAM?$AAo?$AAn?$AA?$AA@ 10069e98     libucrt:nlsdata.obj
 0002:00006ea4       ??_C@_17BMKGEGOJ@?$AAT?$AAu?$AAe?$AA?$AA@ 10069ea4     libucrt:nlsdata.obj
 0002:00006eb0       ??_C@_17CJEDCEPE@?$AAW?$AAe?$AAd?$AA?$AA@ 10069eb0     libucrt:nlsdata.obj
 0002:00006ebc       ??_C@_17PDPHAADD@?$AAT?$AAh?$AAu?$AA?$AA@ 10069ebc     libucrt:nlsdata.obj
 0002:00006ec8       ??_C@_17HFOLPPLP@?$AAF?$AAr?$AAi?$AA?$AA@ 10069ec8     libucrt:nlsdata.obj
 0002:00006ed4       ??_C@_17GGIBDPIH@?$AAS?$AAa?$AAt?$AA?$AA@ 10069ed4     libucrt:nlsdata.obj
 0002:00006ee0       ??_C@_1O@IHNHDHPB@?$AAS?$AAu?$AAn?$AAd?$AAa?$AAy?$AA?$AA@ 10069ee0     libucrt:nlsdata.obj
 0002:00006ef0       ??_C@_1O@MMNBFLIA@?$AAM?$AAo?$AAn?$AAd?$AAa?$AAy?$AA?$AA@ 10069ef0     libucrt:nlsdata.obj
 0002:00006f00       ??_C@_1BA@ENFBFFEK@?$AAT?$AAu?$AAe?$AAs?$AAd?$AAa?$AAy?$AA?$AA@ 10069f00     libucrt:nlsdata.obj
 0002:00006f14       ??_C@_1BE@EBOGMDOH@?$AAW?$AAe?$AAd?$AAn?$AAe?$AAs?$AAd?$AAa?$AAy?$AA?$AA@ 10069f14     libucrt:nlsdata.obj
 0002:00006f2c       ??_C@_1BC@HHMNLIHE@?$AAT?$AAh?$AAu?$AAr?$AAs?$AAd?$AAa?$AAy?$AA?$AA@ 10069f2c     libucrt:nlsdata.obj
 0002:00006f44       ??_C@_1O@PDICJHAG@?$AAF?$AAr?$AAi?$AAd?$AAa?$AAy?$AA?$AA@ 10069f44     libucrt:nlsdata.obj
 0002:00006f54       ??_C@_1BC@ENMNNPAJ@?$AAS?$AAa?$AAt?$AAu?$AAr?$AAd?$AAa?$AAy?$AA?$AA@ 10069f54     libucrt:nlsdata.obj
 0002:00006f6c       ??_C@_17DKNBKCHM@?$AAJ?$AAa?$AAn?$AA?$AA@ 10069f6c     libucrt:nlsdata.obj
 0002:00006f78       ??_C@_17LMDJEKJN@?$AAF?$AAe?$AAb?$AA?$AA@ 10069f78     libucrt:nlsdata.obj
 0002:00006f84       ??_C@_17CKNLEDEC@?$AAM?$AAa?$AAr?$AA?$AA@ 10069f84     libucrt:nlsdata.obj
 0002:00006f90       ??_C@_17LFPOIHDD@?$AAA?$AAp?$AAr?$AA?$AA@ 10069f90     libucrt:nlsdata.obj
 0002:00006f9c       ??_C@_17PNNKMEED@?$AAM?$AAa?$AAy?$AA?$AA@ 10069f9c     libucrt:nlsdata.obj
 0002:00006fa8       ??_C@_17KCJGOCPB@?$AAJ?$AAu?$AAn?$AA?$AA@ 10069fa8     libucrt:nlsdata.obj
 0002:00006fb4       ??_C@_17IJPCKHK@?$AAJ?$AAu?$AAl?$AA?$AA@ 10069fb4     libucrt:nlsdata.obj
 0002:00006fc0       ??_C@_17ICPELBCN@?$AAA?$AAu?$AAg?$AA?$AA@ 10069fc0     libucrt:nlsdata.obj
 0002:00006fcc       ??_C@_17HCHCOKMG@?$AAS?$AAe?$AAp?$AA?$AA@ 10069fcc     libucrt:nlsdata.obj
 0002:00006fd8       ??_C@_17FNLKOI@?$AAO?$AAc?$AAt?$AA?$AA@ 10069fd8     libucrt:nlsdata.obj
 0002:00006fe4       ??_C@_17BBDMLCIG@?$AAN?$AAo?$AAv?$AA?$AA@ 10069fe4     libucrt:nlsdata.obj
 0002:00006ff0       ??_C@_17EGKACKIF@?$AAD?$AAe?$AAc?$AA?$AA@ 10069ff0     libucrt:nlsdata.obj
 0002:00006ffc       ??_C@_1BA@EFMEIEBA@?$AAJ?$AAa?$AAn?$AAu?$AAa?$AAr?$AAy?$AA?$AA@ 10069ffc     libucrt:nlsdata.obj
 0002:00007010       ??_C@_1BC@JGDDFFAM@?$AAF?$AAe?$AAb?$AAr?$AAu?$AAa?$AAr?$AAy?$AA?$AA@ 1006a010     libucrt:nlsdata.obj
 0002:00007028       ??_C@_1M@IKEENEDF@?$AAM?$AAa?$AAr?$AAc?$AAh?$AA?$AA@ 1006a028     libucrt:nlsdata.obj
 0002:00007038       ??_C@_1M@GJNLMHFD@?$AAA?$AAp?$AAr?$AAi?$AAl?$AA?$AA@ 1006a038     libucrt:nlsdata.obj
 0002:00007048       ??_C@_19EPFLPGAP@?$AAJ?$AAu?$AAn?$AAe?$AA?$AA@ 1006a048     libucrt:nlsdata.obj
 0002:00007054       ??_C@_19BIFMLPCD@?$AAJ?$AAu?$AAl?$AAy?$AA?$AA@ 1006a054     libucrt:nlsdata.obj
 0002:00007060       ??_C@_1O@PAHLKOAC@?$AAA?$AAu?$AAg?$AAu?$AAs?$AAt?$AA?$AA@ 1006a060     libucrt:nlsdata.obj
 0002:00007070       ??_C@_1BE@DKAAMBJL@?$AAS?$AAe?$AAp?$AAt?$AAe?$AAm?$AAb?$AAe?$AAr?$AA?$AA@ 1006a070     libucrt:nlsdata.obj
 0002:00007088       ??_C@_1BA@EPANDLNG@?$AAO?$AAc?$AAt?$AAo?$AAb?$AAe?$AAr?$AA?$AA@ 1006a088     libucrt:nlsdata.obj
 0002:0000709c       ??_C@_1BC@BGLIFPF@?$AAN?$AAo?$AAv?$AAe?$AAm?$AAb?$AAe?$AAr?$AA?$AA@ 1006a09c     libucrt:nlsdata.obj
 0002:000070b4       ??_C@_1BC@FEMKIFH@?$AAD?$AAe?$AAc?$AAe?$AAm?$AAb?$AAe?$AAr?$AA?$AA@ 1006a0b4     libucrt:nlsdata.obj
 0002:000070cc       ??_C@_15ODEHAHHF@?$AAA?$AAM?$AA?$AA@ 1006a0cc     libucrt:nlsdata.obj
 0002:000070d4       ??_C@_15CLMNNGEL@?$AAP?$AAM?$AA?$AA@ 1006a0d4     libucrt:nlsdata.obj
 0002:000070dc       ??_C@_1BC@IEBCMHCM@?$AAM?$AAM?$AA?1?$AAd?$AAd?$AA?1?$AAy?$AAy?$AA?$AA@ 1006a0dc     libucrt:nlsdata.obj
 0002:000070f4       ??_C@_1CI@KNAKOEBC@?$AAd?$AAd?$AAd?$AAd?$AA?0?$AA?5?$AAM?$AAM?$AAM?$AAM?$AA?5?$AAd?$AAd?$AA?0?$AA?5?$AAy?$AAy?$AAy?$AAy?$AA?$AA@ 1006a0f4     libucrt:nlsdata.obj
 0002:00007124       ??_C@_1BC@GDGBMEMK@?$AAH?$AAH?$AA?3?$AAm?$AAm?$AA?3?$AAs?$AAs?$AA?$AA@ 1006a124     libucrt:nlsdata.obj
 0002:0000713c       ??_C@_1M@BMHNFIME@?$AAe?$AAn?$AA?9?$AAU?$AAS?$AA?$AA@ 1006a13c     libucrt:nlsdata.obj
 0002:00007150       ___lc_time_c               1006a150     libucrt:nlsdata.obj
 0002:000072fc       ??_C@_1DE@JNGNBFGO@?$AAR?$AAu?$AAn?$AAt?$AAi?$AAm?$AAe?$AA?5?$AAE?$AAr?$AAr?$AAo?$AAr?$AA?$CB?$AA?6?$AA?6?$AAP?$AAr?$AAo?$AAg?$AAr?$AAa?$AAm?$AA?3?$AA?5?$AA?$AA@ 1006a2fc     libucrt:report_runtime_error.obj
 0002:0000733c       ?ccs@?BL@???$__acrt_stdio_parse_mode@D@@YA?AU__acrt_stdio_stream_mode@@QBD@Z@4QBDB 1006a33c     libucrt:openfile.obj
 0002:00007340       ?utf8_encoding@?BL@???$__acrt_stdio_parse_mode@D@@YA?AU__acrt_stdio_stream_mode@@QBD@Z@4QBDB 1006a340     libucrt:openfile.obj
 0002:00007348       ?utf16_encoding@?BL@???$__acrt_stdio_parse_mode@D@@YA?AU__acrt_stdio_stream_mode@@QBD@Z@4QBDB 1006a348     libucrt:openfile.obj
 0002:00007354       ?unicode_encoding@?BL@???$__acrt_stdio_parse_mode@D@@YA?AU__acrt_stdio_stream_mode@@QBD@Z@4QBDB 1006a354     libucrt:openfile.obj
 0002:0000735c       ?ccs@?BL@???$__acrt_stdio_parse_mode@_W@@YA?AU__acrt_stdio_stream_mode@@QB_W@Z@4QB_WB 1006a35c     libucrt:openfile.obj
 0002:00007364       ?utf8_encoding@?BL@???$__acrt_stdio_parse_mode@_W@@YA?AU__acrt_stdio_stream_mode@@QB_W@Z@4QB_WB 1006a364     libucrt:openfile.obj
 0002:00007370       ?utf16_encoding@?BL@???$__acrt_stdio_parse_mode@_W@@YA?AU__acrt_stdio_stream_mode@@QB_W@Z@4QB_WB 1006a370     libucrt:openfile.obj
 0002:00007384       ?unicode_encoding@?BL@???$__acrt_stdio_parse_mode@_W@@YA?AU__acrt_stdio_stream_mode@@QB_W@Z@4QB_WB 1006a384     libucrt:openfile.obj
 0002:00007398       __d_inf                    1006a398     libucrt:util.obj
 0002:000073a8       __d_ind                    1006a3a8     libucrt:util.obj
 0002:000073b8       __d_max                    1006a3b8     libucrt:util.obj
 0002:000073c8       __d_min                    1006a3c8     libucrt:util.obj
 0002:000073d8       __d_mzero                  1006a3d8     libucrt:util.obj
 0002:00007418       ??_C@_1M@HPNHIDJI@?$AAj?$AAa?$AA?9?$AAJ?$AAP?$AA?$AA@ 1006a418     libucrt:mbctype.obj
 0002:00007428       ??_C@_1M@BIBDDEMK@?$AAz?$AAh?$AA?9?$AAC?$AAN?$AA?$AA@ 1006a428     libucrt:mbctype.obj
 0002:00007438       ??_C@_1M@JLOOOEGK@?$AAk?$AAo?$AA?9?$AAK?$AAR?$AA?$AA@ 1006a438     libucrt:mbctype.obj
 0002:00007448       ??_C@_1M@CLNBBOPM@?$AAz?$AAh?$AA?9?$AAT?$AAW?$AA?$AA@ 1006a448     libucrt:mbctype.obj
 0002:00007458       __wctype                   1006a458     libucrt:ctype.obj
 0002:000076c8       ___newctype                1006a6c8     libucrt:ctype.obj
 0002:00007a68       ___newclmap                1006aa68     libucrt:ctype.obj
 0002:00007c38       ___newcumap                1006ac38     libucrt:ctype.obj
 0002:00008694       ??_C@_15EMKDOKLE@?$AAa?$AAr?$AA?$AA@ 1006b694     libucrt:lcidtoname_downlevel.obj
 0002:0000869c       ??_C@_15KNPADPLH@?$AAb?$AAg?$AA?$AA@ 1006b69c     libucrt:lcidtoname_downlevel.obj
 0002:000086a4       ??_C@_15EDMHLDMO@?$AAc?$AAa?$AA?$AA@ 1006b6a4     libucrt:lcidtoname_downlevel.obj
 0002:000086ac       ??_C@_1O@BPEAJADD@?$AAz?$AAh?$AA?9?$AAC?$AAH?$AAS?$AA?$AA@ 1006b6ac     libucrt:lcidtoname_downlevel.obj
 0002:000086bc       ??_C@_15LJNHCMNK@?$AAc?$AAs?$AA?$AA@ 1006b6bc     libucrt:lcidtoname_downlevel.obj
 0002:000086c4       ??_C@_15FOMCIDHG@?$AAd?$AAa?$AA?$AA@ 1006b6c4     libucrt:lcidtoname_downlevel.obj
 0002:000086cc       ??_C@_15NBKABECB@?$AAd?$AAe?$AA?$AA@ 1006b6cc     libucrt:lcidtoname_downlevel.obj
 0002:000086d4       ??_C@_15GHPEIIAO@?$AAe?$AAl?$AA?$AA@ 1006b6d4     libucrt:lcidtoname_downlevel.obj
 0002:000086dc       ??_C@_15MNPNEAIF@?$AAe?$AAn?$AA?$AA@ 1006b6dc     libucrt:lcidtoname_downlevel.obj
 0002:000086e4       ??_C@_15GPIOMPMH@?$AAe?$AAs?$AA?$AA@ 1006b6e4     libucrt:lcidtoname_downlevel.obj
 0002:000086ec       ??_C@_15NGLOAKJC@?$AAf?$AAi?$AA?$AA@ 1006b6ec     libucrt:lcidtoname_downlevel.obj
 0002:000086f4       ??_C@_15FBKGNKAM@?$AAf?$AAr?$AA?$AA@ 1006b6f4     libucrt:lcidtoname_downlevel.obj
 0002:000086fc       ??_C@_15KGGCNEFK@?$AAh?$AAe?$AA?$AA@ 1006b6fc     libucrt:lcidtoname_downlevel.obj
 0002:00008704       ??_C@_15PGHLIDMF@?$AAh?$AAu?$AA?$AA@ 1006b704     libucrt:lcidtoname_downlevel.obj
 0002:0000870c       ??_C@_15BIEMAPLM@?$AAi?$AAs?$AA?$AA@ 1006b70c     libucrt:lcidtoname_downlevel.obj
 0002:00008714       ??_C@_15IFJLDHAF@?$AAi?$AAt?$AA?$AA@ 1006b714     libucrt:lcidtoname_downlevel.obj
 0002:0000871c       ??_C@_15GEMIOCAG@?$AAj?$AAa?$AA?$AA@ 1006b71c     libucrt:lcidtoname_downlevel.obj
 0002:00008724       ??_C@_15EPELEGJA@?$AAk?$AAo?$AA?$AA@ 1006b724     libucrt:lcidtoname_downlevel.obj
 0002:0000872c       ??_C@_15NDDHIMN@?$AAn?$AAl?$AA?$AA@ 1006b72c     libucrt:lcidtoname_downlevel.obj
 0002:00008734       ??_C@_15BPIGNHCD@?$AAn?$AAo?$AA?$AA@ 1006b734     libucrt:lcidtoname_downlevel.obj
 0002:0000873c       ??_C@_15DEOPBLCG@?$AAp?$AAl?$AA?$AA@ 1006b73c     libucrt:lcidtoname_downlevel.obj
 0002:00008744       ??_C@_15KBECGEFG@?$AAp?$AAt?$AA?$AA@ 1006b744     libucrt:lcidtoname_downlevel.obj
 0002:0000874c       ??_C@_15GLJCBFMD@?$AAr?$AAo?$AA?$AA@ 1006b74c     libucrt:lcidtoname_downlevel.obj
 0002:00008754       ??_C@_15FEDGKCDI@?$AAr?$AAu?$AA?$AA@ 1006b754     libucrt:lcidtoname_downlevel.obj
 0002:0000875c       ??_C@_15GLKMLLHM@?$AAh?$AAr?$AA?$AA@ 1006b75c     libucrt:lcidtoname_downlevel.obj
 0002:00008764       ??_C@_15CPKMFBDB@?$AAs?$AAk?$AA?$AA@ 1006b764     libucrt:lcidtoname_downlevel.obj
 0002:0000876c       ??_C@_15BAAIOGMK@?$AAs?$AAq?$AA?$AA@ 1006b76c     libucrt:lcidtoname_downlevel.obj
 0002:00008774       ??_C@_15INNPNOHD@?$AAs?$AAv?$AA?$AA@ 1006b774     libucrt:lcidtoname_downlevel.obj
 0002:0000877c       ??_C@_15CABMMOGH@?$AAt?$AAh?$AA?$AA@ 1006b77c     libucrt:lcidtoname_downlevel.obj
 0002:00008784       ??_C@_15BPLIHJJM@?$AAt?$AAr?$AA?$AA@ 1006b784     libucrt:lcidtoname_downlevel.obj
 0002:0000878c       ??_C@_15NEOEKKDJ@?$AAu?$AAr?$AA?$AA@ 1006b78c     libucrt:lcidtoname_downlevel.obj
 0002:00008794       ??_C@_15NFICGAJK@?$AAi?$AAd?$AA?$AA@ 1006b794     libucrt:lcidtoname_downlevel.obj
 0002:0000879c       ??_C@_15PJPFLCCM@?$AAu?$AAk?$AA?$AA@ 1006b79c     libucrt:lcidtoname_downlevel.obj
 0002:000087a4       ??_C@_15HPJPHDM@?$AAb?$AAe?$AA?$AA@ 1006b7a4     libucrt:lcidtoname_downlevel.obj
 0002:000087ac       ??_C@_15LCHLGJII@?$AAs?$AAl?$AA?$AA@ 1006b7ac     libucrt:lcidtoname_downlevel.obj
 0002:000087b4       ??_C@_15PCFJPHHO@?$AAe?$AAt?$AA?$AA@ 1006b7b4     libucrt:lcidtoname_downlevel.obj
 0002:000087bc       ??_C@_15HPFPGODN@?$AAl?$AAv?$AA?$AA@ 1006b7bc     libucrt:lcidtoname_downlevel.obj
 0002:000087c4       ??_C@_15NFFGKGLG@?$AAl?$AAt?$AA?$AA@ 1006b7c4     libucrt:lcidtoname_downlevel.obj
 0002:000087cc       ??_C@_15BDAKCCHN@?$AAf?$AAa?$AA?$AA@ 1006b7cc     libucrt:lcidtoname_downlevel.obj
 0002:000087d4       ??_C@_15NFGIAIAJ@?$AAv?$AAi?$AA?$AA@ 1006b7d4     libucrt:lcidtoname_downlevel.obj
 0002:000087dc       ??_C@_15LMKNDMHN@?$AAh?$AAy?$AA?$AA@ 1006b7dc     libucrt:lcidtoname_downlevel.obj
 0002:000087e4       ??_C@_15IJBHMCFL@?$AAa?$AAz?$AA?$AA@ 1006b7e4     libucrt:lcidtoname_downlevel.obj
 0002:000087ec       ??_C@_15EKOFJABL@?$AAe?$AAu?$AA?$AA@ 1006b7ec     libucrt:lcidtoname_downlevel.obj
 0002:000087f4       ??_C@_15BGHADCNK@?$AAm?$AAk?$AA?$AA@ 1006b7f4     libucrt:lcidtoname_downlevel.obj
 0002:000087fc       ??_C@_15JDNICKHM@?$AAa?$AAf?$AA?$AA@ 1006b7fc     libucrt:lcidtoname_downlevel.obj
 0002:00008804       ??_C@_15KPJEDBKD@?$AAk?$AAa?$AA?$AA@ 1006b804     libucrt:lcidtoname_downlevel.obj
 0002:0000880c       ??_C@_15PDNFFFEO@?$AAf?$AAo?$AA?$AA@ 1006b80c     libucrt:lcidtoname_downlevel.obj
 0002:00008814       ??_C@_15OMLEGLOC@?$AAh?$AAi?$AA?$AA@ 1006b814     libucrt:lcidtoname_downlevel.obj
 0002:0000881c       ??_C@_15IDNNENKK@?$AAm?$AAs?$AA?$AA@ 1006b81c     libucrt:lcidtoname_downlevel.obj
 0002:00008824       ??_C@_15MACJNBMH@?$AAk?$AAk?$AA?$AA@ 1006b824     libucrt:lcidtoname_downlevel.obj
 0002:0000882c       ??_C@_15DKDJEOND@?$AAk?$AAy?$AA?$AA@ 1006b82c     libucrt:lcidtoname_downlevel.obj
 0002:00008834       ??_C@_15DFGDLJBG@?$AAs?$AAw?$AA?$AA@ 1006b834     libucrt:lcidtoname_downlevel.obj
 0002:0000883c       ??_C@_15BBFAICNG@?$AAu?$AAz?$AA?$AA@ 1006b83c     libucrt:lcidtoname_downlevel.obj
 0002:00008844       ??_C@_15DKNDCGEA@?$AAt?$AAt?$AA?$AA@ 1006b844     libucrt:lcidtoname_downlevel.obj
 0002:0000884c       ??_C@_15MGIFMDPL@?$AAp?$AAa?$AA?$AA@ 1006b84c     libucrt:lcidtoname_downlevel.obj
 0002:00008854       ??_C@_15HCNDBBA@?$AAg?$AAu?$AA?$AA@ 1006b854     libucrt:lcidtoname_downlevel.obj
 0002:0000885c       ??_C@_15FNBEIBON@?$AAt?$AAa?$AA?$AA@ 1006b85c     libucrt:lcidtoname_downlevel.obj
 0002:00008864       ??_C@_15NCHGBGLK@?$AAt?$AAe?$AA?$AA@ 1006b864     libucrt:lcidtoname_downlevel.obj
 0002:0000886c       ??_C@_15PHPHCBPF@?$AAk?$AAn?$AA?$AA@ 1006b86c     libucrt:lcidtoname_downlevel.obj
 0002:00008874       ??_C@_15DLGBCKMP@?$AAm?$AAr?$AA?$AA@ 1006b874     libucrt:lcidtoname_downlevel.obj
 0002:0000887c       ??_C@_15EABBLBFF@?$AAs?$AAa?$AA?$AA@ 1006b87c     libucrt:lcidtoname_downlevel.obj
 0002:00008884       ??_C@_15CBKOMCOI@?$AAm?$AAn?$AA?$AA@ 1006b884     libucrt:lcidtoname_downlevel.obj
 0002:0000888c       ??_C@_15CKDMCJAF@?$AAg?$AAl?$AA?$AA@ 1006b88c     libucrt:lcidtoname_downlevel.obj
 0002:00008894       ??_C@_17CNJFBPG@?$AAk?$AAo?$AAk?$AA?$AA@ 1006b894     libucrt:lcidtoname_downlevel.obj
 0002:000088a0       ??_C@_17FFBJICPL@?$AAs?$AAy?$AAr?$AA?$AA@ 1006b8a0     libucrt:lcidtoname_downlevel.obj
 0002:000088ac       ??_C@_17KPNDCPAF@?$AAd?$AAi?$AAv?$AA?$AA@ 1006b8ac     libucrt:lcidtoname_downlevel.obj
 0002:000088b8       ??_C@_11LOCGONAA@?$AA?$AA@ 1006b8b8     libucrt:lcidtoname_downlevel.obj
 0002:000088bc       ??_C@_1M@OKAHONE@?$AAa?$AAr?$AA?9?$AAS?$AAA?$AA?$AA@ 1006b8bc     libucrt:lcidtoname_downlevel.obj
 0002:000088cc       ??_C@_1M@FFFIGIGK@?$AAb?$AAg?$AA?9?$AAB?$AAG?$AA?$AA@ 1006b8cc     libucrt:lcidtoname_downlevel.obj
 0002:000088dc       ??_C@_1M@BJNKEDC@?$AAc?$AAa?$AA?9?$AAE?$AAS?$AA?$AA@ 1006b8dc     libucrt:lcidtoname_downlevel.obj
 0002:000088ec       ??_C@_1M@IJJHFJHA@?$AAc?$AAs?$AA?9?$AAC?$AAZ?$AA?$AA@ 1006b8ec     libucrt:lcidtoname_downlevel.obj
 0002:000088fc       ??_C@_1M@CLPEOBGI@?$AAd?$AAa?$AA?9?$AAD?$AAK?$AA?$AA@ 1006b8fc     libucrt:lcidtoname_downlevel.obj
 0002:0000890c       ??_C@_1M@MCMADGCB@?$AAd?$AAe?$AA?9?$AAD?$AAE?$AA?$AA@ 1006b90c     libucrt:lcidtoname_downlevel.obj
 0002:0000891c       ??_C@_1M@OOCKEMAM@?$AAe?$AAl?$AA?9?$AAG?$AAR?$AA?$AA@ 1006b91c     libucrt:lcidtoname_downlevel.obj
 0002:0000892c       ??_C@_1M@DDNJFGID@?$AAf?$AAi?$AA?9?$AAF?$AAI?$AA?$AA@ 1006b92c     libucrt:lcidtoname_downlevel.obj
 0002:0000893c       ??_C@_1M@GLIPPMAC@?$AAf?$AAr?$AA?9?$AAF?$AAR?$AA?$AA@ 1006b93c     libucrt:lcidtoname_downlevel.obj
 0002:0000894c       ??_C@_1M@GFMCHPE@?$AAh?$AAe?$AA?9?$AAI?$AAL?$AA?$AA@ 1006b94c     libucrt:lcidtoname_downlevel.obj
 0002:0000895c       ??_C@_1M@MHLPGNKM@?$AAh?$AAu?$AA?9?$AAH?$AAU?$AA?$AA@ 1006b95c     libucrt:lcidtoname_downlevel.obj
 0002:0000896c       ??_C@_1M@LPDDNNPN@?$AAi?$AAs?$AA?9?$AAI?$AAS?$AA?$AA@ 1006b96c     libucrt:lcidtoname_downlevel.obj
 0002:0000897c       ??_C@_1M@MADIPODN@?$AAi?$AAt?$AA?9?$AAI?$AAT?$AA?$AA@ 1006b97c     libucrt:lcidtoname_downlevel.obj
 0002:0000898c       ??_C@_1M@IHBJJGG@?$AAn?$AAl?$AA?9?$AAN?$AAL?$AA?$AA@ 1006b98c     libucrt:lcidtoname_downlevel.obj
 0002:0000899c       ??_C@_1M@EANAGDL@?$AAn?$AAb?$AA?9?$AAN?$AAO?$AA?$AA@ 1006b99c     libucrt:lcidtoname_downlevel.obj
 0002:000089ac       ??_C@_1M@NEIEMEGP@?$AAp?$AAl?$AA?9?$AAP?$AAL?$AA?$AA@ 1006b9ac     libucrt:lcidtoname_downlevel.obj
 0002:000089bc       ??_C@_1M@BOCFIGEP@?$AAp?$AAt?$AA?9?$AAB?$AAR?$AA?$AA@ 1006b9bc     libucrt:lcidtoname_downlevel.obj
 0002:000089cc       ??_C@_1M@IMPFOPBG@?$AAr?$AAo?$AA?9?$AAR?$AAO?$AA?$AA@ 1006b9cc     libucrt:lcidtoname_downlevel.obj
 0002:000089dc       ??_C@_1M@IDNNEJMM@?$AAr?$AAu?$AA?9?$AAR?$AAU?$AA?$AA@ 1006b9dc     libucrt:lcidtoname_downlevel.obj
 0002:000089ec       ??_C@_1M@LILEEOGM@?$AAh?$AAr?$AA?9?$AAH?$AAR?$AA?$AA@ 1006b9ec     libucrt:lcidtoname_downlevel.obj
 0002:000089fc       ??_C@_1M@FKIFEHPB@?$AAs?$AAk?$AA?9?$AAS?$AAK?$AA?$AA@ 1006b9fc     libucrt:lcidtoname_downlevel.obj
 0002:00008a0c       ??_C@_1M@LJMAMNPJ@?$AAs?$AAq?$AA?9?$AAA?$AAL?$AA?$AA@ 1006ba0c     libucrt:lcidtoname_downlevel.obj
 0002:00008a1c       ??_C@_1M@GIAKDKJK@?$AAs?$AAv?$AA?9?$AAS?$AAE?$AA?$AA@ 1006ba1c     libucrt:lcidtoname_downlevel.obj
 0002:00008a2c       ??_C@_1M@MKJKIKCL@?$AAt?$AAh?$AA?9?$AAT?$AAH?$AA?$AA@ 1006ba2c     libucrt:lcidtoname_downlevel.obj
 0002:00008a3c       ??_C@_1M@MFLCCMPB@?$AAt?$AAr?$AA?9?$AAT?$AAR?$AA?$AA@ 1006ba3c     libucrt:lcidtoname_downlevel.obj
 0002:00008a4c       ??_C@_1M@OIJHDKJN@?$AAu?$AAr?$AA?9?$AAP?$AAK?$AA?$AA@ 1006ba4c     libucrt:lcidtoname_downlevel.obj
 0002:00008a5c       ??_C@_1M@LHIPCIEK@?$AAi?$AAd?$AA?9?$AAI?$AAD?$AA?$AA@ 1006ba5c     libucrt:lcidtoname_downlevel.obj
 0002:00008a6c       ??_C@_1M@MFMOBGI@?$AAu?$AAk?$AA?9?$AAU?$AAA?$AA?$AA@ 1006ba6c     libucrt:lcidtoname_downlevel.obj
 0002:00008a7c       ??_C@_1M@OBGLJIPL@?$AAb?$AAe?$AA?9?$AAB?$AAY?$AA?$AA@ 1006ba7c     libucrt:lcidtoname_downlevel.obj
 0002:00008a8c       ??_C@_1M@BCFAJEAD@?$AAs?$AAl?$AA?9?$AAS?$AAI?$AA?$AA@ 1006ba8c     libucrt:lcidtoname_downlevel.obj
 0002:00008a9c       ??_C@_1M@FKFFEDDN@?$AAe?$AAt?$AA?9?$AAE?$AAE?$AA?$AA@ 1006ba9c     libucrt:lcidtoname_downlevel.obj
 0002:00008aac       ??_C@_1M@KGKKAACI@?$AAl?$AAv?$AA?9?$AAL?$AAV?$AA?$AA@ 1006baac     libucrt:lcidtoname_downlevel.obj
 0002:00008abc       ??_C@_1M@IFGBIJO@?$AAl?$AAt?$AA?9?$AAL?$AAT?$AA?$AA@ 1006babc     libucrt:lcidtoname_downlevel.obj
 0002:00008acc       ??_C@_1M@FGEAHEDM@?$AAf?$AAa?$AA?9?$AAI?$AAR?$AA?$AA@ 1006bacc     libucrt:lcidtoname_downlevel.obj
 0002:00008adc       ??_C@_1M@KBMAIBFN@?$AAv?$AAi?$AA?9?$AAV?$AAN?$AA?$AA@ 1006badc     libucrt:lcidtoname_downlevel.obj
 0002:00008aec       ??_C@_1M@GPCBKDJK@?$AAh?$AAy?$AA?9?$AAA?$AAM?$AA?$AA@ 1006baec     libucrt:lcidtoname_downlevel.obj
 0002:00008afc       ??_C@_1BG@BECMDDJB@?$AAa?$AAz?$AA?9?$AAA?$AAZ?$AA?9?$AAL?$AAa?$AAt?$AAn?$AA?$AA@ 1006bafc     libucrt:lcidtoname_downlevel.obj
 0002:00008b18       ??_C@_1M@MAOFCAEA@?$AAe?$AAu?$AA?9?$AAE?$AAS?$AA?$AA@ 1006bb18     libucrt:lcidtoname_downlevel.obj
 0002:00008b28       ??_C@_1M@IGHABKPI@?$AAm?$AAk?$AA?9?$AAM?$AAK?$AA?$AA@ 1006bb28     libucrt:lcidtoname_downlevel.obj
 0002:00008b38       ??_C@_1M@IAIGNEJG@?$AAt?$AAn?$AA?9?$AAZ?$AAA?$AA?$AA@ 1006bb38     libucrt:lcidtoname_downlevel.obj
 0002:00008b48       ??_C@_1M@IIJCOJFA@?$AAx?$AAh?$AA?9?$AAZ?$AAA?$AA?$AA@ 1006bb48     libucrt:lcidtoname_downlevel.obj
 0002:00008b58       ??_C@_1M@LGPJHNJH@?$AAz?$AAu?$AA?9?$AAZ?$AAA?$AA?$AA@ 1006bb58     libucrt:lcidtoname_downlevel.obj
 0002:00008b68       ??_C@_1M@HOKAOIO@?$AAa?$AAf?$AA?9?$AAZ?$AAA?$AA?$AA@ 1006bb68     libucrt:lcidtoname_downlevel.obj
 0002:00008b78       ??_C@_1M@DPCLHLIE@?$AAk?$AAa?$AA?9?$AAG?$AAE?$AA?$AA@ 1006bb78     libucrt:lcidtoname_downlevel.obj
 0002:00008b88       ??_C@_1M@BLKMHJBI@?$AAf?$AAo?$AA?9?$AAF?$AAO?$AA?$AA@ 1006bb88     libucrt:lcidtoname_downlevel.obj
 0002:00008b98       ??_C@_1M@LGGJAPPB@?$AAh?$AAi?$AA?9?$AAI?$AAN?$AA?$AA@ 1006bb98     libucrt:lcidtoname_downlevel.obj
 0002:00008ba8       ??_C@_1M@FIKPIHFE@?$AAm?$AAt?$AA?9?$AAM?$AAT?$AA?$AA@ 1006bba8     libucrt:lcidtoname_downlevel.obj
 0002:00008bb8       ??_C@_1M@HEGGPBFA@?$AAs?$AAe?$AA?9?$AAN?$AAO?$AA?$AA@ 1006bbb8     libucrt:lcidtoname_downlevel.obj
 0002:00008bc8       ??_C@_1M@EIBJEEPA@?$AAm?$AAs?$AA?9?$AAM?$AAY?$AA?$AA@ 1006bbc8     libucrt:lcidtoname_downlevel.obj
 0002:00008bd8       ??_C@_1M@FHLBGMPP@?$AAk?$AAk?$AA?9?$AAK?$AAZ?$AA?$AA@ 1006bbd8     libucrt:lcidtoname_downlevel.obj
 0002:00008be8       ??_C@_1M@NGJJLCGI@?$AAk?$AAy?$AA?9?$AAK?$AAG?$AA?$AA@ 1006bbe8     libucrt:lcidtoname_downlevel.obj
 0002:00008bf8       ??_C@_1M@GIENNBFC@?$AAs?$AAw?$AA?9?$AAK?$AAE?$AA?$AA@ 1006bbf8     libucrt:lcidtoname_downlevel.obj
 0002:00008c08       ??_C@_1BG@NDGMJIMJ@?$AAu?$AAz?$AA?9?$AAU?$AAZ?$AA?9?$AAL?$AAa?$AAt?$AAn?$AA?$AA@ 1006bc08     libucrt:lcidtoname_downlevel.obj
 0002:00008c24       ??_C@_1M@IDCCIHBC@?$AAt?$AAt?$AA?9?$AAR?$AAU?$AA?$AA@ 1006bc24     libucrt:lcidtoname_downlevel.obj
 0002:00008c34       ??_C@_1M@LOICPMOJ@?$AAb?$AAn?$AA?9?$AAI?$AAN?$AA?$AA@ 1006bc34     libucrt:lcidtoname_downlevel.obj
 0002:00008c44       ??_C@_1M@KPKKNEAH@?$AAp?$AAa?$AA?9?$AAI?$AAN?$AA?$AA@ 1006bc44     libucrt:lcidtoname_downlevel.obj
 0002:00008c54       ??_C@_1M@PJGPPBOG@?$AAg?$AAu?$AA?9?$AAI?$AAN?$AA?$AA@ 1006bc54     libucrt:lcidtoname_downlevel.obj
 0002:00008c64       ??_C@_1M@KMKMOPHI@?$AAt?$AAa?$AA?9?$AAI?$AAN?$AA?$AA@ 1006bc64     libucrt:lcidtoname_downlevel.obj
 0002:00008c74       ??_C@_1M@KFEHEPAC@?$AAt?$AAe?$AA?9?$AAI?$AAN?$AA?$AA@ 1006bc74     libucrt:lcidtoname_downlevel.obj
 0002:00008c84       ??_C@_1M@CDCLMGHI@?$AAk?$AAn?$AA?9?$AAI?$AAN?$AA?$AA@ 1006bc84     libucrt:lcidtoname_downlevel.obj
 0002:00008c94       ??_C@_1M@MIODLDKF@?$AAm?$AAl?$AA?9?$AAI?$AAN?$AA?$AA@ 1006bc94     libucrt:lcidtoname_downlevel.obj
 0002:00008ca4       ??_C@_1M@PBIEACPO@?$AAm?$AAr?$AA?9?$AAI?$AAN?$AA?$AA@ 1006bca4     libucrt:lcidtoname_downlevel.obj
 0002:00008cb4       ??_C@_1M@NIDEAGPH@?$AAs?$AAa?$AA?9?$AAI?$AAN?$AA?$AA@ 1006bcb4     libucrt:lcidtoname_downlevel.obj
 0002:00008cc4       ??_C@_1M@FHIHCBIO@?$AAm?$AAn?$AA?9?$AAM?$AAN?$AA?$AA@ 1006bcc4     libucrt:lcidtoname_downlevel.obj
 0002:00008cd4       ??_C@_1M@JAIJPENP@?$AAc?$AAy?$AA?9?$AAG?$AAB?$AA?$AA@ 1006bcd4     libucrt:lcidtoname_downlevel.obj
 0002:00008ce4       ??_C@_1M@PHGFBEPN@?$AAg?$AAl?$AA?9?$AAE?$AAS?$AA?$AA@ 1006bce4     libucrt:lcidtoname_downlevel.obj
 0002:00008cf4       ??_C@_1O@KPIPDNCP@?$AAk?$AAo?$AAk?$AA?9?$AAI?$AAN?$AA?$AA@ 1006bcf4     libucrt:lcidtoname_downlevel.obj
 0002:00008d04       ??_C@_1O@KNHJLDJA@?$AAs?$AAy?$AAr?$AA?9?$AAS?$AAY?$AA?$AA@ 1006bd04     libucrt:lcidtoname_downlevel.obj
 0002:00008d14       ??_C@_1O@MKEKBLAH@?$AAd?$AAi?$AAv?$AA?9?$AAM?$AAV?$AA?$AA@ 1006bd14     libucrt:lcidtoname_downlevel.obj
 0002:00008d24       ??_C@_1O@OHDCKDDF@?$AAq?$AAu?$AAz?$AA?9?$AAB?$AAO?$AA?$AA@ 1006bd24     libucrt:lcidtoname_downlevel.obj
 0002:00008d34       ??_C@_1M@LEPJNLFD@?$AAn?$AAs?$AA?9?$AAZ?$AAA?$AA?$AA@ 1006bd34     libucrt:lcidtoname_downlevel.obj
 0002:00008d44       ??_C@_1M@OMLEIIJB@?$AAm?$AAi?$AA?9?$AAN?$AAZ?$AA?$AA@ 1006bd44     libucrt:lcidtoname_downlevel.obj
 0002:00008d54       ??_C@_1M@PMPEAILG@?$AAa?$AAr?$AA?9?$AAI?$AAQ?$AA?$AA@ 1006bd54     libucrt:lcidtoname_downlevel.obj
 0002:00008d64       ??_C@_1M@CNKPNOEE@?$AAd?$AAe?$AA?9?$AAC?$AAH?$AA?$AA@ 1006bd64     libucrt:lcidtoname_downlevel.obj
 0002:00008d74       ??_C@_1M@LKMGMLKO@?$AAe?$AAn?$AA?9?$AAG?$AAB?$AA?$AA@ 1006bd74     libucrt:lcidtoname_downlevel.obj
 0002:00008d84       ??_C@_1M@PGKJFFGL@?$AAe?$AAs?$AA?9?$AAM?$AAX?$AA?$AA@ 1006bd84     libucrt:lcidtoname_downlevel.obj
 0002:00008d94       ??_C@_1M@DNNANBDC@?$AAf?$AAr?$AA?9?$AAB?$AAE?$AA?$AA@ 1006bd94     libucrt:lcidtoname_downlevel.obj
 0002:00008da4       ??_C@_1M@HLGMDFHM@?$AAi?$AAt?$AA?9?$AAC?$AAH?$AA?$AA@ 1006bda4     libucrt:lcidtoname_downlevel.obj
 0002:00008db4       ??_C@_1M@CLLBGJH@?$AAn?$AAl?$AA?9?$AAB?$AAE?$AA?$AA@ 1006bdb4     libucrt:lcidtoname_downlevel.obj
 0002:00008dc4       ??_C@_1M@BODBOGLF@?$AAn?$AAn?$AA?9?$AAN?$AAO?$AA?$AA@ 1006bdc4     libucrt:lcidtoname_downlevel.obj
 0002:00008dd4       ??_C@_1M@HFFAHKAD@?$AAp?$AAt?$AA?9?$AAP?$AAT?$AA?$AA@ 1006bdd4     libucrt:lcidtoname_downlevel.obj
 0002:00008de4       ??_C@_1BG@LNOAKHIE@?$AAs?$AAr?$AA?9?$AAS?$AAP?$AA?9?$AAL?$AAa?$AAt?$AAn?$AA?$AA@ 1006bde4     libucrt:lcidtoname_downlevel.obj
 0002:00008e00       ??_C@_1M@HBMHBGAK@?$AAs?$AAv?$AA?9?$AAF?$AAI?$AA?$AA@ 1006be00     libucrt:lcidtoname_downlevel.obj
 0002:00008e10       ??_C@_1BG@DGCJGJBE@?$AAa?$AAz?$AA?9?$AAA?$AAZ?$AA?9?$AAC?$AAy?$AAr?$AAl?$AA?$AA@ 1006be10     libucrt:lcidtoname_downlevel.obj
 0002:00008e2c       ??_C@_1M@KEJDAAHB@?$AAs?$AAe?$AA?9?$AAS?$AAE?$AA?$AA@ 1006be2c     libucrt:lcidtoname_downlevel.obj
 0002:00008e3c       ??_C@_1M@HEIBJJAD@?$AAm?$AAs?$AA?9?$AAB?$AAN?$AA?$AA@ 1006be3c     libucrt:lcidtoname_downlevel.obj
 0002:00008e4c       ??_C@_1BG@PBGJMCEM@?$AAu?$AAz?$AA?9?$AAU?$AAZ?$AA?9?$AAC?$AAy?$AAr?$AAl?$AA?$AA@ 1006be4c     libucrt:lcidtoname_downlevel.obj
 0002:00008e68       ??_C@_1O@LAOBCMDF@?$AAq?$AAu?$AAz?$AA?9?$AAE?$AAC?$AA?$AA@ 1006be68     libucrt:lcidtoname_downlevel.obj
 0002:00008e78       ??_C@_1M@POEEMAIO@?$AAa?$AAr?$AA?9?$AAE?$AAG?$AA?$AA@ 1006be78     libucrt:lcidtoname_downlevel.obj
 0002:00008e88       ??_C@_1M@EFAKDEDL@?$AAz?$AAh?$AA?9?$AAH?$AAK?$AA?$AA@ 1006be88     libucrt:lcidtoname_downlevel.obj
 0002:00008e98       ??_C@_1M@HKKIJHGI@?$AAd?$AAe?$AA?9?$AAA?$AAT?$AA?$AA@ 1006be98     libucrt:lcidtoname_downlevel.obj
 0002:00008ea8       ??_C@_1M@KBFBEHJF@?$AAe?$AAn?$AA?9?$AAA?$AAU?$AA?$AA@ 1006bea8     libucrt:lcidtoname_downlevel.obj
 0002:00008eb8       ??_C@_1M@MNPLFAAH@?$AAe?$AAs?$AA?9?$AAE?$AAS?$AA?$AA@ 1006beb8     libucrt:lcidtoname_downlevel.obj
 0002:00008ec8       ??_C@_1M@HJOOJFMA@?$AAf?$AAr?$AA?9?$AAC?$AAA?$AA?$AA@ 1006bec8     libucrt:lcidtoname_downlevel.obj
 0002:00008ed8       ??_C@_1BG@JPOFPNAB@?$AAs?$AAr?$AA?9?$AAS?$AAP?$AA?9?$AAC?$AAy?$AAr?$AAl?$AA?$AA@ 1006bed8     libucrt:lcidtoname_downlevel.obj
 0002:00008ef4       ??_C@_1M@LNFOCMOB@?$AAs?$AAe?$AA?9?$AAF?$AAI?$AA?$AA@ 1006bef4     libucrt:lcidtoname_downlevel.obj
 0002:00008f04       ??_C@_1O@MGJBOAMB@?$AAq?$AAu?$AAz?$AA?9?$AAP?$AAE?$AA?$AA@ 1006bf04     libucrt:lcidtoname_downlevel.obj
 0002:00008f14       ??_C@_1M@GJINLBOK@?$AAa?$AAr?$AA?9?$AAL?$AAY?$AA?$AA@ 1006bf14     libucrt:lcidtoname_downlevel.obj
 0002:00008f24       ??_C@_1M@GGMNHJNL@?$AAz?$AAh?$AA?9?$AAS?$AAG?$AA?$AA@ 1006bf24     libucrt:lcidtoname_downlevel.obj
 0002:00008f34       ??_C@_1M@HOIKODND@?$AAd?$AAe?$AA?9?$AAL?$AAU?$AA?$AA@ 1006bf34     libucrt:lcidtoname_downlevel.obj
 0002:00008f44       ??_C@_1M@DDOCCGFG@?$AAe?$AAn?$AA?9?$AAC?$AAA?$AA?$AA@ 1006bf44     libucrt:lcidtoname_downlevel.obj
 0002:00008f54       ??_C@_1M@BNOEMJLF@?$AAe?$AAs?$AA?9?$AAG?$AAT?$AA?$AA@ 1006bf54     libucrt:lcidtoname_downlevel.obj
 0002:00008f64       ??_C@_1M@EOGNKEK@?$AAf?$AAr?$AA?9?$AAC?$AAH?$AA?$AA@ 1006bf64     libucrt:lcidtoname_downlevel.obj
 0002:00008f74       ??_C@_1M@FLIDJFHL@?$AAh?$AAr?$AA?9?$AAB?$AAA?$AA?$AA@ 1006bf74     libucrt:lcidtoname_downlevel.obj
 0002:00008f84       ??_C@_1O@FMCELNAJ@?$AAs?$AAm?$AAj?$AA?9?$AAN?$AAO?$AA?$AA@ 1006bf84     libucrt:lcidtoname_downlevel.obj
 0002:00008f94       ??_C@_1M@JHGLJMGJ@?$AAa?$AAr?$AA?9?$AAD?$AAZ?$AA?$AA@ 1006bf94     libucrt:lcidtoname_downlevel.obj
 0002:00008fa4       ??_C@_1M@JKKFDCNP@?$AAz?$AAh?$AA?9?$AAM?$AAO?$AA?$AA@ 1006bfa4     libucrt:lcidtoname_downlevel.obj
 0002:00008fb4       ??_C@_1M@GEEFALPE@?$AAd?$AAe?$AA?9?$AAL?$AAI?$AA?$AA@ 1006bfb4     libucrt:lcidtoname_downlevel.obj
 0002:00008fc4       ??_C@_1M@IGEOFBG@?$AAe?$AAn?$AA?9?$AAN?$AAZ?$AA?$AA@ 1006bfc4     libucrt:lcidtoname_downlevel.obj
 0002:00008fd4       ??_C@_1M@KDBONEHP@?$AAe?$AAs?$AA?9?$AAC?$AAR?$AA?$AA@ 1006bfd4     libucrt:lcidtoname_downlevel.obj
 0002:00008fe4       ??_C@_1M@FHMDOHNN@?$AAf?$AAr?$AA?9?$AAL?$AAU?$AA?$AA@ 1006bfe4     libucrt:lcidtoname_downlevel.obj
 0002:00008ff4       ??_C@_1BG@NFKKMAFG@?$AAb?$AAs?$AA?9?$AAB?$AAA?$AA?9?$AAL?$AAa?$AAt?$AAn?$AA?$AA@ 1006bff4     libucrt:lcidtoname_downlevel.obj
 0002:00009010       ??_C@_1O@IMNBEMCI@?$AAs?$AAm?$AAj?$AA?9?$AAS?$AAE?$AA?$AA@ 1006c010     libucrt:lcidtoname_downlevel.obj
 0002:00009020       ??_C@_1M@DHHMBNDP@?$AAa?$AAr?$AA?9?$AAM?$AAA?$AA?$AA@ 1006c020     libucrt:lcidtoname_downlevel.obj
 0002:00009030       ??_C@_1M@BNBLJCGH@?$AAe?$AAn?$AA?9?$AAI?$AAE?$AA?$AA@ 1006c030     libucrt:lcidtoname_downlevel.obj
 0002:00009040       ??_C@_1M@GEPAFMDL@?$AAe?$AAs?$AA?9?$AAP?$AAA?$AA?$AA@ 1006c040     libucrt:lcidtoname_downlevel.obj
 0002:00009050       ??_C@_1M@OJONDMDL@?$AAf?$AAr?$AA?9?$AAM?$AAC?$AA?$AA@ 1006c050     libucrt:lcidtoname_downlevel.obj
 0002:00009060       ??_C@_1BG@OBCNFJB@?$AAs?$AAr?$AA?9?$AAB?$AAA?$AA?9?$AAL?$AAa?$AAt?$AAn?$AA?$AA@ 1006c060     libucrt:lcidtoname_downlevel.obj
 0002:0000907c       ??_C@_1O@KEMEEGPO@?$AAs?$AAm?$AAa?$AA?9?$AAN?$AAO?$AA?$AA@ 1006c07c     libucrt:lcidtoname_downlevel.obj
 0002:0000908c       ??_C@_1M@ELMGFODK@?$AAa?$AAr?$AA?9?$AAT?$AAN?$AA?$AA@ 1006c08c     libucrt:lcidtoname_downlevel.obj
 0002:0000909c       ??_C@_1M@BHDLHFAF@?$AAe?$AAn?$AA?9?$AAZ?$AAA?$AA?$AA@ 1006c09c     libucrt:lcidtoname_downlevel.obj
 0002:000090ac       ??_C@_1M@BMGIGLIF@?$AAe?$AAs?$AA?9?$AAD?$AAO?$AA?$AA@ 1006c0ac     libucrt:lcidtoname_downlevel.obj
 0002:000090bc       ??_C@_1BG@CMBHIPBE@?$AAs?$AAr?$AA?9?$AAB?$AAA?$AA?9?$AAC?$AAy?$AAr?$AAl?$AA?$AA@ 1006c0bc     libucrt:lcidtoname_downlevel.obj
 0002:000090d8       ??_C@_1O@HEDBLHNP@?$AAs?$AAm?$AAa?$AA?9?$AAS?$AAE?$AA?$AA@ 1006c0d8     libucrt:lcidtoname_downlevel.obj
 0002:000090e8       ??_C@_1M@DAGCADIM@?$AAa?$AAr?$AA?9?$AAO?$AAM?$AA?$AA@ 1006c0e8     libucrt:lcidtoname_downlevel.obj
 0002:000090f8       ??_C@_1M@FODLMICG@?$AAe?$AAn?$AA?9?$AAJ?$AAM?$AA?$AA@ 1006c0f8     libucrt:lcidtoname_downlevel.obj
 0002:00009108       ??_C@_1M@DNMLCIHB@?$AAe?$AAs?$AA?9?$AAV?$AAE?$AA?$AA@ 1006c108     libucrt:lcidtoname_downlevel.obj
 0002:00009118       ??_C@_1O@EOKHMKJK@?$AAs?$AAm?$AAs?$AA?9?$AAF?$AAI?$AA?$AA@ 1006c118     libucrt:lcidtoname_downlevel.obj
 0002:00009128       ??_C@_1M@CAFJMKOF@?$AAa?$AAr?$AA?9?$AAY?$AAE?$AA?$AA@ 1006c128     libucrt:lcidtoname_downlevel.obj
 0002:00009138       ??_C@_1M@CBFHIJLI@?$AAe?$AAn?$AA?9?$AAC?$AAB?$AA?$AA@ 1006c138     libucrt:lcidtoname_downlevel.obj
 0002:00009148       ??_C@_1M@BGNFLDN@?$AAe?$AAs?$AA?9?$AAC?$AAO?$AA?$AA@ 1006c148     libucrt:lcidtoname_downlevel.obj
 0002:00009158       ??_C@_1O@JMPHMAMC@?$AAs?$AAm?$AAn?$AA?9?$AAF?$AAI?$AA?$AA@ 1006c158     libucrt:lcidtoname_downlevel.obj
 0002:00009168       ??_C@_1M@JLANABKE@?$AAa?$AAr?$AA?9?$AAS?$AAY?$AA?$AA@ 1006c168     libucrt:lcidtoname_downlevel.obj
 0002:00009178       ??_C@_1M@HPKGCFGN@?$AAe?$AAn?$AA?9?$AAB?$AAZ?$AA?$AA@ 1006c178     libucrt:lcidtoname_downlevel.obj
 0002:00009188       ??_C@_1M@OLJCMLGM@?$AAe?$AAs?$AA?9?$AAP?$AAE?$AA?$AA@ 1006c188     libucrt:lcidtoname_downlevel.obj
 0002:00009198       ??_C@_1M@MKKGFKLE@?$AAa?$AAr?$AA?9?$AAJ?$AAO?$AA?$AA@ 1006c198     libucrt:lcidtoname_downlevel.obj
 0002:000091a8       ??_C@_1M@EKPGLDNI@?$AAe?$AAn?$AA?9?$AAT?$AAT?$AA?$AA@ 1006c1a8     libucrt:lcidtoname_downlevel.obj
 0002:000091b8       ??_C@_1M@OONGHFHE@?$AAe?$AAs?$AA?9?$AAA?$AAR?$AA?$AA@ 1006c1b8     libucrt:lcidtoname_downlevel.obj
 0002:000091c8       ??_C@_1M@OOJFGBHE@?$AAa?$AAr?$AA?9?$AAL?$AAB?$AA?$AA@ 1006c1c8     libucrt:lcidtoname_downlevel.obj
 0002:000091d8       ??_C@_1M@GCEJHNEG@?$AAe?$AAn?$AA?9?$AAZ?$AAW?$AA?$AA@ 1006c1d8     libucrt:lcidtoname_downlevel.obj
 0002:000091e8       ??_C@_1M@JNOCAHJI@?$AAe?$AAs?$AA?9?$AAE?$AAC?$AA?$AA@ 1006c1e8     libucrt:lcidtoname_downlevel.obj
 0002:000091f8       ??_C@_1M@JEFHPGGB@?$AAa?$AAr?$AA?9?$AAK?$AAW?$AA?$AA@ 1006c1f8     libucrt:lcidtoname_downlevel.obj
 0002:00009208       ??_C@_1M@MLKIBJOJ@?$AAe?$AAn?$AA?9?$AAP?$AAH?$AA?$AA@ 1006c208     libucrt:lcidtoname_downlevel.obj
 0002:00009218       ??_C@_1M@BDNIPEND@?$AAe?$AAs?$AA?9?$AAC?$AAL?$AA?$AA@ 1006c218     libucrt:lcidtoname_downlevel.obj
 0002:00009228       ??_C@_1M@MPNMEKBD@?$AAa?$AAr?$AA?9?$AAA?$AAE?$AA?$AA@ 1006c228     libucrt:lcidtoname_downlevel.obj
 0002:00009238       ??_C@_1M@KBJALCPI@?$AAe?$AAs?$AA?9?$AAU?$AAY?$AA?$AA@ 1006c238     libucrt:lcidtoname_downlevel.obj
 0002:00009248       ??_C@_1M@LLCCOAGA@?$AAa?$AAr?$AA?9?$AAB?$AAH?$AA?$AA@ 1006c248     libucrt:lcidtoname_downlevel.obj
 0002:00009258       ??_C@_1M@PBFNCDEL@?$AAe?$AAs?$AA?9?$AAP?$AAY?$AA?$AA@ 1006c258     libucrt:lcidtoname_downlevel.obj
 0002:00009268       ??_C@_1M@EDGINPNP@?$AAa?$AAr?$AA?9?$AAQ?$AAA?$AA?$AA@ 1006c268     libucrt:lcidtoname_downlevel.obj
 0002:00009278       ??_C@_1M@MKDBIIJI@?$AAe?$AAs?$AA?9?$AAB?$AAO?$AA?$AA@ 1006c278     libucrt:lcidtoname_downlevel.obj
 0002:00009288       ??_C@_1M@CPKKEBLD@?$AAe?$AAs?$AA?9?$AAS?$AAV?$AA?$AA@ 1006c288     libucrt:lcidtoname_downlevel.obj
 0002:00009298       ??_C@_1M@NDBGMMJL@?$AAe?$AAs?$AA?9?$AAH?$AAN?$AA?$AA@ 1006c298     libucrt:lcidtoname_downlevel.obj
 0002:000092a8       ??_C@_1M@JIJIBHDP@?$AAe?$AAs?$AA?9?$AAN?$AAI?$AA?$AA@ 1006c2a8     libucrt:lcidtoname_downlevel.obj
 0002:000092b8       ??_C@_1M@CGFMKEEK@?$AAe?$AAs?$AA?9?$AAP?$AAR?$AA?$AA@ 1006c2b8     libucrt:lcidtoname_downlevel.obj
 0002:000092c8       ??_C@_1O@ICJHKIIK@?$AAz?$AAh?$AA?9?$AAC?$AAH?$AAT?$AA?$AA@ 1006c2c8     libucrt:lcidtoname_downlevel.obj
 0002:000092d8       ??_C@_15CLNEJCE@?$AAs?$AAr?$AA?$AA@ 1006c2d8     libucrt:lcidtoname_downlevel.obj
 0002:00009b6c       ??_C@_1M@KAHEKEIG@?$AAa?$AAf?$AA?9?$AAz?$AAa?$AA?$AA@ 1006cb6c     libucrt:lcidtoname_downlevel.obj
 0002:00009b7c       ??_C@_1M@GIECOABL@?$AAa?$AAr?$AA?9?$AAa?$AAe?$AA?$AA@ 1006cb7c     libucrt:lcidtoname_downlevel.obj
 0002:00009b8c       ??_C@_1M@BMLMEKGI@?$AAa?$AAr?$AA?9?$AAb?$AAh?$AA?$AA@ 1006cb8c     libucrt:lcidtoname_downlevel.obj
 0002:00009b9c       ??_C@_1M@DAPFDGGB@?$AAa?$AAr?$AA?9?$AAd?$AAz?$AA?$AA@ 1006cb9c     libucrt:lcidtoname_downlevel.obj
 0002:00009bac       ??_C@_1M@FJNKGKIG@?$AAa?$AAr?$AA?9?$AAe?$AAg?$AA?$AA@ 1006cbac     libucrt:lcidtoname_downlevel.obj
 0002:00009bbc       ??_C@_1M@FLGKKCLO@?$AAa?$AAr?$AA?9?$AAi?$AAq?$AA?$AA@ 1006cbbc     libucrt:lcidtoname_downlevel.obj
 0002:00009bcc       ??_C@_1M@GNDIPALM@?$AAa?$AAr?$AA?9?$AAj?$AAo?$AA?$AA@ 1006cbcc     libucrt:lcidtoname_downlevel.obj
 0002:00009bdc       ??_C@_1M@DDMJFMGJ@?$AAa?$AAr?$AA?9?$AAk?$AAw?$AA?$AA@ 1006cbdc     libucrt:lcidtoname_downlevel.obj
 0002:00009bec       ??_C@_1M@EJALMLHM@?$AAa?$AAr?$AA?9?$AAl?$AAb?$AA?$AA@ 1006cbec     libucrt:lcidtoname_downlevel.obj
 0002:00009bfc       ??_C@_1M@MOBDBLOC@?$AAa?$AAr?$AA?9?$AAl?$AAy?$AA?$AA@ 1006cbfc     libucrt:lcidtoname_downlevel.obj
 0002:00009c0c       ??_C@_1M@JAOCLHDH@?$AAa?$AAr?$AA?9?$AAm?$AAa?$AA?$AA@ 1006cc0c     libucrt:lcidtoname_downlevel.obj
 0002:00009c1c       ??_C@_1M@JHPMKJIE@?$AAa?$AAr?$AA?9?$AAo?$AAm?$AA?$AA@ 1006cc1c     libucrt:lcidtoname_downlevel.obj
 0002:00009c2c       ??_C@_1M@OEPGHFNH@?$AAa?$AAr?$AA?9?$AAq?$AAa?$AA?$AA@ 1006cc2c     libucrt:lcidtoname_downlevel.obj
 0002:00009c3c       ??_C@_1M@KJDONENM@?$AAa?$AAr?$AA?9?$AAs?$AAa?$AA?$AA@ 1006cc3c     libucrt:lcidtoname_downlevel.obj
 0002:00009c4c       ??_C@_1M@DMJDKLKM@?$AAa?$AAr?$AA?9?$AAs?$AAy?$AA?$AA@ 1006cc4c     libucrt:lcidtoname_downlevel.obj
 0002:00009c5c       ??_C@_1M@OMFIPEDC@?$AAa?$AAr?$AA?9?$AAt?$AAn?$AA?$AA@ 1006cc5c     libucrt:lcidtoname_downlevel.obj
 0002:00009c6c       ??_C@_1M@IHMHGAON@?$AAa?$AAr?$AA?9?$AAy?$AAe?$AA?$AA@ 1006cc6c     libucrt:lcidtoname_downlevel.obj
 0002:00009c7c       ??_C@_1BG@KDCPGJGB@?$AAa?$AAz?$AA?9?$AAa?$AAz?$AA?9?$AAc?$AAy?$AAr?$AAl?$AA?$AA@ 1006cc7c     libucrt:lcidtoname_downlevel.obj
 0002:00009c98       ??_C@_1BG@IBCKDDOE@?$AAa?$AAz?$AA?9?$AAa?$AAz?$AA?9?$AAl?$AAa?$AAt?$AAn?$AA?$AA@ 1006cc98     libucrt:lcidtoname_downlevel.obj
 0002:00009cb4       ??_C@_1M@EGPFDCPD@?$AAb?$AAe?$AA?9?$AAb?$AAy?$AA?$AA@ 1006ccb4     libucrt:lcidtoname_downlevel.obj
 0002:00009cc4       ??_C@_1M@PCMGMCGC@?$AAb?$AAg?$AA?9?$AAb?$AAg?$AA?$AA@ 1006ccc4     libucrt:lcidtoname_downlevel.obj
 0002:00009cd4       ??_C@_1M@BJBMFGOB@?$AAb?$AAn?$AA?9?$AAi?$AAn?$AA?$AA@ 1006ccd4     libucrt:lcidtoname_downlevel.obj
 0002:00009ce4       ??_C@_1BG@EAKMMACD@?$AAb?$AAs?$AA?9?$AAb?$AAa?$AA?9?$AAl?$AAa?$AAt?$AAn?$AA?$AA@ 1006cce4     libucrt:lcidtoname_downlevel.obj
 0002:00009d00       ??_C@_1M@KGADAODK@?$AAc?$AAa?$AA?9?$AAe?$AAs?$AA?$AA@ 1006cd00     libucrt:lcidtoname_downlevel.obj
 0002:00009d10       ??_C@_1M@COAJPDHI@?$AAc?$AAs?$AA?9?$AAc?$AAz?$AA?$AA@ 1006cd10     libucrt:lcidtoname_downlevel.obj
 0002:00009d20       ??_C@_1M@DHBHFONH@?$AAc?$AAy?$AA?9?$AAg?$AAb?$AA?$AA@ 1006cd20     libucrt:lcidtoname_downlevel.obj
 0002:00009d30       ??_C@_1M@IMGKELGA@?$AAd?$AAa?$AA?9?$AAd?$AAk?$AA?$AA@ 1006cd30     libucrt:lcidtoname_downlevel.obj
 0002:00009d40       ??_C@_1M@NNDGDNGA@?$AAd?$AAe?$AA?9?$AAa?$AAt?$AA?$AA@ 1006cd40     libucrt:lcidtoname_downlevel.obj
 0002:00009d50       ??_C@_1M@IKDBHEEM@?$AAd?$AAe?$AA?9?$AAc?$AAh?$AA?$AA@ 1006cd50     libucrt:lcidtoname_downlevel.obj
 0002:00009d60       ??_C@_1M@GFFOJMCJ@?$AAd?$AAe?$AA?9?$AAd?$AAe?$AA?$AA@ 1006cd60     libucrt:lcidtoname_downlevel.obj
 0002:00009d70       ??_C@_1M@MDNLKBPM@?$AAd?$AAe?$AA?9?$AAl?$AAi?$AA?$AA@ 1006cd70     libucrt:lcidtoname_downlevel.obj
 0002:00009d80       ??_C@_1M@NJBEEJNL@?$AAd?$AAe?$AA?9?$AAl?$AAu?$AA?$AA@ 1006cd80     libucrt:lcidtoname_downlevel.obj
 0002:00009d90       ??_C@_1O@GNNELBAP@?$AAd?$AAi?$AAv?$AA?9?$AAm?$AAv?$AA?$AA@ 1006cd90     libucrt:lcidtoname_downlevel.obj
 0002:00009da0       ??_C@_1M@EJLEOGAE@?$AAe?$AAl?$AA?9?$AAg?$AAr?$AA?$AA@ 1006cda0     libucrt:lcidtoname_downlevel.obj
 0002:00009db0       ??_C@_1M@GMPONJN@?$AAe?$AAn?$AA?9?$AAa?$AAu?$AA?$AA@ 1006cdb0     libucrt:lcidtoname_downlevel.obj
 0002:00009dc0       ??_C@_1M@NIDIIPGF@?$AAe?$AAn?$AA?9?$AAb?$AAz?$AA?$AA@ 1006cdc0     libucrt:lcidtoname_downlevel.obj
 0002:00009dd0       ??_C@_1M@JEHMIMFO@?$AAe?$AAn?$AA?9?$AAc?$AAa?$AA?$AA@ 1006cdd0     libucrt:lcidtoname_downlevel.obj
 0002:00009de0       ??_C@_1M@IGMJCDLA@?$AAe?$AAn?$AA?9?$AAc?$AAb?$AA?$AA@ 1006cde0     libucrt:lcidtoname_downlevel.obj
 0002:00009df0       ??_C@_1M@BNFIGBKG@?$AAe?$AAn?$AA?9?$AAg?$AAb?$AA?$AA@ 1006cdf0     libucrt:lcidtoname_downlevel.obj
 0002:00009e00       ??_C@_1M@LKIFDIGP@?$AAe?$AAn?$AA?9?$AAi?$AAe?$AA?$AA@ 1006ce00     libucrt:lcidtoname_downlevel.obj
 0002:00009e10       ??_C@_1M@PJKFGCCO@?$AAe?$AAn?$AA?9?$AAj?$AAm?$AA?$AA@ 1006ce10     libucrt:lcidtoname_downlevel.obj
 0002:00009e20       ??_C@_1M@KPPKEPBO@?$AAe?$AAn?$AA?9?$AAn?$AAz?$AA?$AA@ 1006ce20     libucrt:lcidtoname_downlevel.obj
 0002:00009e30       ??_C@_1M@GMDGLDOB@?$AAe?$AAn?$AA?9?$AAp?$AAh?$AA?$AA@ 1006ce30     libucrt:lcidtoname_downlevel.obj
 0002:00009e40       ??_C@_1M@ONGIBJNA@?$AAe?$AAn?$AA?9?$AAt?$AAt?$AA?$AA@ 1006ce40     libucrt:lcidtoname_downlevel.obj
 0002:00009e50       ??_C@_1M@LLODPCMM@?$AAe?$AAn?$AA?9?$AAu?$AAs?$AA?$AA@ 1006ce50     libucrt:lcidtoname_downlevel.obj
 0002:00009e60       ??_C@_1M@LAKFNPAN@?$AAe?$AAn?$AA?9?$AAz?$AAa?$AA?$AA@ 1006ce60     libucrt:lcidtoname_downlevel.obj
 0002:00009e70       ??_C@_1M@MFNHNHEO@?$AAe?$AAn?$AA?9?$AAz?$AAw?$AA?$AA@ 1006ce70     libucrt:lcidtoname_downlevel.obj
 0002:00009e80       ??_C@_1M@EJEINPHM@?$AAe?$AAs?$AA?9?$AAa?$AAr?$AA?$AA@ 1006ce80     libucrt:lcidtoname_downlevel.obj
 0002:00009e90       ??_C@_1M@GNKPCCJA@?$AAe?$AAs?$AA?9?$AAb?$AAo?$AA?$AA@ 1006ce90     libucrt:lcidtoname_downlevel.obj
 0002:00009ea0       ??_C@_1M@LEEGFONL@?$AAe?$AAs?$AA?9?$AAc?$AAl?$AA?$AA@ 1006cea0     libucrt:lcidtoname_downlevel.obj
 0002:00009eb0       ??_C@_1M@KGPDPBDF@?$AAe?$AAs?$AA?9?$AAc?$AAo?$AA?$AA@ 1006ceb0     libucrt:lcidtoname_downlevel.obj
 0002:00009ec0       ??_C@_1M@EIAHOHH@?$AAe?$AAs?$AA?9?$AAc?$AAr?$AA?$AA@ 1006cec0     libucrt:lcidtoname_downlevel.obj
 0002:00009ed0       ??_C@_1M@LLPGMBIN@?$AAe?$AAs?$AA?9?$AAd?$AAo?$AA?$AA@ 1006ced0     libucrt:lcidtoname_downlevel.obj
 0002:00009ee0       ??_C@_1M@DKHMKNJA@?$AAe?$AAs?$AA?9?$AAe?$AAc?$AA?$AA@ 1006cee0     libucrt:lcidtoname_downlevel.obj
 0002:00009ef0       ??_C@_1M@GKGFPKAP@?$AAe?$AAs?$AA?9?$AAe?$AAs?$AA?$AA@ 1006cef0     libucrt:lcidtoname_downlevel.obj
 0002:00009f00       ??_C@_1M@LKHKGDLN@?$AAe?$AAs?$AA?9?$AAg?$AAt?$AA?$AA@ 1006cf00     libucrt:lcidtoname_downlevel.obj
 0002:00009f10       ??_C@_1M@HEIIGGJD@?$AAe?$AAs?$AA?9?$AAh?$AAn?$AA?$AA@ 1006cf10     libucrt:lcidtoname_downlevel.obj
 0002:00009f20       ??_C@_1M@FBDHPPGD@?$AAe?$AAs?$AA?9?$AAm?$AAx?$AA?$AA@ 1006cf20     libucrt:lcidtoname_downlevel.obj
 0002:00009f30       ??_C@_1M@DPAGLNDH@?$AAe?$AAs?$AA?9?$AAn?$AAi?$AA?$AA@ 1006cf30     libucrt:lcidtoname_downlevel.obj
 0002:00009f40       ??_C@_1M@MDGOPGDD@?$AAe?$AAs?$AA?9?$AAp?$AAa?$AA?$AA@ 1006cf40     libucrt:lcidtoname_downlevel.obj
 0002:00009f50       ??_C@_1M@EMAMGBGE@?$AAe?$AAs?$AA?9?$AAp?$AAe?$AA?$AA@ 1006cf50     libucrt:lcidtoname_downlevel.obj
 0002:00009f60       ??_C@_1M@IBMCAOEC@?$AAe?$AAs?$AA?9?$AAp?$AAr?$AA?$AA@ 1006cf60     libucrt:lcidtoname_downlevel.obj
 0002:00009f70       ??_C@_1M@FGMDIJED@?$AAe?$AAs?$AA?9?$AAp?$AAy?$AA?$AA@ 1006cf70     libucrt:lcidtoname_downlevel.obj
 0002:00009f80       ??_C@_1M@IIDEOLLL@?$AAe?$AAs?$AA?9?$AAs?$AAv?$AA?$AA@ 1006cf80     libucrt:lcidtoname_downlevel.obj
 0002:00009f90       ??_C@_1M@GAOBIPA@?$AAe?$AAs?$AA?9?$AAu?$AAy?$AA?$AA@ 1006cf90     libucrt:lcidtoname_downlevel.obj
 0002:00009fa0       ??_C@_1M@JKFFICHJ@?$AAe?$AAs?$AA?9?$AAv?$AAe?$AA?$AA@ 1006cfa0     libucrt:lcidtoname_downlevel.obj
 0002:00009fb0       ??_C@_1M@PNMLOJDF@?$AAe?$AAt?$AA?9?$AAe?$AAe?$AA?$AA@ 1006cfb0     libucrt:lcidtoname_downlevel.obj
 0002:00009fc0       ??_C@_1M@GHHLIKEI@?$AAe?$AAu?$AA?9?$AAe?$AAs?$AA?$AA@ 1006cfc0     libucrt:lcidtoname_downlevel.obj
 0002:00009fd0       ??_C@_1M@PBNONODE@?$AAf?$AAa?$AA?9?$AAi?$AAr?$AA?$AA@ 1006cfd0     libucrt:lcidtoname_downlevel.obj
 0002:00009fe0       ??_C@_1M@JEEHPMIL@?$AAf?$AAi?$AA?9?$AAf?$AAi?$AA?$AA@ 1006cfe0     libucrt:lcidtoname_downlevel.obj
 0002:00009ff0       ??_C@_1M@LMDCNDBA@?$AAf?$AAo?$AA?9?$AAf?$AAo?$AA?$AA@ 1006cff0     libucrt:lcidtoname_downlevel.obj
 0002:0000a000       ??_C@_1M@JKEOHLDK@?$AAf?$AAr?$AA?9?$AAb?$AAe?$AA?$AA@ 1006d000     libucrt:lcidtoname_downlevel.obj
 0002:0000a010       ??_C@_1M@NOHADPMI@?$AAf?$AAr?$AA?9?$AAc?$AAa?$AA?$AA@ 1006d010     libucrt:lcidtoname_downlevel.obj
 0002:0000a020       ??_C@_1M@KDHIHAEC@?$AAf?$AAr?$AA?9?$AAc?$AAh?$AA?$AA@ 1006d020     libucrt:lcidtoname_downlevel.obj
 0002:0000a030       ??_C@_1M@MMBBFGAK@?$AAf?$AAr?$AA?9?$AAf?$AAr?$AA?$AA@ 1006d030     libucrt:lcidtoname_downlevel.obj
 0002:0000a040       ??_C@_1M@PAFNENNF@?$AAf?$AAr?$AA?9?$AAl?$AAu?$AA?$AA@ 1006d040     libucrt:lcidtoname_downlevel.obj
 0002:0000a050       ??_C@_1M@EOHDJGDD@?$AAf?$AAr?$AA?9?$AAm?$AAc?$AA?$AA@ 1006d050     libucrt:lcidtoname_downlevel.obj
 0002:0000a060       ??_C@_1M@FAPLLOPF@?$AAg?$AAl?$AA?9?$AAe?$AAs?$AA?$AA@ 1006d060     libucrt:lcidtoname_downlevel.obj
 0002:0000a070       ??_C@_1M@FOPBFLOO@?$AAg?$AAu?$AA?9?$AAi?$AAn?$AA?$AA@ 1006d070     libucrt:lcidtoname_downlevel.obj
 0002:0000a080       ??_C@_1M@KBMCINPM@?$AAh?$AAe?$AA?9?$AAi?$AAl?$AA?$AA@ 1006d080     libucrt:lcidtoname_downlevel.obj
